; Listing generated by Microsoft (R) Optimizing Compiler Version 15.00.30729.01 

	TITLE	g:\Max\Bastelstube\GitHub\FL-MoD-FLHook\plugins\playercntl_plugin\src\CargoDrop.cpp
	.686P
	.XMM
	include listing.inc
	.model	flat

INCLUDELIB MSVCRT
INCLUDELIB OLDNAMES

PUBLIC	?_Value@?$_Is_swap_move@U_Swap_move_tag@std@@@std@@2_NB ; std::_Is_swap_move<std::_Swap_move_tag>::_Value
PUBLIC	?collate@?$_Locbase@H@std@@2HB			; std::_Locbase<int>::collate
PUBLIC	?ctype@?$_Locbase@H@std@@2HB			; std::_Locbase<int>::ctype
PUBLIC	?monetary@?$_Locbase@H@std@@2HB			; std::_Locbase<int>::monetary
PUBLIC	?numeric@?$_Locbase@H@std@@2HB			; std::_Locbase<int>::numeric
PUBLIC	?time@?$_Locbase@H@std@@2HB			; std::_Locbase<int>::time
PUBLIC	?messages@?$_Locbase@H@std@@2HB			; std::_Locbase<int>::messages
PUBLIC	?all@?$_Locbase@H@std@@2HB			; std::_Locbase<int>::all
PUBLIC	?none@?$_Locbase@H@std@@2HB			; std::_Locbase<int>::none
PUBLIC	?skipws@?$_Iosb@H@std@@2W4_Fmtflags@12@B	; std::_Iosb<int>::skipws
PUBLIC	?unitbuf@?$_Iosb@H@std@@2W4_Fmtflags@12@B	; std::_Iosb<int>::unitbuf
PUBLIC	?uppercase@?$_Iosb@H@std@@2W4_Fmtflags@12@B	; std::_Iosb<int>::uppercase
PUBLIC	?showbase@?$_Iosb@H@std@@2W4_Fmtflags@12@B	; std::_Iosb<int>::showbase
PUBLIC	?showpoint@?$_Iosb@H@std@@2W4_Fmtflags@12@B	; std::_Iosb<int>::showpoint
PUBLIC	?showpos@?$_Iosb@H@std@@2W4_Fmtflags@12@B	; std::_Iosb<int>::showpos
PUBLIC	?left@?$_Iosb@H@std@@2W4_Fmtflags@12@B		; std::_Iosb<int>::left
PUBLIC	?right@?$_Iosb@H@std@@2W4_Fmtflags@12@B		; std::_Iosb<int>::right
PUBLIC	?internal@?$_Iosb@H@std@@2W4_Fmtflags@12@B	; std::_Iosb<int>::internal
PUBLIC	?dec@?$_Iosb@H@std@@2W4_Fmtflags@12@B		; std::_Iosb<int>::dec
PUBLIC	?oct@?$_Iosb@H@std@@2W4_Fmtflags@12@B		; std::_Iosb<int>::oct
PUBLIC	?hex@?$_Iosb@H@std@@2W4_Fmtflags@12@B		; std::_Iosb<int>::hex
PUBLIC	?scientific@?$_Iosb@H@std@@2W4_Fmtflags@12@B	; std::_Iosb<int>::scientific
PUBLIC	?fixed@?$_Iosb@H@std@@2W4_Fmtflags@12@B		; std::_Iosb<int>::fixed
PUBLIC	?hexfloat@?$_Iosb@H@std@@2W4_Fmtflags@12@B	; std::_Iosb<int>::hexfloat
PUBLIC	?boolalpha@?$_Iosb@H@std@@2W4_Fmtflags@12@B	; std::_Iosb<int>::boolalpha
PUBLIC	?_Stdio@?$_Iosb@H@std@@2W4_Fmtflags@12@B	; std::_Iosb<int>::_Stdio
PUBLIC	?adjustfield@?$_Iosb@H@std@@2W4_Fmtflags@12@B	; std::_Iosb<int>::adjustfield
PUBLIC	?basefield@?$_Iosb@H@std@@2W4_Fmtflags@12@B	; std::_Iosb<int>::basefield
PUBLIC	?floatfield@?$_Iosb@H@std@@2W4_Fmtflags@12@B	; std::_Iosb<int>::floatfield
PUBLIC	?goodbit@?$_Iosb@H@std@@2W4_Iostate@12@B	; std::_Iosb<int>::goodbit
PUBLIC	?eofbit@?$_Iosb@H@std@@2W4_Iostate@12@B		; std::_Iosb<int>::eofbit
PUBLIC	?failbit@?$_Iosb@H@std@@2W4_Iostate@12@B	; std::_Iosb<int>::failbit
PUBLIC	?badbit@?$_Iosb@H@std@@2W4_Iostate@12@B		; std::_Iosb<int>::badbit
PUBLIC	?_Hardfail@?$_Iosb@H@std@@2W4_Iostate@12@B	; std::_Iosb<int>::_Hardfail
PUBLIC	?in@?$_Iosb@H@std@@2W4_Openmode@12@B		; std::_Iosb<int>::in
PUBLIC	?out@?$_Iosb@H@std@@2W4_Openmode@12@B		; std::_Iosb<int>::out
PUBLIC	?ate@?$_Iosb@H@std@@2W4_Openmode@12@B		; std::_Iosb<int>::ate
PUBLIC	?app@?$_Iosb@H@std@@2W4_Openmode@12@B		; std::_Iosb<int>::app
PUBLIC	?trunc@?$_Iosb@H@std@@2W4_Openmode@12@B		; std::_Iosb<int>::trunc
PUBLIC	?_Nocreate@?$_Iosb@H@std@@2W4_Openmode@12@B	; std::_Iosb<int>::_Nocreate
PUBLIC	?_Noreplace@?$_Iosb@H@std@@2W4_Openmode@12@B	; std::_Iosb<int>::_Noreplace
PUBLIC	?binary@?$_Iosb@H@std@@2W4_Openmode@12@B	; std::_Iosb<int>::binary
PUBLIC	?beg@?$_Iosb@H@std@@2W4_Seekdir@12@B		; std::_Iosb<int>::beg
PUBLIC	?cur@?$_Iosb@H@std@@2W4_Seekdir@12@B		; std::_Iosb<int>::cur
PUBLIC	?end@?$_Iosb@H@std@@2W4_Seekdir@12@B		; std::_Iosb<int>::end
PUBLIC	?value@?$integral_constant@_N$0A@@tr1@std@@2_NB	; std::tr1::integral_constant<bool,0>::value
PUBLIC	?value@?$integral_constant@_N$00@tr1@std@@2_NB	; std::tr1::integral_constant<bool,1>::value
PUBLIC	?set_bReportDisconnectingPlayers@CargoDrop@@3_NA ; CargoDrop::set_bReportDisconnectingPlayers
PUBLIC	?set_bKillDisconnectingPlayers@CargoDrop@@3_NA	; CargoDrop::set_bKillDisconnectingPlayers
PUBLIC	?set_bLootDisconnectingPlayers@CargoDrop@@3_NA	; CargoDrop::set_bLootDisconnectingPlayers
_BSS	SEGMENT
?set_bKillDisconnectingPlayers@CargoDrop@@3_NA DB 01H DUP (?) ; CargoDrop::set_bKillDisconnectingPlayers
	ALIGN	4

_set_iLootCrateID DD 01H DUP (?)
_set_iHullItem1ID DD 01H DUP (?)
_set_iHullItem2ID DD 01H DUP (?)
_BSS	ENDS
;	COMDAT ?value@?$integral_constant@_N$00@tr1@std@@2_NB
CONST	SEGMENT
?value@?$integral_constant@_N$00@tr1@std@@2_NB DB 01H	; std::tr1::integral_constant<bool,1>::value
CONST	ENDS
;	COMDAT ?value@?$integral_constant@_N$0A@@tr1@std@@2_NB
CONST	SEGMENT
?value@?$integral_constant@_N$0A@@tr1@std@@2_NB DB 00H	; std::tr1::integral_constant<bool,0>::value
CONST	ENDS
;	COMDAT ?end@?$_Iosb@H@std@@2W4_Seekdir@12@B
CONST	SEGMENT
?end@?$_Iosb@H@std@@2W4_Seekdir@12@B DD 02H		; std::_Iosb<int>::end
CONST	ENDS
;	COMDAT ?cur@?$_Iosb@H@std@@2W4_Seekdir@12@B
CONST	SEGMENT
?cur@?$_Iosb@H@std@@2W4_Seekdir@12@B DD 01H		; std::_Iosb<int>::cur
CONST	ENDS
;	COMDAT ?beg@?$_Iosb@H@std@@2W4_Seekdir@12@B
CONST	SEGMENT
?beg@?$_Iosb@H@std@@2W4_Seekdir@12@B DD 00H		; std::_Iosb<int>::beg
CONST	ENDS
;	COMDAT ?binary@?$_Iosb@H@std@@2W4_Openmode@12@B
CONST	SEGMENT
?binary@?$_Iosb@H@std@@2W4_Openmode@12@B DD 020H	; std::_Iosb<int>::binary
CONST	ENDS
;	COMDAT ?_Noreplace@?$_Iosb@H@std@@2W4_Openmode@12@B
CONST	SEGMENT
?_Noreplace@?$_Iosb@H@std@@2W4_Openmode@12@B DD 080H	; std::_Iosb<int>::_Noreplace
CONST	ENDS
;	COMDAT ?_Nocreate@?$_Iosb@H@std@@2W4_Openmode@12@B
CONST	SEGMENT
?_Nocreate@?$_Iosb@H@std@@2W4_Openmode@12@B DD 040H	; std::_Iosb<int>::_Nocreate
CONST	ENDS
;	COMDAT ?trunc@?$_Iosb@H@std@@2W4_Openmode@12@B
CONST	SEGMENT
?trunc@?$_Iosb@H@std@@2W4_Openmode@12@B DD 010H		; std::_Iosb<int>::trunc
CONST	ENDS
;	COMDAT ?app@?$_Iosb@H@std@@2W4_Openmode@12@B
CONST	SEGMENT
?app@?$_Iosb@H@std@@2W4_Openmode@12@B DD 08H		; std::_Iosb<int>::app
CONST	ENDS
;	COMDAT ?ate@?$_Iosb@H@std@@2W4_Openmode@12@B
CONST	SEGMENT
?ate@?$_Iosb@H@std@@2W4_Openmode@12@B DD 04H		; std::_Iosb<int>::ate
CONST	ENDS
;	COMDAT ?out@?$_Iosb@H@std@@2W4_Openmode@12@B
CONST	SEGMENT
?out@?$_Iosb@H@std@@2W4_Openmode@12@B DD 02H		; std::_Iosb<int>::out
CONST	ENDS
;	COMDAT ?in@?$_Iosb@H@std@@2W4_Openmode@12@B
CONST	SEGMENT
?in@?$_Iosb@H@std@@2W4_Openmode@12@B DD 01H		; std::_Iosb<int>::in
CONST	ENDS
;	COMDAT ?_Hardfail@?$_Iosb@H@std@@2W4_Iostate@12@B
CONST	SEGMENT
?_Hardfail@?$_Iosb@H@std@@2W4_Iostate@12@B DD 010H	; std::_Iosb<int>::_Hardfail
CONST	ENDS
;	COMDAT ?badbit@?$_Iosb@H@std@@2W4_Iostate@12@B
CONST	SEGMENT
?badbit@?$_Iosb@H@std@@2W4_Iostate@12@B DD 04H		; std::_Iosb<int>::badbit
CONST	ENDS
;	COMDAT ?failbit@?$_Iosb@H@std@@2W4_Iostate@12@B
CONST	SEGMENT
?failbit@?$_Iosb@H@std@@2W4_Iostate@12@B DD 02H		; std::_Iosb<int>::failbit
CONST	ENDS
;	COMDAT ?eofbit@?$_Iosb@H@std@@2W4_Iostate@12@B
CONST	SEGMENT
?eofbit@?$_Iosb@H@std@@2W4_Iostate@12@B DD 01H		; std::_Iosb<int>::eofbit
CONST	ENDS
;	COMDAT ?goodbit@?$_Iosb@H@std@@2W4_Iostate@12@B
CONST	SEGMENT
?goodbit@?$_Iosb@H@std@@2W4_Iostate@12@B DD 00H		; std::_Iosb<int>::goodbit
CONST	ENDS
;	COMDAT ?floatfield@?$_Iosb@H@std@@2W4_Fmtflags@12@B
CONST	SEGMENT
?floatfield@?$_Iosb@H@std@@2W4_Fmtflags@12@B DD 03000H	; std::_Iosb<int>::floatfield
CONST	ENDS
;	COMDAT ?basefield@?$_Iosb@H@std@@2W4_Fmtflags@12@B
CONST	SEGMENT
?basefield@?$_Iosb@H@std@@2W4_Fmtflags@12@B DD 0e00H	; std::_Iosb<int>::basefield
CONST	ENDS
;	COMDAT ?adjustfield@?$_Iosb@H@std@@2W4_Fmtflags@12@B
CONST	SEGMENT
?adjustfield@?$_Iosb@H@std@@2W4_Fmtflags@12@B DD 01c0H	; std::_Iosb<int>::adjustfield
CONST	ENDS
;	COMDAT ?_Stdio@?$_Iosb@H@std@@2W4_Fmtflags@12@B
CONST	SEGMENT
?_Stdio@?$_Iosb@H@std@@2W4_Fmtflags@12@B DD 08000H	; std::_Iosb<int>::_Stdio
CONST	ENDS
;	COMDAT ?boolalpha@?$_Iosb@H@std@@2W4_Fmtflags@12@B
CONST	SEGMENT
?boolalpha@?$_Iosb@H@std@@2W4_Fmtflags@12@B DD 04000H	; std::_Iosb<int>::boolalpha
CONST	ENDS
;	COMDAT ?hexfloat@?$_Iosb@H@std@@2W4_Fmtflags@12@B
CONST	SEGMENT
?hexfloat@?$_Iosb@H@std@@2W4_Fmtflags@12@B DD 03000H	; std::_Iosb<int>::hexfloat
CONST	ENDS
;	COMDAT ?fixed@?$_Iosb@H@std@@2W4_Fmtflags@12@B
CONST	SEGMENT
?fixed@?$_Iosb@H@std@@2W4_Fmtflags@12@B DD 02000H	; std::_Iosb<int>::fixed
CONST	ENDS
;	COMDAT ?scientific@?$_Iosb@H@std@@2W4_Fmtflags@12@B
CONST	SEGMENT
?scientific@?$_Iosb@H@std@@2W4_Fmtflags@12@B DD 01000H	; std::_Iosb<int>::scientific
CONST	ENDS
;	COMDAT ?hex@?$_Iosb@H@std@@2W4_Fmtflags@12@B
CONST	SEGMENT
?hex@?$_Iosb@H@std@@2W4_Fmtflags@12@B DD 0800H		; std::_Iosb<int>::hex
CONST	ENDS
;	COMDAT ?oct@?$_Iosb@H@std@@2W4_Fmtflags@12@B
CONST	SEGMENT
?oct@?$_Iosb@H@std@@2W4_Fmtflags@12@B DD 0400H		; std::_Iosb<int>::oct
CONST	ENDS
;	COMDAT ?dec@?$_Iosb@H@std@@2W4_Fmtflags@12@B
CONST	SEGMENT
?dec@?$_Iosb@H@std@@2W4_Fmtflags@12@B DD 0200H		; std::_Iosb<int>::dec
CONST	ENDS
;	COMDAT ?internal@?$_Iosb@H@std@@2W4_Fmtflags@12@B
CONST	SEGMENT
?internal@?$_Iosb@H@std@@2W4_Fmtflags@12@B DD 0100H	; std::_Iosb<int>::internal
CONST	ENDS
;	COMDAT ?right@?$_Iosb@H@std@@2W4_Fmtflags@12@B
CONST	SEGMENT
?right@?$_Iosb@H@std@@2W4_Fmtflags@12@B DD 080H		; std::_Iosb<int>::right
CONST	ENDS
;	COMDAT ?left@?$_Iosb@H@std@@2W4_Fmtflags@12@B
CONST	SEGMENT
?left@?$_Iosb@H@std@@2W4_Fmtflags@12@B DD 040H		; std::_Iosb<int>::left
CONST	ENDS
;	COMDAT ?showpos@?$_Iosb@H@std@@2W4_Fmtflags@12@B
CONST	SEGMENT
?showpos@?$_Iosb@H@std@@2W4_Fmtflags@12@B DD 020H	; std::_Iosb<int>::showpos
CONST	ENDS
;	COMDAT ?showpoint@?$_Iosb@H@std@@2W4_Fmtflags@12@B
CONST	SEGMENT
?showpoint@?$_Iosb@H@std@@2W4_Fmtflags@12@B DD 010H	; std::_Iosb<int>::showpoint
CONST	ENDS
;	COMDAT ?showbase@?$_Iosb@H@std@@2W4_Fmtflags@12@B
CONST	SEGMENT
?showbase@?$_Iosb@H@std@@2W4_Fmtflags@12@B DD 08H	; std::_Iosb<int>::showbase
CONST	ENDS
;	COMDAT ?uppercase@?$_Iosb@H@std@@2W4_Fmtflags@12@B
CONST	SEGMENT
?uppercase@?$_Iosb@H@std@@2W4_Fmtflags@12@B DD 04H	; std::_Iosb<int>::uppercase
CONST	ENDS
;	COMDAT ?unitbuf@?$_Iosb@H@std@@2W4_Fmtflags@12@B
CONST	SEGMENT
?unitbuf@?$_Iosb@H@std@@2W4_Fmtflags@12@B DD 02H	; std::_Iosb<int>::unitbuf
CONST	ENDS
;	COMDAT ?skipws@?$_Iosb@H@std@@2W4_Fmtflags@12@B
CONST	SEGMENT
?skipws@?$_Iosb@H@std@@2W4_Fmtflags@12@B DD 01H		; std::_Iosb<int>::skipws
CONST	ENDS
;	COMDAT ?none@?$_Locbase@H@std@@2HB
CONST	SEGMENT
?none@?$_Locbase@H@std@@2HB DD 00H			; std::_Locbase<int>::none
CONST	ENDS
;	COMDAT ?all@?$_Locbase@H@std@@2HB
CONST	SEGMENT
?all@?$_Locbase@H@std@@2HB DD 03fH			; std::_Locbase<int>::all
CONST	ENDS
;	COMDAT ?messages@?$_Locbase@H@std@@2HB
CONST	SEGMENT
?messages@?$_Locbase@H@std@@2HB DD 020H			; std::_Locbase<int>::messages
CONST	ENDS
;	COMDAT ?time@?$_Locbase@H@std@@2HB
CONST	SEGMENT
?time@?$_Locbase@H@std@@2HB DD 010H			; std::_Locbase<int>::time
CONST	ENDS
;	COMDAT ?numeric@?$_Locbase@H@std@@2HB
CONST	SEGMENT
?numeric@?$_Locbase@H@std@@2HB DD 08H			; std::_Locbase<int>::numeric
CONST	ENDS
;	COMDAT ?monetary@?$_Locbase@H@std@@2HB
CONST	SEGMENT
?monetary@?$_Locbase@H@std@@2HB DD 04H			; std::_Locbase<int>::monetary
CONST	ENDS
;	COMDAT ?ctype@?$_Locbase@H@std@@2HB
CONST	SEGMENT
?ctype@?$_Locbase@H@std@@2HB DD 02H			; std::_Locbase<int>::ctype
CONST	ENDS
;	COMDAT ?collate@?$_Locbase@H@std@@2HB
CONST	SEGMENT
?collate@?$_Locbase@H@std@@2HB DD 01H			; std::_Locbase<int>::collate
CONST	ENDS
;	COMDAT ?_Value@?$_Is_swap_move@U_Swap_move_tag@std@@@std@@2_NB
CONST	SEGMENT
?_Value@?$_Is_swap_move@U_Swap_move_tag@std@@@std@@2_NB DB 01H ; std::_Is_swap_move<std::_Swap_move_tag>::_Value
CONST	ENDS
_DATA	SEGMENT
__bad_alloc_Message DD FLAT:$SG63979
?set_bReportDisconnectingPlayers@CargoDrop@@3_NA DB 01H	; CargoDrop::set_bReportDisconnectingPlayers
?set_bLootDisconnectingPlayers@CargoDrop@@3_NA DB 01H	; CargoDrop::set_bLootDisconnectingPlayers
	ORG $+2
_set_fHullFct DD 03dcccccdr			; 0.1
_set_fDisconnectingPlayersRange DD 0459c4000r	; 5000
_DATA	ENDS
CONST	SEGMENT
$SG63979 DB	'bad allocation', 00H
	ORG $+1
$SG139976 DB	'%', 00H, 'p', 00H, 'l', 00H, 'a', 00H, 'y', 00H, 'e', 00H
	DB	'r', 00H, ' ', 00H, 'i', 00H, 's', 00H, ' ', 00H, 'a', 00H, 't'
	DB	00H, 't', 00H, 'e', 00H, 'm', 00H, 'p', 00H, 't', 00H, 'i', 00H
	DB	'n', 00H, 'g', 00H, ' ', 00H, 't', 00H, 'o', 00H, ' ', 00H, 'e'
	DB	00H, 'n', 00H, 'g', 00H, 'a', 00H, 'g', 00H, 'e', 00H, ' ', 00H
	DB	'c', 00H, 'l', 00H, 'o', 00H, 'a', 00H, 'k', 00H, 'i', 00H, 'n'
	DB	00H, 'g', 00H, ' ', 00H, 'd', 00H, 'e', 00H, 'v', 00H, 'i', 00H
	DB	'c', 00H, 'e', 00H, 00H, 00H
$SG141269 DB	'ReportDisconnectingPlayers', 00H
	ORG $+1
$SG141270 DB	'General', 00H
$SG141273 DB	'KillDisconnectingPlayers', 00H
	ORG $+3
$SG141274 DB	'General', 00H
$SG141277 DB	'LootDisconnectingPlayers', 00H
	ORG $+3
$SG141278 DB	'General', 00H
$SG141281 DB	'DisconnectingPlayersRange', 00H
	ORG $+2
$SG141282 DB	'General', 00H
$SG141288 DB	'0.1', 00H
$SG141289 DB	'HullDropFactor', 00H
	ORG $+1
$SG141290 DB	'General', 00H
$SG141295 DB	'lootcrate_ast_loot_metal', 00H
	ORG $+3
$SG141296 DB	'CargoDropContainer', 00H
	ORG $+1
$SG141297 DB	'General', 00H
$SG141302 DB	'commodity_super_alloys', 00H
	ORG $+1
$SG141303 DB	'HullDrop1NickName', 00H
	ORG $+2
$SG141304 DB	'General', 00H
$SG141309 DB	'commodity_engine_components', 00H
$SG141310 DB	'HullDrop2NickName', 00H
	ORG $+2
$SG141311 DB	'General', 00H
$SG141317 DB	'%player is attempting to engage cloaking device', 00H
$SG141318 DB	'DisconnectMsg', 00H
	ORG $+2
$SG141319 DB	'General', 00H
$SG141841 DB	'NoLootItems', 00H
$SG142149 DB	'%', 00H, 't', 00H, 'i', 00H, 'm', 00H, 'e', 00H, 00H, 00H
$SG142152 DB	'%', 00H, 'p', 00H, 'l', 00H, 'a', 00H, 'y', 00H, 'e', 00H
	DB	'r', 00H, 00H, 00H
$SG142970 DB	'N', 00H, 'O', 00H, 'T', 00H, 'I', 00H, 'C', 00H, 'E', 00H
	DB	':', 00H, ' ', 00H, 'p', 00H, 'l', 00H, 'a', 00H, 'y', 00H, 'e'
	DB	00H, 'r', 00H, ' ', 00H, 'c', 00H, 'o', 00H, 'n', 00H, 't', 00H
	DB	'r', 00H, 'o', 00H, 'l', 00H, ' ', 00H, 'c', 00H, 'a', 00H, 'r'
	DB	00H, 'g', 00H, 'o', 00H, ' ', 00H, 'd', 00H, 'r', 00H, 'o', 00H
	DB	'p', 00H, ' ', 00H, 'i', 00H, 'n', 00H, ' ', 00H, 's', 00H, 'y'
	DB	00H, 's', 00H, 't', 00H, 'e', 00H, 'm', 00H, ' ', 00H, '%', 00H
	DB	'0', 00H, '8', 00H, 'x', 00H, ' ', 00H, 'a', 00H, 't', 00H, ' '
	DB	00H, '%', 00H, 'f', 00H, ',', 00H, '%', 00H, 'f', 00H, ',', 00H
	DB	'%', 00H, 'f', 00H, ' ', 00H, 'f', 00H, 'o', 00H, 'r', 00H, ' '
	DB	00H, 's', 00H, 'h', 00H, 'i', 00H, 'p', 00H, ' ', 00H, 's', 00H
	DB	'i', 00H, 'z', 00H, 'e', 00H, ' ', 00H, 'o', 00H, 'f', 00H, ' '
	DB	00H, 'i', 00H, 'S', 00H, 'h', 00H, 'i', 00H, 'p', 00H, 'S', 00H
	DB	'i', 00H, 'z', 00H, 'e', 00H, 'E', 00H, 's', 00H, 't', 00H, '='
	DB	00H, '%', 00H, 'd', 00H, ' ', 00H, 'i', 00H, 'H', 00H, 'u', 00H
	DB	'l', 00H, 'l', 00H, 'D', 00H, 'r', 00H, 'o', 00H, 'p', 00H, '='
	DB	00H, '%', 00H, 'd', 00H, 0aH, 00H, 00H, 00H
CONST	ENDS
PUBLIC	??1?$list@UINISECTIONVALUE@@V?$allocator@UINISECTIONVALUE@@@std@@@std@@QAE@XZ ; std::list<INISECTIONVALUE,std::allocator<INISECTIONVALUE> >::~list<INISECTIONVALUE,std::allocator<INISECTIONVALUE> >
PUBLIC	??A?$map@IIU?$less@I@std@@V?$allocator@U?$pair@$$CBII@std@@@2@@std@@QAEAAIABI@Z ; std::map<unsigned int,unsigned int,std::less<unsigned int>,std::allocator<std::pair<unsigned int const ,unsigned int> > >::operator[]
PUBLIC	??C?$_Iterator@$00@?$list@UINISECTIONVALUE@@V?$allocator@UINISECTIONVALUE@@@std@@@std@@QBEPAUINISECTIONVALUE@@XZ ; std::list<INISECTIONVALUE,std::allocator<INISECTIONVALUE> >::_Iterator<1>::operator->
PUBLIC	??9?$_Const_iterator@$00@?$list@UINISECTIONVALUE@@V?$allocator@UINISECTIONVALUE@@@std@@@std@@QBE_NABV012@@Z ; std::list<INISECTIONVALUE,std::allocator<INISECTIONVALUE> >::_Const_iterator<1>::operator!=
PUBLIC	?end@?$list@UINISECTIONVALUE@@V?$allocator@UINISECTIONVALUE@@@std@@@std@@QAE?AV?$_Iterator@$00@12@XZ ; std::list<INISECTIONVALUE,std::allocator<INISECTIONVALUE> >::end
PUBLIC	??E?$_Iterator@$00@?$list@UINISECTIONVALUE@@V?$allocator@UINISECTIONVALUE@@@std@@@std@@QAE?AV012@H@Z ; std::list<INISECTIONVALUE,std::allocator<INISECTIONVALUE> >::_Iterator<1>::operator++
PUBLIC	?begin@?$list@UINISECTIONVALUE@@V?$allocator@UINISECTIONVALUE@@@std@@@std@@QAE?AV?$_Iterator@$00@12@XZ ; std::list<INISECTIONVALUE,std::allocator<INISECTIONVALUE> >::begin
PUBLIC	?clear@?$_Tree@V?$_Tmap_traits@IIU?$less@I@std@@V?$allocator@U?$pair@$$CBII@std@@@2@$0A@@std@@@std@@QAEXXZ ; std::_Tree<std::_Tmap_traits<unsigned int,unsigned int,std::less<unsigned int>,std::allocator<std::pair<unsigned int const ,unsigned int> >,0> >::clear
PUBLIC	??0?$list@UINISECTIONVALUE@@V?$allocator@UINISECTIONVALUE@@@std@@@std@@QAE@XZ ; std::list<INISECTIONVALUE,std::allocator<INISECTIONVALUE> >::list<INISECTIONVALUE,std::allocator<INISECTIONVALUE> >
PUBLIC	__real@459c4000
PUBLIC	?LoadSettings@CargoDrop@@YAXABV?$basic_string@DU?$char_traits@D@std@@V?$allocator@D@2@@std@@@Z ; CargoDrop::LoadSettings
EXTRN	__imp_?IniGetSection@@YAXABV?$basic_string@DU?$char_traits@D@std@@V?$allocator@D@2@@std@@0AAV?$list@UINISECTIONVALUE@@V?$allocator@UINISECTIONVALUE@@@std@@@2@@Z:PROC
EXTRN	__imp_??4?$basic_string@GU?$char_traits@G@std@@V?$allocator@G@2@@std@@QAEAAV01@ABV01@@Z:PROC
EXTRN	__imp_?CreateID@@YAIPBD@Z:PROC
EXTRN	__imp_?c_str@?$basic_string@DU?$char_traits@D@std@@V?$allocator@D@2@@std@@QBEPBDXZ:PROC
EXTRN	__imp_??1?$basic_string@GU?$char_traits@G@std@@V?$allocator@G@2@@std@@QAE@XZ:PROC
EXTRN	__imp_?ToFloat@@YAMABV?$basic_string@GU?$char_traits@G@std@@V?$allocator@G@2@@std@@@Z:PROC
EXTRN	__imp_?stows@@YA?AV?$basic_string@GU?$char_traits@G@std@@V?$allocator@G@2@@std@@ABV?$basic_string@DU?$char_traits@D@std@@V?$allocator@D@2@@2@@Z:PROC
EXTRN	__imp_?IniGetS@@YA?AV?$basic_string@DU?$char_traits@D@std@@V?$allocator@D@2@@std@@ABV12@000@Z:PROC
EXTRN	__imp_?IniGetF@@YAMABV?$basic_string@DU?$char_traits@D@std@@V?$allocator@D@2@@std@@00M@Z:PROC
EXTRN	__imp_??1?$basic_string@DU?$char_traits@D@std@@V?$allocator@D@2@@std@@QAE@XZ:PROC
EXTRN	__imp_?IniGetB@@YA_NABV?$basic_string@DU?$char_traits@D@std@@V?$allocator@D@2@@std@@00_N@Z:PROC
EXTRN	__imp_??0?$basic_string@DU?$char_traits@D@std@@V?$allocator@D@2@@std@@QAE@PBD@Z:PROC
EXTRN	___security_cookie:DWORD
EXTRN	___CxxFrameHandler3:PROC
EXTRN	@__security_check_cookie@4:PROC
EXTRN	__fltused:DWORD
;	COMDAT __real@459c4000
; File g:\max\bastelstube\github\fl-mod-flhook\plugins\playercntl_plugin\src\cargodrop.cpp
CONST	SEGMENT
__real@459c4000 DD 0459c4000r			; 5000
CONST	ENDS
xdata$x	SEGMENT
__ehfuncinfo$?LoadSettings@CargoDrop@@YAXABV?$basic_string@DU?$char_traits@D@std@@V?$allocator@D@2@@std@@@Z DD 019930522H
	DD	020H
	DD	FLAT:__unwindtable$?LoadSettings@CargoDrop@@YAXABV?$basic_string@DU?$char_traits@D@std@@V?$allocator@D@2@@std@@@Z
	DD	2 DUP(00H)
	DD	2 DUP(00H)
	DD	00H
	DD	00H
__unwindtable$?LoadSettings@CargoDrop@@YAXABV?$basic_string@DU?$char_traits@D@std@@V?$allocator@D@2@@std@@@Z DD 0ffffffffH
	DD	FLAT:__unwindfunclet$?LoadSettings@CargoDrop@@YAXABV?$basic_string@DU?$char_traits@D@std@@V?$allocator@D@2@@std@@@Z$0
	DD	00H
	DD	FLAT:__unwindfunclet$?LoadSettings@CargoDrop@@YAXABV?$basic_string@DU?$char_traits@D@std@@V?$allocator@D@2@@std@@@Z$1
	DD	0ffffffffH
	DD	FLAT:__unwindfunclet$?LoadSettings@CargoDrop@@YAXABV?$basic_string@DU?$char_traits@D@std@@V?$allocator@D@2@@std@@@Z$2
	DD	02H
	DD	FLAT:__unwindfunclet$?LoadSettings@CargoDrop@@YAXABV?$basic_string@DU?$char_traits@D@std@@V?$allocator@D@2@@std@@@Z$3
	DD	0ffffffffH
	DD	FLAT:__unwindfunclet$?LoadSettings@CargoDrop@@YAXABV?$basic_string@DU?$char_traits@D@std@@V?$allocator@D@2@@std@@@Z$4
	DD	04H
	DD	FLAT:__unwindfunclet$?LoadSettings@CargoDrop@@YAXABV?$basic_string@DU?$char_traits@D@std@@V?$allocator@D@2@@std@@@Z$5
	DD	0ffffffffH
	DD	FLAT:__unwindfunclet$?LoadSettings@CargoDrop@@YAXABV?$basic_string@DU?$char_traits@D@std@@V?$allocator@D@2@@std@@@Z$6
	DD	06H
	DD	FLAT:__unwindfunclet$?LoadSettings@CargoDrop@@YAXABV?$basic_string@DU?$char_traits@D@std@@V?$allocator@D@2@@std@@@Z$7
	DD	0ffffffffH
	DD	FLAT:__unwindfunclet$?LoadSettings@CargoDrop@@YAXABV?$basic_string@DU?$char_traits@D@std@@V?$allocator@D@2@@std@@@Z$8
	DD	08H
	DD	FLAT:__unwindfunclet$?LoadSettings@CargoDrop@@YAXABV?$basic_string@DU?$char_traits@D@std@@V?$allocator@D@2@@std@@@Z$9
	DD	09H
	DD	FLAT:__unwindfunclet$?LoadSettings@CargoDrop@@YAXABV?$basic_string@DU?$char_traits@D@std@@V?$allocator@D@2@@std@@@Z$10
	DD	0aH
	DD	FLAT:__unwindfunclet$?LoadSettings@CargoDrop@@YAXABV?$basic_string@DU?$char_traits@D@std@@V?$allocator@D@2@@std@@@Z$11
	DD	0bH
	DD	FLAT:__unwindfunclet$?LoadSettings@CargoDrop@@YAXABV?$basic_string@DU?$char_traits@D@std@@V?$allocator@D@2@@std@@@Z$12
	DD	0ffffffffH
	DD	FLAT:__unwindfunclet$?LoadSettings@CargoDrop@@YAXABV?$basic_string@DU?$char_traits@D@std@@V?$allocator@D@2@@std@@@Z$13
	DD	0dH
	DD	FLAT:__unwindfunclet$?LoadSettings@CargoDrop@@YAXABV?$basic_string@DU?$char_traits@D@std@@V?$allocator@D@2@@std@@@Z$14
	DD	0eH
	DD	FLAT:__unwindfunclet$?LoadSettings@CargoDrop@@YAXABV?$basic_string@DU?$char_traits@D@std@@V?$allocator@D@2@@std@@@Z$15
	DD	0fH
	DD	FLAT:__unwindfunclet$?LoadSettings@CargoDrop@@YAXABV?$basic_string@DU?$char_traits@D@std@@V?$allocator@D@2@@std@@@Z$16
	DD	0ffffffffH
	DD	FLAT:__unwindfunclet$?LoadSettings@CargoDrop@@YAXABV?$basic_string@DU?$char_traits@D@std@@V?$allocator@D@2@@std@@@Z$17
	DD	011H
	DD	FLAT:__unwindfunclet$?LoadSettings@CargoDrop@@YAXABV?$basic_string@DU?$char_traits@D@std@@V?$allocator@D@2@@std@@@Z$18
	DD	012H
	DD	FLAT:__unwindfunclet$?LoadSettings@CargoDrop@@YAXABV?$basic_string@DU?$char_traits@D@std@@V?$allocator@D@2@@std@@@Z$19
	DD	013H
	DD	FLAT:__unwindfunclet$?LoadSettings@CargoDrop@@YAXABV?$basic_string@DU?$char_traits@D@std@@V?$allocator@D@2@@std@@@Z$20
	DD	0ffffffffH
	DD	FLAT:__unwindfunclet$?LoadSettings@CargoDrop@@YAXABV?$basic_string@DU?$char_traits@D@std@@V?$allocator@D@2@@std@@@Z$21
	DD	015H
	DD	FLAT:__unwindfunclet$?LoadSettings@CargoDrop@@YAXABV?$basic_string@DU?$char_traits@D@std@@V?$allocator@D@2@@std@@@Z$22
	DD	016H
	DD	FLAT:__unwindfunclet$?LoadSettings@CargoDrop@@YAXABV?$basic_string@DU?$char_traits@D@std@@V?$allocator@D@2@@std@@@Z$23
	DD	017H
	DD	FLAT:__unwindfunclet$?LoadSettings@CargoDrop@@YAXABV?$basic_string@DU?$char_traits@D@std@@V?$allocator@D@2@@std@@@Z$24
	DD	0ffffffffH
	DD	FLAT:__unwindfunclet$?LoadSettings@CargoDrop@@YAXABV?$basic_string@DU?$char_traits@D@std@@V?$allocator@D@2@@std@@@Z$25
	DD	019H
	DD	FLAT:__unwindfunclet$?LoadSettings@CargoDrop@@YAXABV?$basic_string@DU?$char_traits@D@std@@V?$allocator@D@2@@std@@@Z$26
	DD	01aH
	DD	FLAT:__unwindfunclet$?LoadSettings@CargoDrop@@YAXABV?$basic_string@DU?$char_traits@D@std@@V?$allocator@D@2@@std@@@Z$27
	DD	01bH
	DD	FLAT:__unwindfunclet$?LoadSettings@CargoDrop@@YAXABV?$basic_string@DU?$char_traits@D@std@@V?$allocator@D@2@@std@@@Z$28
	DD	01cH
	DD	FLAT:__unwindfunclet$?LoadSettings@CargoDrop@@YAXABV?$basic_string@DU?$char_traits@D@std@@V?$allocator@D@2@@std@@@Z$29
	DD	0ffffffffH
	DD	FLAT:__unwindfunclet$?LoadSettings@CargoDrop@@YAXABV?$basic_string@DU?$char_traits@D@std@@V?$allocator@D@2@@std@@@Z$30
	DD	01eH
	DD	FLAT:__unwindfunclet$?LoadSettings@CargoDrop@@YAXABV?$basic_string@DU?$char_traits@D@std@@V?$allocator@D@2@@std@@@Z$31
; Function compile flags: /Odtp
xdata$x	ENDS
_TEXT	SEGMENT
tv419 = -992						; size = 4
tv257 = -988						; size = 4
tv417 = -984						; size = 4
tv262 = -980						; size = 4
tv412 = -976						; size = 4
tv236 = -972						; size = 4
tv407 = -968						; size = 4
tv212 = -964						; size = 4
tv402 = -960						; size = 4
tv188 = -956						; size = 4
tv397 = -952						; size = 4
tv157 = -948						; size = 4
tv395 = -944						; size = 4
tv162 = -940						; size = 4
$T149415 = -936						; size = 8
$T149414 = -928						; size = 8
$T149413 = -920						; size = 28
$T149412 = -892						; size = 28
$T149411 = -864						; size = 28
$T149410 = -836						; size = 28
$T149409 = -808						; size = 28
$T149408 = -780						; size = 28
$T149407 = -752						; size = 28
$T149406 = -724						; size = 28
$T149405 = -696						; size = 28
$T149404 = -668						; size = 28
$T149403 = -640						; size = 28
$T149402 = -612						; size = 28
$T149401 = -584						; size = 28
$T149400 = -556						; size = 28
$T149399 = -528						; size = 28
$T149398 = -500						; size = 28
$T149397 = -472						; size = 28
$T149396 = -444						; size = 28
$T149395 = -416						; size = 28
$T149394 = -388						; size = 28
$T149393 = -360						; size = 28
$T149392 = -332						; size = 28
$T149391 = -304						; size = 28
$T149390 = -276						; size = 28
$T149389 = -248						; size = 28
$T149388 = -220						; size = 28
$T149387 = -192						; size = 28
$T149386 = -164						; size = 28
$T149385 = -136						; size = 28
$T149384 = -108						; size = 28
$T149383 = -80						; size = 28
_itemID$141988 = -52					; size = 4
_iter$141981 = -48					; size = 8
_lstItems$ = -40					; size = 28
__$EHRec$ = -12						; size = 12
_scPluginCfgFile$ = 8					; size = 4
?LoadSettings@CargoDrop@@YAXABV?$basic_string@DU?$char_traits@D@std@@V?$allocator@D@2@@std@@@Z PROC ; CargoDrop::LoadSettings
; Line 65
	push	ebp
	mov	ebp, esp
	push	-1
	push	__ehhandler$?LoadSettings@CargoDrop@@YAXABV?$basic_string@DU?$char_traits@D@std@@V?$allocator@D@2@@std@@@Z
	mov	eax, DWORD PTR fs:0
	push	eax
	sub	esp, 980				; 000003d4H
	mov	eax, DWORD PTR ___security_cookie
	xor	eax, ebp
	push	eax
	lea	eax, DWORD PTR __$EHRec$[ebp]
	mov	DWORD PTR fs:0, eax
; Line 66
	push	OFFSET $SG141269
	lea	ecx, DWORD PTR $T149383[ebp]
	call	DWORD PTR __imp_??0?$basic_string@DU?$char_traits@D@std@@V?$allocator@D@2@@std@@QAE@PBD@Z
	mov	DWORD PTR __$EHRec$[ebp+8], 0
	push	OFFSET $SG141270
	lea	ecx, DWORD PTR $T149384[ebp]
	call	DWORD PTR __imp_??0?$basic_string@DU?$char_traits@D@std@@V?$allocator@D@2@@std@@QAE@PBD@Z
	mov	BYTE PTR __$EHRec$[ebp+8], 1
	push	1
	lea	eax, DWORD PTR $T149383[ebp]
	push	eax
	lea	ecx, DWORD PTR $T149384[ebp]
	push	ecx
	mov	edx, DWORD PTR _scPluginCfgFile$[ebp]
	push	edx
	call	DWORD PTR __imp_?IniGetB@@YA_NABV?$basic_string@DU?$char_traits@D@std@@V?$allocator@D@2@@std@@00_N@Z
	add	esp, 16					; 00000010H
	mov	BYTE PTR ?set_bReportDisconnectingPlayers@CargoDrop@@3_NA, al ; CargoDrop::set_bReportDisconnectingPlayers
	mov	BYTE PTR __$EHRec$[ebp+8], 0
	lea	ecx, DWORD PTR $T149384[ebp]
	call	DWORD PTR __imp_??1?$basic_string@DU?$char_traits@D@std@@V?$allocator@D@2@@std@@QAE@XZ
	mov	DWORD PTR __$EHRec$[ebp+8], -1
	lea	ecx, DWORD PTR $T149383[ebp]
	call	DWORD PTR __imp_??1?$basic_string@DU?$char_traits@D@std@@V?$allocator@D@2@@std@@QAE@XZ
; Line 67
	push	OFFSET $SG141273
	lea	ecx, DWORD PTR $T149385[ebp]
	call	DWORD PTR __imp_??0?$basic_string@DU?$char_traits@D@std@@V?$allocator@D@2@@std@@QAE@PBD@Z
	mov	DWORD PTR __$EHRec$[ebp+8], 2
	push	OFFSET $SG141274
	lea	ecx, DWORD PTR $T149386[ebp]
	call	DWORD PTR __imp_??0?$basic_string@DU?$char_traits@D@std@@V?$allocator@D@2@@std@@QAE@PBD@Z
	mov	BYTE PTR __$EHRec$[ebp+8], 3
	push	0
	lea	eax, DWORD PTR $T149385[ebp]
	push	eax
	lea	ecx, DWORD PTR $T149386[ebp]
	push	ecx
	mov	edx, DWORD PTR _scPluginCfgFile$[ebp]
	push	edx
	call	DWORD PTR __imp_?IniGetB@@YA_NABV?$basic_string@DU?$char_traits@D@std@@V?$allocator@D@2@@std@@00_N@Z
	add	esp, 16					; 00000010H
	mov	BYTE PTR ?set_bKillDisconnectingPlayers@CargoDrop@@3_NA, al ; CargoDrop::set_bKillDisconnectingPlayers
	mov	BYTE PTR __$EHRec$[ebp+8], 2
	lea	ecx, DWORD PTR $T149386[ebp]
	call	DWORD PTR __imp_??1?$basic_string@DU?$char_traits@D@std@@V?$allocator@D@2@@std@@QAE@XZ
	mov	DWORD PTR __$EHRec$[ebp+8], -1
	lea	ecx, DWORD PTR $T149385[ebp]
	call	DWORD PTR __imp_??1?$basic_string@DU?$char_traits@D@std@@V?$allocator@D@2@@std@@QAE@XZ
; Line 68
	push	OFFSET $SG141277
	lea	ecx, DWORD PTR $T149387[ebp]
	call	DWORD PTR __imp_??0?$basic_string@DU?$char_traits@D@std@@V?$allocator@D@2@@std@@QAE@PBD@Z
	mov	DWORD PTR __$EHRec$[ebp+8], 4
	push	OFFSET $SG141278
	lea	ecx, DWORD PTR $T149388[ebp]
	call	DWORD PTR __imp_??0?$basic_string@DU?$char_traits@D@std@@V?$allocator@D@2@@std@@QAE@PBD@Z
	mov	BYTE PTR __$EHRec$[ebp+8], 5
	push	0
	lea	eax, DWORD PTR $T149387[ebp]
	push	eax
	lea	ecx, DWORD PTR $T149388[ebp]
	push	ecx
	mov	edx, DWORD PTR _scPluginCfgFile$[ebp]
	push	edx
	call	DWORD PTR __imp_?IniGetB@@YA_NABV?$basic_string@DU?$char_traits@D@std@@V?$allocator@D@2@@std@@00_N@Z
	add	esp, 16					; 00000010H
	mov	BYTE PTR ?set_bLootDisconnectingPlayers@CargoDrop@@3_NA, al ; CargoDrop::set_bLootDisconnectingPlayers
	mov	BYTE PTR __$EHRec$[ebp+8], 4
	lea	ecx, DWORD PTR $T149388[ebp]
	call	DWORD PTR __imp_??1?$basic_string@DU?$char_traits@D@std@@V?$allocator@D@2@@std@@QAE@XZ
	mov	DWORD PTR __$EHRec$[ebp+8], -1
	lea	ecx, DWORD PTR $T149387[ebp]
	call	DWORD PTR __imp_??1?$basic_string@DU?$char_traits@D@std@@V?$allocator@D@2@@std@@QAE@XZ
; Line 69
	push	OFFSET $SG141281
	lea	ecx, DWORD PTR $T149389[ebp]
	call	DWORD PTR __imp_??0?$basic_string@DU?$char_traits@D@std@@V?$allocator@D@2@@std@@QAE@PBD@Z
	mov	DWORD PTR __$EHRec$[ebp+8], 6
	push	OFFSET $SG141282
	lea	ecx, DWORD PTR $T149390[ebp]
	call	DWORD PTR __imp_??0?$basic_string@DU?$char_traits@D@std@@V?$allocator@D@2@@std@@QAE@PBD@Z
	mov	BYTE PTR __$EHRec$[ebp+8], 7
	push	ecx
	fld	DWORD PTR __real@459c4000
	fstp	DWORD PTR [esp]
	lea	eax, DWORD PTR $T149389[ebp]
	push	eax
	lea	ecx, DWORD PTR $T149390[ebp]
	push	ecx
	mov	edx, DWORD PTR _scPluginCfgFile$[ebp]
	push	edx
	call	DWORD PTR __imp_?IniGetF@@YAMABV?$basic_string@DU?$char_traits@D@std@@V?$allocator@D@2@@std@@00M@Z
	add	esp, 16					; 00000010H
	fstp	DWORD PTR _set_fDisconnectingPlayersRange
	mov	BYTE PTR __$EHRec$[ebp+8], 6
	lea	ecx, DWORD PTR $T149390[ebp]
	call	DWORD PTR __imp_??1?$basic_string@DU?$char_traits@D@std@@V?$allocator@D@2@@std@@QAE@XZ
	mov	DWORD PTR __$EHRec$[ebp+8], -1
	lea	ecx, DWORD PTR $T149389[ebp]
	call	DWORD PTR __imp_??1?$basic_string@DU?$char_traits@D@std@@V?$allocator@D@2@@std@@QAE@XZ
; Line 71
	push	OFFSET $SG141288
	lea	ecx, DWORD PTR $T149391[ebp]
	call	DWORD PTR __imp_??0?$basic_string@DU?$char_traits@D@std@@V?$allocator@D@2@@std@@QAE@PBD@Z
	mov	DWORD PTR __$EHRec$[ebp+8], 8
	push	OFFSET $SG141289
	lea	ecx, DWORD PTR $T149392[ebp]
	call	DWORD PTR __imp_??0?$basic_string@DU?$char_traits@D@std@@V?$allocator@D@2@@std@@QAE@PBD@Z
	mov	BYTE PTR __$EHRec$[ebp+8], 9
	push	OFFSET $SG141290
	lea	ecx, DWORD PTR $T149393[ebp]
	call	DWORD PTR __imp_??0?$basic_string@DU?$char_traits@D@std@@V?$allocator@D@2@@std@@QAE@PBD@Z
	mov	BYTE PTR __$EHRec$[ebp+8], 10		; 0000000aH
	lea	eax, DWORD PTR $T149391[ebp]
	push	eax
	lea	ecx, DWORD PTR $T149392[ebp]
	push	ecx
	lea	edx, DWORD PTR $T149393[ebp]
	push	edx
	mov	eax, DWORD PTR _scPluginCfgFile$[ebp]
	push	eax
	lea	ecx, DWORD PTR $T149394[ebp]
	push	ecx
	call	DWORD PTR __imp_?IniGetS@@YA?AV?$basic_string@DU?$char_traits@D@std@@V?$allocator@D@2@@std@@ABV12@000@Z
	add	esp, 20					; 00000014H
	mov	DWORD PTR tv162[ebp], eax
	mov	edx, DWORD PTR tv162[ebp]
	mov	DWORD PTR tv395[ebp], edx
	mov	BYTE PTR __$EHRec$[ebp+8], 11		; 0000000bH
	mov	eax, DWORD PTR tv395[ebp]
	push	eax
	lea	ecx, DWORD PTR $T149395[ebp]
	push	ecx
	call	DWORD PTR __imp_?stows@@YA?AV?$basic_string@GU?$char_traits@G@std@@V?$allocator@G@2@@std@@ABV?$basic_string@DU?$char_traits@D@std@@V?$allocator@D@2@@2@@Z
	add	esp, 8
	mov	DWORD PTR tv157[ebp], eax
	mov	edx, DWORD PTR tv157[ebp]
	mov	DWORD PTR tv397[ebp], edx
	mov	BYTE PTR __$EHRec$[ebp+8], 12		; 0000000cH
	mov	eax, DWORD PTR tv397[ebp]
	push	eax
	call	DWORD PTR __imp_?ToFloat@@YAMABV?$basic_string@GU?$char_traits@G@std@@V?$allocator@G@2@@std@@@Z
	add	esp, 4
	fstp	DWORD PTR _set_fHullFct
	mov	BYTE PTR __$EHRec$[ebp+8], 11		; 0000000bH
	lea	ecx, DWORD PTR $T149395[ebp]
	call	DWORD PTR __imp_??1?$basic_string@GU?$char_traits@G@std@@V?$allocator@G@2@@std@@QAE@XZ
	mov	BYTE PTR __$EHRec$[ebp+8], 10		; 0000000aH
	lea	ecx, DWORD PTR $T149394[ebp]
	call	DWORD PTR __imp_??1?$basic_string@DU?$char_traits@D@std@@V?$allocator@D@2@@std@@QAE@XZ
	mov	BYTE PTR __$EHRec$[ebp+8], 9
	lea	ecx, DWORD PTR $T149393[ebp]
	call	DWORD PTR __imp_??1?$basic_string@DU?$char_traits@D@std@@V?$allocator@D@2@@std@@QAE@XZ
	mov	BYTE PTR __$EHRec$[ebp+8], 8
	lea	ecx, DWORD PTR $T149392[ebp]
	call	DWORD PTR __imp_??1?$basic_string@DU?$char_traits@D@std@@V?$allocator@D@2@@std@@QAE@XZ
	mov	DWORD PTR __$EHRec$[ebp+8], -1
	lea	ecx, DWORD PTR $T149391[ebp]
	call	DWORD PTR __imp_??1?$basic_string@DU?$char_traits@D@std@@V?$allocator@D@2@@std@@QAE@XZ
; Line 72
	push	OFFSET $SG141295
	lea	ecx, DWORD PTR $T149396[ebp]
	call	DWORD PTR __imp_??0?$basic_string@DU?$char_traits@D@std@@V?$allocator@D@2@@std@@QAE@PBD@Z
	mov	DWORD PTR __$EHRec$[ebp+8], 13		; 0000000dH
	push	OFFSET $SG141296
	lea	ecx, DWORD PTR $T149397[ebp]
	call	DWORD PTR __imp_??0?$basic_string@DU?$char_traits@D@std@@V?$allocator@D@2@@std@@QAE@PBD@Z
	mov	BYTE PTR __$EHRec$[ebp+8], 14		; 0000000eH
	push	OFFSET $SG141297
	lea	ecx, DWORD PTR $T149398[ebp]
	call	DWORD PTR __imp_??0?$basic_string@DU?$char_traits@D@std@@V?$allocator@D@2@@std@@QAE@PBD@Z
	mov	BYTE PTR __$EHRec$[ebp+8], 15		; 0000000fH
	lea	ecx, DWORD PTR $T149396[ebp]
	push	ecx
	lea	edx, DWORD PTR $T149397[ebp]
	push	edx
	lea	eax, DWORD PTR $T149398[ebp]
	push	eax
	mov	ecx, DWORD PTR _scPluginCfgFile$[ebp]
	push	ecx
	lea	edx, DWORD PTR $T149399[ebp]
	push	edx
	call	DWORD PTR __imp_?IniGetS@@YA?AV?$basic_string@DU?$char_traits@D@std@@V?$allocator@D@2@@std@@ABV12@000@Z
	add	esp, 20					; 00000014H
	mov	DWORD PTR tv188[ebp], eax
	mov	eax, DWORD PTR tv188[ebp]
	mov	DWORD PTR tv402[ebp], eax
	mov	BYTE PTR __$EHRec$[ebp+8], 16		; 00000010H
	mov	ecx, DWORD PTR tv402[ebp]
	call	DWORD PTR __imp_?c_str@?$basic_string@DU?$char_traits@D@std@@V?$allocator@D@2@@std@@QBEPBDXZ
	push	eax
	call	DWORD PTR __imp_?CreateID@@YAIPBD@Z
	add	esp, 4
	mov	DWORD PTR _set_iLootCrateID, eax
	mov	BYTE PTR __$EHRec$[ebp+8], 15		; 0000000fH
	lea	ecx, DWORD PTR $T149399[ebp]
	call	DWORD PTR __imp_??1?$basic_string@DU?$char_traits@D@std@@V?$allocator@D@2@@std@@QAE@XZ
	mov	BYTE PTR __$EHRec$[ebp+8], 14		; 0000000eH
	lea	ecx, DWORD PTR $T149398[ebp]
	call	DWORD PTR __imp_??1?$basic_string@DU?$char_traits@D@std@@V?$allocator@D@2@@std@@QAE@XZ
	mov	BYTE PTR __$EHRec$[ebp+8], 13		; 0000000dH
	lea	ecx, DWORD PTR $T149397[ebp]
	call	DWORD PTR __imp_??1?$basic_string@DU?$char_traits@D@std@@V?$allocator@D@2@@std@@QAE@XZ
	mov	DWORD PTR __$EHRec$[ebp+8], -1
	lea	ecx, DWORD PTR $T149396[ebp]
	call	DWORD PTR __imp_??1?$basic_string@DU?$char_traits@D@std@@V?$allocator@D@2@@std@@QAE@XZ
; Line 73
	push	OFFSET $SG141302
	lea	ecx, DWORD PTR $T149400[ebp]
	call	DWORD PTR __imp_??0?$basic_string@DU?$char_traits@D@std@@V?$allocator@D@2@@std@@QAE@PBD@Z
	mov	DWORD PTR __$EHRec$[ebp+8], 17		; 00000011H
	push	OFFSET $SG141303
	lea	ecx, DWORD PTR $T149401[ebp]
	call	DWORD PTR __imp_??0?$basic_string@DU?$char_traits@D@std@@V?$allocator@D@2@@std@@QAE@PBD@Z
	mov	BYTE PTR __$EHRec$[ebp+8], 18		; 00000012H
	push	OFFSET $SG141304
	lea	ecx, DWORD PTR $T149402[ebp]
	call	DWORD PTR __imp_??0?$basic_string@DU?$char_traits@D@std@@V?$allocator@D@2@@std@@QAE@PBD@Z
	mov	BYTE PTR __$EHRec$[ebp+8], 19		; 00000013H
	lea	ecx, DWORD PTR $T149400[ebp]
	push	ecx
	lea	edx, DWORD PTR $T149401[ebp]
	push	edx
	lea	eax, DWORD PTR $T149402[ebp]
	push	eax
	mov	ecx, DWORD PTR _scPluginCfgFile$[ebp]
	push	ecx
	lea	edx, DWORD PTR $T149403[ebp]
	push	edx
	call	DWORD PTR __imp_?IniGetS@@YA?AV?$basic_string@DU?$char_traits@D@std@@V?$allocator@D@2@@std@@ABV12@000@Z
	add	esp, 20					; 00000014H
	mov	DWORD PTR tv212[ebp], eax
	mov	eax, DWORD PTR tv212[ebp]
	mov	DWORD PTR tv407[ebp], eax
	mov	BYTE PTR __$EHRec$[ebp+8], 20		; 00000014H
	mov	ecx, DWORD PTR tv407[ebp]
	call	DWORD PTR __imp_?c_str@?$basic_string@DU?$char_traits@D@std@@V?$allocator@D@2@@std@@QBEPBDXZ
	push	eax
	call	DWORD PTR __imp_?CreateID@@YAIPBD@Z
	add	esp, 4
	mov	DWORD PTR _set_iHullItem1ID, eax
	mov	BYTE PTR __$EHRec$[ebp+8], 19		; 00000013H
	lea	ecx, DWORD PTR $T149403[ebp]
	call	DWORD PTR __imp_??1?$basic_string@DU?$char_traits@D@std@@V?$allocator@D@2@@std@@QAE@XZ
	mov	BYTE PTR __$EHRec$[ebp+8], 18		; 00000012H
	lea	ecx, DWORD PTR $T149402[ebp]
	call	DWORD PTR __imp_??1?$basic_string@DU?$char_traits@D@std@@V?$allocator@D@2@@std@@QAE@XZ
	mov	BYTE PTR __$EHRec$[ebp+8], 17		; 00000011H
	lea	ecx, DWORD PTR $T149401[ebp]
	call	DWORD PTR __imp_??1?$basic_string@DU?$char_traits@D@std@@V?$allocator@D@2@@std@@QAE@XZ
	mov	DWORD PTR __$EHRec$[ebp+8], -1
	lea	ecx, DWORD PTR $T149400[ebp]
	call	DWORD PTR __imp_??1?$basic_string@DU?$char_traits@D@std@@V?$allocator@D@2@@std@@QAE@XZ
; Line 74
	push	OFFSET $SG141309
	lea	ecx, DWORD PTR $T149404[ebp]
	call	DWORD PTR __imp_??0?$basic_string@DU?$char_traits@D@std@@V?$allocator@D@2@@std@@QAE@PBD@Z
	mov	DWORD PTR __$EHRec$[ebp+8], 21		; 00000015H
	push	OFFSET $SG141310
	lea	ecx, DWORD PTR $T149405[ebp]
	call	DWORD PTR __imp_??0?$basic_string@DU?$char_traits@D@std@@V?$allocator@D@2@@std@@QAE@PBD@Z
	mov	BYTE PTR __$EHRec$[ebp+8], 22		; 00000016H
	push	OFFSET $SG141311
	lea	ecx, DWORD PTR $T149406[ebp]
	call	DWORD PTR __imp_??0?$basic_string@DU?$char_traits@D@std@@V?$allocator@D@2@@std@@QAE@PBD@Z
	mov	BYTE PTR __$EHRec$[ebp+8], 23		; 00000017H
	lea	ecx, DWORD PTR $T149404[ebp]
	push	ecx
	lea	edx, DWORD PTR $T149405[ebp]
	push	edx
	lea	eax, DWORD PTR $T149406[ebp]
	push	eax
	mov	ecx, DWORD PTR _scPluginCfgFile$[ebp]
	push	ecx
	lea	edx, DWORD PTR $T149407[ebp]
	push	edx
	call	DWORD PTR __imp_?IniGetS@@YA?AV?$basic_string@DU?$char_traits@D@std@@V?$allocator@D@2@@std@@ABV12@000@Z
	add	esp, 20					; 00000014H
	mov	DWORD PTR tv236[ebp], eax
	mov	eax, DWORD PTR tv236[ebp]
	mov	DWORD PTR tv412[ebp], eax
	mov	BYTE PTR __$EHRec$[ebp+8], 24		; 00000018H
	mov	ecx, DWORD PTR tv412[ebp]
	call	DWORD PTR __imp_?c_str@?$basic_string@DU?$char_traits@D@std@@V?$allocator@D@2@@std@@QBEPBDXZ
	push	eax
	call	DWORD PTR __imp_?CreateID@@YAIPBD@Z
	add	esp, 4
	mov	DWORD PTR _set_iHullItem2ID, eax
	mov	BYTE PTR __$EHRec$[ebp+8], 23		; 00000017H
	lea	ecx, DWORD PTR $T149407[ebp]
	call	DWORD PTR __imp_??1?$basic_string@DU?$char_traits@D@std@@V?$allocator@D@2@@std@@QAE@XZ
	mov	BYTE PTR __$EHRec$[ebp+8], 22		; 00000016H
	lea	ecx, DWORD PTR $T149406[ebp]
	call	DWORD PTR __imp_??1?$basic_string@DU?$char_traits@D@std@@V?$allocator@D@2@@std@@QAE@XZ
	mov	BYTE PTR __$EHRec$[ebp+8], 21		; 00000015H
	lea	ecx, DWORD PTR $T149405[ebp]
	call	DWORD PTR __imp_??1?$basic_string@DU?$char_traits@D@std@@V?$allocator@D@2@@std@@QAE@XZ
	mov	DWORD PTR __$EHRec$[ebp+8], -1
	lea	ecx, DWORD PTR $T149404[ebp]
	call	DWORD PTR __imp_??1?$basic_string@DU?$char_traits@D@std@@V?$allocator@D@2@@std@@QAE@XZ
; Line 75
	push	OFFSET $SG141317
	lea	ecx, DWORD PTR $T149408[ebp]
	call	DWORD PTR __imp_??0?$basic_string@DU?$char_traits@D@std@@V?$allocator@D@2@@std@@QAE@PBD@Z
	mov	DWORD PTR __$EHRec$[ebp+8], 25		; 00000019H
	push	OFFSET $SG141318
	lea	ecx, DWORD PTR $T149409[ebp]
	call	DWORD PTR __imp_??0?$basic_string@DU?$char_traits@D@std@@V?$allocator@D@2@@std@@QAE@PBD@Z
	mov	BYTE PTR __$EHRec$[ebp+8], 26		; 0000001aH
	push	OFFSET $SG141319
	lea	ecx, DWORD PTR $T149410[ebp]
	call	DWORD PTR __imp_??0?$basic_string@DU?$char_traits@D@std@@V?$allocator@D@2@@std@@QAE@PBD@Z
	mov	BYTE PTR __$EHRec$[ebp+8], 27		; 0000001bH
	lea	ecx, DWORD PTR $T149408[ebp]
	push	ecx
	lea	edx, DWORD PTR $T149409[ebp]
	push	edx
	lea	eax, DWORD PTR $T149410[ebp]
	push	eax
	mov	ecx, DWORD PTR _scPluginCfgFile$[ebp]
	push	ecx
	lea	edx, DWORD PTR $T149411[ebp]
	push	edx
	call	DWORD PTR __imp_?IniGetS@@YA?AV?$basic_string@DU?$char_traits@D@std@@V?$allocator@D@2@@std@@ABV12@000@Z
	add	esp, 20					; 00000014H
	mov	DWORD PTR tv262[ebp], eax
	mov	eax, DWORD PTR tv262[ebp]
	mov	DWORD PTR tv417[ebp], eax
	mov	BYTE PTR __$EHRec$[ebp+8], 28		; 0000001cH
	mov	ecx, DWORD PTR tv417[ebp]
	push	ecx
	lea	edx, DWORD PTR $T149412[ebp]
	push	edx
	call	DWORD PTR __imp_?stows@@YA?AV?$basic_string@GU?$char_traits@G@std@@V?$allocator@G@2@@std@@ABV?$basic_string@DU?$char_traits@D@std@@V?$allocator@D@2@@2@@Z
	add	esp, 8
	mov	DWORD PTR tv257[ebp], eax
	mov	eax, DWORD PTR tv257[ebp]
	mov	DWORD PTR tv419[ebp], eax
	mov	BYTE PTR __$EHRec$[ebp+8], 29		; 0000001dH
	mov	ecx, DWORD PTR tv419[ebp]
	push	ecx
	mov	ecx, OFFSET ?set_wscDisconnectInSpaceMsg@CargoDrop@@3V?$basic_string@GU?$char_traits@G@std@@V?$allocator@G@2@@std@@A ; CargoDrop::set_wscDisconnectInSpaceMsg
	call	DWORD PTR __imp_??4?$basic_string@GU?$char_traits@G@std@@V?$allocator@G@2@@std@@QAEAAV01@ABV01@@Z
	mov	BYTE PTR __$EHRec$[ebp+8], 28		; 0000001cH
	lea	ecx, DWORD PTR $T149412[ebp]
	call	DWORD PTR __imp_??1?$basic_string@GU?$char_traits@G@std@@V?$allocator@G@2@@std@@QAE@XZ
	mov	BYTE PTR __$EHRec$[ebp+8], 27		; 0000001bH
	lea	ecx, DWORD PTR $T149411[ebp]
	call	DWORD PTR __imp_??1?$basic_string@DU?$char_traits@D@std@@V?$allocator@D@2@@std@@QAE@XZ
	mov	BYTE PTR __$EHRec$[ebp+8], 26		; 0000001aH
	lea	ecx, DWORD PTR $T149410[ebp]
	call	DWORD PTR __imp_??1?$basic_string@DU?$char_traits@D@std@@V?$allocator@D@2@@std@@QAE@XZ
	mov	BYTE PTR __$EHRec$[ebp+8], 25		; 00000019H
	lea	ecx, DWORD PTR $T149409[ebp]
	call	DWORD PTR __imp_??1?$basic_string@DU?$char_traits@D@std@@V?$allocator@D@2@@std@@QAE@XZ
	mov	DWORD PTR __$EHRec$[ebp+8], -1
	lea	ecx, DWORD PTR $T149408[ebp]
	call	DWORD PTR __imp_??1?$basic_string@DU?$char_traits@D@std@@V?$allocator@D@2@@std@@QAE@XZ
; Line 78
	lea	ecx, DWORD PTR _lstItems$[ebp]
	call	??0?$list@UINISECTIONVALUE@@V?$allocator@UINISECTIONVALUE@@@std@@@std@@QAE@XZ ; std::list<INISECTIONVALUE,std::allocator<INISECTIONVALUE> >::list<INISECTIONVALUE,std::allocator<INISECTIONVALUE> >
	mov	DWORD PTR __$EHRec$[ebp+8], 30		; 0000001eH
; Line 79
	push	OFFSET $SG141841
	lea	ecx, DWORD PTR $T149413[ebp]
	call	DWORD PTR __imp_??0?$basic_string@DU?$char_traits@D@std@@V?$allocator@D@2@@std@@QAE@PBD@Z
	mov	BYTE PTR __$EHRec$[ebp+8], 31		; 0000001fH
	lea	edx, DWORD PTR _lstItems$[ebp]
	push	edx
	lea	eax, DWORD PTR $T149413[ebp]
	push	eax
	mov	ecx, DWORD PTR _scPluginCfgFile$[ebp]
	push	ecx
	call	DWORD PTR __imp_?IniGetSection@@YAXABV?$basic_string@DU?$char_traits@D@std@@V?$allocator@D@2@@std@@0AAV?$list@UINISECTIONVALUE@@V?$allocator@UINISECTIONVALUE@@@std@@@2@@Z
	add	esp, 12					; 0000000cH
	mov	BYTE PTR __$EHRec$[ebp+8], 30		; 0000001eH
	lea	ecx, DWORD PTR $T149413[ebp]
	call	DWORD PTR __imp_??1?$basic_string@DU?$char_traits@D@std@@V?$allocator@D@2@@std@@QAE@XZ
; Line 80
	mov	ecx, OFFSET _set_mapNoLootItems
	call	?clear@?$_Tree@V?$_Tmap_traits@IIU?$less@I@std@@V?$allocator@U?$pair@$$CBII@std@@@2@$0A@@std@@@std@@QAEXXZ ; std::_Tree<std::_Tmap_traits<unsigned int,unsigned int,std::less<unsigned int>,std::allocator<std::pair<unsigned int const ,unsigned int> >,0> >::clear
; Line 81
	lea	edx, DWORD PTR _iter$141981[ebp]
	push	edx
	lea	ecx, DWORD PTR _lstItems$[ebp]
	call	?begin@?$list@UINISECTIONVALUE@@V?$allocator@UINISECTIONVALUE@@@std@@@std@@QAE?AV?$_Iterator@$00@12@XZ ; std::list<INISECTIONVALUE,std::allocator<INISECTIONVALUE> >::begin
	jmp	SHORT $LN3@LoadSettin
$LN2@LoadSettin:
	push	0
	lea	eax, DWORD PTR $T149414[ebp]
	push	eax
	lea	ecx, DWORD PTR _iter$141981[ebp]
	call	??E?$_Iterator@$00@?$list@UINISECTIONVALUE@@V?$allocator@UINISECTIONVALUE@@@std@@@std@@QAE?AV012@H@Z ; std::list<INISECTIONVALUE,std::allocator<INISECTIONVALUE> >::_Iterator<1>::operator++
$LN3@LoadSettin:
	lea	ecx, DWORD PTR $T149415[ebp]
	push	ecx
	lea	ecx, DWORD PTR _lstItems$[ebp]
	call	?end@?$list@UINISECTIONVALUE@@V?$allocator@UINISECTIONVALUE@@@std@@@std@@QAE?AV?$_Iterator@$00@12@XZ ; std::list<INISECTIONVALUE,std::allocator<INISECTIONVALUE> >::end
	push	eax
	lea	ecx, DWORD PTR _iter$141981[ebp]
	call	??9?$_Const_iterator@$00@?$list@UINISECTIONVALUE@@V?$allocator@UINISECTIONVALUE@@@std@@@std@@QBE_NABV012@@Z ; std::list<INISECTIONVALUE,std::allocator<INISECTIONVALUE> >::_Const_iterator<1>::operator!=
	movzx	edx, al
	test	edx, edx
	je	SHORT $LN1@LoadSettin
; Line 83
	lea	ecx, DWORD PTR _iter$141981[ebp]
	call	??C?$_Iterator@$00@?$list@UINISECTIONVALUE@@V?$allocator@UINISECTIONVALUE@@@std@@@std@@QBEPAUINISECTIONVALUE@@XZ ; std::list<INISECTIONVALUE,std::allocator<INISECTIONVALUE> >::_Iterator<1>::operator->
	mov	ecx, eax
	call	DWORD PTR __imp_?c_str@?$basic_string@DU?$char_traits@D@std@@V?$allocator@D@2@@std@@QBEPBDXZ
	push	eax
	call	DWORD PTR __imp_?CreateID@@YAIPBD@Z
	add	esp, 4
	mov	DWORD PTR _itemID$141988[ebp], eax
; Line 84
	lea	eax, DWORD PTR _itemID$141988[ebp]
	push	eax
	mov	ecx, OFFSET _set_mapNoLootItems
	call	??A?$map@IIU?$less@I@std@@V?$allocator@U?$pair@$$CBII@std@@@2@@std@@QAEAAIABI@Z ; std::map<unsigned int,unsigned int,std::less<unsigned int>,std::allocator<std::pair<unsigned int const ,unsigned int> > >::operator[]
	mov	ecx, DWORD PTR _itemID$141988[ebp]
	mov	DWORD PTR [eax], ecx
; Line 85
	jmp	SHORT $LN2@LoadSettin
$LN1@LoadSettin:
; Line 86
	mov	DWORD PTR __$EHRec$[ebp+8], -1
	lea	ecx, DWORD PTR _lstItems$[ebp]
	call	??1?$list@UINISECTIONVALUE@@V?$allocator@UINISECTIONVALUE@@@std@@@std@@QAE@XZ ; std::list<INISECTIONVALUE,std::allocator<INISECTIONVALUE> >::~list<INISECTIONVALUE,std::allocator<INISECTIONVALUE> >
	mov	ecx, DWORD PTR __$EHRec$[ebp]
	mov	DWORD PTR fs:0, ecx
	pop	ecx
	mov	esp, ebp
	pop	ebp
	ret	0
_TEXT	ENDS
text$x	SEGMENT
__unwindfunclet$?LoadSettings@CargoDrop@@YAXABV?$basic_string@DU?$char_traits@D@std@@V?$allocator@D@2@@std@@@Z$0:
	lea	ecx, DWORD PTR $T149383[ebp]
	jmp	DWORD PTR __imp_??1?$basic_string@DU?$char_traits@D@std@@V?$allocator@D@2@@std@@QAE@XZ
__unwindfunclet$?LoadSettings@CargoDrop@@YAXABV?$basic_string@DU?$char_traits@D@std@@V?$allocator@D@2@@std@@@Z$1:
	lea	ecx, DWORD PTR $T149384[ebp]
	jmp	DWORD PTR __imp_??1?$basic_string@DU?$char_traits@D@std@@V?$allocator@D@2@@std@@QAE@XZ
__unwindfunclet$?LoadSettings@CargoDrop@@YAXABV?$basic_string@DU?$char_traits@D@std@@V?$allocator@D@2@@std@@@Z$2:
	lea	ecx, DWORD PTR $T149385[ebp]
	jmp	DWORD PTR __imp_??1?$basic_string@DU?$char_traits@D@std@@V?$allocator@D@2@@std@@QAE@XZ
__unwindfunclet$?LoadSettings@CargoDrop@@YAXABV?$basic_string@DU?$char_traits@D@std@@V?$allocator@D@2@@std@@@Z$3:
	lea	ecx, DWORD PTR $T149386[ebp]
	jmp	DWORD PTR __imp_??1?$basic_string@DU?$char_traits@D@std@@V?$allocator@D@2@@std@@QAE@XZ
__unwindfunclet$?LoadSettings@CargoDrop@@YAXABV?$basic_string@DU?$char_traits@D@std@@V?$allocator@D@2@@std@@@Z$4:
	lea	ecx, DWORD PTR $T149387[ebp]
	jmp	DWORD PTR __imp_??1?$basic_string@DU?$char_traits@D@std@@V?$allocator@D@2@@std@@QAE@XZ
__unwindfunclet$?LoadSettings@CargoDrop@@YAXABV?$basic_string@DU?$char_traits@D@std@@V?$allocator@D@2@@std@@@Z$5:
	lea	ecx, DWORD PTR $T149388[ebp]
	jmp	DWORD PTR __imp_??1?$basic_string@DU?$char_traits@D@std@@V?$allocator@D@2@@std@@QAE@XZ
__unwindfunclet$?LoadSettings@CargoDrop@@YAXABV?$basic_string@DU?$char_traits@D@std@@V?$allocator@D@2@@std@@@Z$6:
	lea	ecx, DWORD PTR $T149389[ebp]
	jmp	DWORD PTR __imp_??1?$basic_string@DU?$char_traits@D@std@@V?$allocator@D@2@@std@@QAE@XZ
__unwindfunclet$?LoadSettings@CargoDrop@@YAXABV?$basic_string@DU?$char_traits@D@std@@V?$allocator@D@2@@std@@@Z$7:
	lea	ecx, DWORD PTR $T149390[ebp]
	jmp	DWORD PTR __imp_??1?$basic_string@DU?$char_traits@D@std@@V?$allocator@D@2@@std@@QAE@XZ
__unwindfunclet$?LoadSettings@CargoDrop@@YAXABV?$basic_string@DU?$char_traits@D@std@@V?$allocator@D@2@@std@@@Z$8:
	lea	ecx, DWORD PTR $T149391[ebp]
	jmp	DWORD PTR __imp_??1?$basic_string@DU?$char_traits@D@std@@V?$allocator@D@2@@std@@QAE@XZ
__unwindfunclet$?LoadSettings@CargoDrop@@YAXABV?$basic_string@DU?$char_traits@D@std@@V?$allocator@D@2@@std@@@Z$9:
	lea	ecx, DWORD PTR $T149392[ebp]
	jmp	DWORD PTR __imp_??1?$basic_string@DU?$char_traits@D@std@@V?$allocator@D@2@@std@@QAE@XZ
__unwindfunclet$?LoadSettings@CargoDrop@@YAXABV?$basic_string@DU?$char_traits@D@std@@V?$allocator@D@2@@std@@@Z$10:
	lea	ecx, DWORD PTR $T149393[ebp]
	jmp	DWORD PTR __imp_??1?$basic_string@DU?$char_traits@D@std@@V?$allocator@D@2@@std@@QAE@XZ
__unwindfunclet$?LoadSettings@CargoDrop@@YAXABV?$basic_string@DU?$char_traits@D@std@@V?$allocator@D@2@@std@@@Z$11:
	lea	ecx, DWORD PTR $T149394[ebp]
	jmp	DWORD PTR __imp_??1?$basic_string@DU?$char_traits@D@std@@V?$allocator@D@2@@std@@QAE@XZ
__unwindfunclet$?LoadSettings@CargoDrop@@YAXABV?$basic_string@DU?$char_traits@D@std@@V?$allocator@D@2@@std@@@Z$12:
	lea	ecx, DWORD PTR $T149395[ebp]
	jmp	DWORD PTR __imp_??1?$basic_string@GU?$char_traits@G@std@@V?$allocator@G@2@@std@@QAE@XZ
__unwindfunclet$?LoadSettings@CargoDrop@@YAXABV?$basic_string@DU?$char_traits@D@std@@V?$allocator@D@2@@std@@@Z$13:
	lea	ecx, DWORD PTR $T149396[ebp]
	jmp	DWORD PTR __imp_??1?$basic_string@DU?$char_traits@D@std@@V?$allocator@D@2@@std@@QAE@XZ
__unwindfunclet$?LoadSettings@CargoDrop@@YAXABV?$basic_string@DU?$char_traits@D@std@@V?$allocator@D@2@@std@@@Z$14:
	lea	ecx, DWORD PTR $T149397[ebp]
	jmp	DWORD PTR __imp_??1?$basic_string@DU?$char_traits@D@std@@V?$allocator@D@2@@std@@QAE@XZ
__unwindfunclet$?LoadSettings@CargoDrop@@YAXABV?$basic_string@DU?$char_traits@D@std@@V?$allocator@D@2@@std@@@Z$15:
	lea	ecx, DWORD PTR $T149398[ebp]
	jmp	DWORD PTR __imp_??1?$basic_string@DU?$char_traits@D@std@@V?$allocator@D@2@@std@@QAE@XZ
__unwindfunclet$?LoadSettings@CargoDrop@@YAXABV?$basic_string@DU?$char_traits@D@std@@V?$allocator@D@2@@std@@@Z$16:
	lea	ecx, DWORD PTR $T149399[ebp]
	jmp	DWORD PTR __imp_??1?$basic_string@DU?$char_traits@D@std@@V?$allocator@D@2@@std@@QAE@XZ
__unwindfunclet$?LoadSettings@CargoDrop@@YAXABV?$basic_string@DU?$char_traits@D@std@@V?$allocator@D@2@@std@@@Z$17:
	lea	ecx, DWORD PTR $T149400[ebp]
	jmp	DWORD PTR __imp_??1?$basic_string@DU?$char_traits@D@std@@V?$allocator@D@2@@std@@QAE@XZ
__unwindfunclet$?LoadSettings@CargoDrop@@YAXABV?$basic_string@DU?$char_traits@D@std@@V?$allocator@D@2@@std@@@Z$18:
	lea	ecx, DWORD PTR $T149401[ebp]
	jmp	DWORD PTR __imp_??1?$basic_string@DU?$char_traits@D@std@@V?$allocator@D@2@@std@@QAE@XZ
__unwindfunclet$?LoadSettings@CargoDrop@@YAXABV?$basic_string@DU?$char_traits@D@std@@V?$allocator@D@2@@std@@@Z$19:
	lea	ecx, DWORD PTR $T149402[ebp]
	jmp	DWORD PTR __imp_??1?$basic_string@DU?$char_traits@D@std@@V?$allocator@D@2@@std@@QAE@XZ
__unwindfunclet$?LoadSettings@CargoDrop@@YAXABV?$basic_string@DU?$char_traits@D@std@@V?$allocator@D@2@@std@@@Z$20:
	lea	ecx, DWORD PTR $T149403[ebp]
	jmp	DWORD PTR __imp_??1?$basic_string@DU?$char_traits@D@std@@V?$allocator@D@2@@std@@QAE@XZ
__unwindfunclet$?LoadSettings@CargoDrop@@YAXABV?$basic_string@DU?$char_traits@D@std@@V?$allocator@D@2@@std@@@Z$21:
	lea	ecx, DWORD PTR $T149404[ebp]
	jmp	DWORD PTR __imp_??1?$basic_string@DU?$char_traits@D@std@@V?$allocator@D@2@@std@@QAE@XZ
__unwindfunclet$?LoadSettings@CargoDrop@@YAXABV?$basic_string@DU?$char_traits@D@std@@V?$allocator@D@2@@std@@@Z$22:
	lea	ecx, DWORD PTR $T149405[ebp]
	jmp	DWORD PTR __imp_??1?$basic_string@DU?$char_traits@D@std@@V?$allocator@D@2@@std@@QAE@XZ
__unwindfunclet$?LoadSettings@CargoDrop@@YAXABV?$basic_string@DU?$char_traits@D@std@@V?$allocator@D@2@@std@@@Z$23:
	lea	ecx, DWORD PTR $T149406[ebp]
	jmp	DWORD PTR __imp_??1?$basic_string@DU?$char_traits@D@std@@V?$allocator@D@2@@std@@QAE@XZ
__unwindfunclet$?LoadSettings@CargoDrop@@YAXABV?$basic_string@DU?$char_traits@D@std@@V?$allocator@D@2@@std@@@Z$24:
	lea	ecx, DWORD PTR $T149407[ebp]
	jmp	DWORD PTR __imp_??1?$basic_string@DU?$char_traits@D@std@@V?$allocator@D@2@@std@@QAE@XZ
__unwindfunclet$?LoadSettings@CargoDrop@@YAXABV?$basic_string@DU?$char_traits@D@std@@V?$allocator@D@2@@std@@@Z$25:
	lea	ecx, DWORD PTR $T149408[ebp]
	jmp	DWORD PTR __imp_??1?$basic_string@DU?$char_traits@D@std@@V?$allocator@D@2@@std@@QAE@XZ
__unwindfunclet$?LoadSettings@CargoDrop@@YAXABV?$basic_string@DU?$char_traits@D@std@@V?$allocator@D@2@@std@@@Z$26:
	lea	ecx, DWORD PTR $T149409[ebp]
	jmp	DWORD PTR __imp_??1?$basic_string@DU?$char_traits@D@std@@V?$allocator@D@2@@std@@QAE@XZ
__unwindfunclet$?LoadSettings@CargoDrop@@YAXABV?$basic_string@DU?$char_traits@D@std@@V?$allocator@D@2@@std@@@Z$27:
	lea	ecx, DWORD PTR $T149410[ebp]
	jmp	DWORD PTR __imp_??1?$basic_string@DU?$char_traits@D@std@@V?$allocator@D@2@@std@@QAE@XZ
__unwindfunclet$?LoadSettings@CargoDrop@@YAXABV?$basic_string@DU?$char_traits@D@std@@V?$allocator@D@2@@std@@@Z$28:
	lea	ecx, DWORD PTR $T149411[ebp]
	jmp	DWORD PTR __imp_??1?$basic_string@DU?$char_traits@D@std@@V?$allocator@D@2@@std@@QAE@XZ
__unwindfunclet$?LoadSettings@CargoDrop@@YAXABV?$basic_string@DU?$char_traits@D@std@@V?$allocator@D@2@@std@@@Z$29:
	lea	ecx, DWORD PTR $T149412[ebp]
	jmp	DWORD PTR __imp_??1?$basic_string@GU?$char_traits@G@std@@V?$allocator@G@2@@std@@QAE@XZ
__unwindfunclet$?LoadSettings@CargoDrop@@YAXABV?$basic_string@DU?$char_traits@D@std@@V?$allocator@D@2@@std@@@Z$30:
	lea	ecx, DWORD PTR _lstItems$[ebp]
	jmp	??1?$list@UINISECTIONVALUE@@V?$allocator@UINISECTIONVALUE@@@std@@@std@@QAE@XZ ; std::list<INISECTIONVALUE,std::allocator<INISECTIONVALUE> >::~list<INISECTIONVALUE,std::allocator<INISECTIONVALUE> >
__unwindfunclet$?LoadSettings@CargoDrop@@YAXABV?$basic_string@DU?$char_traits@D@std@@V?$allocator@D@2@@std@@@Z$31:
	lea	ecx, DWORD PTR $T149413[ebp]
	jmp	DWORD PTR __imp_??1?$basic_string@DU?$char_traits@D@std@@V?$allocator@D@2@@std@@QAE@XZ
__ehhandler$?LoadSettings@CargoDrop@@YAXABV?$basic_string@DU?$char_traits@D@std@@V?$allocator@D@2@@std@@@Z:
	mov	edx, DWORD PTR [esp+8]
	lea	eax, DWORD PTR [edx+12]
	mov	ecx, DWORD PTR [edx-984]
	xor	ecx, eax
	call	@__security_check_cookie@4
	mov	eax, OFFSET __ehfuncinfo$?LoadSettings@CargoDrop@@YAXABV?$basic_string@DU?$char_traits@D@std@@V?$allocator@D@2@@std@@@Z
	jmp	___CxxFrameHandler3
text$x	ENDS
?LoadSettings@CargoDrop@@YAXABV?$basic_string@DU?$char_traits@D@std@@V?$allocator@D@2@@std@@@Z ENDP ; CargoDrop::LoadSettings
PUBLIC	??1?$list@UCARGO_INFO@@V?$allocator@UCARGO_INFO@@@std@@@std@@QAE@XZ ; std::list<CARGO_INFO,std::allocator<CARGO_INFO> >::~list<CARGO_INFO,std::allocator<CARGO_INFO> >
PUBLIC	??8const_iterator@?$_Tree@V?$_Tmap_traits@IIU?$less@I@std@@V?$allocator@U?$pair@$$CBII@std@@@2@$0A@@std@@@std@@QBE_NABV012@@Z ; std::_Tree<std::_Tmap_traits<unsigned int,unsigned int,std::less<unsigned int>,std::allocator<std::pair<unsigned int const ,unsigned int> >,0> >::const_iterator::operator==
PUBLIC	?find@?$_Tree@V?$_Tmap_traits@IIU?$less@I@std@@V?$allocator@U?$pair@$$CBII@std@@@2@$0A@@std@@@std@@QAE?AViterator@12@ABI@Z ; std::_Tree<std::_Tmap_traits<unsigned int,unsigned int,std::less<unsigned int>,std::allocator<std::pair<unsigned int const ,unsigned int> >,0> >::find
PUBLIC	?end@?$_Tree@V?$_Tmap_traits@IIU?$less@I@std@@V?$allocator@U?$pair@$$CBII@std@@@2@$0A@@std@@@std@@QAE?AViterator@12@XZ ; std::_Tree<std::_Tmap_traits<unsigned int,unsigned int,std::less<unsigned int>,std::allocator<std::pair<unsigned int const ,unsigned int> >,0> >::end
PUBLIC	??C?$_Iterator@$00@?$list@UCARGO_INFO@@V?$allocator@UCARGO_INFO@@@std@@@std@@QBEPAUCARGO_INFO@@XZ ; std::list<CARGO_INFO,std::allocator<CARGO_INFO> >::_Iterator<1>::operator->
PUBLIC	??9?$_Const_iterator@$00@?$list@UCARGO_INFO@@V?$allocator@UCARGO_INFO@@@std@@@std@@QBE_NABV012@@Z ; std::list<CARGO_INFO,std::allocator<CARGO_INFO> >::_Const_iterator<1>::operator!=
PUBLIC	?end@?$list@UCARGO_INFO@@V?$allocator@UCARGO_INFO@@@std@@@std@@QAE?AV?$_Iterator@$00@12@XZ ; std::list<CARGO_INFO,std::allocator<CARGO_INFO> >::end
PUBLIC	??E?$_Iterator@$00@?$list@UCARGO_INFO@@V?$allocator@UCARGO_INFO@@@std@@@std@@QAE?AV012@H@Z ; std::list<CARGO_INFO,std::allocator<CARGO_INFO> >::_Iterator<1>::operator++
PUBLIC	?begin@?$list@UCARGO_INFO@@V?$allocator@UCARGO_INFO@@@std@@@std@@QAE?AV?$_Iterator@$00@12@XZ ; std::list<CARGO_INFO,std::allocator<CARGO_INFO> >::begin
PUBLIC	??0?$list@UCARGO_INFO@@V?$allocator@UCARGO_INFO@@@std@@@std@@QAE@XZ ; std::list<CARGO_INFO,std::allocator<CARGO_INFO> >::list<CARGO_INFO,std::allocator<CARGO_INFO> >
PUBLIC	__real@403e000000000000
PUBLIC	__real@00000000
PUBLIC	__real@3ff0000000000000
PUBLIC	??Citerator@?$_Tree@V?$_Tmap_traits@IVINFO@CargoDrop@@U?$less@I@std@@V?$allocator@U?$pair@$$CBIVINFO@CargoDrop@@@std@@@4@$0A@@std@@@std@@QBEPAU?$pair@$$CBIVINFO@CargoDrop@@@2@XZ ; std::_Tree<std::_Tmap_traits<unsigned int,CargoDrop::INFO,std::less<unsigned int>,std::allocator<std::pair<unsigned int const ,CargoDrop::INFO> >,0> >::iterator::operator->
PUBLIC	??9const_iterator@?$_Tree@V?$_Tmap_traits@IVINFO@CargoDrop@@U?$less@I@std@@V?$allocator@U?$pair@$$CBIVINFO@CargoDrop@@@std@@@4@$0A@@std@@@std@@QBE_NABV012@@Z ; std::_Tree<std::_Tmap_traits<unsigned int,CargoDrop::INFO,std::less<unsigned int>,std::allocator<std::pair<unsigned int const ,CargoDrop::INFO> >,0> >::const_iterator::operator!=
PUBLIC	?end@?$_Tree@V?$_Tmap_traits@IVINFO@CargoDrop@@U?$less@I@std@@V?$allocator@U?$pair@$$CBIVINFO@CargoDrop@@@std@@@4@$0A@@std@@@std@@QAE?AViterator@12@XZ ; std::_Tree<std::_Tmap_traits<unsigned int,CargoDrop::INFO,std::less<unsigned int>,std::allocator<std::pair<unsigned int const ,CargoDrop::INFO> >,0> >::end
PUBLIC	??Eiterator@?$_Tree@V?$_Tmap_traits@IVINFO@CargoDrop@@U?$less@I@std@@V?$allocator@U?$pair@$$CBIVINFO@CargoDrop@@@std@@@4@$0A@@std@@@std@@QAE?AV012@H@Z ; std::_Tree<std::_Tmap_traits<unsigned int,CargoDrop::INFO,std::less<unsigned int>,std::allocator<std::pair<unsigned int const ,CargoDrop::INFO> >,0> >::iterator::operator++
PUBLIC	?begin@?$_Tree@V?$_Tmap_traits@IVINFO@CargoDrop@@U?$less@I@std@@V?$allocator@U?$pair@$$CBIVINFO@CargoDrop@@@std@@@4@$0A@@std@@@std@@QAE?AViterator@12@XZ ; std::_Tree<std::_Tmap_traits<unsigned int,CargoDrop::INFO,std::less<unsigned int>,std::allocator<std::pair<unsigned int const ,CargoDrop::INFO> >,0> >::begin
PUBLIC	__$ArrayPad$
PUBLIC	?Timer@CargoDrop@@YAXXZ				; CargoDrop::Timer
EXTRN	__imp_?SetRelativeHealth@SpaceObj@pub@@YAHABIM@Z:PROC
EXTRN	__imp_?HkSaveChar@@YA?AW4HK_ERROR@@ABV?$basic_string@GU?$char_traits@G@std@@V?$allocator@G@2@@std@@@Z:PROC
EXTRN	__imp_?MineAsteroid@IServerImpl@@UAEXIABVVector@@IIII@Z:PROC
EXTRN	__imp_?HkRemoveCargo@@YA?AW4HK_ERROR@@ABV?$basic_string@GU?$char_traits@G@std@@V?$allocator@G@2@@std@@IH@Z:PROC
EXTRN	__imp_?HkEnumCargo@@YA?AW4HK_ERROR@@ABV?$basic_string@GU?$char_traits@G@std@@V?$allocator@G@2@@std@@AAV?$list@UCARGO_INFO@@V?$allocator@UCARGO_INFO@@@std@@@3@AAH@Z:PROC
EXTRN	__imp_?GetLocation@SpaceObj@pub@@YAHIAAVVector@@AAVMatrix@@@Z:PROC
EXTRN	__imp_?GetSystem@Player@pub@@YAHABIAAI@Z:PROC
EXTRN	?IsInRange@@YA_NIM@Z:PROC			; IsInRange
EXTRN	?PrintLocalUserCmdText@@YAXIABV?$basic_string@GU?$char_traits@G@std@@V?$allocator@G@2@@std@@M@Z:PROC ; PrintLocalUserCmdText
EXTRN	__imp_?ReplaceStr@@YA?AV?$basic_string@GU?$char_traits@G@std@@V?$allocator@G@2@@std@@ABV12@00@Z:PROC
EXTRN	?GetTimeString@@YA?AV?$basic_string@GU?$char_traits@G@std@@V?$allocator@G@2@@std@@_N@Z:PROC ; GetTimeString
EXTRN	?set_bLocalTime@@3_NA:BYTE			; set_bLocalTime
EXTRN	__imp_??0?$basic_string@GU?$char_traits@G@std@@V?$allocator@G@2@@std@@QAE@ABV01@@Z:PROC
EXTRN	__imp_?SPObjUpdate@IServerImpl@@UAEXABUSSPObjUpdateInfo@@I@Z:PROC
EXTRN	__imp__Server:BYTE
EXTRN	__imp_?DrainShields@SpaceObj@pub@@YAHI@Z:PROC
EXTRN	__imp_??0?$basic_string@GU?$char_traits@G@std@@V?$allocator@G@2@@std@@QAE@PBG@Z:PROC
EXTRN	__imp_?GetActiveCharacterName@PlayerDB@@QBEPBGI@Z:PROC
EXTRN	__imp_?Players@@3VPlayerDB@@A:BYTE
EXTRN	__imp_?ClientInfo@@3PAUCLIENT_INFO@@A:BYTE
EXTRN	__imp_?GetShip@Player@pub@@YAHABIAAI@Z:PROC
EXTRN	__imp_?HkIsInCharSelectMenu@@YA_NI@Z:PROC
EXTRN	__imp_?HkIsValidClientID@@YA_NI@Z:PROC
;	COMDAT __real@403e000000000000
CONST	SEGMENT
__real@403e000000000000 DQ 0403e000000000000r	; 30
CONST	ENDS
;	COMDAT __real@00000000
CONST	SEGMENT
__real@00000000 DD 000000000r			; 0
CONST	ENDS
;	COMDAT __real@3ff0000000000000
CONST	SEGMENT
__real@3ff0000000000000 DQ 03ff0000000000000r	; 1
CONST	ENDS
xdata$x	SEGMENT
__ehfuncinfo$?Timer@CargoDrop@@YAXXZ DD 019930522H
	DD	08H
	DD	FLAT:__unwindtable$?Timer@CargoDrop@@YAXXZ
	DD	2 DUP(00H)
	DD	2 DUP(00H)
	DD	00H
	DD	00H
__unwindtable$?Timer@CargoDrop@@YAXXZ DD 0ffffffffH
	DD	FLAT:__unwindfunclet$?Timer@CargoDrop@@YAXXZ$0
	DD	00H
	DD	FLAT:__unwindfunclet$?Timer@CargoDrop@@YAXXZ$1
	DD	01H
	DD	FLAT:__unwindfunclet$?Timer@CargoDrop@@YAXXZ$2
	DD	02H
	DD	FLAT:__unwindfunclet$?Timer@CargoDrop@@YAXXZ$3
	DD	03H
	DD	FLAT:__unwindfunclet$?Timer@CargoDrop@@YAXXZ$4
	DD	01H
	DD	FLAT:__unwindfunclet$?Timer@CargoDrop@@YAXXZ$5
	DD	05H
	DD	FLAT:__unwindfunclet$?Timer@CargoDrop@@YAXXZ$6
	DD	00H
	DD	FLAT:__unwindfunclet$?Timer@CargoDrop@@YAXXZ$7
; Function compile flags: /Odtp
xdata$x	ENDS
_TEXT	SEGMENT
tv386 = -484						; size = 4
tv216 = -480						; size = 4
tv383 = -476						; size = 4
tv190 = -472						; size = 4
tv381 = -468						; size = 4
tv203 = -464						; size = 4
tv158 = -460						; size = 4
tv414 = -456						; size = 4
tv413 = -452						; size = 4
tv403 = -448						; size = 4
tv402 = -444						; size = 4
$T149476 = -440						; size = 4
$T149475 = -436						; size = 8
$T149474 = -428						; size = 8
$T149473 = -420						; size = 8
$T149472 = -412						; size = 8
$T149471 = -404						; size = 4
$T149470 = -400						; size = 4
$T149469 = -396						; size = 28
$T149468 = -368						; size = 28
$T149467 = -340						; size = 28
$T149466 = -312						; size = 28
$T149465 = -284						; size = 28
$T149464 = -256						; size = 4
$T149463 = -252						; size = 8
$T149462 = -244						; size = 8
_iShip$142929 = -236					; size = 4
_item$142821 = -232					; size = 8
_lstCargo$142679 = -224					; size = 28
_iRemainingHoldSize$142680 = -196			; size = 4
_mRot$142159 = -192					; size = 36
_iShip$142156 = -156					; size = 4
_vLoc$142158 = -152					; size = 12
_iSystem$142154 = -140					; size = 4
_wscMsg$142145 = -136					; size = 28
_wscCharname$142140 = -108				; size = 28
__$ArrayPad$ = -80					; size = 4
_ui$142142 = -76					; size = 48
_iClientID$142108 = -28					; size = 4
_iShip$142135 = -24					; size = 4
_iter$142101 = -20					; size = 8
__$EHRec$ = -12						; size = 12
?Timer@CargoDrop@@YAXXZ PROC				; CargoDrop::Timer
; Line 89
	push	ebp
	mov	ebp, esp
	push	-1
	push	__ehhandler$?Timer@CargoDrop@@YAXXZ
	mov	eax, DWORD PTR fs:0
	push	eax
	sub	esp, 472				; 000001d8H
	mov	eax, DWORD PTR ___security_cookie
	xor	eax, ebp
	mov	DWORD PTR __$ArrayPad$[ebp], eax
	push	esi
	push	eax
	lea	eax, DWORD PTR __$EHRec$[ebp]
	mov	DWORD PTR fs:0, eax
; Line 91
	lea	eax, DWORD PTR _iter$142101[ebp]
	push	eax
	mov	ecx, OFFSET _mapInfo
	call	?begin@?$_Tree@V?$_Tmap_traits@IVINFO@CargoDrop@@U?$less@I@std@@V?$allocator@U?$pair@$$CBIVINFO@CargoDrop@@@std@@@4@$0A@@std@@@std@@QAE?AViterator@12@XZ ; std::_Tree<std::_Tmap_traits<unsigned int,CargoDrop::INFO,std::less<unsigned int>,std::allocator<std::pair<unsigned int const ,CargoDrop::INFO> >,0> >::begin
	jmp	SHORT $LN17@Timer
$LN16@Timer:
	push	0
	lea	ecx, DWORD PTR $T149462[ebp]
	push	ecx
	lea	ecx, DWORD PTR _iter$142101[ebp]
	call	??Eiterator@?$_Tree@V?$_Tmap_traits@IVINFO@CargoDrop@@U?$less@I@std@@V?$allocator@U?$pair@$$CBIVINFO@CargoDrop@@@std@@@4@$0A@@std@@@std@@QAE?AV012@H@Z ; std::_Tree<std::_Tmap_traits<unsigned int,CargoDrop::INFO,std::less<unsigned int>,std::allocator<std::pair<unsigned int const ,CargoDrop::INFO> >,0> >::iterator::operator++
$LN17@Timer:
	lea	edx, DWORD PTR $T149463[ebp]
	push	edx
	mov	ecx, OFFSET _mapInfo
	call	?end@?$_Tree@V?$_Tmap_traits@IVINFO@CargoDrop@@U?$less@I@std@@V?$allocator@U?$pair@$$CBIVINFO@CargoDrop@@@std@@@4@$0A@@std@@@std@@QAE?AViterator@12@XZ ; std::_Tree<std::_Tmap_traits<unsigned int,CargoDrop::INFO,std::less<unsigned int>,std::allocator<std::pair<unsigned int const ,CargoDrop::INFO> >,0> >::end
	push	eax
	lea	ecx, DWORD PTR _iter$142101[ebp]
	call	??9const_iterator@?$_Tree@V?$_Tmap_traits@IVINFO@CargoDrop@@U?$less@I@std@@V?$allocator@U?$pair@$$CBIVINFO@CargoDrop@@@std@@@4@$0A@@std@@@std@@QBE_NABV012@@Z ; std::_Tree<std::_Tmap_traits<unsigned int,CargoDrop::INFO,std::less<unsigned int>,std::allocator<std::pair<unsigned int const ,CargoDrop::INFO> >,0> >::const_iterator::operator!=
	movzx	eax, al
	test	eax, eax
	je	$LN15@Timer
; Line 93
	lea	ecx, DWORD PTR _iter$142101[ebp]
	call	??Citerator@?$_Tree@V?$_Tmap_traits@IVINFO@CargoDrop@@U?$less@I@std@@V?$allocator@U?$pair@$$CBIVINFO@CargoDrop@@@std@@@4@$0A@@std@@@std@@QBEPAU?$pair@$$CBIVINFO@CargoDrop@@@2@XZ ; std::_Tree<std::_Tmap_traits<unsigned int,CargoDrop::INFO,std::less<unsigned int>,std::allocator<std::pair<unsigned int const ,CargoDrop::INFO> >,0> >::iterator::operator->
	mov	ecx, DWORD PTR [eax]
	mov	DWORD PTR _iClientID$142108[ebp], ecx
; Line 96
	mov	edx, DWORD PTR _iClientID$142108[ebp]
	push	edx
	call	DWORD PTR __imp_?HkIsValidClientID@@YA_NI@Z
	add	esp, 4
	movzx	eax, al
	test	eax, eax
	je	SHORT $LN13@Timer
	mov	ecx, DWORD PTR _iClientID$142108[ebp]
	push	ecx
	call	DWORD PTR __imp_?HkIsInCharSelectMenu@@YA_NI@Z
	add	esp, 4
	movzx	edx, al
	test	edx, edx
	je	SHORT $LN14@Timer
$LN13@Timer:
; Line 97
	jmp	SHORT $LN16@Timer
$LN14@Timer:
; Line 101
	mov	eax, DWORD PTR _iClientID$142108[ebp]
	mov	DWORD PTR $T149464[ebp], eax
	lea	ecx, DWORD PTR _iShip$142135[ebp]
	push	ecx
	lea	edx, DWORD PTR $T149464[ebp]
	push	edx
	call	DWORD PTR __imp_?GetShip@Player@pub@@YAHABIAAI@Z
	add	esp, 8
; Line 102
	cmp	DWORD PTR _iShip$142135[ebp], 0
	jne	SHORT $LN12@Timer
; Line 103
	jmp	$LN16@Timer
$LN12@Timer:
; Line 105
	mov	eax, DWORD PTR _iClientID$142108[ebp]
	imul	eax, 368				; 00000170H
	mov	ecx, DWORD PTR __imp_?ClientInfo@@3PAUCLIENT_INFO@@A
	mov	DWORD PTR tv402[ebp], ecx
	mov	DWORD PTR tv403[ebp], eax
	mov	edx, DWORD PTR tv403[ebp]
	mov	eax, DWORD PTR tv402[ebp]
	mov	ecx, DWORD PTR tv403[ebp]
	mov	esi, DWORD PTR tv402[ebp]
	mov	edx, DWORD PTR [eax+edx+128]
	or	edx, DWORD PTR [esi+ecx+132]
	jne	SHORT $LN10@Timer
	mov	eax, DWORD PTR _iClientID$142108[ebp]
	imul	eax, 368				; 00000170H
	mov	ecx, DWORD PTR __imp_?ClientInfo@@3PAUCLIENT_INFO@@A
	mov	DWORD PTR tv413[ebp], ecx
	mov	DWORD PTR tv414[ebp], eax
	mov	edx, DWORD PTR tv414[ebp]
	mov	eax, DWORD PTR tv413[ebp]
	mov	ecx, DWORD PTR tv414[ebp]
	mov	esi, DWORD PTR tv413[ebp]
	mov	edx, DWORD PTR [eax+edx+136]
	or	edx, DWORD PTR [esi+ecx+140]
	je	$LN11@Timer
$LN10@Timer:
; Line 107
	mov	eax, DWORD PTR _iClientID$142108[ebp]
	push	eax
	mov	ecx, DWORD PTR __imp_?Players@@3VPlayerDB@@A
	call	DWORD PTR __imp_?GetActiveCharacterName@PlayerDB@@QBEPBGI@Z
	push	eax
	lea	ecx, DWORD PTR _wscCharname$142140[ebp]
	call	DWORD PTR __imp_??0?$basic_string@GU?$char_traits@G@std@@V?$allocator@G@2@@std@@QAE@PBG@Z
	mov	DWORD PTR __$EHRec$[ebp+8], 0
; Line 110
	mov	ecx, DWORD PTR _iShip$142135[ebp]
	push	ecx
	call	DWORD PTR __imp_?DrainShields@SpaceObj@pub@@YAHI@Z
	add	esp, 4
; Line 114
	lea	ecx, DWORD PTR _iter$142101[ebp]
	call	??Citerator@?$_Tree@V?$_Tmap_traits@IVINFO@CargoDrop@@U?$less@I@std@@V?$allocator@U?$pair@$$CBIVINFO@CargoDrop@@@std@@@4@$0A@@std@@@std@@QBEPAU?$pair@$$CBIVINFO@CargoDrop@@@2@XZ ; std::_Tree<std::_Tmap_traits<unsigned int,CargoDrop::INFO,std::less<unsigned int>,std::allocator<std::pair<unsigned int const ,CargoDrop::INFO> >,0> >::iterator::operator->
	add	eax, 16					; 00000010H
	mov	DWORD PTR tv158[ebp], eax
	mov	edx, DWORD PTR tv158[ebp]
	fld	QWORD PTR [edx]
	fadd	QWORD PTR __real@3ff0000000000000
	mov	eax, DWORD PTR tv158[ebp]
	fstp	QWORD PTR [eax]
; Line 115
	lea	ecx, DWORD PTR _iter$142101[ebp]
	call	??Citerator@?$_Tree@V?$_Tmap_traits@IVINFO@CargoDrop@@U?$less@I@std@@V?$allocator@U?$pair@$$CBIVINFO@CargoDrop@@@std@@@4@$0A@@std@@@std@@QBEPAU?$pair@$$CBIVINFO@CargoDrop@@@2@XZ ; std::_Tree<std::_Tmap_traits<unsigned int,CargoDrop::INFO,std::less<unsigned int>,std::allocator<std::pair<unsigned int const ,CargoDrop::INFO> >,0> >::iterator::operator->
	fld	QWORD PTR [eax+16]
	fstp	QWORD PTR _ui$142142[ebp+32]
; Line 116
	mov	BYTE PTR _ui$142142[ebp+44], 0
; Line 117
	fldz
	fstp	DWORD PTR _ui$142142[ebp+40]
; Line 118
	lea	ecx, DWORD PTR _iter$142101[ebp]
	call	??Citerator@?$_Tree@V?$_Tmap_traits@IVINFO@CargoDrop@@U?$less@I@std@@V?$allocator@U?$pair@$$CBIVINFO@CargoDrop@@@std@@@4@$0A@@std@@@std@@QBEPAU?$pair@$$CBIVINFO@CargoDrop@@@2@XZ ; std::_Tree<std::_Tmap_traits<unsigned int,CargoDrop::INFO,std::less<unsigned int>,std::allocator<std::pair<unsigned int const ,CargoDrop::INFO> >,0> >::iterator::operator->
	add	eax, 24					; 00000018H
	mov	ecx, DWORD PTR [eax]
	mov	DWORD PTR _ui$142142[ebp+20], ecx
	mov	edx, DWORD PTR [eax+4]
	mov	DWORD PTR _ui$142142[ebp+24], edx
	mov	eax, DWORD PTR [eax+8]
	mov	DWORD PTR _ui$142142[ebp+28], eax
; Line 119
	lea	ecx, DWORD PTR _iter$142101[ebp]
	call	??Citerator@?$_Tree@V?$_Tmap_traits@IVINFO@CargoDrop@@U?$less@I@std@@V?$allocator@U?$pair@$$CBIVINFO@CargoDrop@@@std@@@4@$0A@@std@@@std@@QBEPAU?$pair@$$CBIVINFO@CargoDrop@@@2@XZ ; std::_Tree<std::_Tmap_traits<unsigned int,CargoDrop::INFO,std::less<unsigned int>,std::allocator<std::pair<unsigned int const ,CargoDrop::INFO> >,0> >::iterator::operator->
	add	eax, 36					; 00000024H
	mov	ecx, DWORD PTR [eax]
	mov	DWORD PTR _ui$142142[ebp+4], ecx
	mov	edx, DWORD PTR [eax+4]
	mov	DWORD PTR _ui$142142[ebp+8], edx
	mov	ecx, DWORD PTR [eax+8]
	mov	DWORD PTR _ui$142142[ebp+12], ecx
	mov	edx, DWORD PTR [eax+12]
	mov	DWORD PTR _ui$142142[ebp+16], edx
; Line 120
	mov	eax, DWORD PTR _iClientID$142108[ebp]
	push	eax
	lea	ecx, DWORD PTR _ui$142142[ebp]
	push	ecx
	mov	ecx, DWORD PTR __imp__Server
	call	DWORD PTR __imp_?SPObjUpdate@IServerImpl@@UAEXABUSSPObjUpdateInfo@@I@Z
; Line 122
	lea	ecx, DWORD PTR _iter$142101[ebp]
	call	??Citerator@?$_Tree@V?$_Tmap_traits@IVINFO@CargoDrop@@U?$less@I@std@@V?$allocator@U?$pair@$$CBIVINFO@CargoDrop@@@std@@@4@$0A@@std@@@std@@QBEPAU?$pair@$$CBIVINFO@CargoDrop@@@2@XZ ; std::_Tree<std::_Tmap_traits<unsigned int,CargoDrop::INFO,std::less<unsigned int>,std::allocator<std::pair<unsigned int const ,CargoDrop::INFO> >,0> >::iterator::operator->
	movzx	edx, BYTE PTR [eax+8]
	test	edx, edx
	jne	$LN1@Timer
; Line 124
	lea	ecx, DWORD PTR _iter$142101[ebp]
	call	??Citerator@?$_Tree@V?$_Tmap_traits@IVINFO@CargoDrop@@U?$less@I@std@@V?$allocator@U?$pair@$$CBIVINFO@CargoDrop@@@std@@@4@$0A@@std@@@std@@QBEPAU?$pair@$$CBIVINFO@CargoDrop@@@2@XZ ; std::_Tree<std::_Tmap_traits<unsigned int,CargoDrop::INFO,std::less<unsigned int>,std::allocator<std::pair<unsigned int const ,CargoDrop::INFO> >,0> >::iterator::operator->
	mov	BYTE PTR [eax+8], 1
; Line 127
	movzx	eax, BYTE PTR ?set_bReportDisconnectingPlayers@CargoDrop@@3_NA ; CargoDrop::set_bReportDisconnectingPlayers
	test	eax, eax
	je	$LN8@Timer
; Line 129
	push	OFFSET ?set_wscDisconnectInSpaceMsg@CargoDrop@@3V?$basic_string@GU?$char_traits@G@std@@V?$allocator@G@2@@std@@A ; CargoDrop::set_wscDisconnectInSpaceMsg
	lea	ecx, DWORD PTR _wscMsg$142145[ebp]
	call	DWORD PTR __imp_??0?$basic_string@GU?$char_traits@G@std@@V?$allocator@G@2@@std@@QAE@ABV01@@Z
	mov	BYTE PTR __$EHRec$[ebp+8], 1
; Line 130
	push	OFFSET $SG142149
	lea	ecx, DWORD PTR $T149466[ebp]
	call	DWORD PTR __imp_??0?$basic_string@GU?$char_traits@G@std@@V?$allocator@G@2@@std@@QAE@PBG@Z
	mov	BYTE PTR __$EHRec$[ebp+8], 2
	movzx	ecx, BYTE PTR ?set_bLocalTime@@3_NA	; set_bLocalTime
	push	ecx
	lea	edx, DWORD PTR $T149465[ebp]
	push	edx
	call	?GetTimeString@@YA?AV?$basic_string@GU?$char_traits@G@std@@V?$allocator@G@2@@std@@_N@Z ; GetTimeString
	add	esp, 8
	mov	DWORD PTR tv203[ebp], eax
	mov	eax, DWORD PTR tv203[ebp]
	mov	DWORD PTR tv381[ebp], eax
	mov	BYTE PTR __$EHRec$[ebp+8], 3
	mov	ecx, DWORD PTR tv381[ebp]
	push	ecx
	lea	edx, DWORD PTR $T149466[ebp]
	push	edx
	lea	eax, DWORD PTR _wscMsg$142145[ebp]
	push	eax
	lea	ecx, DWORD PTR $T149467[ebp]
	push	ecx
	call	DWORD PTR __imp_?ReplaceStr@@YA?AV?$basic_string@GU?$char_traits@G@std@@V?$allocator@G@2@@std@@ABV12@00@Z
	add	esp, 16					; 00000010H
	mov	DWORD PTR tv190[ebp], eax
	mov	edx, DWORD PTR tv190[ebp]
	mov	DWORD PTR tv383[ebp], edx
	mov	BYTE PTR __$EHRec$[ebp+8], 4
	mov	eax, DWORD PTR tv383[ebp]
	push	eax
	lea	ecx, DWORD PTR _wscMsg$142145[ebp]
	call	DWORD PTR __imp_??4?$basic_string@GU?$char_traits@G@std@@V?$allocator@G@2@@std@@QAEAAV01@ABV01@@Z
	mov	BYTE PTR __$EHRec$[ebp+8], 3
	lea	ecx, DWORD PTR $T149467[ebp]
	call	DWORD PTR __imp_??1?$basic_string@GU?$char_traits@G@std@@V?$allocator@G@2@@std@@QAE@XZ
	mov	BYTE PTR __$EHRec$[ebp+8], 2
	lea	ecx, DWORD PTR $T149465[ebp]
	call	DWORD PTR __imp_??1?$basic_string@GU?$char_traits@G@std@@V?$allocator@G@2@@std@@QAE@XZ
	mov	BYTE PTR __$EHRec$[ebp+8], 1
	lea	ecx, DWORD PTR $T149466[ebp]
	call	DWORD PTR __imp_??1?$basic_string@GU?$char_traits@G@std@@V?$allocator@G@2@@std@@QAE@XZ
; Line 131
	push	OFFSET $SG142152
	lea	ecx, DWORD PTR $T149468[ebp]
	call	DWORD PTR __imp_??0?$basic_string@GU?$char_traits@G@std@@V?$allocator@G@2@@std@@QAE@PBG@Z
	mov	BYTE PTR __$EHRec$[ebp+8], 5
	lea	ecx, DWORD PTR _wscCharname$142140[ebp]
	push	ecx
	lea	edx, DWORD PTR $T149468[ebp]
	push	edx
	lea	eax, DWORD PTR _wscMsg$142145[ebp]
	push	eax
	lea	ecx, DWORD PTR $T149469[ebp]
	push	ecx
	call	DWORD PTR __imp_?ReplaceStr@@YA?AV?$basic_string@GU?$char_traits@G@std@@V?$allocator@G@2@@std@@ABV12@00@Z
	add	esp, 16					; 00000010H
	mov	DWORD PTR tv216[ebp], eax
	mov	edx, DWORD PTR tv216[ebp]
	mov	DWORD PTR tv386[ebp], edx
	mov	BYTE PTR __$EHRec$[ebp+8], 6
	mov	eax, DWORD PTR tv386[ebp]
	push	eax
	lea	ecx, DWORD PTR _wscMsg$142145[ebp]
	call	DWORD PTR __imp_??4?$basic_string@GU?$char_traits@G@std@@V?$allocator@G@2@@std@@QAEAAV01@ABV01@@Z
	mov	BYTE PTR __$EHRec$[ebp+8], 5
	lea	ecx, DWORD PTR $T149469[ebp]
	call	DWORD PTR __imp_??1?$basic_string@GU?$char_traits@G@std@@V?$allocator@G@2@@std@@QAE@XZ
	mov	BYTE PTR __$EHRec$[ebp+8], 1
	lea	ecx, DWORD PTR $T149468[ebp]
	call	DWORD PTR __imp_??1?$basic_string@GU?$char_traits@G@std@@V?$allocator@G@2@@std@@QAE@XZ
; Line 132
	push	ecx
	fld	DWORD PTR _set_fDisconnectingPlayersRange
	fstp	DWORD PTR [esp]
	lea	ecx, DWORD PTR _wscMsg$142145[ebp]
	push	ecx
	mov	edx, DWORD PTR _iClientID$142108[ebp]
	push	edx
	call	?PrintLocalUserCmdText@@YAXIABV?$basic_string@GU?$char_traits@G@std@@V?$allocator@G@2@@std@@M@Z ; PrintLocalUserCmdText
	add	esp, 12					; 0000000cH
; Line 133
	mov	BYTE PTR __$EHRec$[ebp+8], 0
	lea	ecx, DWORD PTR _wscMsg$142145[ebp]
	call	DWORD PTR __imp_??1?$basic_string@GU?$char_traits@G@std@@V?$allocator@G@2@@std@@QAE@XZ
$LN8@Timer:
; Line 136
	movzx	eax, BYTE PTR ?set_bLootDisconnectingPlayers@CargoDrop@@3_NA ; CargoDrop::set_bLootDisconnectingPlayers
	test	eax, eax
	je	$LN7@Timer
	push	ecx
	fld	DWORD PTR _set_fDisconnectingPlayersRange
	fstp	DWORD PTR [esp]
	mov	ecx, DWORD PTR _iClientID$142108[ebp]
	push	ecx
	call	?IsInRange@@YA_NIM@Z			; IsInRange
	add	esp, 8
	movzx	edx, al
	test	edx, edx
	je	$LN7@Timer
; Line 138
	mov	DWORD PTR _iSystem$142154[ebp], 0
; Line 139
	mov	eax, DWORD PTR _iClientID$142108[ebp]
	mov	DWORD PTR $T149470[ebp], eax
	lea	ecx, DWORD PTR _iSystem$142154[ebp]
	push	ecx
	lea	edx, DWORD PTR $T149470[ebp]
	push	edx
	call	DWORD PTR __imp_?GetSystem@Player@pub@@YAHABIAAI@Z
	add	esp, 8
; Line 140
	mov	DWORD PTR _iShip$142156[ebp], 0
; Line 141
	mov	eax, DWORD PTR _iClientID$142108[ebp]
	mov	DWORD PTR $T149471[ebp], eax
	lea	ecx, DWORD PTR _iShip$142156[ebp]
	push	ecx
	lea	edx, DWORD PTR $T149471[ebp]
	push	edx
	call	DWORD PTR __imp_?GetShip@Player@pub@@YAHABIAAI@Z
	add	esp, 8
; Line 142
	fldz
	fstp	DWORD PTR _vLoc$142158[ebp]
	fldz
	fstp	DWORD PTR _vLoc$142158[ebp+4]
	fldz
	fstp	DWORD PTR _vLoc$142158[ebp+8]
; Line 143
	fldz
	fstp	DWORD PTR _mRot$142159[ebp]
	fldz
	fstp	DWORD PTR _mRot$142159[ebp+4]
	fldz
	fstp	DWORD PTR _mRot$142159[ebp+8]
	xor	eax, eax
	mov	DWORD PTR _mRot$142159[ebp+12], eax
	mov	DWORD PTR _mRot$142159[ebp+16], eax
	mov	DWORD PTR _mRot$142159[ebp+20], eax
	mov	DWORD PTR _mRot$142159[ebp+24], eax
	mov	DWORD PTR _mRot$142159[ebp+28], eax
	mov	DWORD PTR _mRot$142159[ebp+32], eax
; Line 144
	lea	ecx, DWORD PTR _mRot$142159[ebp]
	push	ecx
	lea	edx, DWORD PTR _vLoc$142158[ebp]
	push	edx
	mov	eax, DWORD PTR _iShip$142156[ebp]
	push	eax
	call	DWORD PTR __imp_?GetLocation@SpaceObj@pub@@YAHIAAVVector@@AAVMatrix@@@Z
	add	esp, 12					; 0000000cH
; Line 145
	fld	DWORD PTR _vLoc$142158[ebp]
	fadd	QWORD PTR __real@403e000000000000
	fstp	DWORD PTR _vLoc$142158[ebp]
; Line 147
	lea	ecx, DWORD PTR _lstCargo$142679[ebp]
	call	??0?$list@UCARGO_INFO@@V?$allocator@UCARGO_INFO@@@std@@@std@@QAE@XZ ; std::list<CARGO_INFO,std::allocator<CARGO_INFO> >::list<CARGO_INFO,std::allocator<CARGO_INFO> >
	mov	BYTE PTR __$EHRec$[ebp+8], 7
; Line 148
	mov	DWORD PTR _iRemainingHoldSize$142680[ebp], 0
; Line 149
	lea	ecx, DWORD PTR _iRemainingHoldSize$142680[ebp]
	push	ecx
	lea	edx, DWORD PTR _lstCargo$142679[ebp]
	push	edx
	lea	eax, DWORD PTR _wscCharname$142140[ebp]
	push	eax
	call	DWORD PTR __imp_?HkEnumCargo@@YA?AW4HK_ERROR@@ABV?$basic_string@GU?$char_traits@G@std@@V?$allocator@G@2@@std@@AAV?$list@UCARGO_INFO@@V?$allocator@UCARGO_INFO@@@std@@@3@AAH@Z
	add	esp, 12					; 0000000cH
	test	eax, eax
	jne	$LN3@Timer
; Line 151
	lea	ecx, DWORD PTR _item$142821[ebp]
	push	ecx
	lea	ecx, DWORD PTR _lstCargo$142679[ebp]
	call	?begin@?$list@UCARGO_INFO@@V?$allocator@UCARGO_INFO@@@std@@@std@@QAE?AV?$_Iterator@$00@12@XZ ; std::list<CARGO_INFO,std::allocator<CARGO_INFO> >::begin
	jmp	SHORT $LN5@Timer
$LN4@Timer:
	push	0
	lea	edx, DWORD PTR $T149472[ebp]
	push	edx
	lea	ecx, DWORD PTR _item$142821[ebp]
	call	??E?$_Iterator@$00@?$list@UCARGO_INFO@@V?$allocator@UCARGO_INFO@@@std@@@std@@QAE?AV012@H@Z ; std::list<CARGO_INFO,std::allocator<CARGO_INFO> >::_Iterator<1>::operator++
$LN5@Timer:
	lea	eax, DWORD PTR $T149473[ebp]
	push	eax
	lea	ecx, DWORD PTR _lstCargo$142679[ebp]
	call	?end@?$list@UCARGO_INFO@@V?$allocator@UCARGO_INFO@@@std@@@std@@QAE?AV?$_Iterator@$00@12@XZ ; std::list<CARGO_INFO,std::allocator<CARGO_INFO> >::end
	push	eax
	lea	ecx, DWORD PTR _item$142821[ebp]
	call	??9?$_Const_iterator@$00@?$list@UCARGO_INFO@@V?$allocator@UCARGO_INFO@@@std@@@std@@QBE_NABV012@@Z ; std::list<CARGO_INFO,std::allocator<CARGO_INFO> >::_Const_iterator<1>::operator!=
	movzx	ecx, al
	test	ecx, ecx
	je	$LN3@Timer
; Line 153
	lea	ecx, DWORD PTR _item$142821[ebp]
	call	??C?$_Iterator@$00@?$list@UCARGO_INFO@@V?$allocator@UCARGO_INFO@@@std@@@std@@QBEPAUCARGO_INFO@@XZ ; std::list<CARGO_INFO,std::allocator<CARGO_INFO> >::_Iterator<1>::operator->
	movzx	edx, BYTE PTR [eax+17]
	test	edx, edx
	jne	$LN2@Timer
	lea	eax, DWORD PTR $T149475[ebp]
	push	eax
	mov	ecx, OFFSET _set_mapNoLootItems
	call	?end@?$_Tree@V?$_Tmap_traits@IIU?$less@I@std@@V?$allocator@U?$pair@$$CBII@std@@@2@$0A@@std@@@std@@QAE?AViterator@12@XZ ; std::_Tree<std::_Tmap_traits<unsigned int,unsigned int,std::less<unsigned int>,std::allocator<std::pair<unsigned int const ,unsigned int> >,0> >::end
	push	eax
	lea	ecx, DWORD PTR _item$142821[ebp]
	call	??C?$_Iterator@$00@?$list@UCARGO_INFO@@V?$allocator@UCARGO_INFO@@@std@@@std@@QBEPAUCARGO_INFO@@XZ ; std::list<CARGO_INFO,std::allocator<CARGO_INFO> >::_Iterator<1>::operator->
	add	eax, 8
	push	eax
	lea	ecx, DWORD PTR $T149474[ebp]
	push	ecx
	mov	ecx, OFFSET _set_mapNoLootItems
	call	?find@?$_Tree@V?$_Tmap_traits@IIU?$less@I@std@@V?$allocator@U?$pair@$$CBII@std@@@2@$0A@@std@@@std@@QAE?AViterator@12@ABI@Z ; std::_Tree<std::_Tmap_traits<unsigned int,unsigned int,std::less<unsigned int>,std::allocator<std::pair<unsigned int const ,unsigned int> >,0> >::find
	mov	ecx, eax
	call	??8const_iterator@?$_Tree@V?$_Tmap_traits@IIU?$less@I@std@@V?$allocator@U?$pair@$$CBII@std@@@2@$0A@@std@@@std@@QBE_NABV012@@Z ; std::_Tree<std::_Tmap_traits<unsigned int,unsigned int,std::less<unsigned int>,std::allocator<std::pair<unsigned int const ,unsigned int> >,0> >::const_iterator::operator==
	movzx	edx, al
	test	edx, edx
	je	SHORT $LN2@Timer
; Line 155
	lea	ecx, DWORD PTR _item$142821[ebp]
	call	??C?$_Iterator@$00@?$list@UCARGO_INFO@@V?$allocator@UCARGO_INFO@@@std@@@std@@QBEPAUCARGO_INFO@@XZ ; std::list<CARGO_INFO,std::allocator<CARGO_INFO> >::_Iterator<1>::operator->
	mov	eax, DWORD PTR [eax+4]
	push	eax
	lea	ecx, DWORD PTR _item$142821[ebp]
	call	??C?$_Iterator@$00@?$list@UCARGO_INFO@@V?$allocator@UCARGO_INFO@@@std@@@std@@QBEPAUCARGO_INFO@@XZ ; std::list<CARGO_INFO,std::allocator<CARGO_INFO> >::_Iterator<1>::operator->
	mov	ecx, DWORD PTR [eax]
	push	ecx
	lea	edx, DWORD PTR _wscCharname$142140[ebp]
	push	edx
	call	DWORD PTR __imp_?HkRemoveCargo@@YA?AW4HK_ERROR@@ABV?$basic_string@GU?$char_traits@G@std@@V?$allocator@G@2@@std@@IH@Z
	add	esp, 12					; 0000000cH
; Line 156
	mov	eax, DWORD PTR _iClientID$142108[ebp]
	push	eax
	lea	ecx, DWORD PTR _item$142821[ebp]
	call	??C?$_Iterator@$00@?$list@UCARGO_INFO@@V?$allocator@UCARGO_INFO@@@std@@@std@@QBEPAUCARGO_INFO@@XZ ; std::list<CARGO_INFO,std::allocator<CARGO_INFO> >::_Iterator<1>::operator->
	mov	ecx, DWORD PTR [eax+4]
	push	ecx
	lea	ecx, DWORD PTR _item$142821[ebp]
	call	??C?$_Iterator@$00@?$list@UCARGO_INFO@@V?$allocator@UCARGO_INFO@@@std@@@std@@QBEPAUCARGO_INFO@@XZ ; std::list<CARGO_INFO,std::allocator<CARGO_INFO> >::_Iterator<1>::operator->
	mov	edx, DWORD PTR [eax+8]
	push	edx
	mov	eax, DWORD PTR _set_iLootCrateID
	push	eax
	lea	ecx, DWORD PTR _vLoc$142158[ebp]
	push	ecx
	mov	edx, DWORD PTR _iSystem$142154[ebp]
	push	edx
	mov	ecx, DWORD PTR __imp__Server
	call	DWORD PTR __imp_?MineAsteroid@IServerImpl@@UAEXIABVVector@@IIII@Z
$LN2@Timer:
; Line 158
	jmp	$LN4@Timer
$LN3@Timer:
; Line 160
	lea	eax, DWORD PTR _wscCharname$142140[ebp]
	push	eax
	call	DWORD PTR __imp_?HkSaveChar@@YA?AW4HK_ERROR@@ABV?$basic_string@GU?$char_traits@G@std@@V?$allocator@G@2@@std@@@Z
	add	esp, 4
; Line 161
	mov	BYTE PTR __$EHRec$[ebp+8], 0
	lea	ecx, DWORD PTR _lstCargo$142679[ebp]
	call	??1?$list@UCARGO_INFO@@V?$allocator@UCARGO_INFO@@@std@@@std@@QAE@XZ ; std::list<CARGO_INFO,std::allocator<CARGO_INFO> >::~list<CARGO_INFO,std::allocator<CARGO_INFO> >
$LN7@Timer:
; Line 164
	movzx	ecx, BYTE PTR ?set_bKillDisconnectingPlayers@CargoDrop@@3_NA ; CargoDrop::set_bKillDisconnectingPlayers
	test	ecx, ecx
	je	SHORT $LN1@Timer
	push	ecx
	fld	DWORD PTR _set_fDisconnectingPlayersRange
	fstp	DWORD PTR [esp]
	mov	edx, DWORD PTR _iClientID$142108[ebp]
	push	edx
	call	?IsInRange@@YA_NIM@Z			; IsInRange
	add	esp, 8
	movzx	eax, al
	test	eax, eax
	je	SHORT $LN1@Timer
; Line 166
	mov	DWORD PTR _iShip$142929[ebp], 0
; Line 167
	mov	ecx, DWORD PTR _iClientID$142108[ebp]
	mov	DWORD PTR $T149476[ebp], ecx
	lea	edx, DWORD PTR _iShip$142929[ebp]
	push	edx
	lea	eax, DWORD PTR $T149476[ebp]
	push	eax
	call	DWORD PTR __imp_?GetShip@Player@pub@@YAHABIAAI@Z
	add	esp, 8
; Line 168
	push	ecx
	fldz
	fstp	DWORD PTR [esp]
	lea	ecx, DWORD PTR _iShip$142929[ebp]
	push	ecx
	call	DWORD PTR __imp_?SetRelativeHealth@SpaceObj@pub@@YAHABIM@Z
	add	esp, 8
$LN1@Timer:
; Line 171
	mov	DWORD PTR __$EHRec$[ebp+8], -1
	lea	ecx, DWORD PTR _wscCharname$142140[ebp]
	call	DWORD PTR __imp_??1?$basic_string@GU?$char_traits@G@std@@V?$allocator@G@2@@std@@QAE@XZ
$LN11@Timer:
	jmp	$LN16@Timer
$LN15@Timer:
; Line 173
	mov	ecx, DWORD PTR __$EHRec$[ebp]
	mov	DWORD PTR fs:0, ecx
	pop	ecx
	pop	esi
	mov	ecx, DWORD PTR __$ArrayPad$[ebp]
	xor	ecx, ebp
	call	@__security_check_cookie@4
	mov	esp, ebp
	pop	ebp
	ret	0
_TEXT	ENDS
text$x	SEGMENT
__unwindfunclet$?Timer@CargoDrop@@YAXXZ$0:
	lea	ecx, DWORD PTR _wscCharname$142140[ebp]
	jmp	DWORD PTR __imp_??1?$basic_string@GU?$char_traits@G@std@@V?$allocator@G@2@@std@@QAE@XZ
__unwindfunclet$?Timer@CargoDrop@@YAXXZ$1:
	lea	ecx, DWORD PTR _wscMsg$142145[ebp]
	jmp	DWORD PTR __imp_??1?$basic_string@GU?$char_traits@G@std@@V?$allocator@G@2@@std@@QAE@XZ
__unwindfunclet$?Timer@CargoDrop@@YAXXZ$2:
	lea	ecx, DWORD PTR $T149466[ebp]
	jmp	DWORD PTR __imp_??1?$basic_string@GU?$char_traits@G@std@@V?$allocator@G@2@@std@@QAE@XZ
__unwindfunclet$?Timer@CargoDrop@@YAXXZ$3:
	lea	ecx, DWORD PTR $T149465[ebp]
	jmp	DWORD PTR __imp_??1?$basic_string@GU?$char_traits@G@std@@V?$allocator@G@2@@std@@QAE@XZ
__unwindfunclet$?Timer@CargoDrop@@YAXXZ$4:
	lea	ecx, DWORD PTR $T149467[ebp]
	jmp	DWORD PTR __imp_??1?$basic_string@GU?$char_traits@G@std@@V?$allocator@G@2@@std@@QAE@XZ
__unwindfunclet$?Timer@CargoDrop@@YAXXZ$5:
	lea	ecx, DWORD PTR $T149468[ebp]
	jmp	DWORD PTR __imp_??1?$basic_string@GU?$char_traits@G@std@@V?$allocator@G@2@@std@@QAE@XZ
__unwindfunclet$?Timer@CargoDrop@@YAXXZ$6:
	lea	ecx, DWORD PTR $T149469[ebp]
	jmp	DWORD PTR __imp_??1?$basic_string@GU?$char_traits@G@std@@V?$allocator@G@2@@std@@QAE@XZ
__unwindfunclet$?Timer@CargoDrop@@YAXXZ$7:
	lea	ecx, DWORD PTR _lstCargo$142679[ebp]
	jmp	??1?$list@UCARGO_INFO@@V?$allocator@UCARGO_INFO@@@std@@@std@@QAE@XZ ; std::list<CARGO_INFO,std::allocator<CARGO_INFO> >::~list<CARGO_INFO,std::allocator<CARGO_INFO> >
__ehhandler$?Timer@CargoDrop@@YAXXZ:
	mov	edx, DWORD PTR [esp+8]
	lea	eax, DWORD PTR [edx+12]
	mov	ecx, DWORD PTR [edx-480]
	xor	ecx, eax
	call	@__security_check_cookie@4
	mov	ecx, DWORD PTR [edx-68]
	xor	ecx, eax
	call	@__security_check_cookie@4
	mov	eax, OFFSET __ehfuncinfo$?Timer@CargoDrop@@YAXXZ
	jmp	___CxxFrameHandler3
text$x	ENDS
?Timer@CargoDrop@@YAXXZ ENDP				; CargoDrop::Timer
PUBLIC	__real@3fe0000000000000
PUBLIC	__real@0000000000000000
PUBLIC	?SendDeathMsg@CargoDrop@@YAXABV?$basic_string@GU?$char_traits@G@std@@V?$allocator@G@2@@std@@III@Z ; CargoDrop::SendDeathMsg
EXTRN	__imp_?ConPrint@@YAXV?$basic_string@GU?$char_traits@G@std@@V?$allocator@G@2@@std@@ZZ:PROC
EXTRN	?set_iPluginDebug@@3HA:DWORD			; set_iPluginDebug
EXTRN	__ftol2_sse:PROC
;	COMDAT __real@3fe0000000000000
CONST	SEGMENT
__real@3fe0000000000000 DQ 03fe0000000000000r	; 0.5
CONST	ENDS
;	COMDAT __real@0000000000000000
CONST	SEGMENT
__real@0000000000000000 DQ 00000000000000000r	; 0
CONST	ENDS
xdata$x	SEGMENT
__unwindtable$?SendDeathMsg@CargoDrop@@YAXABV?$basic_string@GU?$char_traits@G@std@@V?$allocator@G@2@@std@@III@Z DD 0ffffffffH
	DD	FLAT:__unwindfunclet$?SendDeathMsg@CargoDrop@@YAXABV?$basic_string@GU?$char_traits@G@std@@V?$allocator@G@2@@std@@III@Z$0
	DD	00H
	DD	FLAT:__unwindfunclet$?SendDeathMsg@CargoDrop@@YAXABV?$basic_string@GU?$char_traits@G@std@@V?$allocator@G@2@@std@@III@Z$1
	DD	00H
	DD	FLAT:__unwindfunclet$?SendDeathMsg@CargoDrop@@YAXABV?$basic_string@GU?$char_traits@G@std@@V?$allocator@G@2@@std@@III@Z$2
__ehfuncinfo$?SendDeathMsg@CargoDrop@@YAXABV?$basic_string@GU?$char_traits@G@std@@V?$allocator@G@2@@std@@III@Z DD 019930522H
	DD	03H
	DD	FLAT:__unwindtable$?SendDeathMsg@CargoDrop@@YAXABV?$basic_string@GU?$char_traits@G@std@@V?$allocator@G@2@@std@@III@Z
	DD	2 DUP(00H)
	DD	2 DUP(00H)
	DD	00H
	DD	00H
; Function compile flags: /Odtp
xdata$x	ENDS
_TEXT	SEGMENT
tv215 = -172						; size = 4
tv73 = -168						; size = 4
$T149500 = -164						; size = 4
$T149499 = -160						; size = 8
$T149498 = -152						; size = 8
$T149497 = -144						; size = 28
$T149496 = -113						; size = 1
_myLocation$142966 = -112				; size = 12
_myRot$142967 = -100					; size = 36
_iShip$142965 = -64					; size = 4
_iter$142953 = -60					; size = 8
_lstCargo$ = -52					; size = 28
_iRemainingHoldSize$ = -24				; size = 4
_iShipSizeEst$ = -20					; size = 4
_iHullDrop$ = -16					; size = 4
__$EHRec$ = -12						; size = 12
_wscMsg$ = 8						; size = 4
_iSystem$ = 12						; size = 4
_iClientIDVictim$ = 16					; size = 4
_iClientIDKiller$ = 20					; size = 4
?SendDeathMsg@CargoDrop@@YAXABV?$basic_string@GU?$char_traits@G@std@@V?$allocator@G@2@@std@@III@Z PROC ; CargoDrop::SendDeathMsg
; Line 179
	push	ebp
	mov	ebp, esp
	push	-1
	push	__ehhandler$?SendDeathMsg@CargoDrop@@YAXABV?$basic_string@GU?$char_traits@G@std@@V?$allocator@G@2@@std@@III@Z
	mov	eax, DWORD PTR fs:0
	push	eax
	sub	esp, 160				; 000000a0H
	mov	eax, DWORD PTR ___security_cookie
	xor	eax, ebp
	push	eax
	lea	eax, DWORD PTR __$EHRec$[ebp]
	mov	DWORD PTR fs:0, eax
; Line 181
	fld	DWORD PTR _set_fHullFct
	fcomp	QWORD PTR __real@0000000000000000
	fnstsw	ax
	test	ah, 68					; 00000044H
	jp	SHORT $LN8@SendDeathM
; Line 182
	jmp	$LN9@SendDeathM
$LN8@SendDeathM:
; Line 184
	lea	ecx, DWORD PTR _lstCargo$[ebp]
	call	??0?$list@UCARGO_INFO@@V?$allocator@UCARGO_INFO@@@std@@@std@@QAE@XZ ; std::list<CARGO_INFO,std::allocator<CARGO_INFO> >::list<CARGO_INFO,std::allocator<CARGO_INFO> >
	mov	DWORD PTR __$EHRec$[ebp+8], 0
; Line 186
	mov	eax, DWORD PTR _iClientIDVictim$[ebp]
	push	eax
	mov	ecx, DWORD PTR __imp_?Players@@3VPlayerDB@@A
	call	DWORD PTR __imp_?GetActiveCharacterName@PlayerDB@@QBEPBGI@Z
	push	eax
	lea	ecx, DWORD PTR $T149497[ebp]
	call	DWORD PTR __imp_??0?$basic_string@GU?$char_traits@G@std@@V?$allocator@G@2@@std@@QAE@PBG@Z
	mov	BYTE PTR __$EHRec$[ebp+8], 1
	lea	ecx, DWORD PTR _iRemainingHoldSize$[ebp]
	push	ecx
	lea	edx, DWORD PTR _lstCargo$[ebp]
	push	edx
	lea	eax, DWORD PTR $T149497[ebp]
	push	eax
	call	DWORD PTR __imp_?HkEnumCargo@@YA?AW4HK_ERROR@@ABV?$basic_string@GU?$char_traits@G@std@@V?$allocator@G@2@@std@@AAV?$list@UCARGO_INFO@@V?$allocator@UCARGO_INFO@@@std@@@3@AAH@Z
	add	esp, 12					; 0000000cH
	neg	eax
	sbb	eax, eax
	neg	eax
	mov	BYTE PTR $T149496[ebp], al
	mov	BYTE PTR __$EHRec$[ebp+8], 0
	lea	ecx, DWORD PTR $T149497[ebp]
	call	DWORD PTR __imp_??1?$basic_string@GU?$char_traits@G@std@@V?$allocator@G@2@@std@@QAE@XZ
	movzx	ecx, BYTE PTR $T149496[ebp]
	test	ecx, ecx
	je	SHORT $LN7@SendDeathM
; Line 187
	mov	DWORD PTR __$EHRec$[ebp+8], -1
	lea	ecx, DWORD PTR _lstCargo$[ebp]
	call	??1?$list@UCARGO_INFO@@V?$allocator@UCARGO_INFO@@@std@@@std@@QAE@XZ ; std::list<CARGO_INFO,std::allocator<CARGO_INFO> >::~list<CARGO_INFO,std::allocator<CARGO_INFO> >
	jmp	$LN9@SendDeathM
$LN7@SendDeathM:
; Line 189
	mov	edx, DWORD PTR _iRemainingHoldSize$[ebp]
	mov	DWORD PTR _iShipSizeEst$[ebp], edx
; Line 190
	lea	eax, DWORD PTR _iter$142953[ebp]
	push	eax
	lea	ecx, DWORD PTR _lstCargo$[ebp]
	call	?begin@?$list@UCARGO_INFO@@V?$allocator@UCARGO_INFO@@@std@@@std@@QAE?AV?$_Iterator@$00@12@XZ ; std::list<CARGO_INFO,std::allocator<CARGO_INFO> >::begin
	jmp	SHORT $LN6@SendDeathM
$LN5@SendDeathM:
	push	0
	lea	ecx, DWORD PTR $T149498[ebp]
	push	ecx
	lea	ecx, DWORD PTR _iter$142953[ebp]
	call	??E?$_Iterator@$00@?$list@UCARGO_INFO@@V?$allocator@UCARGO_INFO@@@std@@@std@@QAE?AV012@H@Z ; std::list<CARGO_INFO,std::allocator<CARGO_INFO> >::_Iterator<1>::operator++
$LN6@SendDeathM:
	lea	edx, DWORD PTR $T149499[ebp]
	push	edx
	lea	ecx, DWORD PTR _lstCargo$[ebp]
	call	?end@?$list@UCARGO_INFO@@V?$allocator@UCARGO_INFO@@@std@@@std@@QAE?AV?$_Iterator@$00@12@XZ ; std::list<CARGO_INFO,std::allocator<CARGO_INFO> >::end
	push	eax
	lea	ecx, DWORD PTR _iter$142953[ebp]
	call	??9?$_Const_iterator@$00@?$list@UCARGO_INFO@@V?$allocator@UCARGO_INFO@@@std@@@std@@QBE_NABV012@@Z ; std::list<CARGO_INFO,std::allocator<CARGO_INFO> >::_Const_iterator<1>::operator!=
	movzx	eax, al
	test	eax, eax
	je	SHORT $LN4@SendDeathM
; Line 192
	lea	ecx, DWORD PTR _iter$142953[ebp]
	call	??C?$_Iterator@$00@?$list@UCARGO_INFO@@V?$allocator@UCARGO_INFO@@@std@@@std@@QBEPAUCARGO_INFO@@XZ ; std::list<CARGO_INFO,std::allocator<CARGO_INFO> >::_Iterator<1>::operator->
	movzx	ecx, BYTE PTR [eax+17]
	test	ecx, ecx
	jne	SHORT $LN3@SendDeathM
; Line 194
	lea	ecx, DWORD PTR _iter$142953[ebp]
	call	??C?$_Iterator@$00@?$list@UCARGO_INFO@@V?$allocator@UCARGO_INFO@@@std@@@std@@QBEPAUCARGO_INFO@@XZ ; std::list<CARGO_INFO,std::allocator<CARGO_INFO> >::_Iterator<1>::operator->
	mov	edx, DWORD PTR _iShipSizeEst$[ebp]
	add	edx, DWORD PTR [eax+4]
	mov	DWORD PTR _iShipSizeEst$[ebp], edx
$LN3@SendDeathM:
; Line 196
	jmp	SHORT $LN5@SendDeathM
$LN4@SendDeathM:
; Line 198
	fild	DWORD PTR _iShipSizeEst$[ebp]
	fmul	DWORD PTR _set_fHullFct
	call	__ftol2_sse
	mov	DWORD PTR _iHullDrop$[ebp], eax
; Line 199
	cmp	DWORD PTR _iHullDrop$[ebp], 0
	jle	$LN2@SendDeathM
; Line 202
	lea	eax, DWORD PTR _iShip$142965[ebp]
	push	eax
	lea	ecx, DWORD PTR _iClientIDVictim$[ebp]
	push	ecx
	call	DWORD PTR __imp_?GetShip@Player@pub@@YAHABIAAI@Z
	add	esp, 8
; Line 205
	lea	edx, DWORD PTR _myRot$142967[ebp]
	push	edx
	lea	eax, DWORD PTR _myLocation$142966[ebp]
	push	eax
	mov	ecx, DWORD PTR _iShip$142965[ebp]
	push	ecx
	call	DWORD PTR __imp_?GetLocation@SpaceObj@pub@@YAHIAAVVector@@AAVMatrix@@@Z
	add	esp, 12					; 0000000cH
; Line 206
	fld	DWORD PTR _myLocation$142966[ebp]
	fadd	QWORD PTR __real@403e000000000000
	fstp	DWORD PTR _myLocation$142966[ebp]
; Line 208
	cmp	DWORD PTR ?set_iPluginDebug@@3HA, 0	; set_iPluginDebug
	je	SHORT $LN1@SendDeathM
; Line 209
	mov	edx, DWORD PTR _iHullDrop$[ebp]
	push	edx
	mov	eax, DWORD PTR _iShipSizeEst$[ebp]
	push	eax
	fld	DWORD PTR _myLocation$142966[ebp+8]
	sub	esp, 8
	fstp	QWORD PTR [esp]
	fld	DWORD PTR _myLocation$142966[ebp+4]
	sub	esp, 8
	fstp	QWORD PTR [esp]
	fld	DWORD PTR _myLocation$142966[ebp]
	sub	esp, 8
	fstp	QWORD PTR [esp]
	mov	ecx, DWORD PTR _iSystem$[ebp]
	push	ecx
	sub	esp, 28					; 0000001cH
	mov	ecx, esp
	mov	DWORD PTR $T149500[ebp], esp
	push	OFFSET $SG142970
	call	DWORD PTR __imp_??0?$basic_string@GU?$char_traits@G@std@@V?$allocator@G@2@@std@@QAE@PBG@Z
	mov	DWORD PTR tv73[ebp], eax
	mov	edx, DWORD PTR tv73[ebp]
	mov	DWORD PTR tv215[ebp], edx
	mov	BYTE PTR __$EHRec$[ebp+8], 2
	mov	BYTE PTR __$EHRec$[ebp+8], 0
	call	DWORD PTR __imp_?ConPrint@@YAXV?$basic_string@GU?$char_traits@G@std@@V?$allocator@G@2@@std@@ZZ
	add	esp, 64					; 00000040H
$LN1@SendDeathM:
; Line 211
	mov	eax, DWORD PTR _iClientIDVictim$[ebp]
	push	eax
	mov	ecx, DWORD PTR _iHullDrop$[ebp]
	push	ecx
	mov	edx, DWORD PTR _set_iHullItem1ID
	push	edx
	mov	eax, DWORD PTR _set_iLootCrateID
	push	eax
	lea	ecx, DWORD PTR _myLocation$142966[ebp]
	push	ecx
	mov	edx, DWORD PTR _iSystem$[ebp]
	push	edx
	mov	ecx, DWORD PTR __imp__Server
	call	DWORD PTR __imp_?MineAsteroid@IServerImpl@@UAEXIABVVector@@IIII@Z
; Line 212
	mov	eax, DWORD PTR _iClientIDVictim$[ebp]
	push	eax
	fild	DWORD PTR _iHullDrop$[ebp]
	fmul	QWORD PTR __real@3fe0000000000000
	call	__ftol2_sse
	push	eax
	mov	ecx, DWORD PTR _set_iHullItem2ID
	push	ecx
	mov	edx, DWORD PTR _set_iLootCrateID
	push	edx
	lea	eax, DWORD PTR _myLocation$142966[ebp]
	push	eax
	mov	ecx, DWORD PTR _iSystem$[ebp]
	push	ecx
	mov	ecx, DWORD PTR __imp__Server
	call	DWORD PTR __imp_?MineAsteroid@IServerImpl@@UAEXIABVVector@@IIII@Z
$LN2@SendDeathM:
; Line 214
	mov	DWORD PTR __$EHRec$[ebp+8], -1
	lea	ecx, DWORD PTR _lstCargo$[ebp]
	call	??1?$list@UCARGO_INFO@@V?$allocator@UCARGO_INFO@@@std@@@std@@QAE@XZ ; std::list<CARGO_INFO,std::allocator<CARGO_INFO> >::~list<CARGO_INFO,std::allocator<CARGO_INFO> >
$LN9@SendDeathM:
	mov	ecx, DWORD PTR __$EHRec$[ebp]
	mov	DWORD PTR fs:0, ecx
	pop	ecx
	mov	esp, ebp
	pop	ebp
	ret	0
_TEXT	ENDS
text$x	SEGMENT
__unwindfunclet$?SendDeathMsg@CargoDrop@@YAXABV?$basic_string@GU?$char_traits@G@std@@V?$allocator@G@2@@std@@III@Z$0:
	lea	ecx, DWORD PTR _lstCargo$[ebp]
	jmp	??1?$list@UCARGO_INFO@@V?$allocator@UCARGO_INFO@@@std@@@std@@QAE@XZ ; std::list<CARGO_INFO,std::allocator<CARGO_INFO> >::~list<CARGO_INFO,std::allocator<CARGO_INFO> >
__unwindfunclet$?SendDeathMsg@CargoDrop@@YAXABV?$basic_string@GU?$char_traits@G@std@@V?$allocator@G@2@@std@@III@Z$1:
	lea	ecx, DWORD PTR $T149497[ebp]
	jmp	DWORD PTR __imp_??1?$basic_string@GU?$char_traits@G@std@@V?$allocator@G@2@@std@@QAE@XZ
__unwindfunclet$?SendDeathMsg@CargoDrop@@YAXABV?$basic_string@GU?$char_traits@G@std@@V?$allocator@G@2@@std@@III@Z$2:
	mov	ecx, DWORD PTR $T149500[ebp]
	jmp	DWORD PTR __imp_??1?$basic_string@GU?$char_traits@G@std@@V?$allocator@G@2@@std@@QAE@XZ
__ehhandler$?SendDeathMsg@CargoDrop@@YAXABV?$basic_string@GU?$char_traits@G@std@@V?$allocator@G@2@@std@@III@Z:
	mov	edx, DWORD PTR [esp+8]
	lea	eax, DWORD PTR [edx+12]
	mov	ecx, DWORD PTR [edx-164]
	xor	ecx, eax
	call	@__security_check_cookie@4
	mov	eax, OFFSET __ehfuncinfo$?SendDeathMsg@CargoDrop@@YAXABV?$basic_string@GU?$char_traits@G@std@@V?$allocator@G@2@@std@@III@Z
	jmp	___CxxFrameHandler3
text$x	ENDS
?SendDeathMsg@CargoDrop@@YAXABV?$basic_string@GU?$char_traits@G@std@@V?$allocator@G@2@@std@@III@Z ENDP ; CargoDrop::SendDeathMsg
PUBLIC	?erase@?$_Tree@V?$_Tmap_traits@IVINFO@CargoDrop@@U?$less@I@std@@V?$allocator@U?$pair@$$CBIVINFO@CargoDrop@@@std@@@4@$0A@@std@@@std@@QAEIABI@Z ; std::_Tree<std::_Tmap_traits<unsigned int,CargoDrop::INFO,std::less<unsigned int>,std::allocator<std::pair<unsigned int const ,CargoDrop::INFO> >,0> >::erase
PUBLIC	?ClearClientInfo@CargoDrop@@YAXI@Z		; CargoDrop::ClearClientInfo
; Function compile flags: /Odtp
_TEXT	SEGMENT
_iClientID$ = 8						; size = 4
?ClearClientInfo@CargoDrop@@YAXI@Z PROC			; CargoDrop::ClearClientInfo
; Line 217
	push	ebp
	mov	ebp, esp
; Line 218
	lea	eax, DWORD PTR _iClientID$[ebp]
	push	eax
	mov	ecx, OFFSET _mapInfo
	call	?erase@?$_Tree@V?$_Tmap_traits@IVINFO@CargoDrop@@U?$less@I@std@@V?$allocator@U?$pair@$$CBIVINFO@CargoDrop@@@std@@@4@$0A@@std@@@std@@QAEIABI@Z ; std::_Tree<std::_Tmap_traits<unsigned int,CargoDrop::INFO,std::less<unsigned int>,std::allocator<std::pair<unsigned int const ,CargoDrop::INFO> >,0> >::erase
; Line 219
	pop	ebp
	ret	0
?ClearClientInfo@CargoDrop@@YAXI@Z ENDP			; CargoDrop::ClearClientInfo
_TEXT	ENDS
PUBLIC	??A?$map@IVINFO@CargoDrop@@U?$less@I@std@@V?$allocator@U?$pair@$$CBIVINFO@CargoDrop@@@std@@@4@@std@@QAEAAVINFO@CargoDrop@@ABI@Z ; std::map<unsigned int,CargoDrop::INFO,std::less<unsigned int>,std::allocator<std::pair<unsigned int const ,CargoDrop::INFO> > >::operator[]
PUBLIC	?SPObjUpdate@CargoDrop@@YAXABUSSPObjUpdateInfo@@I@Z ; CargoDrop::SPObjUpdate
; Function compile flags: /Odtp
_TEXT	SEGMENT
_ui$ = 8						; size = 4
_iClientID$ = 12					; size = 4
?SPObjUpdate@CargoDrop@@YAXABUSSPObjUpdateInfo@@I@Z PROC ; CargoDrop::SPObjUpdate
; Line 222
	push	ebp
	mov	ebp, esp
	push	esi
; Line 223
	lea	eax, DWORD PTR _iClientID$[ebp]
	push	eax
	mov	ecx, OFFSET _mapInfo
	call	??A?$map@IVINFO@CargoDrop@@U?$less@I@std@@V?$allocator@U?$pair@$$CBIVINFO@CargoDrop@@@std@@@4@@std@@QAEAAVINFO@CargoDrop@@ABI@Z ; std::map<unsigned int,CargoDrop::INFO,std::less<unsigned int>,std::allocator<std::pair<unsigned int const ,CargoDrop::INFO> > >::operator[]
	mov	ecx, DWORD PTR _ui$[ebp]
	fld	QWORD PTR [ecx+32]
	fstp	QWORD PTR [eax+8]
; Line 224
	mov	esi, DWORD PTR _ui$[ebp]
	add	esi, 20					; 00000014H
	lea	edx, DWORD PTR _iClientID$[ebp]
	push	edx
	mov	ecx, OFFSET _mapInfo
	call	??A?$map@IVINFO@CargoDrop@@U?$less@I@std@@V?$allocator@U?$pair@$$CBIVINFO@CargoDrop@@@std@@@4@@std@@QAEAAVINFO@CargoDrop@@ABI@Z ; std::map<unsigned int,CargoDrop::INFO,std::less<unsigned int>,std::allocator<std::pair<unsigned int const ,CargoDrop::INFO> > >::operator[]
	add	eax, 16					; 00000010H
	mov	ecx, DWORD PTR [esi]
	mov	DWORD PTR [eax], ecx
	mov	edx, DWORD PTR [esi+4]
	mov	DWORD PTR [eax+4], edx
	mov	ecx, DWORD PTR [esi+8]
	mov	DWORD PTR [eax+8], ecx
; Line 225
	mov	esi, DWORD PTR _ui$[ebp]
	add	esi, 4
	lea	edx, DWORD PTR _iClientID$[ebp]
	push	edx
	mov	ecx, OFFSET _mapInfo
	call	??A?$map@IVINFO@CargoDrop@@U?$less@I@std@@V?$allocator@U?$pair@$$CBIVINFO@CargoDrop@@@std@@@4@@std@@QAEAAVINFO@CargoDrop@@ABI@Z ; std::map<unsigned int,CargoDrop::INFO,std::less<unsigned int>,std::allocator<std::pair<unsigned int const ,CargoDrop::INFO> > >::operator[]
	add	eax, 28					; 0000001cH
	mov	ecx, DWORD PTR [esi]
	mov	DWORD PTR [eax], ecx
	mov	edx, DWORD PTR [esi+4]
	mov	DWORD PTR [eax+4], edx
	mov	ecx, DWORD PTR [esi+8]
	mov	DWORD PTR [eax+8], ecx
	mov	edx, DWORD PTR [esi+12]
	mov	DWORD PTR [eax+12], edx
; Line 226
	pop	esi
	pop	ebp
	ret	0
?SPObjUpdate@CargoDrop@@YAXABUSSPObjUpdateInfo@@I@Z ENDP ; CargoDrop::SPObjUpdate
_TEXT	ENDS
PUBLIC	??Diterator@?$_Tree@V?$_Tmap_traits@IIU?$less@I@std@@V?$allocator@U?$pair@$$CBII@std@@@2@$0A@@std@@@std@@QBEAAU?$pair@$$CBII@2@XZ ; std::_Tree<std::_Tmap_traits<unsigned int,unsigned int,std::less<unsigned int>,std::allocator<std::pair<unsigned int const ,unsigned int> >,0> >::iterator::operator*
PUBLIC	?insert@?$_Tree@V?$_Tmap_traits@IIU?$less@I@std@@V?$allocator@U?$pair@$$CBII@std@@@2@$0A@@std@@@std@@QAE?AViterator@12@Vconst_iterator@12@ABU?$pair@$$CBII@2@@Z ; std::_Tree<std::_Tmap_traits<unsigned int,unsigned int,std::less<unsigned int>,std::allocator<std::pair<unsigned int const ,unsigned int> >,0> >::insert
PUBLIC	??0?$pair@$$CBII@std@@QAE@ABI0@Z		; std::pair<unsigned int const ,unsigned int>::pair<unsigned int const ,unsigned int>
PUBLIC	??R?$less@I@std@@QBE_NABI0@Z			; std::less<unsigned int>::operator()
PUBLIC	?_Key@?$_Tree@V?$_Tmap_traits@IIU?$less@I@std@@V?$allocator@U?$pair@$$CBII@std@@@2@$0A@@std@@@std@@KAABIPAU_Node@?$_Tree_nod@V?$_Tmap_traits@IIU?$less@I@std@@V?$allocator@U?$pair@$$CBII@std@@@2@$0A@@std@@@2@@Z ; std::_Tree<std::_Tmap_traits<unsigned int,unsigned int,std::less<unsigned int>,std::allocator<std::pair<unsigned int const ,unsigned int> >,0> >::_Key
PUBLIC	?_Mynode@const_iterator@?$_Tree@V?$_Tmap_traits@IIU?$less@I@std@@V?$allocator@U?$pair@$$CBII@std@@@2@$0A@@std@@@std@@QBEPAU_Node@?$_Tree_nod@V?$_Tmap_traits@IIU?$less@I@std@@V?$allocator@U?$pair@$$CBII@std@@@2@$0A@@std@@@3@XZ ; std::_Tree<std::_Tmap_traits<unsigned int,unsigned int,std::less<unsigned int>,std::allocator<std::pair<unsigned int const ,unsigned int> >,0> >::const_iterator::_Mynode
PUBLIC	?lower_bound@?$_Tree@V?$_Tmap_traits@IIU?$less@I@std@@V?$allocator@U?$pair@$$CBII@std@@@2@$0A@@std@@@std@@QAE?AViterator@12@ABI@Z ; std::_Tree<std::_Tmap_traits<unsigned int,unsigned int,std::less<unsigned int>,std::allocator<std::pair<unsigned int const ,unsigned int> >,0> >::lower_bound
; Function compile flags: /Odtp
;	COMDAT ??A?$map@IIU?$less@I@std@@V?$allocator@U?$pair@$$CBII@std@@@2@@std@@QAEAAIABI@Z
_TEXT	SEGMENT
_this$ = -48						; size = 4
$T149520 = -44						; size = 8
$T149519 = -36						; size = 8
$T149518 = -28						; size = 4
$T149517 = -24						; size = 8
$T149516 = -16						; size = 8
__Where$ = -8						; size = 8
__Keyval$ = 8						; size = 4
??A?$map@IIU?$less@I@std@@V?$allocator@U?$pair@$$CBII@std@@@2@@std@@QAEAAIABI@Z PROC ; std::map<unsigned int,unsigned int,std::less<unsigned int>,std::allocator<std::pair<unsigned int const ,unsigned int> > >::operator[], COMDAT
; _this$ = ecx
; File c:\program files (x86)\microsoft visual studio 9.0\vc\include\map
; Line 168
	push	ebp
	mov	ebp, esp
	sub	esp, 48					; 00000030H
	mov	DWORD PTR _this$[ebp], ecx
; Line 169
	mov	eax, DWORD PTR __Keyval$[ebp]
	push	eax
	lea	ecx, DWORD PTR __Where$[ebp]
	push	ecx
	mov	ecx, DWORD PTR _this$[ebp]
	call	?lower_bound@?$_Tree@V?$_Tmap_traits@IIU?$less@I@std@@V?$allocator@U?$pair@$$CBII@std@@@2@$0A@@std@@@std@@QAE?AViterator@12@ABI@Z ; std::_Tree<std::_Tmap_traits<unsigned int,unsigned int,std::less<unsigned int>,std::allocator<std::pair<unsigned int const ,unsigned int> >,0> >::lower_bound
; Line 171
	lea	edx, DWORD PTR $T149516[ebp]
	push	edx
	mov	ecx, DWORD PTR _this$[ebp]
	call	?end@?$_Tree@V?$_Tmap_traits@IIU?$less@I@std@@V?$allocator@U?$pair@$$CBII@std@@@2@$0A@@std@@@std@@QAE?AViterator@12@XZ ; std::_Tree<std::_Tmap_traits<unsigned int,unsigned int,std::less<unsigned int>,std::allocator<std::pair<unsigned int const ,unsigned int> >,0> >::end
	push	eax
	lea	ecx, DWORD PTR __Where$[ebp]
	call	??8const_iterator@?$_Tree@V?$_Tmap_traits@IIU?$less@I@std@@V?$allocator@U?$pair@$$CBII@std@@@2@$0A@@std@@@std@@QBE_NABV012@@Z ; std::_Tree<std::_Tmap_traits<unsigned int,unsigned int,std::less<unsigned int>,std::allocator<std::pair<unsigned int const ,unsigned int> >,0> >::const_iterator::operator==
	movzx	eax, al
	test	eax, eax
	jne	SHORT $LN1@operator
	lea	ecx, DWORD PTR __Where$[ebp]
	call	?_Mynode@const_iterator@?$_Tree@V?$_Tmap_traits@IIU?$less@I@std@@V?$allocator@U?$pair@$$CBII@std@@@2@$0A@@std@@@std@@QBEPAU_Node@?$_Tree_nod@V?$_Tmap_traits@IIU?$less@I@std@@V?$allocator@U?$pair@$$CBII@std@@@2@$0A@@std@@@3@XZ ; std::_Tree<std::_Tmap_traits<unsigned int,unsigned int,std::less<unsigned int>,std::allocator<std::pair<unsigned int const ,unsigned int> >,0> >::const_iterator::_Mynode
	push	eax
	call	?_Key@?$_Tree@V?$_Tmap_traits@IIU?$less@I@std@@V?$allocator@U?$pair@$$CBII@std@@@2@$0A@@std@@@std@@KAABIPAU_Node@?$_Tree_nod@V?$_Tmap_traits@IIU?$less@I@std@@V?$allocator@U?$pair@$$CBII@std@@@2@$0A@@std@@@2@@Z ; std::_Tree<std::_Tmap_traits<unsigned int,unsigned int,std::less<unsigned int>,std::allocator<std::pair<unsigned int const ,unsigned int> >,0> >::_Key
	add	esp, 4
	push	eax
	mov	ecx, DWORD PTR __Keyval$[ebp]
	push	ecx
	mov	ecx, DWORD PTR _this$[ebp]
	add	ecx, 8
	call	??R?$less@I@std@@QBE_NABI0@Z		; std::less<unsigned int>::operator()
	movzx	edx, al
	test	edx, edx
	je	SHORT $LN2@operator
$LN1@operator:
; Line 173
	mov	DWORD PTR $T149518[ebp], 0
	mov	eax, DWORD PTR __Where$[ebp]
	mov	DWORD PTR $T149519[ebp], eax
	mov	ecx, DWORD PTR __Where$[ebp+4]
	mov	DWORD PTR $T149519[ebp+4], ecx
	lea	edx, DWORD PTR $T149518[ebp]
	push	edx
	mov	eax, DWORD PTR __Keyval$[ebp]
	push	eax
	lea	ecx, DWORD PTR $T149517[ebp]
	call	??0?$pair@$$CBII@std@@QAE@ABI0@Z	; std::pair<unsigned int const ,unsigned int>::pair<unsigned int const ,unsigned int>
	push	eax
	mov	ecx, DWORD PTR $T149519[ebp+4]
	push	ecx
	mov	edx, DWORD PTR $T149519[ebp]
	push	edx
	lea	eax, DWORD PTR $T149520[ebp]
	push	eax
	mov	ecx, DWORD PTR _this$[ebp]
	call	?insert@?$_Tree@V?$_Tmap_traits@IIU?$less@I@std@@V?$allocator@U?$pair@$$CBII@std@@@2@$0A@@std@@@std@@QAE?AViterator@12@Vconst_iterator@12@ABU?$pair@$$CBII@2@@Z ; std::_Tree<std::_Tmap_traits<unsigned int,unsigned int,std::less<unsigned int>,std::allocator<std::pair<unsigned int const ,unsigned int> >,0> >::insert
	mov	ecx, DWORD PTR [eax]
	mov	edx, DWORD PTR [eax+4]
	mov	DWORD PTR __Where$[ebp], ecx
	mov	DWORD PTR __Where$[ebp+4], edx
$LN2@operator:
; Line 174
	lea	ecx, DWORD PTR __Where$[ebp]
	call	??Diterator@?$_Tree@V?$_Tmap_traits@IIU?$less@I@std@@V?$allocator@U?$pair@$$CBII@std@@@2@$0A@@std@@@std@@QBEAAU?$pair@$$CBII@2@XZ ; std::_Tree<std::_Tmap_traits<unsigned int,unsigned int,std::less<unsigned int>,std::allocator<std::pair<unsigned int const ,unsigned int> >,0> >::iterator::operator*
	add	eax, 4
; Line 175
	mov	esp, ebp
	pop	ebp
	ret	4
??A?$map@IIU?$less@I@std@@V?$allocator@U?$pair@$$CBII@std@@@2@@std@@QAEAAIABI@Z ENDP ; std::map<unsigned int,unsigned int,std::less<unsigned int>,std::allocator<std::pair<unsigned int const ,unsigned int> > >::operator[]
_TEXT	ENDS
PUBLIC	??0iterator@?$_Tree@V?$_Tmap_traits@IIU?$less@I@std@@V?$allocator@U?$pair@$$CBII@std@@@2@$0A@@std@@@std@@QAE@PAU_Node@?$_Tree_nod@V?$_Tmap_traits@IIU?$less@I@std@@V?$allocator@U?$pair@$$CBII@std@@@2@$0A@@std@@@2@PBV12@@Z ; std::_Tree<std::_Tmap_traits<unsigned int,unsigned int,std::less<unsigned int>,std::allocator<std::pair<unsigned int const ,unsigned int> >,0> >::iterator::iterator
; Function compile flags: /Odtp
;	COMDAT ?end@?$_Tree@V?$_Tmap_traits@IIU?$less@I@std@@V?$allocator@U?$pair@$$CBII@std@@@2@$0A@@std@@@std@@QAE?AViterator@12@XZ
_TEXT	SEGMENT
_this$ = -4						; size = 4
___$ReturnUdt$ = 8					; size = 4
?end@?$_Tree@V?$_Tmap_traits@IIU?$less@I@std@@V?$allocator@U?$pair@$$CBII@std@@@2@$0A@@std@@@std@@QAE?AViterator@12@XZ PROC ; std::_Tree<std::_Tmap_traits<unsigned int,unsigned int,std::less<unsigned int>,std::allocator<std::pair<unsigned int const ,unsigned int> >,0> >::end, COMDAT
; _this$ = ecx
; File c:\program files (x86)\microsoft visual studio 9.0\vc\include\xtree
; Line 565
	push	ebp
	mov	ebp, esp
	push	ecx
	mov	DWORD PTR _this$[ebp], ecx
; Line 566
	mov	eax, DWORD PTR _this$[ebp]
	push	eax
	mov	ecx, DWORD PTR _this$[ebp]
	mov	edx, DWORD PTR [ecx+24]
	push	edx
	mov	ecx, DWORD PTR ___$ReturnUdt$[ebp]
	call	??0iterator@?$_Tree@V?$_Tmap_traits@IIU?$less@I@std@@V?$allocator@U?$pair@$$CBII@std@@@2@$0A@@std@@@std@@QAE@PAU_Node@?$_Tree_nod@V?$_Tmap_traits@IIU?$less@I@std@@V?$allocator@U?$pair@$$CBII@std@@@2@$0A@@std@@@2@PBV12@@Z ; std::_Tree<std::_Tmap_traits<unsigned int,unsigned int,std::less<unsigned int>,std::allocator<std::pair<unsigned int const ,unsigned int> >,0> >::iterator::iterator
	mov	eax, DWORD PTR ___$ReturnUdt$[ebp]
; Line 567
	mov	esp, ebp
	pop	ebp
	ret	4
?end@?$_Tree@V?$_Tmap_traits@IIU?$less@I@std@@V?$allocator@U?$pair@$$CBII@std@@@2@$0A@@std@@@std@@QAE?AViterator@12@XZ ENDP ; std::_Tree<std::_Tmap_traits<unsigned int,unsigned int,std::less<unsigned int>,std::allocator<std::pair<unsigned int const ,unsigned int> >,0> >::end
_TEXT	ENDS
PUBLIC	?_Rmost@?$_Tree@V?$_Tmap_traits@IIU?$less@I@std@@V?$allocator@U?$pair@$$CBII@std@@@2@$0A@@std@@@std@@IBEAAPAU_Node@?$_Tree_nod@V?$_Tmap_traits@IIU?$less@I@std@@V?$allocator@U?$pair@$$CBII@std@@@2@$0A@@std@@@2@XZ ; std::_Tree<std::_Tmap_traits<unsigned int,unsigned int,std::less<unsigned int>,std::allocator<std::pair<unsigned int const ,unsigned int> >,0> >::_Rmost
PUBLIC	?_Lmost@?$_Tree@V?$_Tmap_traits@IIU?$less@I@std@@V?$allocator@U?$pair@$$CBII@std@@@2@$0A@@std@@@std@@IBEAAPAU_Node@?$_Tree_nod@V?$_Tmap_traits@IIU?$less@I@std@@V?$allocator@U?$pair@$$CBII@std@@@2@$0A@@std@@@2@XZ ; std::_Tree<std::_Tmap_traits<unsigned int,unsigned int,std::less<unsigned int>,std::allocator<std::pair<unsigned int const ,unsigned int> >,0> >::_Lmost
PUBLIC	?_Erase@?$_Tree@V?$_Tmap_traits@IIU?$less@I@std@@V?$allocator@U?$pair@$$CBII@std@@@2@$0A@@std@@@std@@IAEXPAU_Node@?$_Tree_nod@V?$_Tmap_traits@IIU?$less@I@std@@V?$allocator@U?$pair@$$CBII@std@@@2@$0A@@std@@@2@@Z ; std::_Tree<std::_Tmap_traits<unsigned int,unsigned int,std::less<unsigned int>,std::allocator<std::pair<unsigned int const ,unsigned int> >,0> >::_Erase
PUBLIC	?_Root@?$_Tree@V?$_Tmap_traits@IIU?$less@I@std@@V?$allocator@U?$pair@$$CBII@std@@@2@$0A@@std@@@std@@IBEAAPAU_Node@?$_Tree_nod@V?$_Tmap_traits@IIU?$less@I@std@@V?$allocator@U?$pair@$$CBII@std@@@2@$0A@@std@@@2@XZ ; std::_Tree<std::_Tmap_traits<unsigned int,unsigned int,std::less<unsigned int>,std::allocator<std::pair<unsigned int const ,unsigned int> >,0> >::_Root
; Function compile flags: /Odtp
;	COMDAT ?clear@?$_Tree@V?$_Tmap_traits@IIU?$less@I@std@@V?$allocator@U?$pair@$$CBII@std@@@2@$0A@@std@@@std@@QAEXXZ
_TEXT	SEGMENT
_this$ = -4						; size = 4
?clear@?$_Tree@V?$_Tmap_traits@IIU?$less@I@std@@V?$allocator@U?$pair@$$CBII@std@@@2@$0A@@std@@@std@@QAEXXZ PROC ; std::_Tree<std::_Tmap_traits<unsigned int,unsigned int,std::less<unsigned int>,std::allocator<std::pair<unsigned int const ,unsigned int> >,0> >::clear, COMDAT
; _this$ = ecx
; Line 965
	push	ebp
	mov	ebp, esp
	push	ecx
	mov	DWORD PTR _this$[ebp], ecx
; Line 971
	mov	ecx, DWORD PTR _this$[ebp]
	call	?_Root@?$_Tree@V?$_Tmap_traits@IIU?$less@I@std@@V?$allocator@U?$pair@$$CBII@std@@@2@$0A@@std@@@std@@IBEAAPAU_Node@?$_Tree_nod@V?$_Tmap_traits@IIU?$less@I@std@@V?$allocator@U?$pair@$$CBII@std@@@2@$0A@@std@@@2@XZ ; std::_Tree<std::_Tmap_traits<unsigned int,unsigned int,std::less<unsigned int>,std::allocator<std::pair<unsigned int const ,unsigned int> >,0> >::_Root
	mov	eax, DWORD PTR [eax]
	push	eax
	mov	ecx, DWORD PTR _this$[ebp]
	call	?_Erase@?$_Tree@V?$_Tmap_traits@IIU?$less@I@std@@V?$allocator@U?$pair@$$CBII@std@@@2@$0A@@std@@@std@@IAEXPAU_Node@?$_Tree_nod@V?$_Tmap_traits@IIU?$less@I@std@@V?$allocator@U?$pair@$$CBII@std@@@2@$0A@@std@@@2@@Z ; std::_Tree<std::_Tmap_traits<unsigned int,unsigned int,std::less<unsigned int>,std::allocator<std::pair<unsigned int const ,unsigned int> >,0> >::_Erase
; Line 972
	mov	ecx, DWORD PTR _this$[ebp]
	call	?_Root@?$_Tree@V?$_Tmap_traits@IIU?$less@I@std@@V?$allocator@U?$pair@$$CBII@std@@@2@$0A@@std@@@std@@IBEAAPAU_Node@?$_Tree_nod@V?$_Tmap_traits@IIU?$less@I@std@@V?$allocator@U?$pair@$$CBII@std@@@2@$0A@@std@@@2@XZ ; std::_Tree<std::_Tmap_traits<unsigned int,unsigned int,std::less<unsigned int>,std::allocator<std::pair<unsigned int const ,unsigned int> >,0> >::_Root
	mov	ecx, DWORD PTR _this$[ebp]
	mov	edx, DWORD PTR [ecx+24]
	mov	DWORD PTR [eax], edx
	mov	eax, DWORD PTR _this$[ebp]
	mov	DWORD PTR [eax+28], 0
; Line 973
	mov	ecx, DWORD PTR _this$[ebp]
	call	?_Lmost@?$_Tree@V?$_Tmap_traits@IIU?$less@I@std@@V?$allocator@U?$pair@$$CBII@std@@@2@$0A@@std@@@std@@IBEAAPAU_Node@?$_Tree_nod@V?$_Tmap_traits@IIU?$less@I@std@@V?$allocator@U?$pair@$$CBII@std@@@2@$0A@@std@@@2@XZ ; std::_Tree<std::_Tmap_traits<unsigned int,unsigned int,std::less<unsigned int>,std::allocator<std::pair<unsigned int const ,unsigned int> >,0> >::_Lmost
	mov	ecx, DWORD PTR _this$[ebp]
	mov	edx, DWORD PTR [ecx+24]
	mov	DWORD PTR [eax], edx
	mov	ecx, DWORD PTR _this$[ebp]
	call	?_Rmost@?$_Tree@V?$_Tmap_traits@IIU?$less@I@std@@V?$allocator@U?$pair@$$CBII@std@@@2@$0A@@std@@@std@@IBEAAPAU_Node@?$_Tree_nod@V?$_Tmap_traits@IIU?$less@I@std@@V?$allocator@U?$pair@$$CBII@std@@@2@$0A@@std@@@2@XZ ; std::_Tree<std::_Tmap_traits<unsigned int,unsigned int,std::less<unsigned int>,std::allocator<std::pair<unsigned int const ,unsigned int> >,0> >::_Rmost
	mov	ecx, DWORD PTR _this$[ebp]
	mov	edx, DWORD PTR [ecx+24]
	mov	DWORD PTR [eax], edx
; Line 974
	mov	esp, ebp
	pop	ebp
	ret	0
?clear@?$_Tree@V?$_Tmap_traits@IIU?$less@I@std@@V?$allocator@U?$pair@$$CBII@std@@@2@$0A@@std@@@std@@QAEXXZ ENDP ; std::_Tree<std::_Tmap_traits<unsigned int,unsigned int,std::less<unsigned int>,std::allocator<std::pair<unsigned int const ,unsigned int> >,0> >::clear
; Function compile flags: /Odtp
_TEXT	ENDS
;	COMDAT ?find@?$_Tree@V?$_Tmap_traits@IIU?$less@I@std@@V?$allocator@U?$pair@$$CBII@std@@@2@$0A@@std@@@std@@QAE?AViterator@12@ABI@Z
_TEXT	SEGMENT
tv137 = -36						; size = 4
_this$ = -32						; size = 4
$T149530 = -28						; size = 8
$T149528 = -20						; size = 8
$T149527 = -12						; size = 4
__Where$ = -8						; size = 8
___$ReturnUdt$ = 8					; size = 4
__Keyval$ = 12						; size = 4
?find@?$_Tree@V?$_Tmap_traits@IIU?$less@I@std@@V?$allocator@U?$pair@$$CBII@std@@@2@$0A@@std@@@std@@QAE?AViterator@12@ABI@Z PROC ; std::_Tree<std::_Tmap_traits<unsigned int,unsigned int,std::less<unsigned int>,std::allocator<std::pair<unsigned int const ,unsigned int> >,0> >::find, COMDAT
; _this$ = ecx
; Line 977
	push	ebp
	mov	ebp, esp
	sub	esp, 36					; 00000024H
	mov	DWORD PTR _this$[ebp], ecx
; Line 978
	mov	eax, DWORD PTR __Keyval$[ebp]
	push	eax
	lea	ecx, DWORD PTR __Where$[ebp]
	push	ecx
	mov	ecx, DWORD PTR _this$[ebp]
	call	?lower_bound@?$_Tree@V?$_Tmap_traits@IIU?$less@I@std@@V?$allocator@U?$pair@$$CBII@std@@@2@$0A@@std@@@std@@QAE?AViterator@12@ABI@Z ; std::_Tree<std::_Tmap_traits<unsigned int,unsigned int,std::less<unsigned int>,std::allocator<std::pair<unsigned int const ,unsigned int> >,0> >::lower_bound
; Line 982
	lea	edx, DWORD PTR $T149528[ebp]
	push	edx
	mov	ecx, DWORD PTR _this$[ebp]
	call	?end@?$_Tree@V?$_Tmap_traits@IIU?$less@I@std@@V?$allocator@U?$pair@$$CBII@std@@@2@$0A@@std@@@std@@QAE?AViterator@12@XZ ; std::_Tree<std::_Tmap_traits<unsigned int,unsigned int,std::less<unsigned int>,std::allocator<std::pair<unsigned int const ,unsigned int> >,0> >::end
	push	eax
	lea	ecx, DWORD PTR __Where$[ebp]
	call	??8const_iterator@?$_Tree@V?$_Tmap_traits@IIU?$less@I@std@@V?$allocator@U?$pair@$$CBII@std@@@2@$0A@@std@@@std@@QBE_NABV012@@Z ; std::_Tree<std::_Tmap_traits<unsigned int,unsigned int,std::less<unsigned int>,std::allocator<std::pair<unsigned int const ,unsigned int> >,0> >::const_iterator::operator==
	movzx	eax, al
	test	eax, eax
	jne	SHORT $LN3@find
	lea	ecx, DWORD PTR __Where$[ebp]
	call	?_Mynode@const_iterator@?$_Tree@V?$_Tmap_traits@IIU?$less@I@std@@V?$allocator@U?$pair@$$CBII@std@@@2@$0A@@std@@@std@@QBEPAU_Node@?$_Tree_nod@V?$_Tmap_traits@IIU?$less@I@std@@V?$allocator@U?$pair@$$CBII@std@@@2@$0A@@std@@@3@XZ ; std::_Tree<std::_Tmap_traits<unsigned int,unsigned int,std::less<unsigned int>,std::allocator<std::pair<unsigned int const ,unsigned int> >,0> >::const_iterator::_Mynode
	push	eax
	call	?_Key@?$_Tree@V?$_Tmap_traits@IIU?$less@I@std@@V?$allocator@U?$pair@$$CBII@std@@@2@$0A@@std@@@std@@KAABIPAU_Node@?$_Tree_nod@V?$_Tmap_traits@IIU?$less@I@std@@V?$allocator@U?$pair@$$CBII@std@@@2@$0A@@std@@@2@@Z ; std::_Tree<std::_Tmap_traits<unsigned int,unsigned int,std::less<unsigned int>,std::allocator<std::pair<unsigned int const ,unsigned int> >,0> >::_Key
	add	esp, 4
	push	eax
	mov	ecx, DWORD PTR __Keyval$[ebp]
	push	ecx
	mov	ecx, DWORD PTR _this$[ebp]
	add	ecx, 8
	call	??R?$less@I@std@@QBE_NABI0@Z		; std::less<unsigned int>::operator()
	movzx	edx, al
	test	edx, edx
	jne	SHORT $LN3@find
	lea	eax, DWORD PTR __Where$[ebp]
	mov	DWORD PTR tv137[ebp], eax
	jmp	SHORT $LN4@find
$LN3@find:
	lea	ecx, DWORD PTR $T149530[ebp]
	push	ecx
	mov	ecx, DWORD PTR _this$[ebp]
	call	?end@?$_Tree@V?$_Tmap_traits@IIU?$less@I@std@@V?$allocator@U?$pair@$$CBII@std@@@2@$0A@@std@@@std@@QAE?AViterator@12@XZ ; std::_Tree<std::_Tmap_traits<unsigned int,unsigned int,std::less<unsigned int>,std::allocator<std::pair<unsigned int const ,unsigned int> >,0> >::end
	mov	DWORD PTR tv137[ebp], eax
$LN4@find:
	mov	edx, DWORD PTR tv137[ebp]
	mov	DWORD PTR $T149527[ebp], edx
	mov	eax, DWORD PTR $T149527[ebp]
	mov	ecx, DWORD PTR [eax]
	mov	edx, DWORD PTR [eax+4]
	mov	eax, DWORD PTR ___$ReturnUdt$[ebp]
	mov	DWORD PTR [eax], ecx
	mov	DWORD PTR [eax+4], edx
	mov	eax, DWORD PTR ___$ReturnUdt$[ebp]
; Line 983
	mov	esp, ebp
	pop	ebp
	ret	8
?find@?$_Tree@V?$_Tmap_traits@IIU?$less@I@std@@V?$allocator@U?$pair@$$CBII@std@@@2@$0A@@std@@@std@@QAE?AViterator@12@ABI@Z ENDP ; std::_Tree<std::_Tmap_traits<unsigned int,unsigned int,std::less<unsigned int>,std::allocator<std::pair<unsigned int const ,unsigned int> >,0> >::find
_TEXT	ENDS
PUBLIC	??Diterator@?$_Tree@V?$_Tmap_traits@IVINFO@CargoDrop@@U?$less@I@std@@V?$allocator@U?$pair@$$CBIVINFO@CargoDrop@@@std@@@4@$0A@@std@@@std@@QBEAAU?$pair@$$CBIVINFO@CargoDrop@@@2@XZ ; std::_Tree<std::_Tmap_traits<unsigned int,CargoDrop::INFO,std::less<unsigned int>,std::allocator<std::pair<unsigned int const ,CargoDrop::INFO> >,0> >::iterator::operator*
PUBLIC	?insert@?$_Tree@V?$_Tmap_traits@IVINFO@CargoDrop@@U?$less@I@std@@V?$allocator@U?$pair@$$CBIVINFO@CargoDrop@@@std@@@4@$0A@@std@@@std@@QAE?AViterator@12@Vconst_iterator@12@ABU?$pair@$$CBIVINFO@CargoDrop@@@2@@Z ; std::_Tree<std::_Tmap_traits<unsigned int,CargoDrop::INFO,std::less<unsigned int>,std::allocator<std::pair<unsigned int const ,CargoDrop::INFO> >,0> >::insert
PUBLIC	??0?$pair@$$CBIVINFO@CargoDrop@@@std@@QAE@ABIABVINFO@CargoDrop@@@Z ; std::pair<unsigned int const ,CargoDrop::INFO>::pair<unsigned int const ,CargoDrop::INFO>
PUBLIC	??0INFO@CargoDrop@@QAE@XZ			; CargoDrop::INFO::INFO
PUBLIC	?_Key@?$_Tree@V?$_Tmap_traits@IVINFO@CargoDrop@@U?$less@I@std@@V?$allocator@U?$pair@$$CBIVINFO@CargoDrop@@@std@@@4@$0A@@std@@@std@@KAABIPAU_Node@?$_Tree_nod@V?$_Tmap_traits@IVINFO@CargoDrop@@U?$less@I@std@@V?$allocator@U?$pair@$$CBIVINFO@CargoDrop@@@std@@@4@$0A@@std@@@2@@Z ; std::_Tree<std::_Tmap_traits<unsigned int,CargoDrop::INFO,std::less<unsigned int>,std::allocator<std::pair<unsigned int const ,CargoDrop::INFO> >,0> >::_Key
PUBLIC	?_Mynode@const_iterator@?$_Tree@V?$_Tmap_traits@IVINFO@CargoDrop@@U?$less@I@std@@V?$allocator@U?$pair@$$CBIVINFO@CargoDrop@@@std@@@4@$0A@@std@@@std@@QBEPAU_Node@?$_Tree_nod@V?$_Tmap_traits@IVINFO@CargoDrop@@U?$less@I@std@@V?$allocator@U?$pair@$$CBIVINFO@CargoDrop@@@std@@@4@$0A@@std@@@3@XZ ; std::_Tree<std::_Tmap_traits<unsigned int,CargoDrop::INFO,std::less<unsigned int>,std::allocator<std::pair<unsigned int const ,CargoDrop::INFO> >,0> >::const_iterator::_Mynode
PUBLIC	??8const_iterator@?$_Tree@V?$_Tmap_traits@IVINFO@CargoDrop@@U?$less@I@std@@V?$allocator@U?$pair@$$CBIVINFO@CargoDrop@@@std@@@4@$0A@@std@@@std@@QBE_NABV012@@Z ; std::_Tree<std::_Tmap_traits<unsigned int,CargoDrop::INFO,std::less<unsigned int>,std::allocator<std::pair<unsigned int const ,CargoDrop::INFO> >,0> >::const_iterator::operator==
PUBLIC	?lower_bound@?$_Tree@V?$_Tmap_traits@IVINFO@CargoDrop@@U?$less@I@std@@V?$allocator@U?$pair@$$CBIVINFO@CargoDrop@@@std@@@4@$0A@@std@@@std@@QAE?AViterator@12@ABI@Z ; std::_Tree<std::_Tmap_traits<unsigned int,CargoDrop::INFO,std::less<unsigned int>,std::allocator<std::pair<unsigned int const ,CargoDrop::INFO> >,0> >::lower_bound
; Function compile flags: /Odtp
;	COMDAT ??A?$map@IVINFO@CargoDrop@@U?$less@I@std@@V?$allocator@U?$pair@$$CBIVINFO@CargoDrop@@@std@@@4@@std@@QAEAAVINFO@CargoDrop@@ABI@Z
_TEXT	SEGMENT
_this$ = -140						; size = 4
$T149538 = -136						; size = 8
$T149537 = -128						; size = 8
$T149536 = -120						; size = 48
$T149535 = -72						; size = 56
$T149534 = -16						; size = 8
__Where$ = -8						; size = 8
__Keyval$ = 8						; size = 4
??A?$map@IVINFO@CargoDrop@@U?$less@I@std@@V?$allocator@U?$pair@$$CBIVINFO@CargoDrop@@@std@@@4@@std@@QAEAAVINFO@CargoDrop@@ABI@Z PROC ; std::map<unsigned int,CargoDrop::INFO,std::less<unsigned int>,std::allocator<std::pair<unsigned int const ,CargoDrop::INFO> > >::operator[], COMDAT
; _this$ = ecx
; File c:\program files (x86)\microsoft visual studio 9.0\vc\include\map
; Line 168
	push	ebp
	mov	ebp, esp
	sub	esp, 140				; 0000008cH
	mov	DWORD PTR _this$[ebp], ecx
; Line 169
	mov	eax, DWORD PTR __Keyval$[ebp]
	push	eax
	lea	ecx, DWORD PTR __Where$[ebp]
	push	ecx
	mov	ecx, DWORD PTR _this$[ebp]
	call	?lower_bound@?$_Tree@V?$_Tmap_traits@IVINFO@CargoDrop@@U?$less@I@std@@V?$allocator@U?$pair@$$CBIVINFO@CargoDrop@@@std@@@4@$0A@@std@@@std@@QAE?AViterator@12@ABI@Z ; std::_Tree<std::_Tmap_traits<unsigned int,CargoDrop::INFO,std::less<unsigned int>,std::allocator<std::pair<unsigned int const ,CargoDrop::INFO> >,0> >::lower_bound
; Line 171
	lea	edx, DWORD PTR $T149534[ebp]
	push	edx
	mov	ecx, DWORD PTR _this$[ebp]
	call	?end@?$_Tree@V?$_Tmap_traits@IVINFO@CargoDrop@@U?$less@I@std@@V?$allocator@U?$pair@$$CBIVINFO@CargoDrop@@@std@@@4@$0A@@std@@@std@@QAE?AViterator@12@XZ ; std::_Tree<std::_Tmap_traits<unsigned int,CargoDrop::INFO,std::less<unsigned int>,std::allocator<std::pair<unsigned int const ,CargoDrop::INFO> >,0> >::end
	push	eax
	lea	ecx, DWORD PTR __Where$[ebp]
	call	??8const_iterator@?$_Tree@V?$_Tmap_traits@IVINFO@CargoDrop@@U?$less@I@std@@V?$allocator@U?$pair@$$CBIVINFO@CargoDrop@@@std@@@4@$0A@@std@@@std@@QBE_NABV012@@Z ; std::_Tree<std::_Tmap_traits<unsigned int,CargoDrop::INFO,std::less<unsigned int>,std::allocator<std::pair<unsigned int const ,CargoDrop::INFO> >,0> >::const_iterator::operator==
	movzx	eax, al
	test	eax, eax
	jne	SHORT $LN1@operator@2
	lea	ecx, DWORD PTR __Where$[ebp]
	call	?_Mynode@const_iterator@?$_Tree@V?$_Tmap_traits@IVINFO@CargoDrop@@U?$less@I@std@@V?$allocator@U?$pair@$$CBIVINFO@CargoDrop@@@std@@@4@$0A@@std@@@std@@QBEPAU_Node@?$_Tree_nod@V?$_Tmap_traits@IVINFO@CargoDrop@@U?$less@I@std@@V?$allocator@U?$pair@$$CBIVINFO@CargoDrop@@@std@@@4@$0A@@std@@@3@XZ ; std::_Tree<std::_Tmap_traits<unsigned int,CargoDrop::INFO,std::less<unsigned int>,std::allocator<std::pair<unsigned int const ,CargoDrop::INFO> >,0> >::const_iterator::_Mynode
	push	eax
	call	?_Key@?$_Tree@V?$_Tmap_traits@IVINFO@CargoDrop@@U?$less@I@std@@V?$allocator@U?$pair@$$CBIVINFO@CargoDrop@@@std@@@4@$0A@@std@@@std@@KAABIPAU_Node@?$_Tree_nod@V?$_Tmap_traits@IVINFO@CargoDrop@@U?$less@I@std@@V?$allocator@U?$pair@$$CBIVINFO@CargoDrop@@@std@@@4@$0A@@std@@@2@@Z ; std::_Tree<std::_Tmap_traits<unsigned int,CargoDrop::INFO,std::less<unsigned int>,std::allocator<std::pair<unsigned int const ,CargoDrop::INFO> >,0> >::_Key
	add	esp, 4
	push	eax
	mov	ecx, DWORD PTR __Keyval$[ebp]
	push	ecx
	mov	ecx, DWORD PTR _this$[ebp]
	add	ecx, 8
	call	??R?$less@I@std@@QBE_NABI0@Z		; std::less<unsigned int>::operator()
	movzx	edx, al
	test	edx, edx
	je	SHORT $LN2@operator@2
$LN1@operator@2:
; Line 173
	mov	eax, DWORD PTR __Where$[ebp]
	mov	DWORD PTR $T149537[ebp], eax
	mov	ecx, DWORD PTR __Where$[ebp+4]
	mov	DWORD PTR $T149537[ebp+4], ecx
	lea	ecx, DWORD PTR $T149536[ebp]
	call	??0INFO@CargoDrop@@QAE@XZ		; CargoDrop::INFO::INFO
	push	eax
	mov	edx, DWORD PTR __Keyval$[ebp]
	push	edx
	lea	ecx, DWORD PTR $T149535[ebp]
	call	??0?$pair@$$CBIVINFO@CargoDrop@@@std@@QAE@ABIABVINFO@CargoDrop@@@Z ; std::pair<unsigned int const ,CargoDrop::INFO>::pair<unsigned int const ,CargoDrop::INFO>
	push	eax
	mov	eax, DWORD PTR $T149537[ebp+4]
	push	eax
	mov	ecx, DWORD PTR $T149537[ebp]
	push	ecx
	lea	edx, DWORD PTR $T149538[ebp]
	push	edx
	mov	ecx, DWORD PTR _this$[ebp]
	call	?insert@?$_Tree@V?$_Tmap_traits@IVINFO@CargoDrop@@U?$less@I@std@@V?$allocator@U?$pair@$$CBIVINFO@CargoDrop@@@std@@@4@$0A@@std@@@std@@QAE?AViterator@12@Vconst_iterator@12@ABU?$pair@$$CBIVINFO@CargoDrop@@@2@@Z ; std::_Tree<std::_Tmap_traits<unsigned int,CargoDrop::INFO,std::less<unsigned int>,std::allocator<std::pair<unsigned int const ,CargoDrop::INFO> >,0> >::insert
	mov	ecx, DWORD PTR [eax]
	mov	edx, DWORD PTR [eax+4]
	mov	DWORD PTR __Where$[ebp], ecx
	mov	DWORD PTR __Where$[ebp+4], edx
$LN2@operator@2:
; Line 174
	lea	ecx, DWORD PTR __Where$[ebp]
	call	??Diterator@?$_Tree@V?$_Tmap_traits@IVINFO@CargoDrop@@U?$less@I@std@@V?$allocator@U?$pair@$$CBIVINFO@CargoDrop@@@std@@@4@$0A@@std@@@std@@QBEAAU?$pair@$$CBIVINFO@CargoDrop@@@2@XZ ; std::_Tree<std::_Tmap_traits<unsigned int,CargoDrop::INFO,std::less<unsigned int>,std::allocator<std::pair<unsigned int const ,CargoDrop::INFO> >,0> >::iterator::operator*
	add	eax, 8
; Line 175
	mov	esp, ebp
	pop	ebp
	ret	4
??A?$map@IVINFO@CargoDrop@@U?$less@I@std@@V?$allocator@U?$pair@$$CBIVINFO@CargoDrop@@@std@@@4@@std@@QAEAAVINFO@CargoDrop@@ABI@Z ENDP ; std::map<unsigned int,CargoDrop::INFO,std::less<unsigned int>,std::allocator<std::pair<unsigned int const ,CargoDrop::INFO> > >::operator[]
; Function compile flags: /Odtp
_TEXT	ENDS
;	COMDAT ??0INFO@CargoDrop@@QAE@XZ
_TEXT	SEGMENT
_this$ = -4						; size = 4
??0INFO@CargoDrop@@QAE@XZ PROC				; CargoDrop::INFO::INFO, COMDAT
; _this$ = ecx
; File g:\max\bastelstube\github\fl-mod-flhook\plugins\playercntl_plugin\src\cargodrop.cpp
; Line 56
	push	ebp
	mov	ebp, esp
	push	ecx
	mov	DWORD PTR _this$[ebp], ecx
	mov	eax, DWORD PTR _this$[ebp]
	mov	BYTE PTR [eax], 0
	mov	ecx, DWORD PTR _this$[ebp]
	fldz
	fstp	QWORD PTR [ecx+8]
	mov	eax, DWORD PTR _this$[ebp]
	mov	esp, ebp
	pop	ebp
	ret	0
??0INFO@CargoDrop@@QAE@XZ ENDP				; CargoDrop::INFO::INFO
_TEXT	ENDS
PUBLIC	??0iterator@?$_Tree@V?$_Tmap_traits@IVINFO@CargoDrop@@U?$less@I@std@@V?$allocator@U?$pair@$$CBIVINFO@CargoDrop@@@std@@@4@$0A@@std@@@std@@QAE@PAU_Node@?$_Tree_nod@V?$_Tmap_traits@IVINFO@CargoDrop@@U?$less@I@std@@V?$allocator@U?$pair@$$CBIVINFO@CargoDrop@@@std@@@4@$0A@@std@@@2@PBV12@@Z ; std::_Tree<std::_Tmap_traits<unsigned int,CargoDrop::INFO,std::less<unsigned int>,std::allocator<std::pair<unsigned int const ,CargoDrop::INFO> >,0> >::iterator::iterator
PUBLIC	?_Lmost@?$_Tree@V?$_Tmap_traits@IVINFO@CargoDrop@@U?$less@I@std@@V?$allocator@U?$pair@$$CBIVINFO@CargoDrop@@@std@@@4@$0A@@std@@@std@@IBEAAPAU_Node@?$_Tree_nod@V?$_Tmap_traits@IVINFO@CargoDrop@@U?$less@I@std@@V?$allocator@U?$pair@$$CBIVINFO@CargoDrop@@@std@@@4@$0A@@std@@@2@XZ ; std::_Tree<std::_Tmap_traits<unsigned int,CargoDrop::INFO,std::less<unsigned int>,std::allocator<std::pair<unsigned int const ,CargoDrop::INFO> >,0> >::_Lmost
; Function compile flags: /Odtp
;	COMDAT ?begin@?$_Tree@V?$_Tmap_traits@IVINFO@CargoDrop@@U?$less@I@std@@V?$allocator@U?$pair@$$CBIVINFO@CargoDrop@@@std@@@4@$0A@@std@@@std@@QAE?AViterator@12@XZ
_TEXT	SEGMENT
_this$ = -4						; size = 4
___$ReturnUdt$ = 8					; size = 4
?begin@?$_Tree@V?$_Tmap_traits@IVINFO@CargoDrop@@U?$less@I@std@@V?$allocator@U?$pair@$$CBIVINFO@CargoDrop@@@std@@@4@$0A@@std@@@std@@QAE?AViterator@12@XZ PROC ; std::_Tree<std::_Tmap_traits<unsigned int,CargoDrop::INFO,std::less<unsigned int>,std::allocator<std::pair<unsigned int const ,CargoDrop::INFO> >,0> >::begin, COMDAT
; _this$ = ecx
; File c:\program files (x86)\microsoft visual studio 9.0\vc\include\xtree
; Line 555
	push	ebp
	mov	ebp, esp
	push	ecx
	mov	DWORD PTR _this$[ebp], ecx
; Line 556
	mov	eax, DWORD PTR _this$[ebp]
	push	eax
	mov	ecx, DWORD PTR _this$[ebp]
	call	?_Lmost@?$_Tree@V?$_Tmap_traits@IVINFO@CargoDrop@@U?$less@I@std@@V?$allocator@U?$pair@$$CBIVINFO@CargoDrop@@@std@@@4@$0A@@std@@@std@@IBEAAPAU_Node@?$_Tree_nod@V?$_Tmap_traits@IVINFO@CargoDrop@@U?$less@I@std@@V?$allocator@U?$pair@$$CBIVINFO@CargoDrop@@@std@@@4@$0A@@std@@@2@XZ ; std::_Tree<std::_Tmap_traits<unsigned int,CargoDrop::INFO,std::less<unsigned int>,std::allocator<std::pair<unsigned int const ,CargoDrop::INFO> >,0> >::_Lmost
	mov	ecx, DWORD PTR [eax]
	push	ecx
	mov	ecx, DWORD PTR ___$ReturnUdt$[ebp]
	call	??0iterator@?$_Tree@V?$_Tmap_traits@IVINFO@CargoDrop@@U?$less@I@std@@V?$allocator@U?$pair@$$CBIVINFO@CargoDrop@@@std@@@4@$0A@@std@@@std@@QAE@PAU_Node@?$_Tree_nod@V?$_Tmap_traits@IVINFO@CargoDrop@@U?$less@I@std@@V?$allocator@U?$pair@$$CBIVINFO@CargoDrop@@@std@@@4@$0A@@std@@@2@PBV12@@Z ; std::_Tree<std::_Tmap_traits<unsigned int,CargoDrop::INFO,std::less<unsigned int>,std::allocator<std::pair<unsigned int const ,CargoDrop::INFO> >,0> >::iterator::iterator
	mov	eax, DWORD PTR ___$ReturnUdt$[ebp]
; Line 557
	mov	esp, ebp
	pop	ebp
	ret	4
?begin@?$_Tree@V?$_Tmap_traits@IVINFO@CargoDrop@@U?$less@I@std@@V?$allocator@U?$pair@$$CBIVINFO@CargoDrop@@@std@@@4@$0A@@std@@@std@@QAE?AViterator@12@XZ ENDP ; std::_Tree<std::_Tmap_traits<unsigned int,CargoDrop::INFO,std::less<unsigned int>,std::allocator<std::pair<unsigned int const ,CargoDrop::INFO> >,0> >::begin
; Function compile flags: /Odtp
_TEXT	ENDS
;	COMDAT ?end@?$_Tree@V?$_Tmap_traits@IVINFO@CargoDrop@@U?$less@I@std@@V?$allocator@U?$pair@$$CBIVINFO@CargoDrop@@@std@@@4@$0A@@std@@@std@@QAE?AViterator@12@XZ
_TEXT	SEGMENT
_this$ = -4						; size = 4
___$ReturnUdt$ = 8					; size = 4
?end@?$_Tree@V?$_Tmap_traits@IVINFO@CargoDrop@@U?$less@I@std@@V?$allocator@U?$pair@$$CBIVINFO@CargoDrop@@@std@@@4@$0A@@std@@@std@@QAE?AViterator@12@XZ PROC ; std::_Tree<std::_Tmap_traits<unsigned int,CargoDrop::INFO,std::less<unsigned int>,std::allocator<std::pair<unsigned int const ,CargoDrop::INFO> >,0> >::end, COMDAT
; _this$ = ecx
; Line 565
	push	ebp
	mov	ebp, esp
	push	ecx
	mov	DWORD PTR _this$[ebp], ecx
; Line 566
	mov	eax, DWORD PTR _this$[ebp]
	push	eax
	mov	ecx, DWORD PTR _this$[ebp]
	mov	edx, DWORD PTR [ecx+24]
	push	edx
	mov	ecx, DWORD PTR ___$ReturnUdt$[ebp]
	call	??0iterator@?$_Tree@V?$_Tmap_traits@IVINFO@CargoDrop@@U?$less@I@std@@V?$allocator@U?$pair@$$CBIVINFO@CargoDrop@@@std@@@4@$0A@@std@@@std@@QAE@PAU_Node@?$_Tree_nod@V?$_Tmap_traits@IVINFO@CargoDrop@@U?$less@I@std@@V?$allocator@U?$pair@$$CBIVINFO@CargoDrop@@@std@@@4@$0A@@std@@@2@PBV12@@Z ; std::_Tree<std::_Tmap_traits<unsigned int,CargoDrop::INFO,std::less<unsigned int>,std::allocator<std::pair<unsigned int const ,CargoDrop::INFO> >,0> >::iterator::iterator
	mov	eax, DWORD PTR ___$ReturnUdt$[ebp]
; Line 567
	mov	esp, ebp
	pop	ebp
	ret	4
?end@?$_Tree@V?$_Tmap_traits@IVINFO@CargoDrop@@U?$less@I@std@@V?$allocator@U?$pair@$$CBIVINFO@CargoDrop@@@std@@@4@$0A@@std@@@std@@QAE?AViterator@12@XZ ENDP ; std::_Tree<std::_Tmap_traits<unsigned int,CargoDrop::INFO,std::less<unsigned int>,std::allocator<std::pair<unsigned int const ,CargoDrop::INFO> >,0> >::end
_TEXT	ENDS
PUBLIC	?erase@?$_Tree@V?$_Tmap_traits@IVINFO@CargoDrop@@U?$less@I@std@@V?$allocator@U?$pair@$$CBIVINFO@CargoDrop@@@std@@@4@$0A@@std@@@std@@QAE?AViterator@12@Vconst_iterator@12@0@Z ; std::_Tree<std::_Tmap_traits<unsigned int,CargoDrop::INFO,std::less<unsigned int>,std::allocator<std::pair<unsigned int const ,CargoDrop::INFO> >,0> >::erase
PUBLIC	??$_Distance@Viterator@?$_Tree@V?$_Tmap_traits@IVINFO@CargoDrop@@U?$less@I@std@@V?$allocator@U?$pair@$$CBIVINFO@CargoDrop@@@std@@@4@$0A@@std@@@std@@I@std@@YAXViterator@?$_Tree@V?$_Tmap_traits@IVINFO@CargoDrop@@U?$less@I@std@@V?$allocator@U?$pair@$$CBIVINFO@CargoDrop@@@std@@@4@$0A@@std@@@0@0AAI@Z ; std::_Distance<std::_Tree<std::_Tmap_traits<unsigned int,CargoDrop::INFO,std::less<unsigned int>,std::allocator<std::pair<unsigned int const ,CargoDrop::INFO> >,0> >::iterator,unsigned int>
PUBLIC	?equal_range@?$_Tree@V?$_Tmap_traits@IVINFO@CargoDrop@@U?$less@I@std@@V?$allocator@U?$pair@$$CBIVINFO@CargoDrop@@@std@@@4@$0A@@std@@@std@@QAE?AU?$pair@Viterator@?$_Tree@V?$_Tmap_traits@IVINFO@CargoDrop@@U?$less@I@std@@V?$allocator@U?$pair@$$CBIVINFO@CargoDrop@@@std@@@4@$0A@@std@@@std@@V123@@2@ABI@Z ; std::_Tree<std::_Tmap_traits<unsigned int,CargoDrop::INFO,std::less<unsigned int>,std::allocator<std::pair<unsigned int const ,CargoDrop::INFO> >,0> >::equal_range
; Function compile flags: /Odtp
;	COMDAT ?erase@?$_Tree@V?$_Tmap_traits@IVINFO@CargoDrop@@U?$less@I@std@@V?$allocator@U?$pair@$$CBIVINFO@CargoDrop@@@std@@@4@$0A@@std@@@std@@QAEIABI@Z
_TEXT	SEGMENT
_this$ = -48						; size = 4
$T149549 = -44						; size = 8
$T149548 = -36						; size = 8
$T149547 = -28						; size = 8
__Where$ = -20						; size = 16
__Num$ = -4						; size = 4
__Keyval$ = 8						; size = 4
?erase@?$_Tree@V?$_Tmap_traits@IVINFO@CargoDrop@@U?$less@I@std@@V?$allocator@U?$pair@$$CBIVINFO@CargoDrop@@@std@@@4@$0A@@std@@@std@@QAEIABI@Z PROC ; std::_Tree<std::_Tmap_traits<unsigned int,CargoDrop::INFO,std::less<unsigned int>,std::allocator<std::pair<unsigned int const ,CargoDrop::INFO> >,0> >::erase, COMDAT
; _this$ = ecx
; Line 949
	push	ebp
	mov	ebp, esp
	sub	esp, 48					; 00000030H
	mov	DWORD PTR _this$[ebp], ecx
; Line 950
	mov	eax, DWORD PTR __Keyval$[ebp]
	push	eax
	lea	ecx, DWORD PTR __Where$[ebp]
	push	ecx
	mov	ecx, DWORD PTR _this$[ebp]
	call	?equal_range@?$_Tree@V?$_Tmap_traits@IVINFO@CargoDrop@@U?$less@I@std@@V?$allocator@U?$pair@$$CBIVINFO@CargoDrop@@@std@@@4@$0A@@std@@@std@@QAE?AU?$pair@Viterator@?$_Tree@V?$_Tmap_traits@IVINFO@CargoDrop@@U?$less@I@std@@V?$allocator@U?$pair@$$CBIVINFO@CargoDrop@@@std@@@4@$0A@@std@@@std@@V123@@2@ABI@Z ; std::_Tree<std::_Tmap_traits<unsigned int,CargoDrop::INFO,std::less<unsigned int>,std::allocator<std::pair<unsigned int const ,CargoDrop::INFO> >,0> >::equal_range
; Line 951
	mov	DWORD PTR __Num$[ebp], 0
; Line 952
	lea	edx, DWORD PTR __Num$[ebp]
	push	edx
	mov	eax, DWORD PTR __Where$[ebp+12]
	push	eax
	mov	ecx, DWORD PTR __Where$[ebp+8]
	push	ecx
	mov	edx, DWORD PTR __Where$[ebp+4]
	push	edx
	mov	eax, DWORD PTR __Where$[ebp]
	push	eax
	call	??$_Distance@Viterator@?$_Tree@V?$_Tmap_traits@IVINFO@CargoDrop@@U?$less@I@std@@V?$allocator@U?$pair@$$CBIVINFO@CargoDrop@@@std@@@4@$0A@@std@@@std@@I@std@@YAXViterator@?$_Tree@V?$_Tmap_traits@IVINFO@CargoDrop@@U?$less@I@std@@V?$allocator@U?$pair@$$CBIVINFO@CargoDrop@@@std@@@4@$0A@@std@@@0@0AAI@Z ; std::_Distance<std::_Tree<std::_Tmap_traits<unsigned int,CargoDrop::INFO,std::less<unsigned int>,std::allocator<std::pair<unsigned int const ,CargoDrop::INFO> >,0> >::iterator,unsigned int>
	add	esp, 20					; 00000014H
; Line 953
	mov	ecx, DWORD PTR __Where$[ebp+8]
	mov	DWORD PTR $T149547[ebp], ecx
	mov	edx, DWORD PTR __Where$[ebp+12]
	mov	DWORD PTR $T149547[ebp+4], edx
	mov	eax, DWORD PTR __Where$[ebp]
	mov	DWORD PTR $T149548[ebp], eax
	mov	ecx, DWORD PTR __Where$[ebp+4]
	mov	DWORD PTR $T149548[ebp+4], ecx
	mov	edx, DWORD PTR $T149547[ebp+4]
	push	edx
	mov	eax, DWORD PTR $T149547[ebp]
	push	eax
	mov	ecx, DWORD PTR $T149548[ebp+4]
	push	ecx
	mov	edx, DWORD PTR $T149548[ebp]
	push	edx
	lea	eax, DWORD PTR $T149549[ebp]
	push	eax
	mov	ecx, DWORD PTR _this$[ebp]
	call	?erase@?$_Tree@V?$_Tmap_traits@IVINFO@CargoDrop@@U?$less@I@std@@V?$allocator@U?$pair@$$CBIVINFO@CargoDrop@@@std@@@4@$0A@@std@@@std@@QAE?AViterator@12@Vconst_iterator@12@0@Z ; std::_Tree<std::_Tmap_traits<unsigned int,CargoDrop::INFO,std::less<unsigned int>,std::allocator<std::pair<unsigned int const ,CargoDrop::INFO> >,0> >::erase
; Line 954
	mov	eax, DWORD PTR __Num$[ebp]
; Line 955
	mov	esp, ebp
	pop	ebp
	ret	4
?erase@?$_Tree@V?$_Tmap_traits@IVINFO@CargoDrop@@U?$less@I@std@@V?$allocator@U?$pair@$$CBIVINFO@CargoDrop@@@std@@@4@$0A@@std@@@std@@QAEIABI@Z ENDP ; std::_Tree<std::_Tmap_traits<unsigned int,CargoDrop::INFO,std::less<unsigned int>,std::allocator<std::pair<unsigned int const ,CargoDrop::INFO> >,0> >::erase
_TEXT	ENDS
PUBLIC	??1?$_List_val@UINISECTIONVALUE@@V?$allocator@UINISECTIONVALUE@@@std@@@std@@QAE@XZ ; std::_List_val<INISECTIONVALUE,std::allocator<INISECTIONVALUE> >::~_List_val<INISECTIONVALUE,std::allocator<INISECTIONVALUE> >
PUBLIC	?_Buynode@?$list@UINISECTIONVALUE@@V?$allocator@UINISECTIONVALUE@@@std@@@std@@IAEPAU_Node@?$_List_nod@UINISECTIONVALUE@@V?$allocator@UINISECTIONVALUE@@@std@@@2@XZ ; std::list<INISECTIONVALUE,std::allocator<INISECTIONVALUE> >::_Buynode
PUBLIC	??0?$_List_val@UINISECTIONVALUE@@V?$allocator@UINISECTIONVALUE@@@std@@@std@@QAE@V?$allocator@UINISECTIONVALUE@@@1@@Z ; std::_List_val<INISECTIONVALUE,std::allocator<INISECTIONVALUE> >::_List_val<INISECTIONVALUE,std::allocator<INISECTIONVALUE> >
PUBLIC	??0?$allocator@UINISECTIONVALUE@@@std@@QAE@XZ	; std::allocator<INISECTIONVALUE>::allocator<INISECTIONVALUE>
;	COMDAT xdata$x
; File c:\program files (x86)\microsoft visual studio 9.0\vc\include\list
xdata$x	SEGMENT
__unwindtable$??0?$list@UINISECTIONVALUE@@V?$allocator@UINISECTIONVALUE@@@std@@@std@@QAE@XZ DD 0ffffffffH
	DD	FLAT:__unwindfunclet$??0?$list@UINISECTIONVALUE@@V?$allocator@UINISECTIONVALUE@@@std@@@std@@QAE@XZ$0
__ehfuncinfo$??0?$list@UINISECTIONVALUE@@V?$allocator@UINISECTIONVALUE@@@std@@@std@@QAE@XZ DD 019930522H
	DD	01H
	DD	FLAT:__unwindtable$??0?$list@UINISECTIONVALUE@@V?$allocator@UINISECTIONVALUE@@@std@@@std@@QAE@XZ
	DD	2 DUP(00H)
	DD	2 DUP(00H)
	DD	00H
	DD	00H
; Function compile flags: /Odtp
xdata$x	ENDS
;	COMDAT ??0?$list@UINISECTIONVALUE@@V?$allocator@UINISECTIONVALUE@@@std@@@std@@QAE@XZ
_TEXT	SEGMENT
_this$ = -20						; size = 4
$T149552 = -16						; size = 4
__$EHRec$ = -12						; size = 12
??0?$list@UINISECTIONVALUE@@V?$allocator@UINISECTIONVALUE@@@std@@@std@@QAE@XZ PROC ; std::list<INISECTIONVALUE,std::allocator<INISECTIONVALUE> >::list<INISECTIONVALUE,std::allocator<INISECTIONVALUE> >, COMDAT
; _this$ = ecx
; Line 436
	push	ebp
	mov	ebp, esp
	push	-1
	push	__ehhandler$??0?$list@UINISECTIONVALUE@@V?$allocator@UINISECTIONVALUE@@@std@@@std@@QAE@XZ
	mov	eax, DWORD PTR fs:0
	push	eax
	sub	esp, 8
	mov	eax, DWORD PTR ___security_cookie
	xor	eax, ebp
	push	eax
	lea	eax, DWORD PTR __$EHRec$[ebp]
	mov	DWORD PTR fs:0, eax
	mov	DWORD PTR _this$[ebp], ecx
	push	ecx
	mov	ecx, esp
	mov	DWORD PTR $T149552[ebp], esp
	call	??0?$allocator@UINISECTIONVALUE@@@std@@QAE@XZ ; std::allocator<INISECTIONVALUE>::allocator<INISECTIONVALUE>
	mov	ecx, DWORD PTR _this$[ebp]
	call	??0?$_List_val@UINISECTIONVALUE@@V?$allocator@UINISECTIONVALUE@@@std@@@std@@QAE@V?$allocator@UINISECTIONVALUE@@@1@@Z ; std::_List_val<INISECTIONVALUE,std::allocator<INISECTIONVALUE> >::_List_val<INISECTIONVALUE,std::allocator<INISECTIONVALUE> >
	mov	DWORD PTR __$EHRec$[ebp+8], 0
	mov	ecx, DWORD PTR _this$[ebp]
	call	?_Buynode@?$list@UINISECTIONVALUE@@V?$allocator@UINISECTIONVALUE@@@std@@@std@@IAEPAU_Node@?$_List_nod@UINISECTIONVALUE@@V?$allocator@UINISECTIONVALUE@@@std@@@2@XZ ; std::list<INISECTIONVALUE,std::allocator<INISECTIONVALUE> >::_Buynode
	mov	ecx, DWORD PTR _this$[ebp]
	mov	DWORD PTR [ecx+20], eax
	mov	edx, DWORD PTR _this$[ebp]
	mov	DWORD PTR [edx+24], 0
; Line 437
	mov	DWORD PTR __$EHRec$[ebp+8], -1
	mov	eax, DWORD PTR _this$[ebp]
	mov	ecx, DWORD PTR __$EHRec$[ebp]
	mov	DWORD PTR fs:0, ecx
	pop	ecx
	mov	esp, ebp
	pop	ebp
	ret	0
_TEXT	ENDS
;	COMDAT text$x
text$x	SEGMENT
__unwindfunclet$??0?$list@UINISECTIONVALUE@@V?$allocator@UINISECTIONVALUE@@@std@@@std@@QAE@XZ$0:
	mov	ecx, DWORD PTR _this$[ebp]
	jmp	??1?$_List_val@UINISECTIONVALUE@@V?$allocator@UINISECTIONVALUE@@@std@@@std@@QAE@XZ
__ehhandler$??0?$list@UINISECTIONVALUE@@V?$allocator@UINISECTIONVALUE@@@std@@@std@@QAE@XZ:
	mov	edx, DWORD PTR [esp+8]
	lea	eax, DWORD PTR [edx+12]
	mov	ecx, DWORD PTR [edx-12]
	xor	ecx, eax
	call	@__security_check_cookie@4
	mov	eax, OFFSET __ehfuncinfo$??0?$list@UINISECTIONVALUE@@V?$allocator@UINISECTIONVALUE@@@std@@@std@@QAE@XZ
	jmp	___CxxFrameHandler3
text$x	ENDS
??0?$list@UINISECTIONVALUE@@V?$allocator@UINISECTIONVALUE@@@std@@@std@@QAE@XZ ENDP ; std::list<INISECTIONVALUE,std::allocator<INISECTIONVALUE> >::list<INISECTIONVALUE,std::allocator<INISECTIONVALUE> >
PUBLIC	?_Tidy@?$list@UINISECTIONVALUE@@V?$allocator@UINISECTIONVALUE@@@std@@@std@@IAEXXZ ; std::list<INISECTIONVALUE,std::allocator<INISECTIONVALUE> >::_Tidy
;	COMDAT xdata$x
xdata$x	SEGMENT
__unwindtable$??1?$list@UINISECTIONVALUE@@V?$allocator@UINISECTIONVALUE@@@std@@@std@@QAE@XZ DD 0ffffffffH
	DD	FLAT:__unwindfunclet$??1?$list@UINISECTIONVALUE@@V?$allocator@UINISECTIONVALUE@@@std@@@std@@QAE@XZ$0
__ehfuncinfo$??1?$list@UINISECTIONVALUE@@V?$allocator@UINISECTIONVALUE@@@std@@@std@@QAE@XZ DD 019930522H
	DD	01H
	DD	FLAT:__unwindtable$??1?$list@UINISECTIONVALUE@@V?$allocator@UINISECTIONVALUE@@@std@@@std@@QAE@XZ
	DD	2 DUP(00H)
	DD	2 DUP(00H)
	DD	00H
	DD	00H
; Function compile flags: /Odtp
xdata$x	ENDS
;	COMDAT ??1?$list@UINISECTIONVALUE@@V?$allocator@UINISECTIONVALUE@@@std@@@std@@QAE@XZ
_TEXT	SEGMENT
_this$ = -16						; size = 4
__$EHRec$ = -12						; size = 12
??1?$list@UINISECTIONVALUE@@V?$allocator@UINISECTIONVALUE@@@std@@@std@@QAE@XZ PROC ; std::list<INISECTIONVALUE,std::allocator<INISECTIONVALUE> >::~list<INISECTIONVALUE,std::allocator<INISECTIONVALUE> >, COMDAT
; _this$ = ecx
; Line 520
	push	ebp
	mov	ebp, esp
	push	-1
	push	__ehhandler$??1?$list@UINISECTIONVALUE@@V?$allocator@UINISECTIONVALUE@@@std@@@std@@QAE@XZ
	mov	eax, DWORD PTR fs:0
	push	eax
	push	ecx
	mov	eax, DWORD PTR ___security_cookie
	xor	eax, ebp
	push	eax
	lea	eax, DWORD PTR __$EHRec$[ebp]
	mov	DWORD PTR fs:0, eax
	mov	DWORD PTR _this$[ebp], ecx
	mov	DWORD PTR __$EHRec$[ebp+8], 0
; Line 521
	mov	ecx, DWORD PTR _this$[ebp]
	call	?_Tidy@?$list@UINISECTIONVALUE@@V?$allocator@UINISECTIONVALUE@@@std@@@std@@IAEXXZ ; std::list<INISECTIONVALUE,std::allocator<INISECTIONVALUE> >::_Tidy
; Line 522
	mov	DWORD PTR __$EHRec$[ebp+8], -1
	mov	ecx, DWORD PTR _this$[ebp]
	call	??1?$_List_val@UINISECTIONVALUE@@V?$allocator@UINISECTIONVALUE@@@std@@@std@@QAE@XZ
	mov	ecx, DWORD PTR __$EHRec$[ebp]
	mov	DWORD PTR fs:0, ecx
	pop	ecx
	mov	esp, ebp
	pop	ebp
	ret	0
_TEXT	ENDS
;	COMDAT text$x
text$x	SEGMENT
__unwindfunclet$??1?$list@UINISECTIONVALUE@@V?$allocator@UINISECTIONVALUE@@@std@@@std@@QAE@XZ$0:
	mov	ecx, DWORD PTR _this$[ebp]
	jmp	??1?$_List_val@UINISECTIONVALUE@@V?$allocator@UINISECTIONVALUE@@@std@@@std@@QAE@XZ
__ehhandler$??1?$list@UINISECTIONVALUE@@V?$allocator@UINISECTIONVALUE@@@std@@@std@@QAE@XZ:
	mov	edx, DWORD PTR [esp+8]
	lea	eax, DWORD PTR [edx+12]
	mov	ecx, DWORD PTR [edx-8]
	xor	ecx, eax
	call	@__security_check_cookie@4
	mov	eax, OFFSET __ehfuncinfo$??1?$list@UINISECTIONVALUE@@V?$allocator@UINISECTIONVALUE@@@std@@@std@@QAE@XZ
	jmp	___CxxFrameHandler3
text$x	ENDS
??1?$list@UINISECTIONVALUE@@V?$allocator@UINISECTIONVALUE@@@std@@@std@@QAE@XZ ENDP ; std::list<INISECTIONVALUE,std::allocator<INISECTIONVALUE> >::~list<INISECTIONVALUE,std::allocator<INISECTIONVALUE> >
PUBLIC	??0?$_Iterator@$00@?$list@UINISECTIONVALUE@@V?$allocator@UINISECTIONVALUE@@@std@@@std@@QAE@PAU_Node@?$_List_nod@UINISECTIONVALUE@@V?$allocator@UINISECTIONVALUE@@@std@@@2@PBV12@@Z ; std::list<INISECTIONVALUE,std::allocator<INISECTIONVALUE> >::_Iterator<1>::_Iterator<1>
PUBLIC	?_Nextnode@?$list@UINISECTIONVALUE@@V?$allocator@UINISECTIONVALUE@@@std@@@std@@KAAAPAU_Node@?$_List_nod@UINISECTIONVALUE@@V?$allocator@UINISECTIONVALUE@@@std@@@2@PAU342@@Z ; std::list<INISECTIONVALUE,std::allocator<INISECTIONVALUE> >::_Nextnode
; Function compile flags: /Odtp
;	COMDAT ?begin@?$list@UINISECTIONVALUE@@V?$allocator@UINISECTIONVALUE@@@std@@@std@@QAE?AV?$_Iterator@$00@12@XZ
_TEXT	SEGMENT
_this$ = -4						; size = 4
___$ReturnUdt$ = 8					; size = 4
?begin@?$list@UINISECTIONVALUE@@V?$allocator@UINISECTIONVALUE@@@std@@@std@@QAE?AV?$_Iterator@$00@12@XZ PROC ; std::list<INISECTIONVALUE,std::allocator<INISECTIONVALUE> >::begin, COMDAT
; _this$ = ecx
; Line 533
	push	ebp
	mov	ebp, esp
	push	ecx
	mov	DWORD PTR _this$[ebp], ecx
; Line 534
	mov	eax, DWORD PTR _this$[ebp]
	push	eax
	mov	ecx, DWORD PTR _this$[ebp]
	mov	edx, DWORD PTR [ecx+20]
	push	edx
	call	?_Nextnode@?$list@UINISECTIONVALUE@@V?$allocator@UINISECTIONVALUE@@@std@@@std@@KAAAPAU_Node@?$_List_nod@UINISECTIONVALUE@@V?$allocator@UINISECTIONVALUE@@@std@@@2@PAU342@@Z ; std::list<INISECTIONVALUE,std::allocator<INISECTIONVALUE> >::_Nextnode
	add	esp, 4
	mov	eax, DWORD PTR [eax]
	push	eax
	mov	ecx, DWORD PTR ___$ReturnUdt$[ebp]
	call	??0?$_Iterator@$00@?$list@UINISECTIONVALUE@@V?$allocator@UINISECTIONVALUE@@@std@@@std@@QAE@PAU_Node@?$_List_nod@UINISECTIONVALUE@@V?$allocator@UINISECTIONVALUE@@@std@@@2@PBV12@@Z ; std::list<INISECTIONVALUE,std::allocator<INISECTIONVALUE> >::_Iterator<1>::_Iterator<1>
	mov	eax, DWORD PTR ___$ReturnUdt$[ebp]
; Line 535
	mov	esp, ebp
	pop	ebp
	ret	4
?begin@?$list@UINISECTIONVALUE@@V?$allocator@UINISECTIONVALUE@@@std@@@std@@QAE?AV?$_Iterator@$00@12@XZ ENDP ; std::list<INISECTIONVALUE,std::allocator<INISECTIONVALUE> >::begin
; Function compile flags: /Odtp
_TEXT	ENDS
;	COMDAT ?end@?$list@UINISECTIONVALUE@@V?$allocator@UINISECTIONVALUE@@@std@@@std@@QAE?AV?$_Iterator@$00@12@XZ
_TEXT	SEGMENT
_this$ = -4						; size = 4
___$ReturnUdt$ = 8					; size = 4
?end@?$list@UINISECTIONVALUE@@V?$allocator@UINISECTIONVALUE@@@std@@@std@@QAE?AV?$_Iterator@$00@12@XZ PROC ; std::list<INISECTIONVALUE,std::allocator<INISECTIONVALUE> >::end, COMDAT
; _this$ = ecx
; Line 543
	push	ebp
	mov	ebp, esp
	push	ecx
	mov	DWORD PTR _this$[ebp], ecx
; Line 544
	mov	eax, DWORD PTR _this$[ebp]
	push	eax
	mov	ecx, DWORD PTR _this$[ebp]
	mov	edx, DWORD PTR [ecx+20]
	push	edx
	mov	ecx, DWORD PTR ___$ReturnUdt$[ebp]
	call	??0?$_Iterator@$00@?$list@UINISECTIONVALUE@@V?$allocator@UINISECTIONVALUE@@@std@@@std@@QAE@PAU_Node@?$_List_nod@UINISECTIONVALUE@@V?$allocator@UINISECTIONVALUE@@@std@@@2@PBV12@@Z ; std::list<INISECTIONVALUE,std::allocator<INISECTIONVALUE> >::_Iterator<1>::_Iterator<1>
	mov	eax, DWORD PTR ___$ReturnUdt$[ebp]
; Line 545
	mov	esp, ebp
	pop	ebp
	ret	4
?end@?$list@UINISECTIONVALUE@@V?$allocator@UINISECTIONVALUE@@@std@@@std@@QAE?AV?$_Iterator@$00@12@XZ ENDP ; std::list<INISECTIONVALUE,std::allocator<INISECTIONVALUE> >::end
_TEXT	ENDS
PUBLIC	??D?$_Iterator@$00@?$list@UINISECTIONVALUE@@V?$allocator@UINISECTIONVALUE@@@std@@@std@@QBEAAUINISECTIONVALUE@@XZ ; std::list<INISECTIONVALUE,std::allocator<INISECTIONVALUE> >::_Iterator<1>::operator*
; Function compile flags: /Odtp
;	COMDAT ??C?$_Iterator@$00@?$list@UINISECTIONVALUE@@V?$allocator@UINISECTIONVALUE@@@std@@@std@@QBEPAUINISECTIONVALUE@@XZ
_TEXT	SEGMENT
_this$ = -4						; size = 4
??C?$_Iterator@$00@?$list@UINISECTIONVALUE@@V?$allocator@UINISECTIONVALUE@@@std@@@std@@QBEPAUINISECTIONVALUE@@XZ PROC ; std::list<INISECTIONVALUE,std::allocator<INISECTIONVALUE> >::_Iterator<1>::operator->, COMDAT
; _this$ = ecx
; Line 398
	push	ebp
	mov	ebp, esp
	push	ecx
	mov	DWORD PTR _this$[ebp], ecx
; Line 399
	mov	ecx, DWORD PTR _this$[ebp]
	call	??D?$_Iterator@$00@?$list@UINISECTIONVALUE@@V?$allocator@UINISECTIONVALUE@@@std@@@std@@QBEAAUINISECTIONVALUE@@XZ ; std::list<INISECTIONVALUE,std::allocator<INISECTIONVALUE> >::_Iterator<1>::operator*
; Line 400
	mov	esp, ebp
	pop	ebp
	ret	0
??C?$_Iterator@$00@?$list@UINISECTIONVALUE@@V?$allocator@UINISECTIONVALUE@@@std@@@std@@QBEPAUINISECTIONVALUE@@XZ ENDP ; std::list<INISECTIONVALUE,std::allocator<INISECTIONVALUE> >::_Iterator<1>::operator->
_TEXT	ENDS
PUBLIC	??E?$_Iterator@$00@?$list@UINISECTIONVALUE@@V?$allocator@UINISECTIONVALUE@@@std@@@std@@QAEAAV012@XZ ; std::list<INISECTIONVALUE,std::allocator<INISECTIONVALUE> >::_Iterator<1>::operator++
; Function compile flags: /Odtp
;	COMDAT ??E?$_Iterator@$00@?$list@UINISECTIONVALUE@@V?$allocator@UINISECTIONVALUE@@@std@@@std@@QAE?AV012@H@Z
_TEXT	SEGMENT
_this$ = -12						; size = 4
__Tmp$ = -8						; size = 8
___$ReturnUdt$ = 8					; size = 4
___formal$ = 12						; size = 4
??E?$_Iterator@$00@?$list@UINISECTIONVALUE@@V?$allocator@UINISECTIONVALUE@@@std@@@std@@QAE?AV012@H@Z PROC ; std::list<INISECTIONVALUE,std::allocator<INISECTIONVALUE> >::_Iterator<1>::operator++, COMDAT
; _this$ = ecx
; Line 409
	push	ebp
	mov	ebp, esp
	sub	esp, 12					; 0000000cH
	mov	DWORD PTR _this$[ebp], ecx
; Line 410
	mov	eax, DWORD PTR _this$[ebp]
	mov	ecx, DWORD PTR [eax]
	mov	edx, DWORD PTR [eax+4]
	mov	DWORD PTR __Tmp$[ebp], ecx
	mov	DWORD PTR __Tmp$[ebp+4], edx
; Line 411
	mov	ecx, DWORD PTR _this$[ebp]
	call	??E?$_Iterator@$00@?$list@UINISECTIONVALUE@@V?$allocator@UINISECTIONVALUE@@@std@@@std@@QAEAAV012@XZ ; std::list<INISECTIONVALUE,std::allocator<INISECTIONVALUE> >::_Iterator<1>::operator++
; Line 412
	mov	eax, DWORD PTR ___$ReturnUdt$[ebp]
	mov	ecx, DWORD PTR __Tmp$[ebp]
	mov	DWORD PTR [eax], ecx
	mov	edx, DWORD PTR __Tmp$[ebp+4]
	mov	DWORD PTR [eax+4], edx
	mov	eax, DWORD PTR ___$ReturnUdt$[ebp]
; Line 413
	mov	esp, ebp
	pop	ebp
	ret	8
??E?$_Iterator@$00@?$list@UINISECTIONVALUE@@V?$allocator@UINISECTIONVALUE@@@std@@@std@@QAE?AV012@H@Z ENDP ; std::list<INISECTIONVALUE,std::allocator<INISECTIONVALUE> >::_Iterator<1>::operator++
_TEXT	ENDS
PUBLIC	??8?$_Const_iterator@$00@?$list@UINISECTIONVALUE@@V?$allocator@UINISECTIONVALUE@@@std@@@std@@QBE_NABV012@@Z ; std::list<INISECTIONVALUE,std::allocator<INISECTIONVALUE> >::_Const_iterator<1>::operator==
; Function compile flags: /Odtp
;	COMDAT ??9?$_Const_iterator@$00@?$list@UINISECTIONVALUE@@V?$allocator@UINISECTIONVALUE@@@std@@@std@@QBE_NABV012@@Z
_TEXT	SEGMENT
_this$ = -4						; size = 4
__Right$ = 8						; size = 4
??9?$_Const_iterator@$00@?$list@UINISECTIONVALUE@@V?$allocator@UINISECTIONVALUE@@@std@@@std@@QBE_NABV012@@Z PROC ; std::list<INISECTIONVALUE,std::allocator<INISECTIONVALUE> >::_Const_iterator<1>::operator!=, COMDAT
; _this$ = ecx
; Line 302
	push	ebp
	mov	ebp, esp
	push	ecx
	mov	DWORD PTR _this$[ebp], ecx
; Line 303
	mov	eax, DWORD PTR __Right$[ebp]
	push	eax
	mov	ecx, DWORD PTR _this$[ebp]
	call	??8?$_Const_iterator@$00@?$list@UINISECTIONVALUE@@V?$allocator@UINISECTIONVALUE@@@std@@@std@@QBE_NABV012@@Z ; std::list<INISECTIONVALUE,std::allocator<INISECTIONVALUE> >::_Const_iterator<1>::operator==
	movzx	eax, al
	neg	eax
	sbb	eax, eax
	add	eax, 1
; Line 304
	mov	esp, ebp
	pop	ebp
	ret	4
??9?$_Const_iterator@$00@?$list@UINISECTIONVALUE@@V?$allocator@UINISECTIONVALUE@@@std@@@std@@QBE_NABV012@@Z ENDP ; std::list<INISECTIONVALUE,std::allocator<INISECTIONVALUE> >::_Const_iterator<1>::operator!=
; Function compile flags: /Odtp
_TEXT	ENDS
;	COMDAT ??Citerator@?$_Tree@V?$_Tmap_traits@IVINFO@CargoDrop@@U?$less@I@std@@V?$allocator@U?$pair@$$CBIVINFO@CargoDrop@@@std@@@4@$0A@@std@@@std@@QBEPAU?$pair@$$CBIVINFO@CargoDrop@@@2@XZ
_TEXT	SEGMENT
_this$ = -4						; size = 4
??Citerator@?$_Tree@V?$_Tmap_traits@IVINFO@CargoDrop@@U?$less@I@std@@V?$allocator@U?$pair@$$CBIVINFO@CargoDrop@@@std@@@4@$0A@@std@@@std@@QBEPAU?$pair@$$CBIVINFO@CargoDrop@@@2@XZ PROC ; std::_Tree<std::_Tmap_traits<unsigned int,CargoDrop::INFO,std::less<unsigned int>,std::allocator<std::pair<unsigned int const ,CargoDrop::INFO> >,0> >::iterator::operator->, COMDAT
; _this$ = ecx
; File c:\program files (x86)\microsoft visual studio 9.0\vc\include\xtree
; Line 469
	push	ebp
	mov	ebp, esp
	push	ecx
	mov	DWORD PTR _this$[ebp], ecx
; Line 470
	mov	ecx, DWORD PTR _this$[ebp]
	call	??Diterator@?$_Tree@V?$_Tmap_traits@IVINFO@CargoDrop@@U?$less@I@std@@V?$allocator@U?$pair@$$CBIVINFO@CargoDrop@@@std@@@4@$0A@@std@@@std@@QBEAAU?$pair@$$CBIVINFO@CargoDrop@@@2@XZ ; std::_Tree<std::_Tmap_traits<unsigned int,CargoDrop::INFO,std::less<unsigned int>,std::allocator<std::pair<unsigned int const ,CargoDrop::INFO> >,0> >::iterator::operator*
; Line 471
	mov	esp, ebp
	pop	ebp
	ret	0
??Citerator@?$_Tree@V?$_Tmap_traits@IVINFO@CargoDrop@@U?$less@I@std@@V?$allocator@U?$pair@$$CBIVINFO@CargoDrop@@@std@@@4@$0A@@std@@@std@@QBEPAU?$pair@$$CBIVINFO@CargoDrop@@@2@XZ ENDP ; std::_Tree<std::_Tmap_traits<unsigned int,CargoDrop::INFO,std::less<unsigned int>,std::allocator<std::pair<unsigned int const ,CargoDrop::INFO> >,0> >::iterator::operator->
_TEXT	ENDS
PUBLIC	??Eiterator@?$_Tree@V?$_Tmap_traits@IVINFO@CargoDrop@@U?$less@I@std@@V?$allocator@U?$pair@$$CBIVINFO@CargoDrop@@@std@@@4@$0A@@std@@@std@@QAEAAV012@XZ ; std::_Tree<std::_Tmap_traits<unsigned int,CargoDrop::INFO,std::less<unsigned int>,std::allocator<std::pair<unsigned int const ,CargoDrop::INFO> >,0> >::iterator::operator++
; Function compile flags: /Odtp
;	COMDAT ??Eiterator@?$_Tree@V?$_Tmap_traits@IVINFO@CargoDrop@@U?$less@I@std@@V?$allocator@U?$pair@$$CBIVINFO@CargoDrop@@@std@@@4@$0A@@std@@@std@@QAE?AV012@H@Z
_TEXT	SEGMENT
_this$ = -12						; size = 4
__Tmp$ = -8						; size = 8
___$ReturnUdt$ = 8					; size = 4
___formal$ = 12						; size = 4
??Eiterator@?$_Tree@V?$_Tmap_traits@IVINFO@CargoDrop@@U?$less@I@std@@V?$allocator@U?$pair@$$CBIVINFO@CargoDrop@@@std@@@4@$0A@@std@@@std@@QAE?AV012@H@Z PROC ; std::_Tree<std::_Tmap_traits<unsigned int,CargoDrop::INFO,std::less<unsigned int>,std::allocator<std::pair<unsigned int const ,CargoDrop::INFO> >,0> >::iterator::operator++, COMDAT
; _this$ = ecx
; Line 480
	push	ebp
	mov	ebp, esp
	sub	esp, 12					; 0000000cH
	mov	DWORD PTR _this$[ebp], ecx
; Line 481
	mov	eax, DWORD PTR _this$[ebp]
	mov	ecx, DWORD PTR [eax]
	mov	edx, DWORD PTR [eax+4]
	mov	DWORD PTR __Tmp$[ebp], ecx
	mov	DWORD PTR __Tmp$[ebp+4], edx
; Line 482
	mov	ecx, DWORD PTR _this$[ebp]
	call	??Eiterator@?$_Tree@V?$_Tmap_traits@IVINFO@CargoDrop@@U?$less@I@std@@V?$allocator@U?$pair@$$CBIVINFO@CargoDrop@@@std@@@4@$0A@@std@@@std@@QAEAAV012@XZ ; std::_Tree<std::_Tmap_traits<unsigned int,CargoDrop::INFO,std::less<unsigned int>,std::allocator<std::pair<unsigned int const ,CargoDrop::INFO> >,0> >::iterator::operator++
; Line 483
	mov	eax, DWORD PTR ___$ReturnUdt$[ebp]
	mov	ecx, DWORD PTR __Tmp$[ebp]
	mov	DWORD PTR [eax], ecx
	mov	edx, DWORD PTR __Tmp$[ebp+4]
	mov	DWORD PTR [eax+4], edx
	mov	eax, DWORD PTR ___$ReturnUdt$[ebp]
; Line 484
	mov	esp, ebp
	pop	ebp
	ret	8
??Eiterator@?$_Tree@V?$_Tmap_traits@IVINFO@CargoDrop@@U?$less@I@std@@V?$allocator@U?$pair@$$CBIVINFO@CargoDrop@@@std@@@4@$0A@@std@@@std@@QAE?AV012@H@Z ENDP ; std::_Tree<std::_Tmap_traits<unsigned int,CargoDrop::INFO,std::less<unsigned int>,std::allocator<std::pair<unsigned int const ,CargoDrop::INFO> >,0> >::iterator::operator++
; Function compile flags: /Odtp
_TEXT	ENDS
;	COMDAT ??9const_iterator@?$_Tree@V?$_Tmap_traits@IVINFO@CargoDrop@@U?$less@I@std@@V?$allocator@U?$pair@$$CBIVINFO@CargoDrop@@@std@@@4@$0A@@std@@@std@@QBE_NABV012@@Z
_TEXT	SEGMENT
_this$ = -4						; size = 4
__Right$ = 8						; size = 4
??9const_iterator@?$_Tree@V?$_Tmap_traits@IVINFO@CargoDrop@@U?$less@I@std@@V?$allocator@U?$pair@$$CBIVINFO@CargoDrop@@@std@@@4@$0A@@std@@@std@@QBE_NABV012@@Z PROC ; std::_Tree<std::_Tmap_traits<unsigned int,CargoDrop::INFO,std::less<unsigned int>,std::allocator<std::pair<unsigned int const ,CargoDrop::INFO> >,0> >::const_iterator::operator!=, COMDAT
; _this$ = ecx
; Line 315
	push	ebp
	mov	ebp, esp
	push	ecx
	mov	DWORD PTR _this$[ebp], ecx
; Line 316
	mov	eax, DWORD PTR __Right$[ebp]
	push	eax
	mov	ecx, DWORD PTR _this$[ebp]
	call	??8const_iterator@?$_Tree@V?$_Tmap_traits@IVINFO@CargoDrop@@U?$less@I@std@@V?$allocator@U?$pair@$$CBIVINFO@CargoDrop@@@std@@@4@$0A@@std@@@std@@QBE_NABV012@@Z ; std::_Tree<std::_Tmap_traits<unsigned int,CargoDrop::INFO,std::less<unsigned int>,std::allocator<std::pair<unsigned int const ,CargoDrop::INFO> >,0> >::const_iterator::operator==
	movzx	eax, al
	neg	eax
	sbb	eax, eax
	add	eax, 1
; Line 317
	mov	esp, ebp
	pop	ebp
	ret	4
??9const_iterator@?$_Tree@V?$_Tmap_traits@IVINFO@CargoDrop@@U?$less@I@std@@V?$allocator@U?$pair@$$CBIVINFO@CargoDrop@@@std@@@4@$0A@@std@@@std@@QBE_NABV012@@Z ENDP ; std::_Tree<std::_Tmap_traits<unsigned int,CargoDrop::INFO,std::less<unsigned int>,std::allocator<std::pair<unsigned int const ,CargoDrop::INFO> >,0> >::const_iterator::operator!=
_TEXT	ENDS
PUBLIC	??1?$_List_val@UCARGO_INFO@@V?$allocator@UCARGO_INFO@@@std@@@std@@QAE@XZ ; std::_List_val<CARGO_INFO,std::allocator<CARGO_INFO> >::~_List_val<CARGO_INFO,std::allocator<CARGO_INFO> >
PUBLIC	?_Buynode@?$list@UCARGO_INFO@@V?$allocator@UCARGO_INFO@@@std@@@std@@IAEPAU_Node@?$_List_nod@UCARGO_INFO@@V?$allocator@UCARGO_INFO@@@std@@@2@XZ ; std::list<CARGO_INFO,std::allocator<CARGO_INFO> >::_Buynode
PUBLIC	??0?$_List_val@UCARGO_INFO@@V?$allocator@UCARGO_INFO@@@std@@@std@@QAE@V?$allocator@UCARGO_INFO@@@1@@Z ; std::_List_val<CARGO_INFO,std::allocator<CARGO_INFO> >::_List_val<CARGO_INFO,std::allocator<CARGO_INFO> >
PUBLIC	??0?$allocator@UCARGO_INFO@@@std@@QAE@XZ	; std::allocator<CARGO_INFO>::allocator<CARGO_INFO>
;	COMDAT xdata$x
; File c:\program files (x86)\microsoft visual studio 9.0\vc\include\list
xdata$x	SEGMENT
__unwindtable$??0?$list@UCARGO_INFO@@V?$allocator@UCARGO_INFO@@@std@@@std@@QAE@XZ DD 0ffffffffH
	DD	FLAT:__unwindfunclet$??0?$list@UCARGO_INFO@@V?$allocator@UCARGO_INFO@@@std@@@std@@QAE@XZ$0
__ehfuncinfo$??0?$list@UCARGO_INFO@@V?$allocator@UCARGO_INFO@@@std@@@std@@QAE@XZ DD 019930522H
	DD	01H
	DD	FLAT:__unwindtable$??0?$list@UCARGO_INFO@@V?$allocator@UCARGO_INFO@@@std@@@std@@QAE@XZ
	DD	2 DUP(00H)
	DD	2 DUP(00H)
	DD	00H
	DD	00H
; Function compile flags: /Odtp
xdata$x	ENDS
;	COMDAT ??0?$list@UCARGO_INFO@@V?$allocator@UCARGO_INFO@@@std@@@std@@QAE@XZ
_TEXT	SEGMENT
_this$ = -20						; size = 4
$T149587 = -16						; size = 4
__$EHRec$ = -12						; size = 12
??0?$list@UCARGO_INFO@@V?$allocator@UCARGO_INFO@@@std@@@std@@QAE@XZ PROC ; std::list<CARGO_INFO,std::allocator<CARGO_INFO> >::list<CARGO_INFO,std::allocator<CARGO_INFO> >, COMDAT
; _this$ = ecx
; Line 436
	push	ebp
	mov	ebp, esp
	push	-1
	push	__ehhandler$??0?$list@UCARGO_INFO@@V?$allocator@UCARGO_INFO@@@std@@@std@@QAE@XZ
	mov	eax, DWORD PTR fs:0
	push	eax
	sub	esp, 8
	mov	eax, DWORD PTR ___security_cookie
	xor	eax, ebp
	push	eax
	lea	eax, DWORD PTR __$EHRec$[ebp]
	mov	DWORD PTR fs:0, eax
	mov	DWORD PTR _this$[ebp], ecx
	push	ecx
	mov	ecx, esp
	mov	DWORD PTR $T149587[ebp], esp
	call	??0?$allocator@UCARGO_INFO@@@std@@QAE@XZ ; std::allocator<CARGO_INFO>::allocator<CARGO_INFO>
	mov	ecx, DWORD PTR _this$[ebp]
	call	??0?$_List_val@UCARGO_INFO@@V?$allocator@UCARGO_INFO@@@std@@@std@@QAE@V?$allocator@UCARGO_INFO@@@1@@Z ; std::_List_val<CARGO_INFO,std::allocator<CARGO_INFO> >::_List_val<CARGO_INFO,std::allocator<CARGO_INFO> >
	mov	DWORD PTR __$EHRec$[ebp+8], 0
	mov	ecx, DWORD PTR _this$[ebp]
	call	?_Buynode@?$list@UCARGO_INFO@@V?$allocator@UCARGO_INFO@@@std@@@std@@IAEPAU_Node@?$_List_nod@UCARGO_INFO@@V?$allocator@UCARGO_INFO@@@std@@@2@XZ ; std::list<CARGO_INFO,std::allocator<CARGO_INFO> >::_Buynode
	mov	ecx, DWORD PTR _this$[ebp]
	mov	DWORD PTR [ecx+20], eax
	mov	edx, DWORD PTR _this$[ebp]
	mov	DWORD PTR [edx+24], 0
; Line 437
	mov	DWORD PTR __$EHRec$[ebp+8], -1
	mov	eax, DWORD PTR _this$[ebp]
	mov	ecx, DWORD PTR __$EHRec$[ebp]
	mov	DWORD PTR fs:0, ecx
	pop	ecx
	mov	esp, ebp
	pop	ebp
	ret	0
_TEXT	ENDS
;	COMDAT text$x
text$x	SEGMENT
__unwindfunclet$??0?$list@UCARGO_INFO@@V?$allocator@UCARGO_INFO@@@std@@@std@@QAE@XZ$0:
	mov	ecx, DWORD PTR _this$[ebp]
	jmp	??1?$_List_val@UCARGO_INFO@@V?$allocator@UCARGO_INFO@@@std@@@std@@QAE@XZ
__ehhandler$??0?$list@UCARGO_INFO@@V?$allocator@UCARGO_INFO@@@std@@@std@@QAE@XZ:
	mov	edx, DWORD PTR [esp+8]
	lea	eax, DWORD PTR [edx+12]
	mov	ecx, DWORD PTR [edx-12]
	xor	ecx, eax
	call	@__security_check_cookie@4
	mov	eax, OFFSET __ehfuncinfo$??0?$list@UCARGO_INFO@@V?$allocator@UCARGO_INFO@@@std@@@std@@QAE@XZ
	jmp	___CxxFrameHandler3
text$x	ENDS
??0?$list@UCARGO_INFO@@V?$allocator@UCARGO_INFO@@@std@@@std@@QAE@XZ ENDP ; std::list<CARGO_INFO,std::allocator<CARGO_INFO> >::list<CARGO_INFO,std::allocator<CARGO_INFO> >
PUBLIC	?_Tidy@?$list@UCARGO_INFO@@V?$allocator@UCARGO_INFO@@@std@@@std@@IAEXXZ ; std::list<CARGO_INFO,std::allocator<CARGO_INFO> >::_Tidy
;	COMDAT xdata$x
xdata$x	SEGMENT
__unwindtable$??1?$list@UCARGO_INFO@@V?$allocator@UCARGO_INFO@@@std@@@std@@QAE@XZ DD 0ffffffffH
	DD	FLAT:__unwindfunclet$??1?$list@UCARGO_INFO@@V?$allocator@UCARGO_INFO@@@std@@@std@@QAE@XZ$0
__ehfuncinfo$??1?$list@UCARGO_INFO@@V?$allocator@UCARGO_INFO@@@std@@@std@@QAE@XZ DD 019930522H
	DD	01H
	DD	FLAT:__unwindtable$??1?$list@UCARGO_INFO@@V?$allocator@UCARGO_INFO@@@std@@@std@@QAE@XZ
	DD	2 DUP(00H)
	DD	2 DUP(00H)
	DD	00H
	DD	00H
; Function compile flags: /Odtp
xdata$x	ENDS
;	COMDAT ??1?$list@UCARGO_INFO@@V?$allocator@UCARGO_INFO@@@std@@@std@@QAE@XZ
_TEXT	SEGMENT
_this$ = -16						; size = 4
__$EHRec$ = -12						; size = 12
??1?$list@UCARGO_INFO@@V?$allocator@UCARGO_INFO@@@std@@@std@@QAE@XZ PROC ; std::list<CARGO_INFO,std::allocator<CARGO_INFO> >::~list<CARGO_INFO,std::allocator<CARGO_INFO> >, COMDAT
; _this$ = ecx
; Line 520
	push	ebp
	mov	ebp, esp
	push	-1
	push	__ehhandler$??1?$list@UCARGO_INFO@@V?$allocator@UCARGO_INFO@@@std@@@std@@QAE@XZ
	mov	eax, DWORD PTR fs:0
	push	eax
	push	ecx
	mov	eax, DWORD PTR ___security_cookie
	xor	eax, ebp
	push	eax
	lea	eax, DWORD PTR __$EHRec$[ebp]
	mov	DWORD PTR fs:0, eax
	mov	DWORD PTR _this$[ebp], ecx
	mov	DWORD PTR __$EHRec$[ebp+8], 0
; Line 521
	mov	ecx, DWORD PTR _this$[ebp]
	call	?_Tidy@?$list@UCARGO_INFO@@V?$allocator@UCARGO_INFO@@@std@@@std@@IAEXXZ ; std::list<CARGO_INFO,std::allocator<CARGO_INFO> >::_Tidy
; Line 522
	mov	DWORD PTR __$EHRec$[ebp+8], -1
	mov	ecx, DWORD PTR _this$[ebp]
	call	??1?$_List_val@UCARGO_INFO@@V?$allocator@UCARGO_INFO@@@std@@@std@@QAE@XZ
	mov	ecx, DWORD PTR __$EHRec$[ebp]
	mov	DWORD PTR fs:0, ecx
	pop	ecx
	mov	esp, ebp
	pop	ebp
	ret	0
_TEXT	ENDS
;	COMDAT text$x
text$x	SEGMENT
__unwindfunclet$??1?$list@UCARGO_INFO@@V?$allocator@UCARGO_INFO@@@std@@@std@@QAE@XZ$0:
	mov	ecx, DWORD PTR _this$[ebp]
	jmp	??1?$_List_val@UCARGO_INFO@@V?$allocator@UCARGO_INFO@@@std@@@std@@QAE@XZ
__ehhandler$??1?$list@UCARGO_INFO@@V?$allocator@UCARGO_INFO@@@std@@@std@@QAE@XZ:
	mov	edx, DWORD PTR [esp+8]
	lea	eax, DWORD PTR [edx+12]
	mov	ecx, DWORD PTR [edx-8]
	xor	ecx, eax
	call	@__security_check_cookie@4
	mov	eax, OFFSET __ehfuncinfo$??1?$list@UCARGO_INFO@@V?$allocator@UCARGO_INFO@@@std@@@std@@QAE@XZ
	jmp	___CxxFrameHandler3
text$x	ENDS
??1?$list@UCARGO_INFO@@V?$allocator@UCARGO_INFO@@@std@@@std@@QAE@XZ ENDP ; std::list<CARGO_INFO,std::allocator<CARGO_INFO> >::~list<CARGO_INFO,std::allocator<CARGO_INFO> >
PUBLIC	??0?$_Iterator@$00@?$list@UCARGO_INFO@@V?$allocator@UCARGO_INFO@@@std@@@std@@QAE@PAU_Node@?$_List_nod@UCARGO_INFO@@V?$allocator@UCARGO_INFO@@@std@@@2@PBV12@@Z ; std::list<CARGO_INFO,std::allocator<CARGO_INFO> >::_Iterator<1>::_Iterator<1>
PUBLIC	?_Nextnode@?$list@UCARGO_INFO@@V?$allocator@UCARGO_INFO@@@std@@@std@@KAAAPAU_Node@?$_List_nod@UCARGO_INFO@@V?$allocator@UCARGO_INFO@@@std@@@2@PAU342@@Z ; std::list<CARGO_INFO,std::allocator<CARGO_INFO> >::_Nextnode
; Function compile flags: /Odtp
;	COMDAT ?begin@?$list@UCARGO_INFO@@V?$allocator@UCARGO_INFO@@@std@@@std@@QAE?AV?$_Iterator@$00@12@XZ
_TEXT	SEGMENT
_this$ = -4						; size = 4
___$ReturnUdt$ = 8					; size = 4
?begin@?$list@UCARGO_INFO@@V?$allocator@UCARGO_INFO@@@std@@@std@@QAE?AV?$_Iterator@$00@12@XZ PROC ; std::list<CARGO_INFO,std::allocator<CARGO_INFO> >::begin, COMDAT
; _this$ = ecx
; Line 533
	push	ebp
	mov	ebp, esp
	push	ecx
	mov	DWORD PTR _this$[ebp], ecx
; Line 534
	mov	eax, DWORD PTR _this$[ebp]
	push	eax
	mov	ecx, DWORD PTR _this$[ebp]
	mov	edx, DWORD PTR [ecx+20]
	push	edx
	call	?_Nextnode@?$list@UCARGO_INFO@@V?$allocator@UCARGO_INFO@@@std@@@std@@KAAAPAU_Node@?$_List_nod@UCARGO_INFO@@V?$allocator@UCARGO_INFO@@@std@@@2@PAU342@@Z ; std::list<CARGO_INFO,std::allocator<CARGO_INFO> >::_Nextnode
	add	esp, 4
	mov	eax, DWORD PTR [eax]
	push	eax
	mov	ecx, DWORD PTR ___$ReturnUdt$[ebp]
	call	??0?$_Iterator@$00@?$list@UCARGO_INFO@@V?$allocator@UCARGO_INFO@@@std@@@std@@QAE@PAU_Node@?$_List_nod@UCARGO_INFO@@V?$allocator@UCARGO_INFO@@@std@@@2@PBV12@@Z ; std::list<CARGO_INFO,std::allocator<CARGO_INFO> >::_Iterator<1>::_Iterator<1>
	mov	eax, DWORD PTR ___$ReturnUdt$[ebp]
; Line 535
	mov	esp, ebp
	pop	ebp
	ret	4
?begin@?$list@UCARGO_INFO@@V?$allocator@UCARGO_INFO@@@std@@@std@@QAE?AV?$_Iterator@$00@12@XZ ENDP ; std::list<CARGO_INFO,std::allocator<CARGO_INFO> >::begin
; Function compile flags: /Odtp
_TEXT	ENDS
;	COMDAT ?end@?$list@UCARGO_INFO@@V?$allocator@UCARGO_INFO@@@std@@@std@@QAE?AV?$_Iterator@$00@12@XZ
_TEXT	SEGMENT
_this$ = -4						; size = 4
___$ReturnUdt$ = 8					; size = 4
?end@?$list@UCARGO_INFO@@V?$allocator@UCARGO_INFO@@@std@@@std@@QAE?AV?$_Iterator@$00@12@XZ PROC ; std::list<CARGO_INFO,std::allocator<CARGO_INFO> >::end, COMDAT
; _this$ = ecx
; Line 543
	push	ebp
	mov	ebp, esp
	push	ecx
	mov	DWORD PTR _this$[ebp], ecx
; Line 544
	mov	eax, DWORD PTR _this$[ebp]
	push	eax
	mov	ecx, DWORD PTR _this$[ebp]
	mov	edx, DWORD PTR [ecx+20]
	push	edx
	mov	ecx, DWORD PTR ___$ReturnUdt$[ebp]
	call	??0?$_Iterator@$00@?$list@UCARGO_INFO@@V?$allocator@UCARGO_INFO@@@std@@@std@@QAE@PAU_Node@?$_List_nod@UCARGO_INFO@@V?$allocator@UCARGO_INFO@@@std@@@2@PBV12@@Z ; std::list<CARGO_INFO,std::allocator<CARGO_INFO> >::_Iterator<1>::_Iterator<1>
	mov	eax, DWORD PTR ___$ReturnUdt$[ebp]
; Line 545
	mov	esp, ebp
	pop	ebp
	ret	4
?end@?$list@UCARGO_INFO@@V?$allocator@UCARGO_INFO@@@std@@@std@@QAE?AV?$_Iterator@$00@12@XZ ENDP ; std::list<CARGO_INFO,std::allocator<CARGO_INFO> >::end
_TEXT	ENDS
PUBLIC	??D?$_Iterator@$00@?$list@UCARGO_INFO@@V?$allocator@UCARGO_INFO@@@std@@@std@@QBEAAUCARGO_INFO@@XZ ; std::list<CARGO_INFO,std::allocator<CARGO_INFO> >::_Iterator<1>::operator*
; Function compile flags: /Odtp
;	COMDAT ??C?$_Iterator@$00@?$list@UCARGO_INFO@@V?$allocator@UCARGO_INFO@@@std@@@std@@QBEPAUCARGO_INFO@@XZ
_TEXT	SEGMENT
_this$ = -4						; size = 4
??C?$_Iterator@$00@?$list@UCARGO_INFO@@V?$allocator@UCARGO_INFO@@@std@@@std@@QBEPAUCARGO_INFO@@XZ PROC ; std::list<CARGO_INFO,std::allocator<CARGO_INFO> >::_Iterator<1>::operator->, COMDAT
; _this$ = ecx
; Line 398
	push	ebp
	mov	ebp, esp
	push	ecx
	mov	DWORD PTR _this$[ebp], ecx
; Line 399
	mov	ecx, DWORD PTR _this$[ebp]
	call	??D?$_Iterator@$00@?$list@UCARGO_INFO@@V?$allocator@UCARGO_INFO@@@std@@@std@@QBEAAUCARGO_INFO@@XZ ; std::list<CARGO_INFO,std::allocator<CARGO_INFO> >::_Iterator<1>::operator*
; Line 400
	mov	esp, ebp
	pop	ebp
	ret	0
??C?$_Iterator@$00@?$list@UCARGO_INFO@@V?$allocator@UCARGO_INFO@@@std@@@std@@QBEPAUCARGO_INFO@@XZ ENDP ; std::list<CARGO_INFO,std::allocator<CARGO_INFO> >::_Iterator<1>::operator->
_TEXT	ENDS
PUBLIC	??E?$_Iterator@$00@?$list@UCARGO_INFO@@V?$allocator@UCARGO_INFO@@@std@@@std@@QAEAAV012@XZ ; std::list<CARGO_INFO,std::allocator<CARGO_INFO> >::_Iterator<1>::operator++
; Function compile flags: /Odtp
;	COMDAT ??E?$_Iterator@$00@?$list@UCARGO_INFO@@V?$allocator@UCARGO_INFO@@@std@@@std@@QAE?AV012@H@Z
_TEXT	SEGMENT
_this$ = -12						; size = 4
__Tmp$ = -8						; size = 8
___$ReturnUdt$ = 8					; size = 4
___formal$ = 12						; size = 4
??E?$_Iterator@$00@?$list@UCARGO_INFO@@V?$allocator@UCARGO_INFO@@@std@@@std@@QAE?AV012@H@Z PROC ; std::list<CARGO_INFO,std::allocator<CARGO_INFO> >::_Iterator<1>::operator++, COMDAT
; _this$ = ecx
; Line 409
	push	ebp
	mov	ebp, esp
	sub	esp, 12					; 0000000cH
	mov	DWORD PTR _this$[ebp], ecx
; Line 410
	mov	eax, DWORD PTR _this$[ebp]
	mov	ecx, DWORD PTR [eax]
	mov	edx, DWORD PTR [eax+4]
	mov	DWORD PTR __Tmp$[ebp], ecx
	mov	DWORD PTR __Tmp$[ebp+4], edx
; Line 411
	mov	ecx, DWORD PTR _this$[ebp]
	call	??E?$_Iterator@$00@?$list@UCARGO_INFO@@V?$allocator@UCARGO_INFO@@@std@@@std@@QAEAAV012@XZ ; std::list<CARGO_INFO,std::allocator<CARGO_INFO> >::_Iterator<1>::operator++
; Line 412
	mov	eax, DWORD PTR ___$ReturnUdt$[ebp]
	mov	ecx, DWORD PTR __Tmp$[ebp]
	mov	DWORD PTR [eax], ecx
	mov	edx, DWORD PTR __Tmp$[ebp+4]
	mov	DWORD PTR [eax+4], edx
	mov	eax, DWORD PTR ___$ReturnUdt$[ebp]
; Line 413
	mov	esp, ebp
	pop	ebp
	ret	8
??E?$_Iterator@$00@?$list@UCARGO_INFO@@V?$allocator@UCARGO_INFO@@@std@@@std@@QAE?AV012@H@Z ENDP ; std::list<CARGO_INFO,std::allocator<CARGO_INFO> >::_Iterator<1>::operator++
_TEXT	ENDS
PUBLIC	??8?$_Const_iterator@$00@?$list@UCARGO_INFO@@V?$allocator@UCARGO_INFO@@@std@@@std@@QBE_NABV012@@Z ; std::list<CARGO_INFO,std::allocator<CARGO_INFO> >::_Const_iterator<1>::operator==
; Function compile flags: /Odtp
;	COMDAT ??9?$_Const_iterator@$00@?$list@UCARGO_INFO@@V?$allocator@UCARGO_INFO@@@std@@@std@@QBE_NABV012@@Z
_TEXT	SEGMENT
_this$ = -4						; size = 4
__Right$ = 8						; size = 4
??9?$_Const_iterator@$00@?$list@UCARGO_INFO@@V?$allocator@UCARGO_INFO@@@std@@@std@@QBE_NABV012@@Z PROC ; std::list<CARGO_INFO,std::allocator<CARGO_INFO> >::_Const_iterator<1>::operator!=, COMDAT
; _this$ = ecx
; Line 302
	push	ebp
	mov	ebp, esp
	push	ecx
	mov	DWORD PTR _this$[ebp], ecx
; Line 303
	mov	eax, DWORD PTR __Right$[ebp]
	push	eax
	mov	ecx, DWORD PTR _this$[ebp]
	call	??8?$_Const_iterator@$00@?$list@UCARGO_INFO@@V?$allocator@UCARGO_INFO@@@std@@@std@@QBE_NABV012@@Z ; std::list<CARGO_INFO,std::allocator<CARGO_INFO> >::_Const_iterator<1>::operator==
	movzx	eax, al
	neg	eax
	sbb	eax, eax
	add	eax, 1
; Line 304
	mov	esp, ebp
	pop	ebp
	ret	4
??9?$_Const_iterator@$00@?$list@UCARGO_INFO@@V?$allocator@UCARGO_INFO@@@std@@@std@@QBE_NABV012@@Z ENDP ; std::list<CARGO_INFO,std::allocator<CARGO_INFO> >::_Const_iterator<1>::operator!=
_TEXT	ENDS
PUBLIC	?_Same_container@_Iterator_base_aux@std@@QBE_NABV12@@Z ; std::_Iterator_base_aux::_Same_container
PUBLIC	?_Has_container@_Iterator_base_aux@std@@QBE_NXZ	; std::_Iterator_base_aux::_Has_container
EXTRN	__imp___invalid_parameter_noinfo:PROC
; Function compile flags: /Odtp
;	COMDAT ??8const_iterator@?$_Tree@V?$_Tmap_traits@IIU?$less@I@std@@V?$allocator@U?$pair@$$CBII@std@@@2@$0A@@std@@@std@@QBE_NABV012@@Z
_TEXT	SEGMENT
_this$ = -4						; size = 4
__Right$ = 8						; size = 4
??8const_iterator@?$_Tree@V?$_Tmap_traits@IIU?$less@I@std@@V?$allocator@U?$pair@$$CBII@std@@@2@$0A@@std@@@std@@QBE_NABV012@@Z PROC ; std::_Tree<std::_Tmap_traits<unsigned int,unsigned int,std::less<unsigned int>,std::allocator<std::pair<unsigned int const ,unsigned int> >,0> >::const_iterator::operator==, COMDAT
; _this$ = ecx
; File c:\program files (x86)\microsoft visual studio 9.0\vc\include\xtree
; Line 299
	push	ebp
	mov	ebp, esp
	push	ecx
	mov	DWORD PTR _this$[ebp], ecx
; Line 308
	mov	ecx, DWORD PTR _this$[ebp]
	call	?_Has_container@_Iterator_base_aux@std@@QBE_NXZ ; std::_Iterator_base_aux::_Has_container
	movzx	eax, al
	test	eax, eax
	je	SHORT $LN4@operator@3
	mov	ecx, DWORD PTR __Right$[ebp]
	push	ecx
	mov	ecx, DWORD PTR _this$[ebp]
	call	?_Same_container@_Iterator_base_aux@std@@QBE_NABV12@@Z ; std::_Iterator_base_aux::_Same_container
	movzx	edx, al
	test	edx, edx
	jne	SHORT $LN2@operator@3
$LN4@operator@3:
	call	DWORD PTR __imp___invalid_parameter_noinfo
$LN2@operator@3:
	xor	eax, eax
	jne	SHORT $LN2@operator@3
; Line 311
	mov	ecx, DWORD PTR _this$[ebp]
	mov	edx, DWORD PTR __Right$[ebp]
	mov	eax, DWORD PTR [ecx+4]
	xor	ecx, ecx
	cmp	eax, DWORD PTR [edx+4]
	sete	cl
	mov	al, cl
; Line 312
	mov	esp, ebp
	pop	ebp
	ret	4
??8const_iterator@?$_Tree@V?$_Tmap_traits@IIU?$less@I@std@@V?$allocator@U?$pair@$$CBII@std@@@2@$0A@@std@@@std@@QBE_NABV012@@Z ENDP ; std::_Tree<std::_Tmap_traits<unsigned int,unsigned int,std::less<unsigned int>,std::allocator<std::pair<unsigned int const ,unsigned int> >,0> >::const_iterator::operator==
; Function compile flags: /Odtp
_TEXT	ENDS
;	COMDAT ?_Same_container@_Iterator_base_aux@std@@QBE_NABV12@@Z
_TEXT	SEGMENT
_this$ = -4						; size = 4
__Other$ = 8						; size = 4
?_Same_container@_Iterator_base_aux@std@@QBE_NABV12@@Z PROC ; std::_Iterator_base_aux::_Same_container, COMDAT
; _this$ = ecx
; File c:\program files (x86)\microsoft visual studio 9.0\vc\include\xutility
; Line 462
	push	ebp
	mov	ebp, esp
	push	ecx
	mov	DWORD PTR _this$[ebp], ecx
; Line 463
	mov	eax, DWORD PTR _this$[ebp]
	mov	ecx, DWORD PTR __Other$[ebp]
	mov	edx, DWORD PTR [eax]
	xor	eax, eax
	cmp	edx, DWORD PTR [ecx]
	sete	al
; Line 464
	mov	esp, ebp
	pop	ebp
	ret	4
?_Same_container@_Iterator_base_aux@std@@QBE_NABV12@@Z ENDP ; std::_Iterator_base_aux::_Same_container
; Function compile flags: /Odtp
_TEXT	ENDS
;	COMDAT ?_Has_container@_Iterator_base_aux@std@@QBE_NXZ
_TEXT	SEGMENT
_this$ = -4						; size = 4
?_Has_container@_Iterator_base_aux@std@@QBE_NXZ PROC	; std::_Iterator_base_aux::_Has_container, COMDAT
; _this$ = ecx
; Line 467
	push	ebp
	mov	ebp, esp
	push	ecx
	mov	DWORD PTR _this$[ebp], ecx
; Line 468
	mov	eax, DWORD PTR _this$[ebp]
	xor	ecx, ecx
	cmp	DWORD PTR [eax], 0
	setne	cl
	mov	al, cl
; Line 469
	mov	esp, ebp
	pop	ebp
	ret	0
?_Has_container@_Iterator_base_aux@std@@QBE_NXZ ENDP	; std::_Iterator_base_aux::_Has_container
_TEXT	ENDS
PUBLIC	??1?$_List_ptr@UINISECTIONVALUE@@V?$allocator@UINISECTIONVALUE@@@std@@@std@@QAE@XZ ; std::_List_ptr<INISECTIONVALUE,std::allocator<INISECTIONVALUE> >::~_List_ptr<INISECTIONVALUE,std::allocator<INISECTIONVALUE> >
;	COMDAT xdata$x
xdata$x	SEGMENT
__unwindtable$??1?$_List_val@UINISECTIONVALUE@@V?$allocator@UINISECTIONVALUE@@@std@@@std@@QAE@XZ DD 0ffffffffH
	DD	FLAT:__unwindfunclet$??1?$_List_val@UINISECTIONVALUE@@V?$allocator@UINISECTIONVALUE@@@std@@@std@@QAE@XZ$0
__ehfuncinfo$??1?$_List_val@UINISECTIONVALUE@@V?$allocator@UINISECTIONVALUE@@@std@@@std@@QAE@XZ DD 019930522H
	DD	01H
	DD	FLAT:__unwindtable$??1?$_List_val@UINISECTIONVALUE@@V?$allocator@UINISECTIONVALUE@@@std@@@std@@QAE@XZ
	DD	2 DUP(00H)
	DD	2 DUP(00H)
	DD	00H
	DD	00H
; Function compile flags: /Odtp
xdata$x	ENDS
;	COMDAT ??1?$_List_val@UINISECTIONVALUE@@V?$allocator@UINISECTIONVALUE@@@std@@@std@@QAE@XZ
_TEXT	SEGMENT
_this$ = -16						; size = 4
__$EHRec$ = -12						; size = 12
??1?$_List_val@UINISECTIONVALUE@@V?$allocator@UINISECTIONVALUE@@@std@@@std@@QAE@XZ PROC ; std::_List_val<INISECTIONVALUE,std::allocator<INISECTIONVALUE> >::~_List_val<INISECTIONVALUE,std::allocator<INISECTIONVALUE> >, COMDAT
; _this$ = ecx
	push	ebp
	mov	ebp, esp
	push	-1
	push	__ehhandler$??1?$_List_val@UINISECTIONVALUE@@V?$allocator@UINISECTIONVALUE@@@std@@@std@@QAE@XZ
	mov	eax, DWORD PTR fs:0
	push	eax
	push	ecx
	mov	eax, DWORD PTR ___security_cookie
	xor	eax, ebp
	push	eax
	lea	eax, DWORD PTR __$EHRec$[ebp]
	mov	DWORD PTR fs:0, eax
	mov	DWORD PTR _this$[ebp], ecx
	mov	DWORD PTR __$EHRec$[ebp+8], 0
	mov	DWORD PTR __$EHRec$[ebp+8], -1
	mov	ecx, DWORD PTR _this$[ebp]
	call	??1?$_List_ptr@UINISECTIONVALUE@@V?$allocator@UINISECTIONVALUE@@@std@@@std@@QAE@XZ
	mov	ecx, DWORD PTR __$EHRec$[ebp]
	mov	DWORD PTR fs:0, ecx
	pop	ecx
	mov	esp, ebp
	pop	ebp
	ret	0
_TEXT	ENDS
;	COMDAT text$x
text$x	SEGMENT
__unwindfunclet$??1?$_List_val@UINISECTIONVALUE@@V?$allocator@UINISECTIONVALUE@@@std@@@std@@QAE@XZ$0:
	mov	ecx, DWORD PTR _this$[ebp]
	jmp	??1?$_List_ptr@UINISECTIONVALUE@@V?$allocator@UINISECTIONVALUE@@@std@@@std@@QAE@XZ
__ehhandler$??1?$_List_val@UINISECTIONVALUE@@V?$allocator@UINISECTIONVALUE@@@std@@@std@@QAE@XZ:
	mov	edx, DWORD PTR [esp+8]
	lea	eax, DWORD PTR [edx+12]
	mov	ecx, DWORD PTR [edx-8]
	xor	ecx, eax
	call	@__security_check_cookie@4
	mov	eax, OFFSET __ehfuncinfo$??1?$_List_val@UINISECTIONVALUE@@V?$allocator@UINISECTIONVALUE@@@std@@@std@@QAE@XZ
	jmp	___CxxFrameHandler3
text$x	ENDS
??1?$_List_val@UINISECTIONVALUE@@V?$allocator@UINISECTIONVALUE@@@std@@@std@@QAE@XZ ENDP ; std::_List_val<INISECTIONVALUE,std::allocator<INISECTIONVALUE> >::~_List_val<INISECTIONVALUE,std::allocator<INISECTIONVALUE> >
PUBLIC	??1?$_List_ptr@UCARGO_INFO@@V?$allocator@UCARGO_INFO@@@std@@@std@@QAE@XZ ; std::_List_ptr<CARGO_INFO,std::allocator<CARGO_INFO> >::~_List_ptr<CARGO_INFO,std::allocator<CARGO_INFO> >
;	COMDAT xdata$x
xdata$x	SEGMENT
__unwindtable$??1?$_List_val@UCARGO_INFO@@V?$allocator@UCARGO_INFO@@@std@@@std@@QAE@XZ DD 0ffffffffH
	DD	FLAT:__unwindfunclet$??1?$_List_val@UCARGO_INFO@@V?$allocator@UCARGO_INFO@@@std@@@std@@QAE@XZ$0
__ehfuncinfo$??1?$_List_val@UCARGO_INFO@@V?$allocator@UCARGO_INFO@@@std@@@std@@QAE@XZ DD 019930522H
	DD	01H
	DD	FLAT:__unwindtable$??1?$_List_val@UCARGO_INFO@@V?$allocator@UCARGO_INFO@@@std@@@std@@QAE@XZ
	DD	2 DUP(00H)
	DD	2 DUP(00H)
	DD	00H
	DD	00H
; Function compile flags: /Odtp
xdata$x	ENDS
;	COMDAT ??1?$_List_val@UCARGO_INFO@@V?$allocator@UCARGO_INFO@@@std@@@std@@QAE@XZ
_TEXT	SEGMENT
_this$ = -16						; size = 4
__$EHRec$ = -12						; size = 12
??1?$_List_val@UCARGO_INFO@@V?$allocator@UCARGO_INFO@@@std@@@std@@QAE@XZ PROC ; std::_List_val<CARGO_INFO,std::allocator<CARGO_INFO> >::~_List_val<CARGO_INFO,std::allocator<CARGO_INFO> >, COMDAT
; _this$ = ecx
	push	ebp
	mov	ebp, esp
	push	-1
	push	__ehhandler$??1?$_List_val@UCARGO_INFO@@V?$allocator@UCARGO_INFO@@@std@@@std@@QAE@XZ
	mov	eax, DWORD PTR fs:0
	push	eax
	push	ecx
	mov	eax, DWORD PTR ___security_cookie
	xor	eax, ebp
	push	eax
	lea	eax, DWORD PTR __$EHRec$[ebp]
	mov	DWORD PTR fs:0, eax
	mov	DWORD PTR _this$[ebp], ecx
	mov	DWORD PTR __$EHRec$[ebp+8], 0
	mov	DWORD PTR __$EHRec$[ebp+8], -1
	mov	ecx, DWORD PTR _this$[ebp]
	call	??1?$_List_ptr@UCARGO_INFO@@V?$allocator@UCARGO_INFO@@@std@@@std@@QAE@XZ
	mov	ecx, DWORD PTR __$EHRec$[ebp]
	mov	DWORD PTR fs:0, ecx
	pop	ecx
	mov	esp, ebp
	pop	ebp
	ret	0
_TEXT	ENDS
;	COMDAT text$x
text$x	SEGMENT
__unwindfunclet$??1?$_List_val@UCARGO_INFO@@V?$allocator@UCARGO_INFO@@@std@@@std@@QAE@XZ$0:
	mov	ecx, DWORD PTR _this$[ebp]
	jmp	??1?$_List_ptr@UCARGO_INFO@@V?$allocator@UCARGO_INFO@@@std@@@std@@QAE@XZ
__ehhandler$??1?$_List_val@UCARGO_INFO@@V?$allocator@UCARGO_INFO@@@std@@@std@@QAE@XZ:
	mov	edx, DWORD PTR [esp+8]
	lea	eax, DWORD PTR [edx+12]
	mov	ecx, DWORD PTR [edx-8]
	xor	ecx, eax
	call	@__security_check_cookie@4
	mov	eax, OFFSET __ehfuncinfo$??1?$_List_val@UCARGO_INFO@@V?$allocator@UCARGO_INFO@@@std@@@std@@QAE@XZ
	jmp	___CxxFrameHandler3
text$x	ENDS
??1?$_List_val@UCARGO_INFO@@V?$allocator@UCARGO_INFO@@@std@@@std@@QAE@XZ ENDP ; std::_List_val<CARGO_INFO,std::allocator<CARGO_INFO> >::~_List_val<CARGO_INFO,std::allocator<CARGO_INFO> >
PUBLIC	??1?$_List_nod@UINISECTIONVALUE@@V?$allocator@UINISECTIONVALUE@@@std@@@std@@QAE@XZ ; std::_List_nod<INISECTIONVALUE,std::allocator<INISECTIONVALUE> >::~_List_nod<INISECTIONVALUE,std::allocator<INISECTIONVALUE> >
;	COMDAT xdata$x
xdata$x	SEGMENT
__unwindtable$??1?$_List_ptr@UINISECTIONVALUE@@V?$allocator@UINISECTIONVALUE@@@std@@@std@@QAE@XZ DD 0ffffffffH
	DD	FLAT:__unwindfunclet$??1?$_List_ptr@UINISECTIONVALUE@@V?$allocator@UINISECTIONVALUE@@@std@@@std@@QAE@XZ$0
__ehfuncinfo$??1?$_List_ptr@UINISECTIONVALUE@@V?$allocator@UINISECTIONVALUE@@@std@@@std@@QAE@XZ DD 019930522H
	DD	01H
	DD	FLAT:__unwindtable$??1?$_List_ptr@UINISECTIONVALUE@@V?$allocator@UINISECTIONVALUE@@@std@@@std@@QAE@XZ
	DD	2 DUP(00H)
	DD	2 DUP(00H)
	DD	00H
	DD	00H
; Function compile flags: /Odtp
xdata$x	ENDS
;	COMDAT ??1?$_List_ptr@UINISECTIONVALUE@@V?$allocator@UINISECTIONVALUE@@@std@@@std@@QAE@XZ
_TEXT	SEGMENT
_this$ = -16						; size = 4
__$EHRec$ = -12						; size = 12
??1?$_List_ptr@UINISECTIONVALUE@@V?$allocator@UINISECTIONVALUE@@@std@@@std@@QAE@XZ PROC ; std::_List_ptr<INISECTIONVALUE,std::allocator<INISECTIONVALUE> >::~_List_ptr<INISECTIONVALUE,std::allocator<INISECTIONVALUE> >, COMDAT
; _this$ = ecx
	push	ebp
	mov	ebp, esp
	push	-1
	push	__ehhandler$??1?$_List_ptr@UINISECTIONVALUE@@V?$allocator@UINISECTIONVALUE@@@std@@@std@@QAE@XZ
	mov	eax, DWORD PTR fs:0
	push	eax
	push	ecx
	mov	eax, DWORD PTR ___security_cookie
	xor	eax, ebp
	push	eax
	lea	eax, DWORD PTR __$EHRec$[ebp]
	mov	DWORD PTR fs:0, eax
	mov	DWORD PTR _this$[ebp], ecx
	mov	DWORD PTR __$EHRec$[ebp+8], 0
	mov	DWORD PTR __$EHRec$[ebp+8], -1
	mov	ecx, DWORD PTR _this$[ebp]
	call	??1?$_List_nod@UINISECTIONVALUE@@V?$allocator@UINISECTIONVALUE@@@std@@@std@@QAE@XZ
	mov	ecx, DWORD PTR __$EHRec$[ebp]
	mov	DWORD PTR fs:0, ecx
	pop	ecx
	mov	esp, ebp
	pop	ebp
	ret	0
_TEXT	ENDS
;	COMDAT text$x
text$x	SEGMENT
__unwindfunclet$??1?$_List_ptr@UINISECTIONVALUE@@V?$allocator@UINISECTIONVALUE@@@std@@@std@@QAE@XZ$0:
	mov	ecx, DWORD PTR _this$[ebp]
	jmp	??1?$_List_nod@UINISECTIONVALUE@@V?$allocator@UINISECTIONVALUE@@@std@@@std@@QAE@XZ
__ehhandler$??1?$_List_ptr@UINISECTIONVALUE@@V?$allocator@UINISECTIONVALUE@@@std@@@std@@QAE@XZ:
	mov	edx, DWORD PTR [esp+8]
	lea	eax, DWORD PTR [edx+12]
	mov	ecx, DWORD PTR [edx-8]
	xor	ecx, eax
	call	@__security_check_cookie@4
	mov	eax, OFFSET __ehfuncinfo$??1?$_List_ptr@UINISECTIONVALUE@@V?$allocator@UINISECTIONVALUE@@@std@@@std@@QAE@XZ
	jmp	___CxxFrameHandler3
text$x	ENDS
??1?$_List_ptr@UINISECTIONVALUE@@V?$allocator@UINISECTIONVALUE@@@std@@@std@@QAE@XZ ENDP ; std::_List_ptr<INISECTIONVALUE,std::allocator<INISECTIONVALUE> >::~_List_ptr<INISECTIONVALUE,std::allocator<INISECTIONVALUE> >
PUBLIC	??1?$_List_nod@UCARGO_INFO@@V?$allocator@UCARGO_INFO@@@std@@@std@@QAE@XZ ; std::_List_nod<CARGO_INFO,std::allocator<CARGO_INFO> >::~_List_nod<CARGO_INFO,std::allocator<CARGO_INFO> >
;	COMDAT xdata$x
xdata$x	SEGMENT
__unwindtable$??1?$_List_ptr@UCARGO_INFO@@V?$allocator@UCARGO_INFO@@@std@@@std@@QAE@XZ DD 0ffffffffH
	DD	FLAT:__unwindfunclet$??1?$_List_ptr@UCARGO_INFO@@V?$allocator@UCARGO_INFO@@@std@@@std@@QAE@XZ$0
__ehfuncinfo$??1?$_List_ptr@UCARGO_INFO@@V?$allocator@UCARGO_INFO@@@std@@@std@@QAE@XZ DD 019930522H
	DD	01H
	DD	FLAT:__unwindtable$??1?$_List_ptr@UCARGO_INFO@@V?$allocator@UCARGO_INFO@@@std@@@std@@QAE@XZ
	DD	2 DUP(00H)
	DD	2 DUP(00H)
	DD	00H
	DD	00H
; Function compile flags: /Odtp
xdata$x	ENDS
;	COMDAT ??1?$_List_ptr@UCARGO_INFO@@V?$allocator@UCARGO_INFO@@@std@@@std@@QAE@XZ
_TEXT	SEGMENT
_this$ = -16						; size = 4
__$EHRec$ = -12						; size = 12
??1?$_List_ptr@UCARGO_INFO@@V?$allocator@UCARGO_INFO@@@std@@@std@@QAE@XZ PROC ; std::_List_ptr<CARGO_INFO,std::allocator<CARGO_INFO> >::~_List_ptr<CARGO_INFO,std::allocator<CARGO_INFO> >, COMDAT
; _this$ = ecx
	push	ebp
	mov	ebp, esp
	push	-1
	push	__ehhandler$??1?$_List_ptr@UCARGO_INFO@@V?$allocator@UCARGO_INFO@@@std@@@std@@QAE@XZ
	mov	eax, DWORD PTR fs:0
	push	eax
	push	ecx
	mov	eax, DWORD PTR ___security_cookie
	xor	eax, ebp
	push	eax
	lea	eax, DWORD PTR __$EHRec$[ebp]
	mov	DWORD PTR fs:0, eax
	mov	DWORD PTR _this$[ebp], ecx
	mov	DWORD PTR __$EHRec$[ebp+8], 0
	mov	DWORD PTR __$EHRec$[ebp+8], -1
	mov	ecx, DWORD PTR _this$[ebp]
	call	??1?$_List_nod@UCARGO_INFO@@V?$allocator@UCARGO_INFO@@@std@@@std@@QAE@XZ
	mov	ecx, DWORD PTR __$EHRec$[ebp]
	mov	DWORD PTR fs:0, ecx
	pop	ecx
	mov	esp, ebp
	pop	ebp
	ret	0
_TEXT	ENDS
;	COMDAT text$x
text$x	SEGMENT
__unwindfunclet$??1?$_List_ptr@UCARGO_INFO@@V?$allocator@UCARGO_INFO@@@std@@@std@@QAE@XZ$0:
	mov	ecx, DWORD PTR _this$[ebp]
	jmp	??1?$_List_nod@UCARGO_INFO@@V?$allocator@UCARGO_INFO@@@std@@@std@@QAE@XZ
__ehhandler$??1?$_List_ptr@UCARGO_INFO@@V?$allocator@UCARGO_INFO@@@std@@@std@@QAE@XZ:
	mov	edx, DWORD PTR [esp+8]
	lea	eax, DWORD PTR [edx+12]
	mov	ecx, DWORD PTR [edx-8]
	xor	ecx, eax
	call	@__security_check_cookie@4
	mov	eax, OFFSET __ehfuncinfo$??1?$_List_ptr@UCARGO_INFO@@V?$allocator@UCARGO_INFO@@@std@@@std@@QAE@XZ
	jmp	___CxxFrameHandler3
text$x	ENDS
??1?$_List_ptr@UCARGO_INFO@@V?$allocator@UCARGO_INFO@@@std@@@std@@QAE@XZ ENDP ; std::_List_ptr<CARGO_INFO,std::allocator<CARGO_INFO> >::~_List_ptr<CARGO_INFO,std::allocator<CARGO_INFO> >
PUBLIC	??1?$_Container_base_aux_alloc_real@V?$allocator@UINISECTIONVALUE@@@std@@@std@@IAE@XZ ; std::_Container_base_aux_alloc_real<std::allocator<INISECTIONVALUE> >::~_Container_base_aux_alloc_real<std::allocator<INISECTIONVALUE> >
;	COMDAT xdata$x
xdata$x	SEGMENT
__unwindtable$??1?$_List_nod@UINISECTIONVALUE@@V?$allocator@UINISECTIONVALUE@@@std@@@std@@QAE@XZ DD 0ffffffffH
	DD	FLAT:__unwindfunclet$??1?$_List_nod@UINISECTIONVALUE@@V?$allocator@UINISECTIONVALUE@@@std@@@std@@QAE@XZ$0
__ehfuncinfo$??1?$_List_nod@UINISECTIONVALUE@@V?$allocator@UINISECTIONVALUE@@@std@@@std@@QAE@XZ DD 019930522H
	DD	01H
	DD	FLAT:__unwindtable$??1?$_List_nod@UINISECTIONVALUE@@V?$allocator@UINISECTIONVALUE@@@std@@@std@@QAE@XZ
	DD	2 DUP(00H)
	DD	2 DUP(00H)
	DD	00H
	DD	00H
; Function compile flags: /Odtp
xdata$x	ENDS
;	COMDAT ??1?$_List_nod@UINISECTIONVALUE@@V?$allocator@UINISECTIONVALUE@@@std@@@std@@QAE@XZ
_TEXT	SEGMENT
_this$ = -16						; size = 4
__$EHRec$ = -12						; size = 12
??1?$_List_nod@UINISECTIONVALUE@@V?$allocator@UINISECTIONVALUE@@@std@@@std@@QAE@XZ PROC ; std::_List_nod<INISECTIONVALUE,std::allocator<INISECTIONVALUE> >::~_List_nod<INISECTIONVALUE,std::allocator<INISECTIONVALUE> >, COMDAT
; _this$ = ecx
	push	ebp
	mov	ebp, esp
	push	-1
	push	__ehhandler$??1?$_List_nod@UINISECTIONVALUE@@V?$allocator@UINISECTIONVALUE@@@std@@@std@@QAE@XZ
	mov	eax, DWORD PTR fs:0
	push	eax
	push	ecx
	mov	eax, DWORD PTR ___security_cookie
	xor	eax, ebp
	push	eax
	lea	eax, DWORD PTR __$EHRec$[ebp]
	mov	DWORD PTR fs:0, eax
	mov	DWORD PTR _this$[ebp], ecx
	mov	DWORD PTR __$EHRec$[ebp+8], 0
	mov	DWORD PTR __$EHRec$[ebp+8], -1
	mov	ecx, DWORD PTR _this$[ebp]
	call	??1?$_Container_base_aux_alloc_real@V?$allocator@UINISECTIONVALUE@@@std@@@std@@IAE@XZ ; std::_Container_base_aux_alloc_real<std::allocator<INISECTIONVALUE> >::~_Container_base_aux_alloc_real<std::allocator<INISECTIONVALUE> >
	mov	ecx, DWORD PTR __$EHRec$[ebp]
	mov	DWORD PTR fs:0, ecx
	pop	ecx
	mov	esp, ebp
	pop	ebp
	ret	0
_TEXT	ENDS
;	COMDAT text$x
text$x	SEGMENT
__unwindfunclet$??1?$_List_nod@UINISECTIONVALUE@@V?$allocator@UINISECTIONVALUE@@@std@@@std@@QAE@XZ$0:
	mov	ecx, DWORD PTR _this$[ebp]
	jmp	??1?$_Container_base_aux_alloc_real@V?$allocator@UINISECTIONVALUE@@@std@@@std@@IAE@XZ ; std::_Container_base_aux_alloc_real<std::allocator<INISECTIONVALUE> >::~_Container_base_aux_alloc_real<std::allocator<INISECTIONVALUE> >
__ehhandler$??1?$_List_nod@UINISECTIONVALUE@@V?$allocator@UINISECTIONVALUE@@@std@@@std@@QAE@XZ:
	mov	edx, DWORD PTR [esp+8]
	lea	eax, DWORD PTR [edx+12]
	mov	ecx, DWORD PTR [edx-8]
	xor	ecx, eax
	call	@__security_check_cookie@4
	mov	eax, OFFSET __ehfuncinfo$??1?$_List_nod@UINISECTIONVALUE@@V?$allocator@UINISECTIONVALUE@@@std@@@std@@QAE@XZ
	jmp	___CxxFrameHandler3
text$x	ENDS
??1?$_List_nod@UINISECTIONVALUE@@V?$allocator@UINISECTIONVALUE@@@std@@@std@@QAE@XZ ENDP ; std::_List_nod<INISECTIONVALUE,std::allocator<INISECTIONVALUE> >::~_List_nod<INISECTIONVALUE,std::allocator<INISECTIONVALUE> >
PUBLIC	??1?$_Container_base_aux_alloc_real@V?$allocator@UCARGO_INFO@@@std@@@std@@IAE@XZ ; std::_Container_base_aux_alloc_real<std::allocator<CARGO_INFO> >::~_Container_base_aux_alloc_real<std::allocator<CARGO_INFO> >
;	COMDAT xdata$x
xdata$x	SEGMENT
__unwindtable$??1?$_List_nod@UCARGO_INFO@@V?$allocator@UCARGO_INFO@@@std@@@std@@QAE@XZ DD 0ffffffffH
	DD	FLAT:__unwindfunclet$??1?$_List_nod@UCARGO_INFO@@V?$allocator@UCARGO_INFO@@@std@@@std@@QAE@XZ$0
__ehfuncinfo$??1?$_List_nod@UCARGO_INFO@@V?$allocator@UCARGO_INFO@@@std@@@std@@QAE@XZ DD 019930522H
	DD	01H
	DD	FLAT:__unwindtable$??1?$_List_nod@UCARGO_INFO@@V?$allocator@UCARGO_INFO@@@std@@@std@@QAE@XZ
	DD	2 DUP(00H)
	DD	2 DUP(00H)
	DD	00H
	DD	00H
; Function compile flags: /Odtp
xdata$x	ENDS
;	COMDAT ??1?$_List_nod@UCARGO_INFO@@V?$allocator@UCARGO_INFO@@@std@@@std@@QAE@XZ
_TEXT	SEGMENT
_this$ = -16						; size = 4
__$EHRec$ = -12						; size = 12
??1?$_List_nod@UCARGO_INFO@@V?$allocator@UCARGO_INFO@@@std@@@std@@QAE@XZ PROC ; std::_List_nod<CARGO_INFO,std::allocator<CARGO_INFO> >::~_List_nod<CARGO_INFO,std::allocator<CARGO_INFO> >, COMDAT
; _this$ = ecx
	push	ebp
	mov	ebp, esp
	push	-1
	push	__ehhandler$??1?$_List_nod@UCARGO_INFO@@V?$allocator@UCARGO_INFO@@@std@@@std@@QAE@XZ
	mov	eax, DWORD PTR fs:0
	push	eax
	push	ecx
	mov	eax, DWORD PTR ___security_cookie
	xor	eax, ebp
	push	eax
	lea	eax, DWORD PTR __$EHRec$[ebp]
	mov	DWORD PTR fs:0, eax
	mov	DWORD PTR _this$[ebp], ecx
	mov	DWORD PTR __$EHRec$[ebp+8], 0
	mov	DWORD PTR __$EHRec$[ebp+8], -1
	mov	ecx, DWORD PTR _this$[ebp]
	call	??1?$_Container_base_aux_alloc_real@V?$allocator@UCARGO_INFO@@@std@@@std@@IAE@XZ ; std::_Container_base_aux_alloc_real<std::allocator<CARGO_INFO> >::~_Container_base_aux_alloc_real<std::allocator<CARGO_INFO> >
	mov	ecx, DWORD PTR __$EHRec$[ebp]
	mov	DWORD PTR fs:0, ecx
	pop	ecx
	mov	esp, ebp
	pop	ebp
	ret	0
_TEXT	ENDS
;	COMDAT text$x
text$x	SEGMENT
__unwindfunclet$??1?$_List_nod@UCARGO_INFO@@V?$allocator@UCARGO_INFO@@@std@@@std@@QAE@XZ$0:
	mov	ecx, DWORD PTR _this$[ebp]
	jmp	??1?$_Container_base_aux_alloc_real@V?$allocator@UCARGO_INFO@@@std@@@std@@IAE@XZ ; std::_Container_base_aux_alloc_real<std::allocator<CARGO_INFO> >::~_Container_base_aux_alloc_real<std::allocator<CARGO_INFO> >
__ehhandler$??1?$_List_nod@UCARGO_INFO@@V?$allocator@UCARGO_INFO@@@std@@@std@@QAE@XZ:
	mov	edx, DWORD PTR [esp+8]
	lea	eax, DWORD PTR [edx+12]
	mov	ecx, DWORD PTR [edx-8]
	xor	ecx, eax
	call	@__security_check_cookie@4
	mov	eax, OFFSET __ehfuncinfo$??1?$_List_nod@UCARGO_INFO@@V?$allocator@UCARGO_INFO@@@std@@@std@@QAE@XZ
	jmp	___CxxFrameHandler3
text$x	ENDS
??1?$_List_nod@UCARGO_INFO@@V?$allocator@UCARGO_INFO@@@std@@@std@@QAE@XZ ENDP ; std::_List_nod<CARGO_INFO,std::allocator<CARGO_INFO> >::~_List_nod<CARGO_INFO,std::allocator<CARGO_INFO> >
; Function compile flags: /Odtp
;	COMDAT ??R?$less@I@std@@QBE_NABI0@Z
_TEXT	SEGMENT
_this$ = -4						; size = 4
__Left$ = 8						; size = 4
__Right$ = 12						; size = 4
??R?$less@I@std@@QBE_NABI0@Z PROC			; std::less<unsigned int>::operator(), COMDAT
; _this$ = ecx
; File c:\program files (x86)\microsoft visual studio 9.0\vc\include\functional
; Line 142
	push	ebp
	mov	ebp, esp
	push	ecx
	mov	DWORD PTR _this$[ebp], ecx
; Line 143
	mov	eax, DWORD PTR __Left$[ebp]
	mov	ecx, DWORD PTR __Right$[ebp]
	mov	edx, DWORD PTR [eax]
	cmp	edx, DWORD PTR [ecx]
	sbb	eax, eax
	neg	eax
; Line 144
	mov	esp, ebp
	pop	ebp
	ret	8
??R?$less@I@std@@QBE_NABI0@Z ENDP			; std::less<unsigned int>::operator()
_TEXT	ENDS
PUBLIC	?_Kfn@?$_Tmap_traits@IIU?$less@I@std@@V?$allocator@U?$pair@$$CBII@std@@@2@$0A@@std@@SAABIABU?$pair@$$CBII@2@@Z ; std::_Tmap_traits<unsigned int,unsigned int,std::less<unsigned int>,std::allocator<std::pair<unsigned int const ,unsigned int> >,0>::_Kfn
PUBLIC	?_Myval@?$_Tree@V?$_Tmap_traits@IIU?$less@I@std@@V?$allocator@U?$pair@$$CBII@std@@@2@$0A@@std@@@std@@KAAAU?$pair@$$CBII@2@PAU_Node@?$_Tree_nod@V?$_Tmap_traits@IIU?$less@I@std@@V?$allocator@U?$pair@$$CBII@std@@@2@$0A@@std@@@2@@Z ; std::_Tree<std::_Tmap_traits<unsigned int,unsigned int,std::less<unsigned int>,std::allocator<std::pair<unsigned int const ,unsigned int> >,0> >::_Myval
; Function compile flags: /Odtp
;	COMDAT ?_Key@?$_Tree@V?$_Tmap_traits@IIU?$less@I@std@@V?$allocator@U?$pair@$$CBII@std@@@2@$0A@@std@@@std@@KAABIPAU_Node@?$_Tree_nod@V?$_Tmap_traits@IIU?$less@I@std@@V?$allocator@U?$pair@$$CBII@std@@@2@$0A@@std@@@2@@Z
_TEXT	SEGMENT
__Pnode$ = 8						; size = 4
?_Key@?$_Tree@V?$_Tmap_traits@IIU?$less@I@std@@V?$allocator@U?$pair@$$CBII@std@@@2@$0A@@std@@@std@@KAABIPAU_Node@?$_Tree_nod@V?$_Tmap_traits@IIU?$less@I@std@@V?$allocator@U?$pair@$$CBII@std@@@2@$0A@@std@@@2@@Z PROC ; std::_Tree<std::_Tmap_traits<unsigned int,unsigned int,std::less<unsigned int>,std::allocator<std::pair<unsigned int const ,unsigned int> >,0> >::_Key, COMDAT
; File c:\program files (x86)\microsoft visual studio 9.0\vc\include\xtree
; Line 161
	push	ebp
	mov	ebp, esp
; Line 162
	mov	eax, DWORD PTR __Pnode$[ebp]
	push	eax
	call	?_Myval@?$_Tree@V?$_Tmap_traits@IIU?$less@I@std@@V?$allocator@U?$pair@$$CBII@std@@@2@$0A@@std@@@std@@KAAAU?$pair@$$CBII@2@PAU_Node@?$_Tree_nod@V?$_Tmap_traits@IIU?$less@I@std@@V?$allocator@U?$pair@$$CBII@std@@@2@$0A@@std@@@2@@Z ; std::_Tree<std::_Tmap_traits<unsigned int,unsigned int,std::less<unsigned int>,std::allocator<std::pair<unsigned int const ,unsigned int> >,0> >::_Myval
	add	esp, 4
	push	eax
	call	?_Kfn@?$_Tmap_traits@IIU?$less@I@std@@V?$allocator@U?$pair@$$CBII@std@@@2@$0A@@std@@SAABIABU?$pair@$$CBII@2@@Z ; std::_Tmap_traits<unsigned int,unsigned int,std::less<unsigned int>,std::allocator<std::pair<unsigned int const ,unsigned int> >,0>::_Kfn
	add	esp, 4
; Line 163
	pop	ebp
	ret	0
?_Key@?$_Tree@V?$_Tmap_traits@IIU?$less@I@std@@V?$allocator@U?$pair@$$CBII@std@@@2@$0A@@std@@@std@@KAABIPAU_Node@?$_Tree_nod@V?$_Tmap_traits@IIU?$less@I@std@@V?$allocator@U?$pair@$$CBII@std@@@2@$0A@@std@@@2@@Z ENDP ; std::_Tree<std::_Tmap_traits<unsigned int,unsigned int,std::less<unsigned int>,std::allocator<std::pair<unsigned int const ,unsigned int> >,0> >::_Key
_TEXT	ENDS
PUBLIC	?insert@?$_Tree@V?$_Tmap_traits@IIU?$less@I@std@@V?$allocator@U?$pair@$$CBII@std@@@2@$0A@@std@@@std@@QAE?AU?$pair@Viterator@?$_Tree@V?$_Tmap_traits@IIU?$less@I@std@@V?$allocator@U?$pair@$$CBII@std@@@2@$0A@@std@@@std@@_N@2@ABU?$pair@$$CBII@2@@Z ; std::_Tree<std::_Tmap_traits<unsigned int,unsigned int,std::less<unsigned int>,std::allocator<std::pair<unsigned int const ,unsigned int> >,0> >::insert
PUBLIC	??Econst_iterator@?$_Tree@V?$_Tmap_traits@IIU?$less@I@std@@V?$allocator@U?$pair@$$CBII@std@@@2@$0A@@std@@@std@@QAEAAV012@XZ ; std::_Tree<std::_Tmap_traits<unsigned int,unsigned int,std::less<unsigned int>,std::allocator<std::pair<unsigned int const ,unsigned int> >,0> >::const_iterator::operator++
PUBLIC	?_Isnil@?$_Tree@V?$_Tmap_traits@IIU?$less@I@std@@V?$allocator@U?$pair@$$CBII@std@@@2@$0A@@std@@@std@@KAAADPAU_Node@?$_Tree_nod@V?$_Tmap_traits@IIU?$less@I@std@@V?$allocator@U?$pair@$$CBII@std@@@2@$0A@@std@@@2@@Z ; std::_Tree<std::_Tmap_traits<unsigned int,unsigned int,std::less<unsigned int>,std::allocator<std::pair<unsigned int const ,unsigned int> >,0> >::_Isnil
PUBLIC	?_Right@?$_Tree@V?$_Tmap_traits@IIU?$less@I@std@@V?$allocator@U?$pair@$$CBII@std@@@2@$0A@@std@@@std@@KAAAPAU_Node@?$_Tree_nod@V?$_Tmap_traits@IIU?$less@I@std@@V?$allocator@U?$pair@$$CBII@std@@@2@$0A@@std@@@2@PAU342@@Z ; std::_Tree<std::_Tmap_traits<unsigned int,unsigned int,std::less<unsigned int>,std::allocator<std::pair<unsigned int const ,unsigned int> >,0> >::_Right
PUBLIC	??Fconst_iterator@?$_Tree@V?$_Tmap_traits@IIU?$less@I@std@@V?$allocator@U?$pair@$$CBII@std@@@2@$0A@@std@@@std@@QAEAAV012@XZ ; std::_Tree<std::_Tmap_traits<unsigned int,unsigned int,std::less<unsigned int>,std::allocator<std::pair<unsigned int const ,unsigned int> >,0> >::const_iterator::operator--
PUBLIC	?begin@?$_Tree@V?$_Tmap_traits@IIU?$less@I@std@@V?$allocator@U?$pair@$$CBII@std@@@2@$0A@@std@@@std@@QAE?AViterator@12@XZ ; std::_Tree<std::_Tmap_traits<unsigned int,unsigned int,std::less<unsigned int>,std::allocator<std::pair<unsigned int const ,unsigned int> >,0> >::begin
PUBLIC	?_Insert@?$_Tree@V?$_Tmap_traits@IIU?$less@I@std@@V?$allocator@U?$pair@$$CBII@std@@@2@$0A@@std@@@std@@IAE?AViterator@12@_NPAU_Node@?$_Tree_nod@V?$_Tmap_traits@IIU?$less@I@std@@V?$allocator@U?$pair@$$CBII@std@@@2@$0A@@std@@@2@ABU?$pair@$$CBII@2@@Z ; std::_Tree<std::_Tmap_traits<unsigned int,unsigned int,std::less<unsigned int>,std::allocator<std::pair<unsigned int const ,unsigned int> >,0> >::_Insert
PUBLIC	?size@?$_Tree@V?$_Tmap_traits@IIU?$less@I@std@@V?$allocator@U?$pair@$$CBII@std@@@2@$0A@@std@@@std@@QBEIXZ ; std::_Tree<std::_Tmap_traits<unsigned int,unsigned int,std::less<unsigned int>,std::allocator<std::pair<unsigned int const ,unsigned int> >,0> >::size
PUBLIC	??0const_iterator@?$_Tree@V?$_Tmap_traits@IIU?$less@I@std@@V?$allocator@U?$pair@$$CBII@std@@@2@$0A@@std@@@std@@QAE@XZ ; std::_Tree<std::_Tmap_traits<unsigned int,unsigned int,std::less<unsigned int>,std::allocator<std::pair<unsigned int const ,unsigned int> >,0> >::const_iterator::const_iterator
; Function compile flags: /Odtp
;	COMDAT ?insert@?$_Tree@V?$_Tmap_traits@IIU?$less@I@std@@V?$allocator@U?$pair@$$CBII@std@@@2@$0A@@std@@@std@@QAE?AViterator@12@Vconst_iterator@12@ABU?$pair@$$CBII@2@@Z
_TEXT	SEGMENT
_this$ = -72						; size = 4
$T149686 = -68						; size = 12
$T149685 = -56						; size = 8
$T149684 = -48						; size = 8
$T149683 = -40						; size = 8
$T149682 = -32						; size = 8
$T149681 = -24						; size = 8
$T149680 = -16						; size = 8
__Next$ = -8						; size = 8
___$ReturnUdt$ = 8					; size = 4
__Where$ = 12						; size = 8
__Val$ = 20						; size = 4
?insert@?$_Tree@V?$_Tmap_traits@IIU?$less@I@std@@V?$allocator@U?$pair@$$CBII@std@@@2@$0A@@std@@@std@@QAE?AViterator@12@Vconst_iterator@12@ABU?$pair@$$CBII@2@@Z PROC ; std::_Tree<std::_Tmap_traits<unsigned int,unsigned int,std::less<unsigned int>,std::allocator<std::pair<unsigned int const ,unsigned int> >,0> >::insert, COMDAT
; _this$ = ecx
; Line 664
	push	ebp
	mov	ebp, esp
	sub	esp, 72					; 00000048H
	mov	DWORD PTR _this$[ebp], ecx
; Line 671
	lea	ecx, DWORD PTR __Next$[ebp]
	call	??0const_iterator@?$_Tree@V?$_Tmap_traits@IIU?$less@I@std@@V?$allocator@U?$pair@$$CBII@std@@@2@$0A@@std@@@std@@QAE@XZ ; std::_Tree<std::_Tmap_traits<unsigned int,unsigned int,std::less<unsigned int>,std::allocator<std::pair<unsigned int const ,unsigned int> >,0> >::const_iterator::const_iterator
; Line 673
	mov	ecx, DWORD PTR _this$[ebp]
	call	?size@?$_Tree@V?$_Tmap_traits@IIU?$less@I@std@@V?$allocator@U?$pair@$$CBII@std@@@2@$0A@@std@@@std@@QBEIXZ ; std::_Tree<std::_Tmap_traits<unsigned int,unsigned int,std::less<unsigned int>,std::allocator<std::pair<unsigned int const ,unsigned int> >,0> >::size
	test	eax, eax
	jne	SHORT $LN32@insert
; Line 674
	mov	eax, DWORD PTR __Val$[ebp]
	push	eax
	mov	ecx, DWORD PTR _this$[ebp]
	mov	edx, DWORD PTR [ecx+24]
	push	edx
	push	1
	mov	eax, DWORD PTR ___$ReturnUdt$[ebp]
	push	eax
	mov	ecx, DWORD PTR _this$[ebp]
	call	?_Insert@?$_Tree@V?$_Tmap_traits@IIU?$less@I@std@@V?$allocator@U?$pair@$$CBII@std@@@2@$0A@@std@@@std@@IAE?AViterator@12@_NPAU_Node@?$_Tree_nod@V?$_Tmap_traits@IIU?$less@I@std@@V?$allocator@U?$pair@$$CBII@std@@@2@$0A@@std@@@2@ABU?$pair@$$CBII@2@@Z ; std::_Tree<std::_Tmap_traits<unsigned int,unsigned int,std::less<unsigned int>,std::allocator<std::pair<unsigned int const ,unsigned int> >,0> >::_Insert
	mov	eax, DWORD PTR ___$ReturnUdt$[ebp]
	jmp	$LN33@insert
	jmp	$LN31@insert
$LN32@insert:
; Line 675
	xor	ecx, ecx
	je	$LN30@insert
; Line 677
	lea	edx, DWORD PTR $T149680[ebp]
	push	edx
	mov	ecx, DWORD PTR _this$[ebp]
	call	?begin@?$_Tree@V?$_Tmap_traits@IIU?$less@I@std@@V?$allocator@U?$pair@$$CBII@std@@@2@$0A@@std@@@std@@QAE?AViterator@12@XZ ; std::_Tree<std::_Tmap_traits<unsigned int,unsigned int,std::less<unsigned int>,std::allocator<std::pair<unsigned int const ,unsigned int> >,0> >::begin
	push	eax
	lea	ecx, DWORD PTR __Where$[ebp]
	call	??8const_iterator@?$_Tree@V?$_Tmap_traits@IIU?$less@I@std@@V?$allocator@U?$pair@$$CBII@std@@@2@$0A@@std@@@std@@QBE_NABV012@@Z ; std::_Tree<std::_Tmap_traits<unsigned int,unsigned int,std::less<unsigned int>,std::allocator<std::pair<unsigned int const ,unsigned int> >,0> >::const_iterator::operator==
	movzx	eax, al
	test	eax, eax
	je	SHORT $LN29@insert
; Line 679
	mov	ecx, DWORD PTR __Val$[ebp]
	push	ecx
	call	?_Kfn@?$_Tmap_traits@IIU?$less@I@std@@V?$allocator@U?$pair@$$CBII@std@@@2@$0A@@std@@SAABIABU?$pair@$$CBII@2@@Z ; std::_Tmap_traits<unsigned int,unsigned int,std::less<unsigned int>,std::allocator<std::pair<unsigned int const ,unsigned int> >,0>::_Kfn
	add	esp, 4
	push	eax
	lea	ecx, DWORD PTR __Where$[ebp]
	call	?_Mynode@const_iterator@?$_Tree@V?$_Tmap_traits@IIU?$less@I@std@@V?$allocator@U?$pair@$$CBII@std@@@2@$0A@@std@@@std@@QBEPAU_Node@?$_Tree_nod@V?$_Tmap_traits@IIU?$less@I@std@@V?$allocator@U?$pair@$$CBII@std@@@2@$0A@@std@@@3@XZ ; std::_Tree<std::_Tmap_traits<unsigned int,unsigned int,std::less<unsigned int>,std::allocator<std::pair<unsigned int const ,unsigned int> >,0> >::const_iterator::_Mynode
	push	eax
	call	?_Key@?$_Tree@V?$_Tmap_traits@IIU?$less@I@std@@V?$allocator@U?$pair@$$CBII@std@@@2@$0A@@std@@@std@@KAABIPAU_Node@?$_Tree_nod@V?$_Tmap_traits@IIU?$less@I@std@@V?$allocator@U?$pair@$$CBII@std@@@2@$0A@@std@@@2@@Z ; std::_Tree<std::_Tmap_traits<unsigned int,unsigned int,std::less<unsigned int>,std::allocator<std::pair<unsigned int const ,unsigned int> >,0> >::_Key
	add	esp, 4
	push	eax
	mov	ecx, DWORD PTR _this$[ebp]
	add	ecx, 8
	call	??R?$less@I@std@@QBE_NABI0@Z		; std::less<unsigned int>::operator()
	movzx	edx, al
	test	edx, edx
	jne	SHORT $LN28@insert
; Line 681
	mov	eax, DWORD PTR __Val$[ebp]
	push	eax
	lea	ecx, DWORD PTR __Where$[ebp]
	call	?_Mynode@const_iterator@?$_Tree@V?$_Tmap_traits@IIU?$less@I@std@@V?$allocator@U?$pair@$$CBII@std@@@2@$0A@@std@@@std@@QBEPAU_Node@?$_Tree_nod@V?$_Tmap_traits@IIU?$less@I@std@@V?$allocator@U?$pair@$$CBII@std@@@2@$0A@@std@@@3@XZ ; std::_Tree<std::_Tmap_traits<unsigned int,unsigned int,std::less<unsigned int>,std::allocator<std::pair<unsigned int const ,unsigned int> >,0> >::const_iterator::_Mynode
	push	eax
	push	1
	mov	ecx, DWORD PTR ___$ReturnUdt$[ebp]
	push	ecx
	mov	ecx, DWORD PTR _this$[ebp]
	call	?_Insert@?$_Tree@V?$_Tmap_traits@IIU?$less@I@std@@V?$allocator@U?$pair@$$CBII@std@@@2@$0A@@std@@@std@@IAE?AViterator@12@_NPAU_Node@?$_Tree_nod@V?$_Tmap_traits@IIU?$less@I@std@@V?$allocator@U?$pair@$$CBII@std@@@2@$0A@@std@@@2@ABU?$pair@$$CBII@2@@Z ; std::_Tree<std::_Tmap_traits<unsigned int,unsigned int,std::less<unsigned int>,std::allocator<std::pair<unsigned int const ,unsigned int> >,0> >::_Insert
	mov	eax, DWORD PTR ___$ReturnUdt$[ebp]
	jmp	$LN33@insert
$LN28@insert:
; Line 682
	jmp	$LN27@insert
$LN29@insert:
; Line 683
	lea	edx, DWORD PTR $T149681[ebp]
	push	edx
	mov	ecx, DWORD PTR _this$[ebp]
	call	?end@?$_Tree@V?$_Tmap_traits@IIU?$less@I@std@@V?$allocator@U?$pair@$$CBII@std@@@2@$0A@@std@@@std@@QAE?AViterator@12@XZ ; std::_Tree<std::_Tmap_traits<unsigned int,unsigned int,std::less<unsigned int>,std::allocator<std::pair<unsigned int const ,unsigned int> >,0> >::end
	push	eax
	lea	ecx, DWORD PTR __Where$[ebp]
	call	??8const_iterator@?$_Tree@V?$_Tmap_traits@IIU?$less@I@std@@V?$allocator@U?$pair@$$CBII@std@@@2@$0A@@std@@@std@@QBE_NABV012@@Z ; std::_Tree<std::_Tmap_traits<unsigned int,unsigned int,std::less<unsigned int>,std::allocator<std::pair<unsigned int const ,unsigned int> >,0> >::const_iterator::operator==
	movzx	eax, al
	test	eax, eax
	je	SHORT $LN26@insert
; Line 685
	mov	ecx, DWORD PTR _this$[ebp]
	call	?_Rmost@?$_Tree@V?$_Tmap_traits@IIU?$less@I@std@@V?$allocator@U?$pair@$$CBII@std@@@2@$0A@@std@@@std@@IBEAAPAU_Node@?$_Tree_nod@V?$_Tmap_traits@IIU?$less@I@std@@V?$allocator@U?$pair@$$CBII@std@@@2@$0A@@std@@@2@XZ ; std::_Tree<std::_Tmap_traits<unsigned int,unsigned int,std::less<unsigned int>,std::allocator<std::pair<unsigned int const ,unsigned int> >,0> >::_Rmost
	mov	ecx, DWORD PTR [eax]
	push	ecx
	call	?_Key@?$_Tree@V?$_Tmap_traits@IIU?$less@I@std@@V?$allocator@U?$pair@$$CBII@std@@@2@$0A@@std@@@std@@KAABIPAU_Node@?$_Tree_nod@V?$_Tmap_traits@IIU?$less@I@std@@V?$allocator@U?$pair@$$CBII@std@@@2@$0A@@std@@@2@@Z ; std::_Tree<std::_Tmap_traits<unsigned int,unsigned int,std::less<unsigned int>,std::allocator<std::pair<unsigned int const ,unsigned int> >,0> >::_Key
	add	esp, 4
	push	eax
	mov	edx, DWORD PTR __Val$[ebp]
	push	edx
	call	?_Kfn@?$_Tmap_traits@IIU?$less@I@std@@V?$allocator@U?$pair@$$CBII@std@@@2@$0A@@std@@SAABIABU?$pair@$$CBII@2@@Z ; std::_Tmap_traits<unsigned int,unsigned int,std::less<unsigned int>,std::allocator<std::pair<unsigned int const ,unsigned int> >,0>::_Kfn
	add	esp, 4
	push	eax
	mov	ecx, DWORD PTR _this$[ebp]
	add	ecx, 8
	call	??R?$less@I@std@@QBE_NABI0@Z		; std::less<unsigned int>::operator()
	movzx	eax, al
	test	eax, eax
	jne	SHORT $LN25@insert
; Line 687
	mov	ecx, DWORD PTR __Val$[ebp]
	push	ecx
	mov	ecx, DWORD PTR _this$[ebp]
	call	?_Rmost@?$_Tree@V?$_Tmap_traits@IIU?$less@I@std@@V?$allocator@U?$pair@$$CBII@std@@@2@$0A@@std@@@std@@IBEAAPAU_Node@?$_Tree_nod@V?$_Tmap_traits@IIU?$less@I@std@@V?$allocator@U?$pair@$$CBII@std@@@2@$0A@@std@@@2@XZ ; std::_Tree<std::_Tmap_traits<unsigned int,unsigned int,std::less<unsigned int>,std::allocator<std::pair<unsigned int const ,unsigned int> >,0> >::_Rmost
	mov	edx, DWORD PTR [eax]
	push	edx
	push	0
	mov	eax, DWORD PTR ___$ReturnUdt$[ebp]
	push	eax
	mov	ecx, DWORD PTR _this$[ebp]
	call	?_Insert@?$_Tree@V?$_Tmap_traits@IIU?$less@I@std@@V?$allocator@U?$pair@$$CBII@std@@@2@$0A@@std@@@std@@IAE?AViterator@12@_NPAU_Node@?$_Tree_nod@V?$_Tmap_traits@IIU?$less@I@std@@V?$allocator@U?$pair@$$CBII@std@@@2@$0A@@std@@@2@ABU?$pair@$$CBII@2@@Z ; std::_Tree<std::_Tmap_traits<unsigned int,unsigned int,std::less<unsigned int>,std::allocator<std::pair<unsigned int const ,unsigned int> >,0> >::_Insert
	mov	eax, DWORD PTR ___$ReturnUdt$[ebp]
	jmp	$LN33@insert
$LN25@insert:
; Line 689
	jmp	$LN27@insert
$LN26@insert:
; Line 691
	mov	ecx, DWORD PTR __Val$[ebp]
	push	ecx
	call	?_Kfn@?$_Tmap_traits@IIU?$less@I@std@@V?$allocator@U?$pair@$$CBII@std@@@2@$0A@@std@@SAABIABU?$pair@$$CBII@2@@Z ; std::_Tmap_traits<unsigned int,unsigned int,std::less<unsigned int>,std::allocator<std::pair<unsigned int const ,unsigned int> >,0>::_Kfn
	add	esp, 4
	push	eax
	lea	ecx, DWORD PTR __Where$[ebp]
	call	?_Mynode@const_iterator@?$_Tree@V?$_Tmap_traits@IIU?$less@I@std@@V?$allocator@U?$pair@$$CBII@std@@@2@$0A@@std@@@std@@QBEPAU_Node@?$_Tree_nod@V?$_Tmap_traits@IIU?$less@I@std@@V?$allocator@U?$pair@$$CBII@std@@@2@$0A@@std@@@3@XZ ; std::_Tree<std::_Tmap_traits<unsigned int,unsigned int,std::less<unsigned int>,std::allocator<std::pair<unsigned int const ,unsigned int> >,0> >::const_iterator::_Mynode
	push	eax
	call	?_Key@?$_Tree@V?$_Tmap_traits@IIU?$less@I@std@@V?$allocator@U?$pair@$$CBII@std@@@2@$0A@@std@@@std@@KAABIPAU_Node@?$_Tree_nod@V?$_Tmap_traits@IIU?$less@I@std@@V?$allocator@U?$pair@$$CBII@std@@@2@$0A@@std@@@2@@Z ; std::_Tree<std::_Tmap_traits<unsigned int,unsigned int,std::less<unsigned int>,std::allocator<std::pair<unsigned int const ,unsigned int> >,0> >::_Key
	add	esp, 4
	push	eax
	mov	ecx, DWORD PTR _this$[ebp]
	add	ecx, 8
	call	??R?$less@I@std@@QBE_NABI0@Z		; std::less<unsigned int>::operator()
	movzx	edx, al
	test	edx, edx
	jne	$LN23@insert
	mov	eax, DWORD PTR __Where$[ebp]
	mov	DWORD PTR __Next$[ebp], eax
	mov	ecx, DWORD PTR __Where$[ebp+4]
	mov	DWORD PTR __Next$[ebp+4], ecx
	lea	ecx, DWORD PTR __Next$[ebp]
	call	??Fconst_iterator@?$_Tree@V?$_Tmap_traits@IIU?$less@I@std@@V?$allocator@U?$pair@$$CBII@std@@@2@$0A@@std@@@std@@QAEAAV012@XZ ; std::_Tree<std::_Tmap_traits<unsigned int,unsigned int,std::less<unsigned int>,std::allocator<std::pair<unsigned int const ,unsigned int> >,0> >::const_iterator::operator--
	mov	ecx, eax
	call	?_Mynode@const_iterator@?$_Tree@V?$_Tmap_traits@IIU?$less@I@std@@V?$allocator@U?$pair@$$CBII@std@@@2@$0A@@std@@@std@@QBEPAU_Node@?$_Tree_nod@V?$_Tmap_traits@IIU?$less@I@std@@V?$allocator@U?$pair@$$CBII@std@@@2@$0A@@std@@@3@XZ ; std::_Tree<std::_Tmap_traits<unsigned int,unsigned int,std::less<unsigned int>,std::allocator<std::pair<unsigned int const ,unsigned int> >,0> >::const_iterator::_Mynode
	push	eax
	call	?_Key@?$_Tree@V?$_Tmap_traits@IIU?$less@I@std@@V?$allocator@U?$pair@$$CBII@std@@@2@$0A@@std@@@std@@KAABIPAU_Node@?$_Tree_nod@V?$_Tmap_traits@IIU?$less@I@std@@V?$allocator@U?$pair@$$CBII@std@@@2@$0A@@std@@@2@@Z ; std::_Tree<std::_Tmap_traits<unsigned int,unsigned int,std::less<unsigned int>,std::allocator<std::pair<unsigned int const ,unsigned int> >,0> >::_Key
	add	esp, 4
	push	eax
	mov	edx, DWORD PTR __Val$[ebp]
	push	edx
	call	?_Kfn@?$_Tmap_traits@IIU?$less@I@std@@V?$allocator@U?$pair@$$CBII@std@@@2@$0A@@std@@SAABIABU?$pair@$$CBII@2@@Z ; std::_Tmap_traits<unsigned int,unsigned int,std::less<unsigned int>,std::allocator<std::pair<unsigned int const ,unsigned int> >,0>::_Kfn
	add	esp, 4
	push	eax
	mov	ecx, DWORD PTR _this$[ebp]
	add	ecx, 8
	call	??R?$less@I@std@@QBE_NABI0@Z		; std::less<unsigned int>::operator()
	movzx	eax, al
	test	eax, eax
	jne	SHORT $LN23@insert
; Line 694
	lea	ecx, DWORD PTR __Next$[ebp]
	call	?_Mynode@const_iterator@?$_Tree@V?$_Tmap_traits@IIU?$less@I@std@@V?$allocator@U?$pair@$$CBII@std@@@2@$0A@@std@@@std@@QBEPAU_Node@?$_Tree_nod@V?$_Tmap_traits@IIU?$less@I@std@@V?$allocator@U?$pair@$$CBII@std@@@2@$0A@@std@@@3@XZ ; std::_Tree<std::_Tmap_traits<unsigned int,unsigned int,std::less<unsigned int>,std::allocator<std::pair<unsigned int const ,unsigned int> >,0> >::const_iterator::_Mynode
	push	eax
	call	?_Right@?$_Tree@V?$_Tmap_traits@IIU?$less@I@std@@V?$allocator@U?$pair@$$CBII@std@@@2@$0A@@std@@@std@@KAAAPAU_Node@?$_Tree_nod@V?$_Tmap_traits@IIU?$less@I@std@@V?$allocator@U?$pair@$$CBII@std@@@2@$0A@@std@@@2@PAU342@@Z ; std::_Tree<std::_Tmap_traits<unsigned int,unsigned int,std::less<unsigned int>,std::allocator<std::pair<unsigned int const ,unsigned int> >,0> >::_Right
	add	esp, 4
	mov	ecx, DWORD PTR [eax]
	push	ecx
	call	?_Isnil@?$_Tree@V?$_Tmap_traits@IIU?$less@I@std@@V?$allocator@U?$pair@$$CBII@std@@@2@$0A@@std@@@std@@KAAADPAU_Node@?$_Tree_nod@V?$_Tmap_traits@IIU?$less@I@std@@V?$allocator@U?$pair@$$CBII@std@@@2@$0A@@std@@@2@@Z ; std::_Tree<std::_Tmap_traits<unsigned int,unsigned int,std::less<unsigned int>,std::allocator<std::pair<unsigned int const ,unsigned int> >,0> >::_Isnil
	add	esp, 4
	movsx	edx, BYTE PTR [eax]
	test	edx, edx
	je	SHORT $LN22@insert
; Line 695
	mov	eax, DWORD PTR __Val$[ebp]
	push	eax
	lea	ecx, DWORD PTR __Next$[ebp]
	call	?_Mynode@const_iterator@?$_Tree@V?$_Tmap_traits@IIU?$less@I@std@@V?$allocator@U?$pair@$$CBII@std@@@2@$0A@@std@@@std@@QBEPAU_Node@?$_Tree_nod@V?$_Tmap_traits@IIU?$less@I@std@@V?$allocator@U?$pair@$$CBII@std@@@2@$0A@@std@@@3@XZ ; std::_Tree<std::_Tmap_traits<unsigned int,unsigned int,std::less<unsigned int>,std::allocator<std::pair<unsigned int const ,unsigned int> >,0> >::const_iterator::_Mynode
	push	eax
	push	0
	mov	ecx, DWORD PTR ___$ReturnUdt$[ebp]
	push	ecx
	mov	ecx, DWORD PTR _this$[ebp]
	call	?_Insert@?$_Tree@V?$_Tmap_traits@IIU?$less@I@std@@V?$allocator@U?$pair@$$CBII@std@@@2@$0A@@std@@@std@@IAE?AViterator@12@_NPAU_Node@?$_Tree_nod@V?$_Tmap_traits@IIU?$less@I@std@@V?$allocator@U?$pair@$$CBII@std@@@2@$0A@@std@@@2@ABU?$pair@$$CBII@2@@Z ; std::_Tree<std::_Tmap_traits<unsigned int,unsigned int,std::less<unsigned int>,std::allocator<std::pair<unsigned int const ,unsigned int> >,0> >::_Insert
	mov	eax, DWORD PTR ___$ReturnUdt$[ebp]
	jmp	$LN33@insert
; Line 696
	jmp	SHORT $LN21@insert
$LN22@insert:
; Line 697
	mov	edx, DWORD PTR __Val$[ebp]
	push	edx
	lea	ecx, DWORD PTR __Where$[ebp]
	call	?_Mynode@const_iterator@?$_Tree@V?$_Tmap_traits@IIU?$less@I@std@@V?$allocator@U?$pair@$$CBII@std@@@2@$0A@@std@@@std@@QBEPAU_Node@?$_Tree_nod@V?$_Tmap_traits@IIU?$less@I@std@@V?$allocator@U?$pair@$$CBII@std@@@2@$0A@@std@@@3@XZ ; std::_Tree<std::_Tmap_traits<unsigned int,unsigned int,std::less<unsigned int>,std::allocator<std::pair<unsigned int const ,unsigned int> >,0> >::const_iterator::_Mynode
	push	eax
	push	1
	mov	eax, DWORD PTR ___$ReturnUdt$[ebp]
	push	eax
	mov	ecx, DWORD PTR _this$[ebp]
	call	?_Insert@?$_Tree@V?$_Tmap_traits@IIU?$less@I@std@@V?$allocator@U?$pair@$$CBII@std@@@2@$0A@@std@@@std@@IAE?AViterator@12@_NPAU_Node@?$_Tree_nod@V?$_Tmap_traits@IIU?$less@I@std@@V?$allocator@U?$pair@$$CBII@std@@@2@$0A@@std@@@2@ABU?$pair@$$CBII@2@@Z ; std::_Tree<std::_Tmap_traits<unsigned int,unsigned int,std::less<unsigned int>,std::allocator<std::pair<unsigned int const ,unsigned int> >,0> >::_Insert
	mov	eax, DWORD PTR ___$ReturnUdt$[ebp]
	jmp	$LN33@insert
$LN21@insert:
; Line 699
	jmp	$LN27@insert
$LN23@insert:
; Line 702
	lea	ecx, DWORD PTR __Where$[ebp]
	call	?_Mynode@const_iterator@?$_Tree@V?$_Tmap_traits@IIU?$less@I@std@@V?$allocator@U?$pair@$$CBII@std@@@2@$0A@@std@@@std@@QBEPAU_Node@?$_Tree_nod@V?$_Tmap_traits@IIU?$less@I@std@@V?$allocator@U?$pair@$$CBII@std@@@2@$0A@@std@@@3@XZ ; std::_Tree<std::_Tmap_traits<unsigned int,unsigned int,std::less<unsigned int>,std::allocator<std::pair<unsigned int const ,unsigned int> >,0> >::const_iterator::_Mynode
	push	eax
	call	?_Key@?$_Tree@V?$_Tmap_traits@IIU?$less@I@std@@V?$allocator@U?$pair@$$CBII@std@@@2@$0A@@std@@@std@@KAABIPAU_Node@?$_Tree_nod@V?$_Tmap_traits@IIU?$less@I@std@@V?$allocator@U?$pair@$$CBII@std@@@2@$0A@@std@@@2@@Z ; std::_Tree<std::_Tmap_traits<unsigned int,unsigned int,std::less<unsigned int>,std::allocator<std::pair<unsigned int const ,unsigned int> >,0> >::_Key
	add	esp, 4
	push	eax
	mov	ecx, DWORD PTR __Val$[ebp]
	push	ecx
	call	?_Kfn@?$_Tmap_traits@IIU?$less@I@std@@V?$allocator@U?$pair@$$CBII@std@@@2@$0A@@std@@SAABIABU?$pair@$$CBII@2@@Z ; std::_Tmap_traits<unsigned int,unsigned int,std::less<unsigned int>,std::allocator<std::pair<unsigned int const ,unsigned int> >,0>::_Kfn
	add	esp, 4
	push	eax
	mov	ecx, DWORD PTR _this$[ebp]
	add	ecx, 8
	call	??R?$less@I@std@@QBE_NABI0@Z		; std::less<unsigned int>::operator()
	movzx	edx, al
	test	edx, edx
	jne	$LN27@insert
	mov	eax, DWORD PTR __Where$[ebp]
	mov	DWORD PTR __Next$[ebp], eax
	mov	ecx, DWORD PTR __Where$[ebp+4]
	mov	DWORD PTR __Next$[ebp+4], ecx
	lea	edx, DWORD PTR $T149682[ebp]
	push	edx
	mov	ecx, DWORD PTR _this$[ebp]
	call	?end@?$_Tree@V?$_Tmap_traits@IIU?$less@I@std@@V?$allocator@U?$pair@$$CBII@std@@@2@$0A@@std@@@std@@QAE?AViterator@12@XZ ; std::_Tree<std::_Tmap_traits<unsigned int,unsigned int,std::less<unsigned int>,std::allocator<std::pair<unsigned int const ,unsigned int> >,0> >::end
	push	eax
	lea	ecx, DWORD PTR __Next$[ebp]
	call	??Econst_iterator@?$_Tree@V?$_Tmap_traits@IIU?$less@I@std@@V?$allocator@U?$pair@$$CBII@std@@@2@$0A@@std@@@std@@QAEAAV012@XZ ; std::_Tree<std::_Tmap_traits<unsigned int,unsigned int,std::less<unsigned int>,std::allocator<std::pair<unsigned int const ,unsigned int> >,0> >::const_iterator::operator++
	mov	ecx, eax
	call	??8const_iterator@?$_Tree@V?$_Tmap_traits@IIU?$less@I@std@@V?$allocator@U?$pair@$$CBII@std@@@2@$0A@@std@@@std@@QBE_NABV012@@Z ; std::_Tree<std::_Tmap_traits<unsigned int,unsigned int,std::less<unsigned int>,std::allocator<std::pair<unsigned int const ,unsigned int> >,0> >::const_iterator::operator==
	movzx	eax, al
	test	eax, eax
	jne	SHORT $LN18@insert
	mov	ecx, DWORD PTR __Val$[ebp]
	push	ecx
	call	?_Kfn@?$_Tmap_traits@IIU?$less@I@std@@V?$allocator@U?$pair@$$CBII@std@@@2@$0A@@std@@SAABIABU?$pair@$$CBII@2@@Z ; std::_Tmap_traits<unsigned int,unsigned int,std::less<unsigned int>,std::allocator<std::pair<unsigned int const ,unsigned int> >,0>::_Kfn
	add	esp, 4
	push	eax
	lea	ecx, DWORD PTR __Next$[ebp]
	call	?_Mynode@const_iterator@?$_Tree@V?$_Tmap_traits@IIU?$less@I@std@@V?$allocator@U?$pair@$$CBII@std@@@2@$0A@@std@@@std@@QBEPAU_Node@?$_Tree_nod@V?$_Tmap_traits@IIU?$less@I@std@@V?$allocator@U?$pair@$$CBII@std@@@2@$0A@@std@@@3@XZ ; std::_Tree<std::_Tmap_traits<unsigned int,unsigned int,std::less<unsigned int>,std::allocator<std::pair<unsigned int const ,unsigned int> >,0> >::const_iterator::_Mynode
	push	eax
	call	?_Key@?$_Tree@V?$_Tmap_traits@IIU?$less@I@std@@V?$allocator@U?$pair@$$CBII@std@@@2@$0A@@std@@@std@@KAABIPAU_Node@?$_Tree_nod@V?$_Tmap_traits@IIU?$less@I@std@@V?$allocator@U?$pair@$$CBII@std@@@2@$0A@@std@@@2@@Z ; std::_Tree<std::_Tmap_traits<unsigned int,unsigned int,std::less<unsigned int>,std::allocator<std::pair<unsigned int const ,unsigned int> >,0> >::_Key
	add	esp, 4
	push	eax
	mov	ecx, DWORD PTR _this$[ebp]
	add	ecx, 8
	call	??R?$less@I@std@@QBE_NABI0@Z		; std::less<unsigned int>::operator()
	movzx	edx, al
	test	edx, edx
	jne	SHORT $LN27@insert
$LN18@insert:
; Line 705
	lea	ecx, DWORD PTR __Where$[ebp]
	call	?_Mynode@const_iterator@?$_Tree@V?$_Tmap_traits@IIU?$less@I@std@@V?$allocator@U?$pair@$$CBII@std@@@2@$0A@@std@@@std@@QBEPAU_Node@?$_Tree_nod@V?$_Tmap_traits@IIU?$less@I@std@@V?$allocator@U?$pair@$$CBII@std@@@2@$0A@@std@@@3@XZ ; std::_Tree<std::_Tmap_traits<unsigned int,unsigned int,std::less<unsigned int>,std::allocator<std::pair<unsigned int const ,unsigned int> >,0> >::const_iterator::_Mynode
	push	eax
	call	?_Right@?$_Tree@V?$_Tmap_traits@IIU?$less@I@std@@V?$allocator@U?$pair@$$CBII@std@@@2@$0A@@std@@@std@@KAAAPAU_Node@?$_Tree_nod@V?$_Tmap_traits@IIU?$less@I@std@@V?$allocator@U?$pair@$$CBII@std@@@2@$0A@@std@@@2@PAU342@@Z ; std::_Tree<std::_Tmap_traits<unsigned int,unsigned int,std::less<unsigned int>,std::allocator<std::pair<unsigned int const ,unsigned int> >,0> >::_Right
	add	esp, 4
	mov	eax, DWORD PTR [eax]
	push	eax
	call	?_Isnil@?$_Tree@V?$_Tmap_traits@IIU?$less@I@std@@V?$allocator@U?$pair@$$CBII@std@@@2@$0A@@std@@@std@@KAAADPAU_Node@?$_Tree_nod@V?$_Tmap_traits@IIU?$less@I@std@@V?$allocator@U?$pair@$$CBII@std@@@2@$0A@@std@@@2@@Z ; std::_Tree<std::_Tmap_traits<unsigned int,unsigned int,std::less<unsigned int>,std::allocator<std::pair<unsigned int const ,unsigned int> >,0> >::_Isnil
	add	esp, 4
	movsx	ecx, BYTE PTR [eax]
	test	ecx, ecx
	je	SHORT $LN17@insert
; Line 706
	mov	edx, DWORD PTR __Val$[ebp]
	push	edx
	lea	ecx, DWORD PTR __Where$[ebp]
	call	?_Mynode@const_iterator@?$_Tree@V?$_Tmap_traits@IIU?$less@I@std@@V?$allocator@U?$pair@$$CBII@std@@@2@$0A@@std@@@std@@QBEPAU_Node@?$_Tree_nod@V?$_Tmap_traits@IIU?$less@I@std@@V?$allocator@U?$pair@$$CBII@std@@@2@$0A@@std@@@3@XZ ; std::_Tree<std::_Tmap_traits<unsigned int,unsigned int,std::less<unsigned int>,std::allocator<std::pair<unsigned int const ,unsigned int> >,0> >::const_iterator::_Mynode
	push	eax
	push	0
	mov	eax, DWORD PTR ___$ReturnUdt$[ebp]
	push	eax
	mov	ecx, DWORD PTR _this$[ebp]
	call	?_Insert@?$_Tree@V?$_Tmap_traits@IIU?$less@I@std@@V?$allocator@U?$pair@$$CBII@std@@@2@$0A@@std@@@std@@IAE?AViterator@12@_NPAU_Node@?$_Tree_nod@V?$_Tmap_traits@IIU?$less@I@std@@V?$allocator@U?$pair@$$CBII@std@@@2@$0A@@std@@@2@ABU?$pair@$$CBII@2@@Z ; std::_Tree<std::_Tmap_traits<unsigned int,unsigned int,std::less<unsigned int>,std::allocator<std::pair<unsigned int const ,unsigned int> >,0> >::_Insert
	mov	eax, DWORD PTR ___$ReturnUdt$[ebp]
	jmp	$LN33@insert
; Line 707
	jmp	SHORT $LN27@insert
$LN17@insert:
; Line 708
	mov	ecx, DWORD PTR __Val$[ebp]
	push	ecx
	lea	ecx, DWORD PTR __Next$[ebp]
	call	?_Mynode@const_iterator@?$_Tree@V?$_Tmap_traits@IIU?$less@I@std@@V?$allocator@U?$pair@$$CBII@std@@@2@$0A@@std@@@std@@QBEPAU_Node@?$_Tree_nod@V?$_Tmap_traits@IIU?$less@I@std@@V?$allocator@U?$pair@$$CBII@std@@@2@$0A@@std@@@3@XZ ; std::_Tree<std::_Tmap_traits<unsigned int,unsigned int,std::less<unsigned int>,std::allocator<std::pair<unsigned int const ,unsigned int> >,0> >::const_iterator::_Mynode
	push	eax
	push	1
	mov	edx, DWORD PTR ___$ReturnUdt$[ebp]
	push	edx
	mov	ecx, DWORD PTR _this$[ebp]
	call	?_Insert@?$_Tree@V?$_Tmap_traits@IIU?$less@I@std@@V?$allocator@U?$pair@$$CBII@std@@@2@$0A@@std@@@std@@IAE?AViterator@12@_NPAU_Node@?$_Tree_nod@V?$_Tmap_traits@IIU?$less@I@std@@V?$allocator@U?$pair@$$CBII@std@@@2@$0A@@std@@@2@ABU?$pair@$$CBII@2@@Z ; std::_Tree<std::_Tmap_traits<unsigned int,unsigned int,std::less<unsigned int>,std::allocator<std::pair<unsigned int const ,unsigned int> >,0> >::_Insert
	mov	eax, DWORD PTR ___$ReturnUdt$[ebp]
	jmp	$LN33@insert
$LN27@insert:
; Line 711
	jmp	$LN31@insert
$LN30@insert:
; Line 713
	lea	eax, DWORD PTR $T149683[ebp]
	push	eax
	mov	ecx, DWORD PTR _this$[ebp]
	call	?begin@?$_Tree@V?$_Tmap_traits@IIU?$less@I@std@@V?$allocator@U?$pair@$$CBII@std@@@2@$0A@@std@@@std@@QAE?AViterator@12@XZ ; std::_Tree<std::_Tmap_traits<unsigned int,unsigned int,std::less<unsigned int>,std::allocator<std::pair<unsigned int const ,unsigned int> >,0> >::begin
	push	eax
	lea	ecx, DWORD PTR __Where$[ebp]
	call	??8const_iterator@?$_Tree@V?$_Tmap_traits@IIU?$less@I@std@@V?$allocator@U?$pair@$$CBII@std@@@2@$0A@@std@@@std@@QBE_NABV012@@Z ; std::_Tree<std::_Tmap_traits<unsigned int,unsigned int,std::less<unsigned int>,std::allocator<std::pair<unsigned int const ,unsigned int> >,0> >::const_iterator::operator==
	movzx	ecx, al
	test	ecx, ecx
	je	SHORT $LN14@insert
; Line 715
	lea	ecx, DWORD PTR __Where$[ebp]
	call	?_Mynode@const_iterator@?$_Tree@V?$_Tmap_traits@IIU?$less@I@std@@V?$allocator@U?$pair@$$CBII@std@@@2@$0A@@std@@@std@@QBEPAU_Node@?$_Tree_nod@V?$_Tmap_traits@IIU?$less@I@std@@V?$allocator@U?$pair@$$CBII@std@@@2@$0A@@std@@@3@XZ ; std::_Tree<std::_Tmap_traits<unsigned int,unsigned int,std::less<unsigned int>,std::allocator<std::pair<unsigned int const ,unsigned int> >,0> >::const_iterator::_Mynode
	push	eax
	call	?_Key@?$_Tree@V?$_Tmap_traits@IIU?$less@I@std@@V?$allocator@U?$pair@$$CBII@std@@@2@$0A@@std@@@std@@KAABIPAU_Node@?$_Tree_nod@V?$_Tmap_traits@IIU?$less@I@std@@V?$allocator@U?$pair@$$CBII@std@@@2@$0A@@std@@@2@@Z ; std::_Tree<std::_Tmap_traits<unsigned int,unsigned int,std::less<unsigned int>,std::allocator<std::pair<unsigned int const ,unsigned int> >,0> >::_Key
	add	esp, 4
	push	eax
	mov	edx, DWORD PTR __Val$[ebp]
	push	edx
	call	?_Kfn@?$_Tmap_traits@IIU?$less@I@std@@V?$allocator@U?$pair@$$CBII@std@@@2@$0A@@std@@SAABIABU?$pair@$$CBII@2@@Z ; std::_Tmap_traits<unsigned int,unsigned int,std::less<unsigned int>,std::allocator<std::pair<unsigned int const ,unsigned int> >,0>::_Kfn
	add	esp, 4
	push	eax
	mov	ecx, DWORD PTR _this$[ebp]
	add	ecx, 8
	call	??R?$less@I@std@@QBE_NABI0@Z		; std::less<unsigned int>::operator()
	movzx	eax, al
	test	eax, eax
	je	SHORT $LN13@insert
; Line 717
	mov	ecx, DWORD PTR __Val$[ebp]
	push	ecx
	lea	ecx, DWORD PTR __Where$[ebp]
	call	?_Mynode@const_iterator@?$_Tree@V?$_Tmap_traits@IIU?$less@I@std@@V?$allocator@U?$pair@$$CBII@std@@@2@$0A@@std@@@std@@QBEPAU_Node@?$_Tree_nod@V?$_Tmap_traits@IIU?$less@I@std@@V?$allocator@U?$pair@$$CBII@std@@@2@$0A@@std@@@3@XZ ; std::_Tree<std::_Tmap_traits<unsigned int,unsigned int,std::less<unsigned int>,std::allocator<std::pair<unsigned int const ,unsigned int> >,0> >::const_iterator::_Mynode
	push	eax
	push	1
	mov	edx, DWORD PTR ___$ReturnUdt$[ebp]
	push	edx
	mov	ecx, DWORD PTR _this$[ebp]
	call	?_Insert@?$_Tree@V?$_Tmap_traits@IIU?$less@I@std@@V?$allocator@U?$pair@$$CBII@std@@@2@$0A@@std@@@std@@IAE?AViterator@12@_NPAU_Node@?$_Tree_nod@V?$_Tmap_traits@IIU?$less@I@std@@V?$allocator@U?$pair@$$CBII@std@@@2@$0A@@std@@@2@ABU?$pair@$$CBII@2@@Z ; std::_Tree<std::_Tmap_traits<unsigned int,unsigned int,std::less<unsigned int>,std::allocator<std::pair<unsigned int const ,unsigned int> >,0> >::_Insert
	mov	eax, DWORD PTR ___$ReturnUdt$[ebp]
	jmp	$LN33@insert
$LN13@insert:
; Line 718
	jmp	$LN31@insert
$LN14@insert:
; Line 719
	lea	eax, DWORD PTR $T149684[ebp]
	push	eax
	mov	ecx, DWORD PTR _this$[ebp]
	call	?end@?$_Tree@V?$_Tmap_traits@IIU?$less@I@std@@V?$allocator@U?$pair@$$CBII@std@@@2@$0A@@std@@@std@@QAE?AViterator@12@XZ ; std::_Tree<std::_Tmap_traits<unsigned int,unsigned int,std::less<unsigned int>,std::allocator<std::pair<unsigned int const ,unsigned int> >,0> >::end
	push	eax
	lea	ecx, DWORD PTR __Where$[ebp]
	call	??8const_iterator@?$_Tree@V?$_Tmap_traits@IIU?$less@I@std@@V?$allocator@U?$pair@$$CBII@std@@@2@$0A@@std@@@std@@QBE_NABV012@@Z ; std::_Tree<std::_Tmap_traits<unsigned int,unsigned int,std::less<unsigned int>,std::allocator<std::pair<unsigned int const ,unsigned int> >,0> >::const_iterator::operator==
	movzx	ecx, al
	test	ecx, ecx
	je	SHORT $LN11@insert
; Line 721
	mov	edx, DWORD PTR __Val$[ebp]
	push	edx
	call	?_Kfn@?$_Tmap_traits@IIU?$less@I@std@@V?$allocator@U?$pair@$$CBII@std@@@2@$0A@@std@@SAABIABU?$pair@$$CBII@2@@Z ; std::_Tmap_traits<unsigned int,unsigned int,std::less<unsigned int>,std::allocator<std::pair<unsigned int const ,unsigned int> >,0>::_Kfn
	add	esp, 4
	push	eax
	mov	ecx, DWORD PTR _this$[ebp]
	call	?_Rmost@?$_Tree@V?$_Tmap_traits@IIU?$less@I@std@@V?$allocator@U?$pair@$$CBII@std@@@2@$0A@@std@@@std@@IBEAAPAU_Node@?$_Tree_nod@V?$_Tmap_traits@IIU?$less@I@std@@V?$allocator@U?$pair@$$CBII@std@@@2@$0A@@std@@@2@XZ ; std::_Tree<std::_Tmap_traits<unsigned int,unsigned int,std::less<unsigned int>,std::allocator<std::pair<unsigned int const ,unsigned int> >,0> >::_Rmost
	mov	eax, DWORD PTR [eax]
	push	eax
	call	?_Key@?$_Tree@V?$_Tmap_traits@IIU?$less@I@std@@V?$allocator@U?$pair@$$CBII@std@@@2@$0A@@std@@@std@@KAABIPAU_Node@?$_Tree_nod@V?$_Tmap_traits@IIU?$less@I@std@@V?$allocator@U?$pair@$$CBII@std@@@2@$0A@@std@@@2@@Z ; std::_Tree<std::_Tmap_traits<unsigned int,unsigned int,std::less<unsigned int>,std::allocator<std::pair<unsigned int const ,unsigned int> >,0> >::_Key
	add	esp, 4
	push	eax
	mov	ecx, DWORD PTR _this$[ebp]
	add	ecx, 8
	call	??R?$less@I@std@@QBE_NABI0@Z		; std::less<unsigned int>::operator()
	movzx	ecx, al
	test	ecx, ecx
	je	SHORT $LN10@insert
; Line 723
	mov	edx, DWORD PTR __Val$[ebp]
	push	edx
	mov	ecx, DWORD PTR _this$[ebp]
	call	?_Rmost@?$_Tree@V?$_Tmap_traits@IIU?$less@I@std@@V?$allocator@U?$pair@$$CBII@std@@@2@$0A@@std@@@std@@IBEAAPAU_Node@?$_Tree_nod@V?$_Tmap_traits@IIU?$less@I@std@@V?$allocator@U?$pair@$$CBII@std@@@2@$0A@@std@@@2@XZ ; std::_Tree<std::_Tmap_traits<unsigned int,unsigned int,std::less<unsigned int>,std::allocator<std::pair<unsigned int const ,unsigned int> >,0> >::_Rmost
	mov	eax, DWORD PTR [eax]
	push	eax
	push	0
	mov	ecx, DWORD PTR ___$ReturnUdt$[ebp]
	push	ecx
	mov	ecx, DWORD PTR _this$[ebp]
	call	?_Insert@?$_Tree@V?$_Tmap_traits@IIU?$less@I@std@@V?$allocator@U?$pair@$$CBII@std@@@2@$0A@@std@@@std@@IAE?AViterator@12@_NPAU_Node@?$_Tree_nod@V?$_Tmap_traits@IIU?$less@I@std@@V?$allocator@U?$pair@$$CBII@std@@@2@$0A@@std@@@2@ABU?$pair@$$CBII@2@@Z ; std::_Tree<std::_Tmap_traits<unsigned int,unsigned int,std::less<unsigned int>,std::allocator<std::pair<unsigned int const ,unsigned int> >,0> >::_Insert
	mov	eax, DWORD PTR ___$ReturnUdt$[ebp]
	jmp	$LN33@insert
$LN10@insert:
; Line 725
	jmp	$LN31@insert
$LN11@insert:
; Line 727
	lea	ecx, DWORD PTR __Where$[ebp]
	call	?_Mynode@const_iterator@?$_Tree@V?$_Tmap_traits@IIU?$less@I@std@@V?$allocator@U?$pair@$$CBII@std@@@2@$0A@@std@@@std@@QBEPAU_Node@?$_Tree_nod@V?$_Tmap_traits@IIU?$less@I@std@@V?$allocator@U?$pair@$$CBII@std@@@2@$0A@@std@@@3@XZ ; std::_Tree<std::_Tmap_traits<unsigned int,unsigned int,std::less<unsigned int>,std::allocator<std::pair<unsigned int const ,unsigned int> >,0> >::const_iterator::_Mynode
	push	eax
	call	?_Key@?$_Tree@V?$_Tmap_traits@IIU?$less@I@std@@V?$allocator@U?$pair@$$CBII@std@@@2@$0A@@std@@@std@@KAABIPAU_Node@?$_Tree_nod@V?$_Tmap_traits@IIU?$less@I@std@@V?$allocator@U?$pair@$$CBII@std@@@2@$0A@@std@@@2@@Z ; std::_Tree<std::_Tmap_traits<unsigned int,unsigned int,std::less<unsigned int>,std::allocator<std::pair<unsigned int const ,unsigned int> >,0> >::_Key
	add	esp, 4
	push	eax
	mov	edx, DWORD PTR __Val$[ebp]
	push	edx
	call	?_Kfn@?$_Tmap_traits@IIU?$less@I@std@@V?$allocator@U?$pair@$$CBII@std@@@2@$0A@@std@@SAABIABU?$pair@$$CBII@2@@Z ; std::_Tmap_traits<unsigned int,unsigned int,std::less<unsigned int>,std::allocator<std::pair<unsigned int const ,unsigned int> >,0>::_Kfn
	add	esp, 4
	push	eax
	mov	ecx, DWORD PTR _this$[ebp]
	add	ecx, 8
	call	??R?$less@I@std@@QBE_NABI0@Z		; std::less<unsigned int>::operator()
	movzx	eax, al
	test	eax, eax
	je	$LN8@insert
	mov	ecx, DWORD PTR __Where$[ebp]
	mov	DWORD PTR __Next$[ebp], ecx
	mov	edx, DWORD PTR __Where$[ebp+4]
	mov	DWORD PTR __Next$[ebp+4], edx
	mov	eax, DWORD PTR __Val$[ebp]
	push	eax
	call	?_Kfn@?$_Tmap_traits@IIU?$less@I@std@@V?$allocator@U?$pair@$$CBII@std@@@2@$0A@@std@@SAABIABU?$pair@$$CBII@2@@Z ; std::_Tmap_traits<unsigned int,unsigned int,std::less<unsigned int>,std::allocator<std::pair<unsigned int const ,unsigned int> >,0>::_Kfn
	add	esp, 4
	push	eax
	lea	ecx, DWORD PTR __Next$[ebp]
	call	??Fconst_iterator@?$_Tree@V?$_Tmap_traits@IIU?$less@I@std@@V?$allocator@U?$pair@$$CBII@std@@@2@$0A@@std@@@std@@QAEAAV012@XZ ; std::_Tree<std::_Tmap_traits<unsigned int,unsigned int,std::less<unsigned int>,std::allocator<std::pair<unsigned int const ,unsigned int> >,0> >::const_iterator::operator--
	mov	ecx, eax
	call	?_Mynode@const_iterator@?$_Tree@V?$_Tmap_traits@IIU?$less@I@std@@V?$allocator@U?$pair@$$CBII@std@@@2@$0A@@std@@@std@@QBEPAU_Node@?$_Tree_nod@V?$_Tmap_traits@IIU?$less@I@std@@V?$allocator@U?$pair@$$CBII@std@@@2@$0A@@std@@@3@XZ ; std::_Tree<std::_Tmap_traits<unsigned int,unsigned int,std::less<unsigned int>,std::allocator<std::pair<unsigned int const ,unsigned int> >,0> >::const_iterator::_Mynode
	push	eax
	call	?_Key@?$_Tree@V?$_Tmap_traits@IIU?$less@I@std@@V?$allocator@U?$pair@$$CBII@std@@@2@$0A@@std@@@std@@KAABIPAU_Node@?$_Tree_nod@V?$_Tmap_traits@IIU?$less@I@std@@V?$allocator@U?$pair@$$CBII@std@@@2@$0A@@std@@@2@@Z ; std::_Tree<std::_Tmap_traits<unsigned int,unsigned int,std::less<unsigned int>,std::allocator<std::pair<unsigned int const ,unsigned int> >,0> >::_Key
	add	esp, 4
	push	eax
	mov	ecx, DWORD PTR _this$[ebp]
	add	ecx, 8
	call	??R?$less@I@std@@QBE_NABI0@Z		; std::less<unsigned int>::operator()
	movzx	ecx, al
	test	ecx, ecx
	je	SHORT $LN8@insert
; Line 730
	lea	ecx, DWORD PTR __Next$[ebp]
	call	?_Mynode@const_iterator@?$_Tree@V?$_Tmap_traits@IIU?$less@I@std@@V?$allocator@U?$pair@$$CBII@std@@@2@$0A@@std@@@std@@QBEPAU_Node@?$_Tree_nod@V?$_Tmap_traits@IIU?$less@I@std@@V?$allocator@U?$pair@$$CBII@std@@@2@$0A@@std@@@3@XZ ; std::_Tree<std::_Tmap_traits<unsigned int,unsigned int,std::less<unsigned int>,std::allocator<std::pair<unsigned int const ,unsigned int> >,0> >::const_iterator::_Mynode
	push	eax
	call	?_Right@?$_Tree@V?$_Tmap_traits@IIU?$less@I@std@@V?$allocator@U?$pair@$$CBII@std@@@2@$0A@@std@@@std@@KAAAPAU_Node@?$_Tree_nod@V?$_Tmap_traits@IIU?$less@I@std@@V?$allocator@U?$pair@$$CBII@std@@@2@$0A@@std@@@2@PAU342@@Z ; std::_Tree<std::_Tmap_traits<unsigned int,unsigned int,std::less<unsigned int>,std::allocator<std::pair<unsigned int const ,unsigned int> >,0> >::_Right
	add	esp, 4
	mov	edx, DWORD PTR [eax]
	push	edx
	call	?_Isnil@?$_Tree@V?$_Tmap_traits@IIU?$less@I@std@@V?$allocator@U?$pair@$$CBII@std@@@2@$0A@@std@@@std@@KAAADPAU_Node@?$_Tree_nod@V?$_Tmap_traits@IIU?$less@I@std@@V?$allocator@U?$pair@$$CBII@std@@@2@$0A@@std@@@2@@Z ; std::_Tree<std::_Tmap_traits<unsigned int,unsigned int,std::less<unsigned int>,std::allocator<std::pair<unsigned int const ,unsigned int> >,0> >::_Isnil
	add	esp, 4
	movsx	eax, BYTE PTR [eax]
	test	eax, eax
	je	SHORT $LN7@insert
; Line 731
	mov	ecx, DWORD PTR __Val$[ebp]
	push	ecx
	lea	ecx, DWORD PTR __Next$[ebp]
	call	?_Mynode@const_iterator@?$_Tree@V?$_Tmap_traits@IIU?$less@I@std@@V?$allocator@U?$pair@$$CBII@std@@@2@$0A@@std@@@std@@QBEPAU_Node@?$_Tree_nod@V?$_Tmap_traits@IIU?$less@I@std@@V?$allocator@U?$pair@$$CBII@std@@@2@$0A@@std@@@3@XZ ; std::_Tree<std::_Tmap_traits<unsigned int,unsigned int,std::less<unsigned int>,std::allocator<std::pair<unsigned int const ,unsigned int> >,0> >::const_iterator::_Mynode
	push	eax
	push	0
	mov	edx, DWORD PTR ___$ReturnUdt$[ebp]
	push	edx
	mov	ecx, DWORD PTR _this$[ebp]
	call	?_Insert@?$_Tree@V?$_Tmap_traits@IIU?$less@I@std@@V?$allocator@U?$pair@$$CBII@std@@@2@$0A@@std@@@std@@IAE?AViterator@12@_NPAU_Node@?$_Tree_nod@V?$_Tmap_traits@IIU?$less@I@std@@V?$allocator@U?$pair@$$CBII@std@@@2@$0A@@std@@@2@ABU?$pair@$$CBII@2@@Z ; std::_Tree<std::_Tmap_traits<unsigned int,unsigned int,std::less<unsigned int>,std::allocator<std::pair<unsigned int const ,unsigned int> >,0> >::_Insert
	mov	eax, DWORD PTR ___$ReturnUdt$[ebp]
	jmp	$LN33@insert
; Line 732
	jmp	SHORT $LN6@insert
$LN7@insert:
; Line 733
	mov	eax, DWORD PTR __Val$[ebp]
	push	eax
	lea	ecx, DWORD PTR __Where$[ebp]
	call	?_Mynode@const_iterator@?$_Tree@V?$_Tmap_traits@IIU?$less@I@std@@V?$allocator@U?$pair@$$CBII@std@@@2@$0A@@std@@@std@@QBEPAU_Node@?$_Tree_nod@V?$_Tmap_traits@IIU?$less@I@std@@V?$allocator@U?$pair@$$CBII@std@@@2@$0A@@std@@@3@XZ ; std::_Tree<std::_Tmap_traits<unsigned int,unsigned int,std::less<unsigned int>,std::allocator<std::pair<unsigned int const ,unsigned int> >,0> >::const_iterator::_Mynode
	push	eax
	push	1
	mov	ecx, DWORD PTR ___$ReturnUdt$[ebp]
	push	ecx
	mov	ecx, DWORD PTR _this$[ebp]
	call	?_Insert@?$_Tree@V?$_Tmap_traits@IIU?$less@I@std@@V?$allocator@U?$pair@$$CBII@std@@@2@$0A@@std@@@std@@IAE?AViterator@12@_NPAU_Node@?$_Tree_nod@V?$_Tmap_traits@IIU?$less@I@std@@V?$allocator@U?$pair@$$CBII@std@@@2@$0A@@std@@@2@ABU?$pair@$$CBII@2@@Z ; std::_Tree<std::_Tmap_traits<unsigned int,unsigned int,std::less<unsigned int>,std::allocator<std::pair<unsigned int const ,unsigned int> >,0> >::_Insert
	mov	eax, DWORD PTR ___$ReturnUdt$[ebp]
	jmp	$LN33@insert
$LN6@insert:
; Line 735
	jmp	$LN31@insert
$LN8@insert:
; Line 738
	mov	edx, DWORD PTR __Val$[ebp]
	push	edx
	call	?_Kfn@?$_Tmap_traits@IIU?$less@I@std@@V?$allocator@U?$pair@$$CBII@std@@@2@$0A@@std@@SAABIABU?$pair@$$CBII@2@@Z ; std::_Tmap_traits<unsigned int,unsigned int,std::less<unsigned int>,std::allocator<std::pair<unsigned int const ,unsigned int> >,0>::_Kfn
	add	esp, 4
	push	eax
	lea	ecx, DWORD PTR __Where$[ebp]
	call	?_Mynode@const_iterator@?$_Tree@V?$_Tmap_traits@IIU?$less@I@std@@V?$allocator@U?$pair@$$CBII@std@@@2@$0A@@std@@@std@@QBEPAU_Node@?$_Tree_nod@V?$_Tmap_traits@IIU?$less@I@std@@V?$allocator@U?$pair@$$CBII@std@@@2@$0A@@std@@@3@XZ ; std::_Tree<std::_Tmap_traits<unsigned int,unsigned int,std::less<unsigned int>,std::allocator<std::pair<unsigned int const ,unsigned int> >,0> >::const_iterator::_Mynode
	push	eax
	call	?_Key@?$_Tree@V?$_Tmap_traits@IIU?$less@I@std@@V?$allocator@U?$pair@$$CBII@std@@@2@$0A@@std@@@std@@KAABIPAU_Node@?$_Tree_nod@V?$_Tmap_traits@IIU?$less@I@std@@V?$allocator@U?$pair@$$CBII@std@@@2@$0A@@std@@@2@@Z ; std::_Tree<std::_Tmap_traits<unsigned int,unsigned int,std::less<unsigned int>,std::allocator<std::pair<unsigned int const ,unsigned int> >,0> >::_Key
	add	esp, 4
	push	eax
	mov	ecx, DWORD PTR _this$[ebp]
	add	ecx, 8
	call	??R?$less@I@std@@QBE_NABI0@Z		; std::less<unsigned int>::operator()
	movzx	eax, al
	test	eax, eax
	je	$LN31@insert
	mov	ecx, DWORD PTR __Where$[ebp]
	mov	DWORD PTR __Next$[ebp], ecx
	mov	edx, DWORD PTR __Where$[ebp+4]
	mov	DWORD PTR __Next$[ebp+4], edx
	lea	eax, DWORD PTR $T149685[ebp]
	push	eax
	mov	ecx, DWORD PTR _this$[ebp]
	call	?end@?$_Tree@V?$_Tmap_traits@IIU?$less@I@std@@V?$allocator@U?$pair@$$CBII@std@@@2@$0A@@std@@@std@@QAE?AViterator@12@XZ ; std::_Tree<std::_Tmap_traits<unsigned int,unsigned int,std::less<unsigned int>,std::allocator<std::pair<unsigned int const ,unsigned int> >,0> >::end
	push	eax
	lea	ecx, DWORD PTR __Next$[ebp]
	call	??Econst_iterator@?$_Tree@V?$_Tmap_traits@IIU?$less@I@std@@V?$allocator@U?$pair@$$CBII@std@@@2@$0A@@std@@@std@@QAEAAV012@XZ ; std::_Tree<std::_Tmap_traits<unsigned int,unsigned int,std::less<unsigned int>,std::allocator<std::pair<unsigned int const ,unsigned int> >,0> >::const_iterator::operator++
	mov	ecx, eax
	call	??8const_iterator@?$_Tree@V?$_Tmap_traits@IIU?$less@I@std@@V?$allocator@U?$pair@$$CBII@std@@@2@$0A@@std@@@std@@QBE_NABV012@@Z ; std::_Tree<std::_Tmap_traits<unsigned int,unsigned int,std::less<unsigned int>,std::allocator<std::pair<unsigned int const ,unsigned int> >,0> >::const_iterator::operator==
	movzx	ecx, al
	test	ecx, ecx
	jne	SHORT $LN3@insert
	lea	ecx, DWORD PTR __Next$[ebp]
	call	?_Mynode@const_iterator@?$_Tree@V?$_Tmap_traits@IIU?$less@I@std@@V?$allocator@U?$pair@$$CBII@std@@@2@$0A@@std@@@std@@QBEPAU_Node@?$_Tree_nod@V?$_Tmap_traits@IIU?$less@I@std@@V?$allocator@U?$pair@$$CBII@std@@@2@$0A@@std@@@3@XZ ; std::_Tree<std::_Tmap_traits<unsigned int,unsigned int,std::less<unsigned int>,std::allocator<std::pair<unsigned int const ,unsigned int> >,0> >::const_iterator::_Mynode
	push	eax
	call	?_Key@?$_Tree@V?$_Tmap_traits@IIU?$less@I@std@@V?$allocator@U?$pair@$$CBII@std@@@2@$0A@@std@@@std@@KAABIPAU_Node@?$_Tree_nod@V?$_Tmap_traits@IIU?$less@I@std@@V?$allocator@U?$pair@$$CBII@std@@@2@$0A@@std@@@2@@Z ; std::_Tree<std::_Tmap_traits<unsigned int,unsigned int,std::less<unsigned int>,std::allocator<std::pair<unsigned int const ,unsigned int> >,0> >::_Key
	add	esp, 4
	push	eax
	mov	edx, DWORD PTR __Val$[ebp]
	push	edx
	call	?_Kfn@?$_Tmap_traits@IIU?$less@I@std@@V?$allocator@U?$pair@$$CBII@std@@@2@$0A@@std@@SAABIABU?$pair@$$CBII@2@@Z ; std::_Tmap_traits<unsigned int,unsigned int,std::less<unsigned int>,std::allocator<std::pair<unsigned int const ,unsigned int> >,0>::_Kfn
	add	esp, 4
	push	eax
	mov	ecx, DWORD PTR _this$[ebp]
	add	ecx, 8
	call	??R?$less@I@std@@QBE_NABI0@Z		; std::less<unsigned int>::operator()
	movzx	eax, al
	test	eax, eax
	je	SHORT $LN31@insert
$LN3@insert:
; Line 741
	lea	ecx, DWORD PTR __Where$[ebp]
	call	?_Mynode@const_iterator@?$_Tree@V?$_Tmap_traits@IIU?$less@I@std@@V?$allocator@U?$pair@$$CBII@std@@@2@$0A@@std@@@std@@QBEPAU_Node@?$_Tree_nod@V?$_Tmap_traits@IIU?$less@I@std@@V?$allocator@U?$pair@$$CBII@std@@@2@$0A@@std@@@3@XZ ; std::_Tree<std::_Tmap_traits<unsigned int,unsigned int,std::less<unsigned int>,std::allocator<std::pair<unsigned int const ,unsigned int> >,0> >::const_iterator::_Mynode
	push	eax
	call	?_Right@?$_Tree@V?$_Tmap_traits@IIU?$less@I@std@@V?$allocator@U?$pair@$$CBII@std@@@2@$0A@@std@@@std@@KAAAPAU_Node@?$_Tree_nod@V?$_Tmap_traits@IIU?$less@I@std@@V?$allocator@U?$pair@$$CBII@std@@@2@$0A@@std@@@2@PAU342@@Z ; std::_Tree<std::_Tmap_traits<unsigned int,unsigned int,std::less<unsigned int>,std::allocator<std::pair<unsigned int const ,unsigned int> >,0> >::_Right
	add	esp, 4
	mov	ecx, DWORD PTR [eax]
	push	ecx
	call	?_Isnil@?$_Tree@V?$_Tmap_traits@IIU?$less@I@std@@V?$allocator@U?$pair@$$CBII@std@@@2@$0A@@std@@@std@@KAAADPAU_Node@?$_Tree_nod@V?$_Tmap_traits@IIU?$less@I@std@@V?$allocator@U?$pair@$$CBII@std@@@2@$0A@@std@@@2@@Z ; std::_Tree<std::_Tmap_traits<unsigned int,unsigned int,std::less<unsigned int>,std::allocator<std::pair<unsigned int const ,unsigned int> >,0> >::_Isnil
	add	esp, 4
	movsx	edx, BYTE PTR [eax]
	test	edx, edx
	je	SHORT $LN2@insert
; Line 742
	mov	eax, DWORD PTR __Val$[ebp]
	push	eax
	lea	ecx, DWORD PTR __Where$[ebp]
	call	?_Mynode@const_iterator@?$_Tree@V?$_Tmap_traits@IIU?$less@I@std@@V?$allocator@U?$pair@$$CBII@std@@@2@$0A@@std@@@std@@QBEPAU_Node@?$_Tree_nod@V?$_Tmap_traits@IIU?$less@I@std@@V?$allocator@U?$pair@$$CBII@std@@@2@$0A@@std@@@3@XZ ; std::_Tree<std::_Tmap_traits<unsigned int,unsigned int,std::less<unsigned int>,std::allocator<std::pair<unsigned int const ,unsigned int> >,0> >::const_iterator::_Mynode
	push	eax
	push	0
	mov	ecx, DWORD PTR ___$ReturnUdt$[ebp]
	push	ecx
	mov	ecx, DWORD PTR _this$[ebp]
	call	?_Insert@?$_Tree@V?$_Tmap_traits@IIU?$less@I@std@@V?$allocator@U?$pair@$$CBII@std@@@2@$0A@@std@@@std@@IAE?AViterator@12@_NPAU_Node@?$_Tree_nod@V?$_Tmap_traits@IIU?$less@I@std@@V?$allocator@U?$pair@$$CBII@std@@@2@$0A@@std@@@2@ABU?$pair@$$CBII@2@@Z ; std::_Tree<std::_Tmap_traits<unsigned int,unsigned int,std::less<unsigned int>,std::allocator<std::pair<unsigned int const ,unsigned int> >,0> >::_Insert
	mov	eax, DWORD PTR ___$ReturnUdt$[ebp]
	jmp	SHORT $LN33@insert
; Line 743
	jmp	SHORT $LN31@insert
$LN2@insert:
; Line 744
	mov	edx, DWORD PTR __Val$[ebp]
	push	edx
	lea	ecx, DWORD PTR __Next$[ebp]
	call	?_Mynode@const_iterator@?$_Tree@V?$_Tmap_traits@IIU?$less@I@std@@V?$allocator@U?$pair@$$CBII@std@@@2@$0A@@std@@@std@@QBEPAU_Node@?$_Tree_nod@V?$_Tmap_traits@IIU?$less@I@std@@V?$allocator@U?$pair@$$CBII@std@@@2@$0A@@std@@@3@XZ ; std::_Tree<std::_Tmap_traits<unsigned int,unsigned int,std::less<unsigned int>,std::allocator<std::pair<unsigned int const ,unsigned int> >,0> >::const_iterator::_Mynode
	push	eax
	push	1
	mov	eax, DWORD PTR ___$ReturnUdt$[ebp]
	push	eax
	mov	ecx, DWORD PTR _this$[ebp]
	call	?_Insert@?$_Tree@V?$_Tmap_traits@IIU?$less@I@std@@V?$allocator@U?$pair@$$CBII@std@@@2@$0A@@std@@@std@@IAE?AViterator@12@_NPAU_Node@?$_Tree_nod@V?$_Tmap_traits@IIU?$less@I@std@@V?$allocator@U?$pair@$$CBII@std@@@2@$0A@@std@@@2@ABU?$pair@$$CBII@2@@Z ; std::_Tree<std::_Tmap_traits<unsigned int,unsigned int,std::less<unsigned int>,std::allocator<std::pair<unsigned int const ,unsigned int> >,0> >::_Insert
	mov	eax, DWORD PTR ___$ReturnUdt$[ebp]
	jmp	SHORT $LN33@insert
$LN31@insert:
; Line 748
	mov	ecx, DWORD PTR __Val$[ebp]
	push	ecx
	lea	edx, DWORD PTR $T149686[ebp]
	push	edx
	mov	ecx, DWORD PTR _this$[ebp]
	call	?insert@?$_Tree@V?$_Tmap_traits@IIU?$less@I@std@@V?$allocator@U?$pair@$$CBII@std@@@2@$0A@@std@@@std@@QAE?AU?$pair@Viterator@?$_Tree@V?$_Tmap_traits@IIU?$less@I@std@@V?$allocator@U?$pair@$$CBII@std@@@2@$0A@@std@@@std@@_N@2@ABU?$pair@$$CBII@2@@Z ; std::_Tree<std::_Tmap_traits<unsigned int,unsigned int,std::less<unsigned int>,std::allocator<std::pair<unsigned int const ,unsigned int> >,0> >::insert
	mov	ecx, DWORD PTR [eax]
	mov	edx, DWORD PTR [eax+4]
	mov	eax, DWORD PTR ___$ReturnUdt$[ebp]
	mov	DWORD PTR [eax], ecx
	mov	DWORD PTR [eax+4], edx
	mov	eax, DWORD PTR ___$ReturnUdt$[ebp]
$LN33@insert:
; Line 749
	mov	esp, ebp
	pop	ebp
	ret	16					; 00000010H
?insert@?$_Tree@V?$_Tmap_traits@IIU?$less@I@std@@V?$allocator@U?$pair@$$CBII@std@@@2@$0A@@std@@@std@@QAE?AViterator@12@Vconst_iterator@12@ABU?$pair@$$CBII@2@@Z ENDP ; std::_Tree<std::_Tmap_traits<unsigned int,unsigned int,std::less<unsigned int>,std::allocator<std::pair<unsigned int const ,unsigned int> >,0> >::insert
_TEXT	ENDS
PUBLIC	?_Lbound@?$_Tree@V?$_Tmap_traits@IIU?$less@I@std@@V?$allocator@U?$pair@$$CBII@std@@@2@$0A@@std@@@std@@IBEPAU_Node@?$_Tree_nod@V?$_Tmap_traits@IIU?$less@I@std@@V?$allocator@U?$pair@$$CBII@std@@@2@$0A@@std@@@2@ABI@Z ; std::_Tree<std::_Tmap_traits<unsigned int,unsigned int,std::less<unsigned int>,std::allocator<std::pair<unsigned int const ,unsigned int> >,0> >::_Lbound
; Function compile flags: /Odtp
;	COMDAT ?lower_bound@?$_Tree@V?$_Tmap_traits@IIU?$less@I@std@@V?$allocator@U?$pair@$$CBII@std@@@2@$0A@@std@@@std@@QAE?AViterator@12@ABI@Z
_TEXT	SEGMENT
_this$ = -4						; size = 4
___$ReturnUdt$ = 8					; size = 4
__Keyval$ = 12						; size = 4
?lower_bound@?$_Tree@V?$_Tmap_traits@IIU?$less@I@std@@V?$allocator@U?$pair@$$CBII@std@@@2@$0A@@std@@@std@@QAE?AViterator@12@ABI@Z PROC ; std::_Tree<std::_Tmap_traits<unsigned int,unsigned int,std::less<unsigned int>,std::allocator<std::pair<unsigned int const ,unsigned int> >,0> >::lower_bound, COMDAT
; _this$ = ecx
; Line 1003
	push	ebp
	mov	ebp, esp
	push	ecx
	mov	DWORD PTR _this$[ebp], ecx
; Line 1004
	mov	eax, DWORD PTR _this$[ebp]
	push	eax
	mov	ecx, DWORD PTR __Keyval$[ebp]
	push	ecx
	mov	ecx, DWORD PTR _this$[ebp]
	call	?_Lbound@?$_Tree@V?$_Tmap_traits@IIU?$less@I@std@@V?$allocator@U?$pair@$$CBII@std@@@2@$0A@@std@@@std@@IBEPAU_Node@?$_Tree_nod@V?$_Tmap_traits@IIU?$less@I@std@@V?$allocator@U?$pair@$$CBII@std@@@2@$0A@@std@@@2@ABI@Z ; std::_Tree<std::_Tmap_traits<unsigned int,unsigned int,std::less<unsigned int>,std::allocator<std::pair<unsigned int const ,unsigned int> >,0> >::_Lbound
	push	eax
	mov	ecx, DWORD PTR ___$ReturnUdt$[ebp]
	call	??0iterator@?$_Tree@V?$_Tmap_traits@IIU?$less@I@std@@V?$allocator@U?$pair@$$CBII@std@@@2@$0A@@std@@@std@@QAE@PAU_Node@?$_Tree_nod@V?$_Tmap_traits@IIU?$less@I@std@@V?$allocator@U?$pair@$$CBII@std@@@2@$0A@@std@@@2@PBV12@@Z ; std::_Tree<std::_Tmap_traits<unsigned int,unsigned int,std::less<unsigned int>,std::allocator<std::pair<unsigned int const ,unsigned int> >,0> >::iterator::iterator
	mov	eax, DWORD PTR ___$ReturnUdt$[ebp]
; Line 1005
	mov	esp, ebp
	pop	ebp
	ret	8
?lower_bound@?$_Tree@V?$_Tmap_traits@IIU?$less@I@std@@V?$allocator@U?$pair@$$CBII@std@@@2@$0A@@std@@@std@@QAE?AViterator@12@ABI@Z ENDP ; std::_Tree<std::_Tmap_traits<unsigned int,unsigned int,std::less<unsigned int>,std::allocator<std::pair<unsigned int const ,unsigned int> >,0> >::lower_bound
_TEXT	ENDS
PUBLIC	?deallocate@?$allocator@U_Node@?$_Tree_nod@V?$_Tmap_traits@IIU?$less@I@std@@V?$allocator@U?$pair@$$CBII@std@@@2@$0A@@std@@@std@@@std@@QAEXPAU_Node@?$_Tree_nod@V?$_Tmap_traits@IIU?$less@I@std@@V?$allocator@U?$pair@$$CBII@std@@@2@$0A@@std@@@2@I@Z ; std::allocator<std::_Tree_nod<std::_Tmap_traits<unsigned int,unsigned int,std::less<unsigned int>,std::allocator<std::pair<unsigned int const ,unsigned int> >,0> >::_Node>::deallocate
PUBLIC	?destroy@?$allocator@U_Node@?$_Tree_nod@V?$_Tmap_traits@IIU?$less@I@std@@V?$allocator@U?$pair@$$CBII@std@@@2@$0A@@std@@@std@@@std@@QAEXPAU_Node@?$_Tree_nod@V?$_Tmap_traits@IIU?$less@I@std@@V?$allocator@U?$pair@$$CBII@std@@@2@$0A@@std@@@2@@Z ; std::allocator<std::_Tree_nod<std::_Tmap_traits<unsigned int,unsigned int,std::less<unsigned int>,std::allocator<std::pair<unsigned int const ,unsigned int> >,0> >::_Node>::destroy
PUBLIC	?_Left@?$_Tree@V?$_Tmap_traits@IIU?$less@I@std@@V?$allocator@U?$pair@$$CBII@std@@@2@$0A@@std@@@std@@KAAAPAU_Node@?$_Tree_nod@V?$_Tmap_traits@IIU?$less@I@std@@V?$allocator@U?$pair@$$CBII@std@@@2@$0A@@std@@@2@PAU342@@Z ; std::_Tree<std::_Tmap_traits<unsigned int,unsigned int,std::less<unsigned int>,std::allocator<std::pair<unsigned int const ,unsigned int> >,0> >::_Left
; Function compile flags: /Odtp
;	COMDAT ?_Erase@?$_Tree@V?$_Tmap_traits@IIU?$less@I@std@@V?$allocator@U?$pair@$$CBII@std@@@2@$0A@@std@@@std@@IAEXPAU_Node@?$_Tree_nod@V?$_Tmap_traits@IIU?$less@I@std@@V?$allocator@U?$pair@$$CBII@std@@@2@$0A@@std@@@2@@Z
_TEXT	SEGMENT
_this$ = -8						; size = 4
__Pnode$145606 = -4					; size = 4
__Rootnode$ = 8						; size = 4
?_Erase@?$_Tree@V?$_Tmap_traits@IIU?$less@I@std@@V?$allocator@U?$pair@$$CBII@std@@@2@$0A@@std@@@std@@IAEXPAU_Node@?$_Tree_nod@V?$_Tmap_traits@IIU?$less@I@std@@V?$allocator@U?$pair@$$CBII@std@@@2@$0A@@std@@@2@@Z PROC ; std::_Tree<std::_Tmap_traits<unsigned int,unsigned int,std::less<unsigned int>,std::allocator<std::pair<unsigned int const ,unsigned int> >,0> >::_Erase, COMDAT
; _this$ = ecx
; Line 1166
	push	ebp
	mov	ebp, esp
	sub	esp, 8
	mov	DWORD PTR _this$[ebp], ecx
; Line 1167
	mov	eax, DWORD PTR __Rootnode$[ebp]
	mov	DWORD PTR __Pnode$145606[ebp], eax
	jmp	SHORT $LN3@Erase
$LN2@Erase:
	mov	ecx, DWORD PTR __Pnode$145606[ebp]
	mov	DWORD PTR __Rootnode$[ebp], ecx
$LN3@Erase:
	mov	edx, DWORD PTR __Pnode$145606[ebp]
	push	edx
	call	?_Isnil@?$_Tree@V?$_Tmap_traits@IIU?$less@I@std@@V?$allocator@U?$pair@$$CBII@std@@@2@$0A@@std@@@std@@KAAADPAU_Node@?$_Tree_nod@V?$_Tmap_traits@IIU?$less@I@std@@V?$allocator@U?$pair@$$CBII@std@@@2@$0A@@std@@@2@@Z ; std::_Tree<std::_Tmap_traits<unsigned int,unsigned int,std::less<unsigned int>,std::allocator<std::pair<unsigned int const ,unsigned int> >,0> >::_Isnil
	add	esp, 4
	movsx	eax, BYTE PTR [eax]
	test	eax, eax
	jne	SHORT $LN4@Erase
; Line 1169
	mov	ecx, DWORD PTR __Pnode$145606[ebp]
	push	ecx
	call	?_Right@?$_Tree@V?$_Tmap_traits@IIU?$less@I@std@@V?$allocator@U?$pair@$$CBII@std@@@2@$0A@@std@@@std@@KAAAPAU_Node@?$_Tree_nod@V?$_Tmap_traits@IIU?$less@I@std@@V?$allocator@U?$pair@$$CBII@std@@@2@$0A@@std@@@2@PAU342@@Z ; std::_Tree<std::_Tmap_traits<unsigned int,unsigned int,std::less<unsigned int>,std::allocator<std::pair<unsigned int const ,unsigned int> >,0> >::_Right
	add	esp, 4
	mov	edx, DWORD PTR [eax]
	push	edx
	mov	ecx, DWORD PTR _this$[ebp]
	call	?_Erase@?$_Tree@V?$_Tmap_traits@IIU?$less@I@std@@V?$allocator@U?$pair@$$CBII@std@@@2@$0A@@std@@@std@@IAEXPAU_Node@?$_Tree_nod@V?$_Tmap_traits@IIU?$less@I@std@@V?$allocator@U?$pair@$$CBII@std@@@2@$0A@@std@@@2@@Z ; std::_Tree<std::_Tmap_traits<unsigned int,unsigned int,std::less<unsigned int>,std::allocator<std::pair<unsigned int const ,unsigned int> >,0> >::_Erase
; Line 1170
	mov	eax, DWORD PTR __Pnode$145606[ebp]
	push	eax
	call	?_Left@?$_Tree@V?$_Tmap_traits@IIU?$less@I@std@@V?$allocator@U?$pair@$$CBII@std@@@2@$0A@@std@@@std@@KAAAPAU_Node@?$_Tree_nod@V?$_Tmap_traits@IIU?$less@I@std@@V?$allocator@U?$pair@$$CBII@std@@@2@$0A@@std@@@2@PAU342@@Z ; std::_Tree<std::_Tmap_traits<unsigned int,unsigned int,std::less<unsigned int>,std::allocator<std::pair<unsigned int const ,unsigned int> >,0> >::_Left
	add	esp, 4
	mov	ecx, DWORD PTR [eax]
	mov	DWORD PTR __Pnode$145606[ebp], ecx
; Line 1171
	mov	edx, DWORD PTR __Rootnode$[ebp]
	push	edx
	mov	ecx, DWORD PTR _this$[ebp]
	add	ecx, 12					; 0000000cH
	call	?destroy@?$allocator@U_Node@?$_Tree_nod@V?$_Tmap_traits@IIU?$less@I@std@@V?$allocator@U?$pair@$$CBII@std@@@2@$0A@@std@@@std@@@std@@QAEXPAU_Node@?$_Tree_nod@V?$_Tmap_traits@IIU?$less@I@std@@V?$allocator@U?$pair@$$CBII@std@@@2@$0A@@std@@@2@@Z ; std::allocator<std::_Tree_nod<std::_Tmap_traits<unsigned int,unsigned int,std::less<unsigned int>,std::allocator<std::pair<unsigned int const ,unsigned int> >,0> >::_Node>::destroy
; Line 1172
	push	1
	mov	eax, DWORD PTR __Rootnode$[ebp]
	push	eax
	mov	ecx, DWORD PTR _this$[ebp]
	add	ecx, 12					; 0000000cH
	call	?deallocate@?$allocator@U_Node@?$_Tree_nod@V?$_Tmap_traits@IIU?$less@I@std@@V?$allocator@U?$pair@$$CBII@std@@@2@$0A@@std@@@std@@@std@@QAEXPAU_Node@?$_Tree_nod@V?$_Tmap_traits@IIU?$less@I@std@@V?$allocator@U?$pair@$$CBII@std@@@2@$0A@@std@@@2@I@Z ; std::allocator<std::_Tree_nod<std::_Tmap_traits<unsigned int,unsigned int,std::less<unsigned int>,std::allocator<std::pair<unsigned int const ,unsigned int> >,0> >::_Node>::deallocate
; Line 1173
	jmp	SHORT $LN2@Erase
$LN4@Erase:
; Line 1174
	mov	esp, ebp
	pop	ebp
	ret	4
?_Erase@?$_Tree@V?$_Tmap_traits@IIU?$less@I@std@@V?$allocator@U?$pair@$$CBII@std@@@2@$0A@@std@@@std@@IAEXPAU_Node@?$_Tree_nod@V?$_Tmap_traits@IIU?$less@I@std@@V?$allocator@U?$pair@$$CBII@std@@@2@$0A@@std@@@2@@Z ENDP ; std::_Tree<std::_Tmap_traits<unsigned int,unsigned int,std::less<unsigned int>,std::allocator<std::pair<unsigned int const ,unsigned int> >,0> >::_Erase
; Function compile flags: /Odtp
_TEXT	ENDS
;	COMDAT ?_Lmost@?$_Tree@V?$_Tmap_traits@IIU?$less@I@std@@V?$allocator@U?$pair@$$CBII@std@@@2@$0A@@std@@@std@@IBEAAPAU_Node@?$_Tree_nod@V?$_Tmap_traits@IIU?$less@I@std@@V?$allocator@U?$pair@$$CBII@std@@@2@$0A@@std@@@2@XZ
_TEXT	SEGMENT
_this$ = -4						; size = 4
?_Lmost@?$_Tree@V?$_Tmap_traits@IIU?$less@I@std@@V?$allocator@U?$pair@$$CBII@std@@@2@$0A@@std@@@std@@IBEAAPAU_Node@?$_Tree_nod@V?$_Tmap_traits@IIU?$less@I@std@@V?$allocator@U?$pair@$$CBII@std@@@2@$0A@@std@@@2@XZ PROC ; std::_Tree<std::_Tmap_traits<unsigned int,unsigned int,std::less<unsigned int>,std::allocator<std::pair<unsigned int const ,unsigned int> >,0> >::_Lmost, COMDAT
; _this$ = ecx
; Line 1280
	push	ebp
	mov	ebp, esp
	push	ecx
	mov	DWORD PTR _this$[ebp], ecx
; Line 1281
	mov	eax, DWORD PTR _this$[ebp]
	mov	ecx, DWORD PTR [eax+24]
	push	ecx
	call	?_Left@?$_Tree@V?$_Tmap_traits@IIU?$less@I@std@@V?$allocator@U?$pair@$$CBII@std@@@2@$0A@@std@@@std@@KAAAPAU_Node@?$_Tree_nod@V?$_Tmap_traits@IIU?$less@I@std@@V?$allocator@U?$pair@$$CBII@std@@@2@$0A@@std@@@2@PAU342@@Z ; std::_Tree<std::_Tmap_traits<unsigned int,unsigned int,std::less<unsigned int>,std::allocator<std::pair<unsigned int const ,unsigned int> >,0> >::_Left
	add	esp, 4
; Line 1282
	mov	esp, ebp
	pop	ebp
	ret	0
?_Lmost@?$_Tree@V?$_Tmap_traits@IIU?$less@I@std@@V?$allocator@U?$pair@$$CBII@std@@@2@$0A@@std@@@std@@IBEAAPAU_Node@?$_Tree_nod@V?$_Tmap_traits@IIU?$less@I@std@@V?$allocator@U?$pair@$$CBII@std@@@2@$0A@@std@@@2@XZ ENDP ; std::_Tree<std::_Tmap_traits<unsigned int,unsigned int,std::less<unsigned int>,std::allocator<std::pair<unsigned int const ,unsigned int> >,0> >::_Lmost
; Function compile flags: /Odtp
_TEXT	ENDS
;	COMDAT ?_Rmost@?$_Tree@V?$_Tmap_traits@IIU?$less@I@std@@V?$allocator@U?$pair@$$CBII@std@@@2@$0A@@std@@@std@@IBEAAPAU_Node@?$_Tree_nod@V?$_Tmap_traits@IIU?$less@I@std@@V?$allocator@U?$pair@$$CBII@std@@@2@$0A@@std@@@2@XZ
_TEXT	SEGMENT
_this$ = -4						; size = 4
?_Rmost@?$_Tree@V?$_Tmap_traits@IIU?$less@I@std@@V?$allocator@U?$pair@$$CBII@std@@@2@$0A@@std@@@std@@IBEAAPAU_Node@?$_Tree_nod@V?$_Tmap_traits@IIU?$less@I@std@@V?$allocator@U?$pair@$$CBII@std@@@2@$0A@@std@@@2@XZ PROC ; std::_Tree<std::_Tmap_traits<unsigned int,unsigned int,std::less<unsigned int>,std::allocator<std::pair<unsigned int const ,unsigned int> >,0> >::_Rmost, COMDAT
; _this$ = ecx
; Line 1319
	push	ebp
	mov	ebp, esp
	push	ecx
	mov	DWORD PTR _this$[ebp], ecx
; Line 1320
	mov	eax, DWORD PTR _this$[ebp]
	mov	ecx, DWORD PTR [eax+24]
	push	ecx
	call	?_Right@?$_Tree@V?$_Tmap_traits@IIU?$less@I@std@@V?$allocator@U?$pair@$$CBII@std@@@2@$0A@@std@@@std@@KAAAPAU_Node@?$_Tree_nod@V?$_Tmap_traits@IIU?$less@I@std@@V?$allocator@U?$pair@$$CBII@std@@@2@$0A@@std@@@2@PAU342@@Z ; std::_Tree<std::_Tmap_traits<unsigned int,unsigned int,std::less<unsigned int>,std::allocator<std::pair<unsigned int const ,unsigned int> >,0> >::_Right
	add	esp, 4
; Line 1321
	mov	esp, ebp
	pop	ebp
	ret	0
?_Rmost@?$_Tree@V?$_Tmap_traits@IIU?$less@I@std@@V?$allocator@U?$pair@$$CBII@std@@@2@$0A@@std@@@std@@IBEAAPAU_Node@?$_Tree_nod@V?$_Tmap_traits@IIU?$less@I@std@@V?$allocator@U?$pair@$$CBII@std@@@2@$0A@@std@@@2@XZ ENDP ; std::_Tree<std::_Tmap_traits<unsigned int,unsigned int,std::less<unsigned int>,std::allocator<std::pair<unsigned int const ,unsigned int> >,0> >::_Rmost
_TEXT	ENDS
PUBLIC	?_Parent@?$_Tree@V?$_Tmap_traits@IIU?$less@I@std@@V?$allocator@U?$pair@$$CBII@std@@@2@$0A@@std@@@std@@KAAAPAU_Node@?$_Tree_nod@V?$_Tmap_traits@IIU?$less@I@std@@V?$allocator@U?$pair@$$CBII@std@@@2@$0A@@std@@@2@PAU342@@Z ; std::_Tree<std::_Tmap_traits<unsigned int,unsigned int,std::less<unsigned int>,std::allocator<std::pair<unsigned int const ,unsigned int> >,0> >::_Parent
; Function compile flags: /Odtp
;	COMDAT ?_Root@?$_Tree@V?$_Tmap_traits@IIU?$less@I@std@@V?$allocator@U?$pair@$$CBII@std@@@2@$0A@@std@@@std@@IBEAAPAU_Node@?$_Tree_nod@V?$_Tmap_traits@IIU?$less@I@std@@V?$allocator@U?$pair@$$CBII@std@@@2@$0A@@std@@@2@XZ
_TEXT	SEGMENT
_this$ = -4						; size = 4
?_Root@?$_Tree@V?$_Tmap_traits@IIU?$less@I@std@@V?$allocator@U?$pair@$$CBII@std@@@2@$0A@@std@@@std@@IBEAAPAU_Node@?$_Tree_nod@V?$_Tmap_traits@IIU?$less@I@std@@V?$allocator@U?$pair@$$CBII@std@@@2@$0A@@std@@@2@XZ PROC ; std::_Tree<std::_Tmap_traits<unsigned int,unsigned int,std::less<unsigned int>,std::allocator<std::pair<unsigned int const ,unsigned int> >,0> >::_Root, COMDAT
; _this$ = ecx
; Line 1324
	push	ebp
	mov	ebp, esp
	push	ecx
	mov	DWORD PTR _this$[ebp], ecx
; Line 1325
	mov	eax, DWORD PTR _this$[ebp]
	mov	ecx, DWORD PTR [eax+24]
	push	ecx
