; Listing generated by Microsoft (R) Optimizing Compiler Version 15.00.30729.01 

	TITLE	g:\Max\Bastelstube\FL\FLHook Source\flhookplugin_MoD\plugins\playercntl_plugin\src\Givecash.cpp
	.686P
	.XMM
	include listing.inc
	.model	flat

INCLUDELIB MSVCRT
INCLUDELIB OLDNAMES

PUBLIC	?_Value@?$_Is_swap_move@U_Swap_move_tag@std@@@std@@2_NB ; std::_Is_swap_move<std::_Swap_move_tag>::_Value
PUBLIC	?collate@?$_Locbase@H@std@@2HB			; std::_Locbase<int>::collate
PUBLIC	?ctype@?$_Locbase@H@std@@2HB			; std::_Locbase<int>::ctype
PUBLIC	?monetary@?$_Locbase@H@std@@2HB			; std::_Locbase<int>::monetary
PUBLIC	?numeric@?$_Locbase@H@std@@2HB			; std::_Locbase<int>::numeric
PUBLIC	?time@?$_Locbase@H@std@@2HB			; std::_Locbase<int>::time
PUBLIC	?messages@?$_Locbase@H@std@@2HB			; std::_Locbase<int>::messages
PUBLIC	?all@?$_Locbase@H@std@@2HB			; std::_Locbase<int>::all
PUBLIC	?none@?$_Locbase@H@std@@2HB			; std::_Locbase<int>::none
PUBLIC	?skipws@?$_Iosb@H@std@@2W4_Fmtflags@12@B	; std::_Iosb<int>::skipws
PUBLIC	?unitbuf@?$_Iosb@H@std@@2W4_Fmtflags@12@B	; std::_Iosb<int>::unitbuf
PUBLIC	?uppercase@?$_Iosb@H@std@@2W4_Fmtflags@12@B	; std::_Iosb<int>::uppercase
PUBLIC	?showbase@?$_Iosb@H@std@@2W4_Fmtflags@12@B	; std::_Iosb<int>::showbase
PUBLIC	?showpoint@?$_Iosb@H@std@@2W4_Fmtflags@12@B	; std::_Iosb<int>::showpoint
PUBLIC	?showpos@?$_Iosb@H@std@@2W4_Fmtflags@12@B	; std::_Iosb<int>::showpos
PUBLIC	?left@?$_Iosb@H@std@@2W4_Fmtflags@12@B		; std::_Iosb<int>::left
PUBLIC	?right@?$_Iosb@H@std@@2W4_Fmtflags@12@B		; std::_Iosb<int>::right
PUBLIC	?internal@?$_Iosb@H@std@@2W4_Fmtflags@12@B	; std::_Iosb<int>::internal
PUBLIC	?dec@?$_Iosb@H@std@@2W4_Fmtflags@12@B		; std::_Iosb<int>::dec
PUBLIC	?oct@?$_Iosb@H@std@@2W4_Fmtflags@12@B		; std::_Iosb<int>::oct
PUBLIC	?hex@?$_Iosb@H@std@@2W4_Fmtflags@12@B		; std::_Iosb<int>::hex
PUBLIC	?scientific@?$_Iosb@H@std@@2W4_Fmtflags@12@B	; std::_Iosb<int>::scientific
PUBLIC	?fixed@?$_Iosb@H@std@@2W4_Fmtflags@12@B		; std::_Iosb<int>::fixed
PUBLIC	?hexfloat@?$_Iosb@H@std@@2W4_Fmtflags@12@B	; std::_Iosb<int>::hexfloat
PUBLIC	?boolalpha@?$_Iosb@H@std@@2W4_Fmtflags@12@B	; std::_Iosb<int>::boolalpha
PUBLIC	?_Stdio@?$_Iosb@H@std@@2W4_Fmtflags@12@B	; std::_Iosb<int>::_Stdio
PUBLIC	?adjustfield@?$_Iosb@H@std@@2W4_Fmtflags@12@B	; std::_Iosb<int>::adjustfield
PUBLIC	?basefield@?$_Iosb@H@std@@2W4_Fmtflags@12@B	; std::_Iosb<int>::basefield
PUBLIC	?floatfield@?$_Iosb@H@std@@2W4_Fmtflags@12@B	; std::_Iosb<int>::floatfield
PUBLIC	?goodbit@?$_Iosb@H@std@@2W4_Iostate@12@B	; std::_Iosb<int>::goodbit
PUBLIC	?eofbit@?$_Iosb@H@std@@2W4_Iostate@12@B		; std::_Iosb<int>::eofbit
PUBLIC	?failbit@?$_Iosb@H@std@@2W4_Iostate@12@B	; std::_Iosb<int>::failbit
PUBLIC	?badbit@?$_Iosb@H@std@@2W4_Iostate@12@B		; std::_Iosb<int>::badbit
PUBLIC	?_Hardfail@?$_Iosb@H@std@@2W4_Iostate@12@B	; std::_Iosb<int>::_Hardfail
PUBLIC	?in@?$_Iosb@H@std@@2W4_Openmode@12@B		; std::_Iosb<int>::in
PUBLIC	?out@?$_Iosb@H@std@@2W4_Openmode@12@B		; std::_Iosb<int>::out
PUBLIC	?ate@?$_Iosb@H@std@@2W4_Openmode@12@B		; std::_Iosb<int>::ate
PUBLIC	?app@?$_Iosb@H@std@@2W4_Openmode@12@B		; std::_Iosb<int>::app
PUBLIC	?trunc@?$_Iosb@H@std@@2W4_Openmode@12@B		; std::_Iosb<int>::trunc
PUBLIC	?_Nocreate@?$_Iosb@H@std@@2W4_Openmode@12@B	; std::_Iosb<int>::_Nocreate
PUBLIC	?_Noreplace@?$_Iosb@H@std@@2W4_Openmode@12@B	; std::_Iosb<int>::_Noreplace
PUBLIC	?binary@?$_Iosb@H@std@@2W4_Openmode@12@B	; std::_Iosb<int>::binary
PUBLIC	?beg@?$_Iosb@H@std@@2W4_Seekdir@12@B		; std::_Iosb<int>::beg
PUBLIC	?cur@?$_Iosb@H@std@@2W4_Seekdir@12@B		; std::_Iosb<int>::cur
PUBLIC	?end@?$_Iosb@H@std@@2W4_Seekdir@12@B		; std::_Iosb<int>::end
PUBLIC	?value@?$integral_constant@_N$0A@@tr1@std@@2_NB	; std::tr1::integral_constant<bool,0>::value
PUBLIC	?value@?$integral_constant@_N$00@tr1@std@@2_NB	; std::tr1::integral_constant<bool,1>::value
_BSS	SEGMENT
_set_iMinTransfer DD 01H DUP (?)
_set_iBlockedSystem DD 01H DUP (?)
_set_bCheatDetection DB 01H DUP (?)
	ALIGN	4

_set_iMinTime DD 01H DUP (?)
_BSS	ENDS
;	COMDAT ?value@?$integral_constant@_N$00@tr1@std@@2_NB
CONST	SEGMENT
?value@?$integral_constant@_N$00@tr1@std@@2_NB DB 01H	; std::tr1::integral_constant<bool,1>::value
CONST	ENDS
;	COMDAT ?value@?$integral_constant@_N$0A@@tr1@std@@2_NB
CONST	SEGMENT
?value@?$integral_constant@_N$0A@@tr1@std@@2_NB DB 00H	; std::tr1::integral_constant<bool,0>::value
CONST	ENDS
;	COMDAT ?end@?$_Iosb@H@std@@2W4_Seekdir@12@B
CONST	SEGMENT
?end@?$_Iosb@H@std@@2W4_Seekdir@12@B DD 02H		; std::_Iosb<int>::end
CONST	ENDS
;	COMDAT ?cur@?$_Iosb@H@std@@2W4_Seekdir@12@B
CONST	SEGMENT
?cur@?$_Iosb@H@std@@2W4_Seekdir@12@B DD 01H		; std::_Iosb<int>::cur
CONST	ENDS
;	COMDAT ?beg@?$_Iosb@H@std@@2W4_Seekdir@12@B
CONST	SEGMENT
?beg@?$_Iosb@H@std@@2W4_Seekdir@12@B DD 00H		; std::_Iosb<int>::beg
CONST	ENDS
;	COMDAT ?binary@?$_Iosb@H@std@@2W4_Openmode@12@B
CONST	SEGMENT
?binary@?$_Iosb@H@std@@2W4_Openmode@12@B DD 020H	; std::_Iosb<int>::binary
CONST	ENDS
;	COMDAT ?_Noreplace@?$_Iosb@H@std@@2W4_Openmode@12@B
CONST	SEGMENT
?_Noreplace@?$_Iosb@H@std@@2W4_Openmode@12@B DD 080H	; std::_Iosb<int>::_Noreplace
CONST	ENDS
;	COMDAT ?_Nocreate@?$_Iosb@H@std@@2W4_Openmode@12@B
CONST	SEGMENT
?_Nocreate@?$_Iosb@H@std@@2W4_Openmode@12@B DD 040H	; std::_Iosb<int>::_Nocreate
CONST	ENDS
;	COMDAT ?trunc@?$_Iosb@H@std@@2W4_Openmode@12@B
CONST	SEGMENT
?trunc@?$_Iosb@H@std@@2W4_Openmode@12@B DD 010H		; std::_Iosb<int>::trunc
CONST	ENDS
;	COMDAT ?app@?$_Iosb@H@std@@2W4_Openmode@12@B
CONST	SEGMENT
?app@?$_Iosb@H@std@@2W4_Openmode@12@B DD 08H		; std::_Iosb<int>::app
CONST	ENDS
;	COMDAT ?ate@?$_Iosb@H@std@@2W4_Openmode@12@B
CONST	SEGMENT
?ate@?$_Iosb@H@std@@2W4_Openmode@12@B DD 04H		; std::_Iosb<int>::ate
CONST	ENDS
;	COMDAT ?out@?$_Iosb@H@std@@2W4_Openmode@12@B
CONST	SEGMENT
?out@?$_Iosb@H@std@@2W4_Openmode@12@B DD 02H		; std::_Iosb<int>::out
CONST	ENDS
;	COMDAT ?in@?$_Iosb@H@std@@2W4_Openmode@12@B
CONST	SEGMENT
?in@?$_Iosb@H@std@@2W4_Openmode@12@B DD 01H		; std::_Iosb<int>::in
CONST	ENDS
;	COMDAT ?_Hardfail@?$_Iosb@H@std@@2W4_Iostate@12@B
CONST	SEGMENT
?_Hardfail@?$_Iosb@H@std@@2W4_Iostate@12@B DD 010H	; std::_Iosb<int>::_Hardfail
CONST	ENDS
;	COMDAT ?badbit@?$_Iosb@H@std@@2W4_Iostate@12@B
CONST	SEGMENT
?badbit@?$_Iosb@H@std@@2W4_Iostate@12@B DD 04H		; std::_Iosb<int>::badbit
CONST	ENDS
;	COMDAT ?failbit@?$_Iosb@H@std@@2W4_Iostate@12@B
CONST	SEGMENT
?failbit@?$_Iosb@H@std@@2W4_Iostate@12@B DD 02H		; std::_Iosb<int>::failbit
CONST	ENDS
;	COMDAT ?eofbit@?$_Iosb@H@std@@2W4_Iostate@12@B
CONST	SEGMENT
?eofbit@?$_Iosb@H@std@@2W4_Iostate@12@B DD 01H		; std::_Iosb<int>::eofbit
CONST	ENDS
;	COMDAT ?goodbit@?$_Iosb@H@std@@2W4_Iostate@12@B
CONST	SEGMENT
?goodbit@?$_Iosb@H@std@@2W4_Iostate@12@B DD 00H		; std::_Iosb<int>::goodbit
CONST	ENDS
;	COMDAT ?floatfield@?$_Iosb@H@std@@2W4_Fmtflags@12@B
CONST	SEGMENT
?floatfield@?$_Iosb@H@std@@2W4_Fmtflags@12@B DD 03000H	; std::_Iosb<int>::floatfield
CONST	ENDS
;	COMDAT ?basefield@?$_Iosb@H@std@@2W4_Fmtflags@12@B
CONST	SEGMENT
?basefield@?$_Iosb@H@std@@2W4_Fmtflags@12@B DD 0e00H	; std::_Iosb<int>::basefield
CONST	ENDS
;	COMDAT ?adjustfield@?$_Iosb@H@std@@2W4_Fmtflags@12@B
CONST	SEGMENT
?adjustfield@?$_Iosb@H@std@@2W4_Fmtflags@12@B DD 01c0H	; std::_Iosb<int>::adjustfield
CONST	ENDS
;	COMDAT ?_Stdio@?$_Iosb@H@std@@2W4_Fmtflags@12@B
CONST	SEGMENT
?_Stdio@?$_Iosb@H@std@@2W4_Fmtflags@12@B DD 08000H	; std::_Iosb<int>::_Stdio
CONST	ENDS
;	COMDAT ?boolalpha@?$_Iosb@H@std@@2W4_Fmtflags@12@B
CONST	SEGMENT
?boolalpha@?$_Iosb@H@std@@2W4_Fmtflags@12@B DD 04000H	; std::_Iosb<int>::boolalpha
CONST	ENDS
;	COMDAT ?hexfloat@?$_Iosb@H@std@@2W4_Fmtflags@12@B
CONST	SEGMENT
?hexfloat@?$_Iosb@H@std@@2W4_Fmtflags@12@B DD 03000H	; std::_Iosb<int>::hexfloat
CONST	ENDS
;	COMDAT ?fixed@?$_Iosb@H@std@@2W4_Fmtflags@12@B
CONST	SEGMENT
?fixed@?$_Iosb@H@std@@2W4_Fmtflags@12@B DD 02000H	; std::_Iosb<int>::fixed
CONST	ENDS
;	COMDAT ?scientific@?$_Iosb@H@std@@2W4_Fmtflags@12@B
CONST	SEGMENT
?scientific@?$_Iosb@H@std@@2W4_Fmtflags@12@B DD 01000H	; std::_Iosb<int>::scientific
CONST	ENDS
;	COMDAT ?hex@?$_Iosb@H@std@@2W4_Fmtflags@12@B
CONST	SEGMENT
?hex@?$_Iosb@H@std@@2W4_Fmtflags@12@B DD 0800H		; std::_Iosb<int>::hex
CONST	ENDS
;	COMDAT ?oct@?$_Iosb@H@std@@2W4_Fmtflags@12@B
CONST	SEGMENT
?oct@?$_Iosb@H@std@@2W4_Fmtflags@12@B DD 0400H		; std::_Iosb<int>::oct
CONST	ENDS
;	COMDAT ?dec@?$_Iosb@H@std@@2W4_Fmtflags@12@B
CONST	SEGMENT
?dec@?$_Iosb@H@std@@2W4_Fmtflags@12@B DD 0200H		; std::_Iosb<int>::dec
CONST	ENDS
;	COMDAT ?internal@?$_Iosb@H@std@@2W4_Fmtflags@12@B
CONST	SEGMENT
?internal@?$_Iosb@H@std@@2W4_Fmtflags@12@B DD 0100H	; std::_Iosb<int>::internal
CONST	ENDS
;	COMDAT ?right@?$_Iosb@H@std@@2W4_Fmtflags@12@B
CONST	SEGMENT
?right@?$_Iosb@H@std@@2W4_Fmtflags@12@B DD 080H		; std::_Iosb<int>::right
CONST	ENDS
;	COMDAT ?left@?$_Iosb@H@std@@2W4_Fmtflags@12@B
CONST	SEGMENT
?left@?$_Iosb@H@std@@2W4_Fmtflags@12@B DD 040H		; std::_Iosb<int>::left
CONST	ENDS
;	COMDAT ?showpos@?$_Iosb@H@std@@2W4_Fmtflags@12@B
CONST	SEGMENT
?showpos@?$_Iosb@H@std@@2W4_Fmtflags@12@B DD 020H	; std::_Iosb<int>::showpos
CONST	ENDS
;	COMDAT ?showpoint@?$_Iosb@H@std@@2W4_Fmtflags@12@B
CONST	SEGMENT
?showpoint@?$_Iosb@H@std@@2W4_Fmtflags@12@B DD 010H	; std::_Iosb<int>::showpoint
CONST	ENDS
;	COMDAT ?showbase@?$_Iosb@H@std@@2W4_Fmtflags@12@B
CONST	SEGMENT
?showbase@?$_Iosb@H@std@@2W4_Fmtflags@12@B DD 08H	; std::_Iosb<int>::showbase
CONST	ENDS
;	COMDAT ?uppercase@?$_Iosb@H@std@@2W4_Fmtflags@12@B
CONST	SEGMENT
?uppercase@?$_Iosb@H@std@@2W4_Fmtflags@12@B DD 04H	; std::_Iosb<int>::uppercase
CONST	ENDS
;	COMDAT ?unitbuf@?$_Iosb@H@std@@2W4_Fmtflags@12@B
CONST	SEGMENT
?unitbuf@?$_Iosb@H@std@@2W4_Fmtflags@12@B DD 02H	; std::_Iosb<int>::unitbuf
CONST	ENDS
;	COMDAT ?skipws@?$_Iosb@H@std@@2W4_Fmtflags@12@B
CONST	SEGMENT
?skipws@?$_Iosb@H@std@@2W4_Fmtflags@12@B DD 01H		; std::_Iosb<int>::skipws
CONST	ENDS
;	COMDAT ?none@?$_Locbase@H@std@@2HB
CONST	SEGMENT
?none@?$_Locbase@H@std@@2HB DD 00H			; std::_Locbase<int>::none
CONST	ENDS
;	COMDAT ?all@?$_Locbase@H@std@@2HB
CONST	SEGMENT
?all@?$_Locbase@H@std@@2HB DD 03fH			; std::_Locbase<int>::all
CONST	ENDS
;	COMDAT ?messages@?$_Locbase@H@std@@2HB
CONST	SEGMENT
?messages@?$_Locbase@H@std@@2HB DD 020H			; std::_Locbase<int>::messages
CONST	ENDS
;	COMDAT ?time@?$_Locbase@H@std@@2HB
CONST	SEGMENT
?time@?$_Locbase@H@std@@2HB DD 010H			; std::_Locbase<int>::time
CONST	ENDS
;	COMDAT ?numeric@?$_Locbase@H@std@@2HB
CONST	SEGMENT
?numeric@?$_Locbase@H@std@@2HB DD 08H			; std::_Locbase<int>::numeric
CONST	ENDS
;	COMDAT ?monetary@?$_Locbase@H@std@@2HB
CONST	SEGMENT
?monetary@?$_Locbase@H@std@@2HB DD 04H			; std::_Locbase<int>::monetary
CONST	ENDS
;	COMDAT ?ctype@?$_Locbase@H@std@@2HB
CONST	SEGMENT
?ctype@?$_Locbase@H@std@@2HB DD 02H			; std::_Locbase<int>::ctype
CONST	ENDS
;	COMDAT ?collate@?$_Locbase@H@std@@2HB
CONST	SEGMENT
?collate@?$_Locbase@H@std@@2HB DD 01H			; std::_Locbase<int>::collate
CONST	ENDS
;	COMDAT ?_Value@?$_Is_swap_move@U_Swap_move_tag@std@@@std@@2_NB
CONST	SEGMENT
?_Value@?$_Is_swap_move@U_Swap_move_tag@std@@@std@@2_NB DB 01H ; std::_Is_swap_move<std::_Swap_move_tag>::_Value
CONST	ENDS
_DATA	SEGMENT
__bad_alloc_Message DD FLAT:$SG63979
_DATA	ENDS
CONST	SEGMENT
$SG63979 DB	'bad allocation', 00H
$SG139246 DB	00H
$SG139073 DB	'-givecashlog.txt', 00H
	ORG $+3
$SG139075 DB	'r', 00H
	ORG $+2
$SG139084 DB	00H, 00H
	ORG $+2
$SG139090 DB	'%02X%02X', 00H
	ORG $+3
$SG139184 DB	'%', 00H, 's', 00H, 00H, 00H
	ORG $+2
$SG139193 DB	'-givecashlog.txt', 00H
	ORG $+3
$SG139195 DB	'at', 00H
	ORG $+1
$SG139206 DB	'%02X%02X', 00H
	ORG $+3
$SG139207 DB	0aH, 00H
	ORG $+2
$SG139220 DB	's', 00H, 'y', 00H, 's', 00H, 't', 00H, 'e', 00H, 'm', 00H
	DB	00H, 00H
	ORG $+2
$SG139232 DB	'MinTransfer', 00H
$SG139233 DB	'GiveCash', 00H
	ORG $+3
$SG139236 DB	'MinTime', 00H
$SG139237 DB	'GiveCash', 00H
	ORG $+3
$SG139240 DB	'CheatDetection', 00H
	ORG $+1
$SG139241 DB	'GiveCash', 00H
	ORG $+3
$SG139247 DB	'BlockedSystem', 00H
	ORG $+2
$SG139248 DB	'GiveCash', 00H
	ORG $+3
$SG139275 DB	00H, 00H
	ORG $+2
$SG139276 DB	'.', 00H, 00H, 00H
$SG139280 DB	00H, 00H
	ORG $+2
$SG139281 DB	',', 00H, 00H, 00H
$SG139285 DB	00H, 00H
	ORG $+2
$SG139286 DB	'$', 00H, 00H, 00H
$SG139290 DB	'a', 00H, 'n', 00H, 'o', 00H, 'n', 00H, 00H, 00H
	ORG $+2
$SG139292 DB	'E', 00H, 'R', 00H, 'R', 00H, ' ', 00H, 'I', 00H, 'n', 00H
	DB	'v', 00H, 'a', 00H, 'l', 00H, 'i', 00H, 'd', 00H, ' ', 00H, 'p'
	DB	00H, 'a', 00H, 'r', 00H, 'a', 00H, 'm', 00H, 'e', 00H, 't', 00H
	DB	'e', 00H, 'r', 00H, 's', 00H, 00H, 00H
	ORG $+2
$SG139297 DB	'a', 00H, 'n', 00H, 'o', 00H, 'n', 00H, 00H, 00H
	ORG $+2
$SG139300 DB	'E', 00H, 'R', 00H, 'R', 00H, ' ', 00H, 'c', 00H, 'h', 00H
	DB	'a', 00H, 'r', 00H, ' ', 00H, 'd', 00H, 'o', 00H, 'e', 00H, 's'
	DB	00H, ' ', 00H, 'n', 00H, 'o', 00H, 't', 00H, ' ', 00H, 'e', 00H
	DB	'x', 00H, 'i', 00H, 's', 00H, 't', 00H, 00H, 00H
$SG139305 DB	'E', 00H, 'R', 00H, 'R', 00H, ' ', 00H, 'i', 00H, 'n', 00H
	DB	's', 00H, 'u', 00H, 'f', 00H, 'f', 00H, 'i', 00H, 'c', 00H, 'i'
	DB	00H, 'e', 00H, 'n', 00H, 't', 00H, ' ', 00H, 't', 00H, 'i', 00H
	DB	'm', 00H, 'e', 00H, ' ', 00H, 'o', 00H, 'n', 00H, 'l', 00H, 'i'
	DB	00H, 'n', 00H, 'e', 00H, 00H, 00H
	ORG $+2
$SG139310 DB	'E', 00H, 'R', 00H, 'R', 00H, ' ', 00H, 'c', 00H, 'a', 00H
	DB	's', 00H, 'h', 00H, ' ', 00H, 't', 00H, 'r', 00H, 'a', 00H, 'n'
	DB	00H, 's', 00H, 'f', 00H, 'e', 00H, 'r', 00H, ' ', 00H, 'b', 00H
	DB	'l', 00H, 'o', 00H, 'c', 00H, 'k', 00H, 'e', 00H, 'd', 00H, 00H
	DB	00H
$SG139317 DB	'E', 00H, 'R', 00H, 'R', 00H, ' ', 00H, 00H, 00H
	ORG $+2
$SG139325 DB	' ', 00H, 'c', 00H, 'r', 00H, 'e', 00H, 'd', 00H, 'i', 00H
	DB	't', 00H, 's', 00H, 00H, 00H
	ORG $+6
$SG139326 DB	'E', 00H, 'R', 00H, 'R', 00H, ' ', 00H, 'T', 00H, 'r', 00H
	DB	'a', 00H, 'n', 00H, 's', 00H, 'f', 00H, 'e', 00H, 'r', 00H, ' '
	DB	00H, 't', 00H, 'o', 00H, 'o', 00H, ' ', 00H, 's', 00H, 'm', 00H
	DB	'a', 00H, 'l', 00H, 'l', 00H, ',', 00H, ' ', 00H, 'm', 00H, 'i'
	DB	00H, 'n', 00H, 'i', 00H, 'm', 00H, 'u', 00H, 'm', 00H, ' ', 00H
	DB	't', 00H, 'r', 00H, 'a', 00H, 'n', 00H, 's', 00H, 'f', 00H, 'e'
	DB	00H, 'r', 00H, ' ', 00H, 00H, 00H
$SG139330 DB	'E', 00H, 'R', 00H, 'R', 00H, ' ', 00H, 'I', 00H, 'n', 00H
	DB	's', 00H, 'u', 00H, 'f', 00H, 'f', 00H, 'i', 00H, 'c', 00H, 'i'
	DB	00H, 'e', 00H, 'n', 00H, 't', 00H, ' ', 00H, 'c', 00H, 'r', 00H
	DB	'e', 00H, 'd', 00H, 'i', 00H, 't', 00H, 's', 00H, 00H, 00H
	ORG $+2
$SG139337 DB	'E', 00H, 'R', 00H, 'R', 00H, ' ', 00H, 00H, 00H
	ORG $+6
$SG139341 DB	'E', 00H, 'R', 00H, 'R', 00H, ' ', 00H, 'T', 00H, 'r', 00H
	DB	'a', 00H, 'n', 00H, 's', 00H, 'f', 00H, 'e', 00H, 'r', 00H, ' '
	DB	00H, 'w', 00H, 'i', 00H, 'l', 00H, 'l', 00H, ' ', 00H, 'e', 00H
	DB	'x', 00H, 'c', 00H, 'e', 00H, 'e', 00H, 'd', 00H, ' ', 00H, 'c'
	DB	00H, 'r', 00H, 'e', 00H, 'd', 00H, 'i', 00H, 't', 00H, ' ', 00H
	DB	'l', 00H, 'i', 00H, 'm', 00H, 'i', 00H, 't', 00H, 00H, 00H
$SG139348 DB	'E', 00H, 'R', 00H, 'R', 00H, ' ', 00H, 'G', 00H, 'e', 00H
	DB	't', 00H, ' ', 00H, 'c', 00H, 'a', 00H, 's', 00H, 'h', 00H, ' '
	DB	00H, 'f', 00H, 'a', 00H, 'i', 00H, 'l', 00H, 'e', 00H, 'd', 00H
	DB	' ', 00H, 'e', 00H, 'r', 00H, 'r', 00H, '=', 00H, 00H, 00H
	ORG $+2
$SG139354 DB	'E', 00H, 'R', 00H, 'R', 00H, ' ', 00H, 'T', 00H, 'r', 00H
	DB	'a', 00H, 'n', 00H, 's', 00H, 'f', 00H, 'e', 00H, 'r', 00H, ' '
	DB	00H, 'f', 00H, 'a', 00H, 'i', 00H, 'l', 00H, 'e', 00H, 'd', 00H
	DB	00H, 00H
$SG139363 DB	'NOTICE: Possible cheating when sending %s credits from %'
	DB	's (%s) to %s (%s)', 00H
	ORG $+2
$SG139369 DB	'E', 00H, 'R', 00H, 'R', 00H, ' ', 00H, 'T', 00H, 'r', 00H
	DB	'a', 00H, 'd', 00H, 'e', 00H, ' ', 00H, 'w', 00H, 'i', 00H, 'n'
	DB	00H, 'd', 00H, 'o', 00H, 'w', 00H, ' ', 00H, 'o', 00H, 'p', 00H
	DB	'e', 00H, 'n', 00H, 00H, 00H
$SG139378 DB	'NOTICE: Trade window open when sending %s credits from %'
	DB	's (%s) to %s (%s) %u %u', 00H
$SG139384 DB	'E', 00H, 'R', 00H, 'R', 00H, ' ', 00H, 'R', 00H, 'e', 00H
	DB	'm', 00H, 'o', 00H, 'v', 00H, 'e', 00H, ' ', 00H, 'c', 00H, 'a'
	DB	00H, 's', 00H, 'h', 00H, ' ', 00H, 'f', 00H, 'a', 00H, 'i', 00H
	DB	'l', 00H, 'e', 00H, 'd', 00H, ' ', 00H, 'e', 00H, 'r', 00H, 'r'
	DB	00H, '=', 00H, 00H, 00H
$SG139388 DB	'E', 00H, 'R', 00H, 'R', 00H, ' ', 00H, 'T', 00H, 'r', 00H
	DB	'a', 00H, 'n', 00H, 's', 00H, 'f', 00H, 'e', 00H, 'r', 00H, ' '
	DB	00H, 'f', 00H, 'a', 00H, 'i', 00H, 'l', 00H, 'e', 00H, 'd', 00H
	DB	00H, 00H
$SG139397 DB	'NOTICE: Possible cheating when sending %s credits from %'
	DB	's (%s) to %s (%s)', 00H
	ORG $+2
$SG139403 DB	'E', 00H, 'R', 00H, 'R', 00H, ' ', 00H, 'A', 00H, 'd', 00H
	DB	'd', 00H, ' ', 00H, 'c', 00H, 'a', 00H, 's', 00H, 'h', 00H, ' '
	DB	00H, 'f', 00H, 'a', 00H, 'i', 00H, 'l', 00H, 'e', 00H, 'd', 00H
	DB	' ', 00H, 'e', 00H, 'r', 00H, 'r', 00H, '=', 00H, 00H, 00H
	ORG $+2
$SG139408 DB	'E', 00H, 'R', 00H, 'R', 00H, ' ', 00H, 'T', 00H, 'r', 00H
	DB	'a', 00H, 'n', 00H, 's', 00H, 'f', 00H, 'e', 00H, 'r', 00H, ' '
	DB	00H, 'f', 00H, 'a', 00H, 'i', 00H, 'l', 00H, 'e', 00H, 'd', 00H
	DB	00H, 00H
$SG139417 DB	'NOTICE: Possible cheating when sending %s credits from %'
	DB	's (%s) to %s (%s)', 00H
	ORG $+6
$SG139434 DB	'ERROR: Cash transfer error when sending %s credits from '
	DB	'%s (%s) to %s (%s) current %s credits expected %s credits ', 00H
	ORG $+1
$SG139436 DB	'E', 00H, 'R', 00H, 'R', 00H, ' ', 00H, 'T', 00H, 'r', 00H
	DB	'a', 00H, 'n', 00H, 's', 00H, 'f', 00H, 'e', 00H, 'r', 00H, ' '
	DB	00H, 'f', 00H, 'a', 00H, 'i', 00H, 'l', 00H, 'e', 00H, 'd', 00H
	DB	00H, 00H
$SG139445 DB	'a', 00H, 'n', 00H, 'o', 00H, 'n', 00H, 'y', 00H, 'm', 00H
	DB	'o', 00H, 'u', 00H, 's', 00H, 00H, 00H
$SG139446 DB	' ', 00H, 'c', 00H, 'r', 00H, 'e', 00H, 'd', 00H, 'i', 00H
	DB	't', 00H, 's', 00H, ' ', 00H, 'f', 00H, 'r', 00H, 'o', 00H, 'm'
	DB	00H, ' ', 00H, 00H, 00H
	ORG $+2
$SG139447 DB	'Y', 00H, 'o', 00H, 'u', 00H, ' ', 00H, 'h', 00H, 'a', 00H
	DB	'v', 00H, 'e', 00H, ' ', 00H, 'r', 00H, 'e', 00H, 'c', 00H, 'e'
	DB	00H, 'i', 00H, 'v', 00H, 'e', 00H, 'd', 00H, ' ', 00H, 00H, 00H
	ORG $+2
$SG139450 DB	'%', 00H, 's', 00H, 00H, 00H
	ORG $+2
$SG139459 DB	'a', 00H, 'n', 00H, 'o', 00H, 'n', 00H, 'y', 00H, 'm', 00H
	DB	'o', 00H, 'u', 00H, 's', 00H, 00H, 00H
$SG139460 DB	' ', 00H, 'c', 00H, 'r', 00H, 'e', 00H, 'd', 00H, 'i', 00H
	DB	't', 00H, 's', 00H, ' ', 00H, 'f', 00H, 'r', 00H, 'o', 00H, 'm'
	DB	00H, ' ', 00H, 00H, 00H
	ORG $+2
$SG139461 DB	'Y', 00H, 'o', 00H, 'u', 00H, ' ', 00H, 'h', 00H, 'a', 00H
	DB	'v', 00H, 'e', 00H, ' ', 00H, 'r', 00H, 'e', 00H, 'c', 00H, 'e'
	DB	00H, 'i', 00H, 'v', 00H, 'e', 00H, 'd', 00H, ' ', 00H, 00H, 00H
	ORG $+2
$SG139472 DB	'NOTICE: Send %s credits from %s (%s) to %s (%s)', 00H
$SG139477 DB	' ', 00H, 'c', 00H, 'r', 00H, 'e', 00H, 'd', 00H, 'i', 00H
	DB	't', 00H, 's', 00H, ' ', 00H, 't', 00H, 'o', 00H, ' ', 00H, 00H
	DB	00H
	ORG $+2
$SG139478 DB	'Y', 00H, 'o', 00H, 'u', 00H, ' ', 00H, 'h', 00H, 'a', 00H
	DB	'v', 00H, 'e', 00H, ' ', 00H, 's', 00H, 'e', 00H, 'n', 00H, 't'
	DB	00H, ' ', 00H, 00H, 00H
	ORG $+2
$SG139480 DB	' ', 00H, 'a', 00H, 'n', 00H, 'o', 00H, 'n', 00H, 'y', 00H
	DB	'm', 00H, 'o', 00H, 'u', 00H, 's', 00H, 'l', 00H, 'y', 00H, 00H
	DB	00H
	ORG $+2
$SG139482 DB	'%', 00H, 's', 00H, 00H, 00H
	ORG $+2
$SG139496 DB	'-givecash.ini', 00H
	ORG $+2
$SG139502 DB	'E', 00H, 'R', 00H, 'R', 00H, ' ', 00H, 'I', 00H, 'n', 00H
	DB	'v', 00H, 'a', 00H, 'l', 00H, 'i', 00H, 'd', 00H, ' ', 00H, 'p'
	DB	00H, 'a', 00H, 'r', 00H, 'a', 00H, 'm', 00H, 'e', 00H, 't', 00H
	DB	'e', 00H, 'r', 00H, 's', 00H, 00H, 00H
	ORG $+2
$SG139506 DB	'n', 00H, 'o', 00H, 'n', 00H, 'e', 00H, 00H, 00H
	ORG $+2
$SG139510 DB	00H, 00H
	ORG $+2
$SG139511 DB	'Code', 00H
	ORG $+3
$SG139512 DB	'Settings', 00H
	ORG $+3
$SG139514 DB	'O', 00H, 'K', 00H, ' ', 00H, 'A', 00H, 'c', 00H, 'c', 00H
	DB	'o', 00H, 'u', 00H, 'n', 00H, 't', 00H, ' ', 00H, 'c', 00H, 'o'
	DB	00H, 'd', 00H, 'e', 00H, ' ', 00H, 'c', 00H, 'l', 00H, 'e', 00H
	DB	'a', 00H, 'r', 00H, 'e', 00H, 'd', 00H, 00H, 00H
$SG139518 DB	'Code', 00H
	ORG $+3
$SG139519 DB	'Settings', 00H
	ORG $+3
$SG139522 DB	'O', 00H, 'K', 00H, ' ', 00H, 'A', 00H, 'c', 00H, 'c', 00H
	DB	'o', 00H, 'u', 00H, 'n', 00H, 't', 00H, ' ', 00H, 'c', 00H, 'o'
	DB	00H, 'd', 00H, 'e', 00H, ' ', 00H, 's', 00H, 'e', 00H, 't', 00H
	DB	' ', 00H, 't', 00H, 'o', 00H, ' ', 00H, 00H, 00H
$SG139540 DB	'E', 00H, 'R', 00H, 'R', 00H, ' ', 00H, 'I', 00H, 'n', 00H
	DB	'v', 00H, 'a', 00H, 'l', 00H, 'i', 00H, 'd', 00H, ' ', 00H, 'p'
	DB	00H, 'a', 00H, 'r', 00H, 'a', 00H, 'm', 00H, 'e', 00H, 't', 00H
	DB	'e', 00H, 'r', 00H, 's', 00H, 00H, 00H
	ORG $+2
$SG139546 DB	'E', 00H, 'R', 00H, 'R', 00H, ' ', 00H, 'c', 00H, 'h', 00H
	DB	'a', 00H, 'r', 00H, ' ', 00H, 'd', 00H, 'o', 00H, 'e', 00H, 's'
	DB	00H, ' ', 00H, 'n', 00H, 'o', 00H, 't', 00H, ' ', 00H, 'e', 00H
	DB	'x', 00H, 'i', 00H, 's', 00H, 't', 00H, 00H, 00H
$SG139552 DB	'-givecash.ini', 00H
	ORG $+2
$SG139559 DB	00H, 00H
	ORG $+2
$SG139560 DB	'Code', 00H
	ORG $+3
$SG139561 DB	'Settings', 00H
	ORG $+3
$SG139565 DB	'E', 00H, 'R', 00H, 'R', 00H, ' ', 00H, 'c', 00H, 'a', 00H
	DB	's', 00H, 'h', 00H, ' ', 00H, 'a', 00H, 'c', 00H, 'c', 00H, 'o'
	DB	00H, 'u', 00H, 'n', 00H, 't', 00H, ' ', 00H, 'a', 00H, 'c', 00H
	DB	'c', 00H, 'e', 00H, 's', 00H, 's', 00H, ' ', 00H, 'd', 00H, 'e'
	DB	00H, 'n', 00H, 'i', 00H, 'e', 00H, 'd', 00H, 00H, 00H
	ORG $+2
$SG139572 DB	'E', 00H, 'R', 00H, 'R', 00H, ' ', 00H, 00H, 00H
	ORG $+2
$SG139580 DB	' ', 00H, 'c', 00H, 'r', 00H, 'e', 00H, 'd', 00H, 'i', 00H
	DB	't', 00H, 's', 00H, 00H, 00H
	ORG $+2
$SG139581 DB	' ', 00H, 'h', 00H, 'a', 00H, 's', 00H, ' ', 00H, 00H, 00H
$SG139582 DB	'O', 00H, 'K', 00H, ' ', 00H, 'A', 00H, 'c', 00H, 'c', 00H
	DB	'o', 00H, 'u', 00H, 'n', 00H, 't', 00H, ' ', 00H, 00H, 00H
$SG139602 DB	00H, 00H
	ORG $+2
$SG139603 DB	'.', 00H, 00H, 00H
$SG139607 DB	00H, 00H
	ORG $+2
$SG139608 DB	',', 00H, 00H, 00H
$SG139612 DB	00H, 00H
	ORG $+2
$SG139613 DB	'$', 00H, 00H, 00H
$SG139618 DB	'E', 00H, 'R', 00H, 'R', 00H, ' ', 00H, 'I', 00H, 'n', 00H
	DB	'v', 00H, 'a', 00H, 'l', 00H, 'i', 00H, 'd', 00H, ' ', 00H, 'p'
	DB	00H, 'a', 00H, 'r', 00H, 'a', 00H, 'm', 00H, 'e', 00H, 't', 00H
	DB	'e', 00H, 'r', 00H, 's', 00H, 00H, 00H
	ORG $+2
$SG139624 DB	'E', 00H, 'R', 00H, 'R', 00H, ' ', 00H, 'c', 00H, 'h', 00H
	DB	'a', 00H, 'r', 00H, ' ', 00H, 'd', 00H, 'o', 00H, 'e', 00H, 's'
	DB	00H, ' ', 00H, 'n', 00H, 'o', 00H, 't', 00H, ' ', 00H, 'e', 00H
	DB	'x', 00H, 'i', 00H, 's', 00H, 't', 00H, 00H, 00H
$SG139629 DB	'E', 00H, 'R', 00H, 'R', 00H, ' ', 00H, 'i', 00H, 'n', 00H
	DB	's', 00H, 'u', 00H, 'f', 00H, 'f', 00H, 'i', 00H, 'c', 00H, 'i'
	DB	00H, 'e', 00H, 'n', 00H, 't', 00H, ' ', 00H, 't', 00H, 'i', 00H
	DB	'm', 00H, 'e', 00H, ' ', 00H, 'o', 00H, 'n', 00H, 'l', 00H, 'i'
	DB	00H, 'n', 00H, 'e', 00H, 00H, 00H
	ORG $+2
$SG139634 DB	'E', 00H, 'R', 00H, 'R', 00H, ' ', 00H, 'c', 00H, 'a', 00H
	DB	's', 00H, 'h', 00H, ' ', 00H, 't', 00H, 'r', 00H, 'a', 00H, 'n'
	DB	00H, 's', 00H, 'f', 00H, 'e', 00H, 'r', 00H, ' ', 00H, 'b', 00H
	DB	'l', 00H, 'o', 00H, 'c', 00H, 'k', 00H, 'e', 00H, 'd', 00H, 00H
	DB	00H
$SG139640 DB	'-givecash.ini', 00H
	ORG $+2
$SG139647 DB	00H, 00H
	ORG $+2
$SG139648 DB	'Code', 00H
	ORG $+3
$SG139649 DB	'Settings', 00H
	ORG $+3
$SG139653 DB	'E', 00H, 'R', 00H, 'R', 00H, ' ', 00H, 'c', 00H, 'a', 00H
	DB	's', 00H, 'h', 00H, ' ', 00H, 'a', 00H, 'c', 00H, 'c', 00H, 'o'
	DB	00H, 'u', 00H, 'n', 00H, 't', 00H, ' ', 00H, 'a', 00H, 'c', 00H
	DB	'c', 00H, 'e', 00H, 's', 00H, 's', 00H, ' ', 00H, 'd', 00H, 'e'
	DB	00H, 'n', 00H, 'i', 00H, 'e', 00H, 'd', 00H, 00H, 00H
	ORG $+2
$SG139661 DB	' ', 00H, 'c', 00H, 'r', 00H, 'e', 00H, 'd', 00H, 'i', 00H
	DB	't', 00H, 's', 00H, 00H, 00H
	ORG $+6
$SG139662 DB	'E', 00H, 'R', 00H, 'R', 00H, ' ', 00H, 'T', 00H, 'r', 00H
	DB	'a', 00H, 'n', 00H, 's', 00H, 'f', 00H, 'e', 00H, 'r', 00H, ' '
	DB	00H, 't', 00H, 'o', 00H, 'o', 00H, ' ', 00H, 's', 00H, 'm', 00H
	DB	'a', 00H, 'l', 00H, 'l', 00H, ',', 00H, ' ', 00H, 'm', 00H, 'i'
	DB	00H, 'n', 00H, 'i', 00H, 'm', 00H, 'u', 00H, 'm', 00H, ' ', 00H
	DB	't', 00H, 'r', 00H, 'a', 00H, 'n', 00H, 's', 00H, 'f', 00H, 'e'
	DB	00H, 'r', 00H, ' ', 00H, 00H, 00H
$SG139669 DB	'E', 00H, 'R', 00H, 'R', 00H, ' ', 00H, 00H, 00H
	ORG $+2
$SG139673 DB	'E', 00H, 'R', 00H, 'R', 00H, ' ', 00H, 'I', 00H, 'n', 00H
	DB	's', 00H, 'u', 00H, 'f', 00H, 'f', 00H, 'i', 00H, 'c', 00H, 'i'
	DB	00H, 'e', 00H, 'n', 00H, 't', 00H, ' ', 00H, 'c', 00H, 'r', 00H
	DB	'e', 00H, 'd', 00H, 'i', 00H, 't', 00H, 's', 00H, 00H, 00H
	ORG $+2
$SG139680 DB	'E', 00H, 'R', 00H, 'R', 00H, ' ', 00H, 00H, 00H
	ORG $+2
$SG139684 DB	'E', 00H, 'R', 00H, 'R', 00H, ' ', 00H, 'T', 00H, 'r', 00H
	DB	'a', 00H, 'n', 00H, 's', 00H, 'f', 00H, 'e', 00H, 'r', 00H, ' '
	DB	00H, 'w', 00H, 'i', 00H, 'l', 00H, 'l', 00H, ' ', 00H, 'e', 00H
	DB	'x', 00H, 'c', 00H, 'e', 00H, 'e', 00H, 'd', 00H, ' ', 00H, 'c'
	DB	00H, 'r', 00H, 'e', 00H, 'd', 00H, 'i', 00H, 't', 00H, ' ', 00H
	DB	'l', 00H, 'i', 00H, 'm', 00H, 'i', 00H, 't', 00H, 00H, 00H
$SG139691 DB	'E', 00H, 'R', 00H, 'R', 00H, ' ', 00H, 00H, 00H
	ORG $+2
$SG139695 DB	'E', 00H, 'R', 00H, 'R', 00H, ' ', 00H, 'T', 00H, 'r', 00H
	DB	'a', 00H, 'n', 00H, 's', 00H, 'f', 00H, 'e', 00H, 'r', 00H, ' '
	DB	00H, 'f', 00H, 'a', 00H, 'i', 00H, 'l', 00H, 'e', 00H, 'd', 00H
	DB	00H, 00H
$SG139704 DB	'NOTICE: Possible cheating when drawing %s credits from %'
	DB	's (%s) to %s (%s)', 00H
	ORG $+2
$SG139711 DB	'E', 00H, 'R', 00H, 'R', 00H, ' ', 00H, 'T', 00H, 'r', 00H
	DB	'a', 00H, 'd', 00H, 'e', 00H, ' ', 00H, 'w', 00H, 'i', 00H, 'n'
	DB	00H, 'd', 00H, 'o', 00H, 'w', 00H, ' ', 00H, 'o', 00H, 'p', 00H
	DB	'e', 00H, 'n', 00H, 00H, 00H
$SG139720 DB	'NOTICE: Trade window open when drawing %s credits from %'
	DB	's (%s) to %s (%s) %u %u', 00H
$SG139726 DB	'E', 00H, 'R', 00H, 'R', 00H, ' ', 00H, 00H, 00H
	ORG $+2
$SG139731 DB	'E', 00H, 'R', 00H, 'R', 00H, ' ', 00H, 'T', 00H, 'r', 00H
	DB	'a', 00H, 'n', 00H, 's', 00H, 'f', 00H, 'e', 00H, 'r', 00H, ' '
	DB	00H, 'f', 00H, 'a', 00H, 'i', 00H, 'l', 00H, 'e', 00H, 'd', 00H
	DB	00H, 00H
	ORG $+4
$SG139740 DB	'NOTICE: Possible cheating when drawing %s credits from %'
	DB	's (%s) to %s (%s)', 00H
	ORG $+2
$SG139746 DB	'E', 00H, 'R', 00H, 'R', 00H, ' ', 00H, 00H, 00H
	ORG $+2
$SG139750 DB	'E', 00H, 'R', 00H, 'R', 00H, ' ', 00H, 'T', 00H, 'r', 00H
	DB	'a', 00H, 'n', 00H, 's', 00H, 'f', 00H, 'e', 00H, 'r', 00H, ' '
	DB	00H, 'f', 00H, 'a', 00H, 'i', 00H, 'l', 00H, 'e', 00H, 'd', 00H
	DB	00H, 00H
$SG139759 DB	'NOTICE: Possible cheating when drawing %s credits from %'
	DB	's (%s) to %s (%s)', 00H
	ORG $+6
$SG139776 DB	'ERROR: Cash transfer error when drawing %s credits from '
	DB	'%s (%s) to %s (%s) current %s credits expected %s credits ', 00H
	ORG $+1
$SG139778 DB	'E', 00H, 'R', 00H, 'R', 00H, ' ', 00H, 'T', 00H, 'r', 00H
	DB	'a', 00H, 'n', 00H, 's', 00H, 'f', 00H, 'e', 00H, 'r', 00H, ' '
	DB	00H, 'f', 00H, 'a', 00H, 'i', 00H, 'l', 00H, 'e', 00H, 'd', 00H
	DB	00H, 00H
$SG139784 DB	' ', 00H, 'c', 00H, 'r', 00H, 'e', 00H, 'd', 00H, 'i', 00H
	DB	't', 00H, 's', 00H, ' ', 00H, 't', 00H, 'o', 00H, ' ', 00H, 00H
	DB	00H
	ORG $+2
$SG139785 DB	'Y', 00H, 'o', 00H, 'u', 00H, ' ', 00H, 'h', 00H, 'a', 00H
	DB	'v', 00H, 'e', 00H, ' ', 00H, 't', 00H, 'r', 00H, 'a', 00H, 'n'
	DB	00H, 's', 00H, 'f', 00H, 'e', 00H, 'r', 00H, 'r', 00H, 'e', 00H
	DB	'd', 00H, ' ', 00H, 00H, 00H
$SG139788 DB	'%', 00H, 's', 00H, 00H, 00H
	ORG $+2
$SG139800 DB	'NOTICE: Draw %s credits from %s (%s) to %s (%s)', 00H
$SG139807 DB	' ', 00H, 'c', 00H, 'r', 00H, 'e', 00H, 'd', 00H, 'i', 00H
	DB	't', 00H, 's', 00H, ' ', 00H, 'f', 00H, 'r', 00H, 'o', 00H, 'm'
	DB	00H, ' ', 00H, 00H, 00H
	ORG $+2
$SG139808 DB	':', 00H, ' ', 00H, 'Y', 00H, 'o', 00H, 'u', 00H, ' ', 00H
	DB	'h', 00H, 'a', 00H, 'v', 00H, 'e', 00H, ' ', 00H, 'd', 00H, 'r'
	DB	00H, 'a', 00H, 'w', 00H, 'n', 00H, ' ', 00H, 00H, 00H
$SG139810 DB	'%', 00H, 's', 00H, 00H, 00H
CONST	ENDS
PUBLIC	?LoadSettings@GiveCash@@YAXABV?$basic_string@DU?$char_traits@D@std@@V?$allocator@D@2@@std@@@Z ; GiveCash::LoadSettings
EXTRN	__imp_?CreateID@@YAIPBD@Z:PROC
EXTRN	__imp_?c_str@?$basic_string@DU?$char_traits@D@std@@V?$allocator@D@2@@std@@QBEPBDXZ:PROC
EXTRN	__imp_?IniGetS@@YA?AV?$basic_string@DU?$char_traits@D@std@@V?$allocator@D@2@@std@@ABV12@000@Z:PROC
EXTRN	__imp_?IniGetB@@YA_NABV?$basic_string@DU?$char_traits@D@std@@V?$allocator@D@2@@std@@00_N@Z:PROC
EXTRN	__imp_??1?$basic_string@DU?$char_traits@D@std@@V?$allocator@D@2@@std@@QAE@XZ:PROC
EXTRN	__imp_?IniGetI@@YAHABV?$basic_string@DU?$char_traits@D@std@@V?$allocator@D@2@@std@@00H@Z:PROC
EXTRN	__imp_??0?$basic_string@DU?$char_traits@D@std@@V?$allocator@D@2@@std@@QAE@PBD@Z:PROC
EXTRN	___security_cookie:DWORD
EXTRN	___CxxFrameHandler3:PROC
EXTRN	@__security_check_cookie@4:PROC
xdata$x	SEGMENT
__ehfuncinfo$?LoadSettings@GiveCash@@YAXABV?$basic_string@DU?$char_traits@D@std@@V?$allocator@D@2@@std@@@Z DD 019930522H
	DD	0aH
	DD	FLAT:__unwindtable$?LoadSettings@GiveCash@@YAXABV?$basic_string@DU?$char_traits@D@std@@V?$allocator@D@2@@std@@@Z
	DD	2 DUP(00H)
	DD	2 DUP(00H)
	DD	00H
	DD	00H
__unwindtable$?LoadSettings@GiveCash@@YAXABV?$basic_string@DU?$char_traits@D@std@@V?$allocator@D@2@@std@@@Z DD 0ffffffffH
	DD	FLAT:__unwindfunclet$?LoadSettings@GiveCash@@YAXABV?$basic_string@DU?$char_traits@D@std@@V?$allocator@D@2@@std@@@Z$0
	DD	00H
	DD	FLAT:__unwindfunclet$?LoadSettings@GiveCash@@YAXABV?$basic_string@DU?$char_traits@D@std@@V?$allocator@D@2@@std@@@Z$1
	DD	0ffffffffH
	DD	FLAT:__unwindfunclet$?LoadSettings@GiveCash@@YAXABV?$basic_string@DU?$char_traits@D@std@@V?$allocator@D@2@@std@@@Z$2
	DD	02H
	DD	FLAT:__unwindfunclet$?LoadSettings@GiveCash@@YAXABV?$basic_string@DU?$char_traits@D@std@@V?$allocator@D@2@@std@@@Z$3
	DD	0ffffffffH
	DD	FLAT:__unwindfunclet$?LoadSettings@GiveCash@@YAXABV?$basic_string@DU?$char_traits@D@std@@V?$allocator@D@2@@std@@@Z$4
	DD	04H
	DD	FLAT:__unwindfunclet$?LoadSettings@GiveCash@@YAXABV?$basic_string@DU?$char_traits@D@std@@V?$allocator@D@2@@std@@@Z$5
	DD	0ffffffffH
	DD	FLAT:__unwindfunclet$?LoadSettings@GiveCash@@YAXABV?$basic_string@DU?$char_traits@D@std@@V?$allocator@D@2@@std@@@Z$6
	DD	06H
	DD	FLAT:__unwindfunclet$?LoadSettings@GiveCash@@YAXABV?$basic_string@DU?$char_traits@D@std@@V?$allocator@D@2@@std@@@Z$7
	DD	07H
	DD	FLAT:__unwindfunclet$?LoadSettings@GiveCash@@YAXABV?$basic_string@DU?$char_traits@D@std@@V?$allocator@D@2@@std@@@Z$8
	DD	08H
	DD	FLAT:__unwindfunclet$?LoadSettings@GiveCash@@YAXABV?$basic_string@DU?$char_traits@D@std@@V?$allocator@D@2@@std@@@Z$9
; Function compile flags: /Odtp
xdata$x	ENDS
_TEXT	SEGMENT
tv169 = -300						; size = 4
tv148 = -296						; size = 4
$T144072 = -292						; size = 28
$T144071 = -264						; size = 28
$T144070 = -236						; size = 28
$T144069 = -208						; size = 28
$T144068 = -180						; size = 28
$T144067 = -152						; size = 28
$T144066 = -124						; size = 28
$T144065 = -96						; size = 28
$T144064 = -68						; size = 28
$T144063 = -40						; size = 28
__$EHRec$ = -12						; size = 12
_scPluginCfgFile$ = 8					; size = 4
?LoadSettings@GiveCash@@YAXABV?$basic_string@DU?$char_traits@D@std@@V?$allocator@D@2@@std@@@Z PROC ; GiveCash::LoadSettings
; File g:\max\bastelstube\fl\flhook source\flhookplugin_mod\plugins\playercntl_plugin\src\givecash.cpp
; Line 143
	push	ebp
	mov	ebp, esp
	push	-1
	push	__ehhandler$?LoadSettings@GiveCash@@YAXABV?$basic_string@DU?$char_traits@D@std@@V?$allocator@D@2@@std@@@Z
	mov	eax, DWORD PTR fs:0
	push	eax
	sub	esp, 288				; 00000120H
	mov	eax, DWORD PTR ___security_cookie
	xor	eax, ebp
	push	eax
	lea	eax, DWORD PTR __$EHRec$[ebp]
	mov	DWORD PTR fs:0, eax
; Line 144
	push	OFFSET $SG139232
	lea	ecx, DWORD PTR $T144063[ebp]
	call	DWORD PTR __imp_??0?$basic_string@DU?$char_traits@D@std@@V?$allocator@D@2@@std@@QAE@PBD@Z
	mov	DWORD PTR __$EHRec$[ebp+8], 0
	push	OFFSET $SG139233
	lea	ecx, DWORD PTR $T144064[ebp]
	call	DWORD PTR __imp_??0?$basic_string@DU?$char_traits@D@std@@V?$allocator@D@2@@std@@QAE@PBD@Z
	mov	BYTE PTR __$EHRec$[ebp+8], 1
	push	1
	lea	eax, DWORD PTR $T144063[ebp]
	push	eax
	lea	ecx, DWORD PTR $T144064[ebp]
	push	ecx
	mov	edx, DWORD PTR _scPluginCfgFile$[ebp]
	push	edx
	call	DWORD PTR __imp_?IniGetI@@YAHABV?$basic_string@DU?$char_traits@D@std@@V?$allocator@D@2@@std@@00H@Z
	add	esp, 16					; 00000010H
	mov	DWORD PTR _set_iMinTransfer, eax
	mov	BYTE PTR __$EHRec$[ebp+8], 0
	lea	ecx, DWORD PTR $T144064[ebp]
	call	DWORD PTR __imp_??1?$basic_string@DU?$char_traits@D@std@@V?$allocator@D@2@@std@@QAE@XZ
	mov	DWORD PTR __$EHRec$[ebp+8], -1
	lea	ecx, DWORD PTR $T144063[ebp]
	call	DWORD PTR __imp_??1?$basic_string@DU?$char_traits@D@std@@V?$allocator@D@2@@std@@QAE@XZ
; Line 145
	push	OFFSET $SG139236
	lea	ecx, DWORD PTR $T144065[ebp]
	call	DWORD PTR __imp_??0?$basic_string@DU?$char_traits@D@std@@V?$allocator@D@2@@std@@QAE@PBD@Z
	mov	DWORD PTR __$EHRec$[ebp+8], 2
	push	OFFSET $SG139237
	lea	ecx, DWORD PTR $T144066[ebp]
	call	DWORD PTR __imp_??0?$basic_string@DU?$char_traits@D@std@@V?$allocator@D@2@@std@@QAE@PBD@Z
	mov	BYTE PTR __$EHRec$[ebp+8], 3
	push	0
	lea	eax, DWORD PTR $T144065[ebp]
	push	eax
	lea	ecx, DWORD PTR $T144066[ebp]
	push	ecx
	mov	edx, DWORD PTR _scPluginCfgFile$[ebp]
	push	edx
	call	DWORD PTR __imp_?IniGetI@@YAHABV?$basic_string@DU?$char_traits@D@std@@V?$allocator@D@2@@std@@00H@Z
	add	esp, 16					; 00000010H
	mov	DWORD PTR _set_iMinTime, eax
	mov	BYTE PTR __$EHRec$[ebp+8], 2
	lea	ecx, DWORD PTR $T144066[ebp]
	call	DWORD PTR __imp_??1?$basic_string@DU?$char_traits@D@std@@V?$allocator@D@2@@std@@QAE@XZ
	mov	DWORD PTR __$EHRec$[ebp+8], -1
	lea	ecx, DWORD PTR $T144065[ebp]
	call	DWORD PTR __imp_??1?$basic_string@DU?$char_traits@D@std@@V?$allocator@D@2@@std@@QAE@XZ
; Line 146
	push	OFFSET $SG139240
	lea	ecx, DWORD PTR $T144067[ebp]
	call	DWORD PTR __imp_??0?$basic_string@DU?$char_traits@D@std@@V?$allocator@D@2@@std@@QAE@PBD@Z
	mov	DWORD PTR __$EHRec$[ebp+8], 4
	push	OFFSET $SG139241
	lea	ecx, DWORD PTR $T144068[ebp]
	call	DWORD PTR __imp_??0?$basic_string@DU?$char_traits@D@std@@V?$allocator@D@2@@std@@QAE@PBD@Z
	mov	BYTE PTR __$EHRec$[ebp+8], 5
	push	1
	lea	eax, DWORD PTR $T144067[ebp]
	push	eax
	lea	ecx, DWORD PTR $T144068[ebp]
	push	ecx
	mov	edx, DWORD PTR _scPluginCfgFile$[ebp]
	push	edx
	call	DWORD PTR __imp_?IniGetB@@YA_NABV?$basic_string@DU?$char_traits@D@std@@V?$allocator@D@2@@std@@00_N@Z
	add	esp, 16					; 00000010H
	mov	BYTE PTR _set_bCheatDetection, al
	mov	BYTE PTR __$EHRec$[ebp+8], 4
	lea	ecx, DWORD PTR $T144068[ebp]
	call	DWORD PTR __imp_??1?$basic_string@DU?$char_traits@D@std@@V?$allocator@D@2@@std@@QAE@XZ
	mov	DWORD PTR __$EHRec$[ebp+8], -1
	lea	ecx, DWORD PTR $T144067[ebp]
	call	DWORD PTR __imp_??1?$basic_string@DU?$char_traits@D@std@@V?$allocator@D@2@@std@@QAE@XZ
; Line 147
	push	OFFSET $SG139246
	lea	ecx, DWORD PTR $T144069[ebp]
	call	DWORD PTR __imp_??0?$basic_string@DU?$char_traits@D@std@@V?$allocator@D@2@@std@@QAE@PBD@Z
	mov	DWORD PTR __$EHRec$[ebp+8], 6
	push	OFFSET $SG139247
	lea	ecx, DWORD PTR $T144070[ebp]
	call	DWORD PTR __imp_??0?$basic_string@DU?$char_traits@D@std@@V?$allocator@D@2@@std@@QAE@PBD@Z
	mov	BYTE PTR __$EHRec$[ebp+8], 7
	push	OFFSET $SG139248
	lea	ecx, DWORD PTR $T144071[ebp]
	call	DWORD PTR __imp_??0?$basic_string@DU?$char_traits@D@std@@V?$allocator@D@2@@std@@QAE@PBD@Z
	mov	BYTE PTR __$EHRec$[ebp+8], 8
	lea	eax, DWORD PTR $T144069[ebp]
	push	eax
	lea	ecx, DWORD PTR $T144070[ebp]
	push	ecx
	lea	edx, DWORD PTR $T144071[ebp]
	push	edx
	mov	eax, DWORD PTR _scPluginCfgFile$[ebp]
	push	eax
	lea	ecx, DWORD PTR $T144072[ebp]
	push	ecx
	call	DWORD PTR __imp_?IniGetS@@YA?AV?$basic_string@DU?$char_traits@D@std@@V?$allocator@D@2@@std@@ABV12@000@Z
	add	esp, 20					; 00000014H
	mov	DWORD PTR tv148[ebp], eax
	mov	edx, DWORD PTR tv148[ebp]
	mov	DWORD PTR tv169[ebp], edx
	mov	BYTE PTR __$EHRec$[ebp+8], 9
	mov	ecx, DWORD PTR tv169[ebp]
	call	DWORD PTR __imp_?c_str@?$basic_string@DU?$char_traits@D@std@@V?$allocator@D@2@@std@@QBEPBDXZ
	push	eax
	call	DWORD PTR __imp_?CreateID@@YAIPBD@Z
	add	esp, 4
	mov	DWORD PTR _set_iBlockedSystem, eax
	mov	BYTE PTR __$EHRec$[ebp+8], 8
	lea	ecx, DWORD PTR $T144072[ebp]
	call	DWORD PTR __imp_??1?$basic_string@DU?$char_traits@D@std@@V?$allocator@D@2@@std@@QAE@XZ
	mov	BYTE PTR __$EHRec$[ebp+8], 7
	lea	ecx, DWORD PTR $T144071[ebp]
	call	DWORD PTR __imp_??1?$basic_string@DU?$char_traits@D@std@@V?$allocator@D@2@@std@@QAE@XZ
	mov	BYTE PTR __$EHRec$[ebp+8], 6
	lea	ecx, DWORD PTR $T144070[ebp]
	call	DWORD PTR __imp_??1?$basic_string@DU?$char_traits@D@std@@V?$allocator@D@2@@std@@QAE@XZ
	mov	DWORD PTR __$EHRec$[ebp+8], -1
	lea	ecx, DWORD PTR $T144069[ebp]
	call	DWORD PTR __imp_??1?$basic_string@DU?$char_traits@D@std@@V?$allocator@D@2@@std@@QAE@XZ
; Line 148
	mov	ecx, DWORD PTR __$EHRec$[ebp]
	mov	DWORD PTR fs:0, ecx
	pop	ecx
	mov	esp, ebp
	pop	ebp
	ret	0
_TEXT	ENDS
text$x	SEGMENT
__unwindfunclet$?LoadSettings@GiveCash@@YAXABV?$basic_string@DU?$char_traits@D@std@@V?$allocator@D@2@@std@@@Z$0:
	lea	ecx, DWORD PTR $T144063[ebp]
	jmp	DWORD PTR __imp_??1?$basic_string@DU?$char_traits@D@std@@V?$allocator@D@2@@std@@QAE@XZ
__unwindfunclet$?LoadSettings@GiveCash@@YAXABV?$basic_string@DU?$char_traits@D@std@@V?$allocator@D@2@@std@@@Z$1:
	lea	ecx, DWORD PTR $T144064[ebp]
	jmp	DWORD PTR __imp_??1?$basic_string@DU?$char_traits@D@std@@V?$allocator@D@2@@std@@QAE@XZ
__unwindfunclet$?LoadSettings@GiveCash@@YAXABV?$basic_string@DU?$char_traits@D@std@@V?$allocator@D@2@@std@@@Z$2:
	lea	ecx, DWORD PTR $T144065[ebp]
	jmp	DWORD PTR __imp_??1?$basic_string@DU?$char_traits@D@std@@V?$allocator@D@2@@std@@QAE@XZ
__unwindfunclet$?LoadSettings@GiveCash@@YAXABV?$basic_string@DU?$char_traits@D@std@@V?$allocator@D@2@@std@@@Z$3:
	lea	ecx, DWORD PTR $T144066[ebp]
	jmp	DWORD PTR __imp_??1?$basic_string@DU?$char_traits@D@std@@V?$allocator@D@2@@std@@QAE@XZ
__unwindfunclet$?LoadSettings@GiveCash@@YAXABV?$basic_string@DU?$char_traits@D@std@@V?$allocator@D@2@@std@@@Z$4:
	lea	ecx, DWORD PTR $T144067[ebp]
	jmp	DWORD PTR __imp_??1?$basic_string@DU?$char_traits@D@std@@V?$allocator@D@2@@std@@QAE@XZ
__unwindfunclet$?LoadSettings@GiveCash@@YAXABV?$basic_string@DU?$char_traits@D@std@@V?$allocator@D@2@@std@@@Z$5:
	lea	ecx, DWORD PTR $T144068[ebp]
	jmp	DWORD PTR __imp_??1?$basic_string@DU?$char_traits@D@std@@V?$allocator@D@2@@std@@QAE@XZ
__unwindfunclet$?LoadSettings@GiveCash@@YAXABV?$basic_string@DU?$char_traits@D@std@@V?$allocator@D@2@@std@@@Z$6:
	lea	ecx, DWORD PTR $T144069[ebp]
	jmp	DWORD PTR __imp_??1?$basic_string@DU?$char_traits@D@std@@V?$allocator@D@2@@std@@QAE@XZ
__unwindfunclet$?LoadSettings@GiveCash@@YAXABV?$basic_string@DU?$char_traits@D@std@@V?$allocator@D@2@@std@@@Z$7:
	lea	ecx, DWORD PTR $T144070[ebp]
	jmp	DWORD PTR __imp_??1?$basic_string@DU?$char_traits@D@std@@V?$allocator@D@2@@std@@QAE@XZ
__unwindfunclet$?LoadSettings@GiveCash@@YAXABV?$basic_string@DU?$char_traits@D@std@@V?$allocator@D@2@@std@@@Z$8:
	lea	ecx, DWORD PTR $T144071[ebp]
	jmp	DWORD PTR __imp_??1?$basic_string@DU?$char_traits@D@std@@V?$allocator@D@2@@std@@QAE@XZ
__unwindfunclet$?LoadSettings@GiveCash@@YAXABV?$basic_string@DU?$char_traits@D@std@@V?$allocator@D@2@@std@@@Z$9:
	lea	ecx, DWORD PTR $T144072[ebp]
	jmp	DWORD PTR __imp_??1?$basic_string@DU?$char_traits@D@std@@V?$allocator@D@2@@std@@QAE@XZ
__ehhandler$?LoadSettings@GiveCash@@YAXABV?$basic_string@DU?$char_traits@D@std@@V?$allocator@D@2@@std@@@Z:
	mov	edx, DWORD PTR [esp+8]
	lea	eax, DWORD PTR [edx+12]
	mov	ecx, DWORD PTR [edx-292]
	xor	ecx, eax
	call	@__security_check_cookie@4
	mov	eax, OFFSET __ehfuncinfo$?LoadSettings@GiveCash@@YAXABV?$basic_string@DU?$char_traits@D@std@@V?$allocator@D@2@@std@@@Z
	jmp	___CxxFrameHandler3
text$x	ENDS
?LoadSettings@GiveCash@@YAXABV?$basic_string@DU?$char_traits@D@std@@V?$allocator@D@2@@std@@@Z ENDP ; GiveCash::LoadSettings
PUBLIC	?PlayerLaunch@GiveCash@@YAXII@Z			; GiveCash::PlayerLaunch
; Function compile flags: /Odtp
_TEXT	SEGMENT
_iShip$ = 8						; size = 4
_iClientID$ = 12					; size = 4
?PlayerLaunch@GiveCash@@YAXII@Z PROC			; GiveCash::PlayerLaunch
; Line 153
	push	ebp
	mov	ebp, esp
; Line 154
	mov	eax, DWORD PTR _iClientID$[ebp]
	push	eax
	call	?CheckTransferLog@GiveCash@@YAXI@Z	; GiveCash::CheckTransferLog
	add	esp, 4
; Line 155
	pop	ebp
	ret	0
?PlayerLaunch@GiveCash@@YAXII@Z ENDP			; GiveCash::PlayerLaunch
_TEXT	ENDS
PUBLIC	__$ArrayPad$
EXTRN	__imp__remove:PROC
EXTRN	__imp__fclose:PROC
EXTRN	__imp_?PrintUserCmdText@@YAXIV?$basic_string@GU?$char_traits@G@std@@V?$allocator@G@2@@std@@ZZ:PROC
EXTRN	__imp_?c_str@?$basic_string@GU?$char_traits@G@std@@V?$allocator@G@2@@std@@QBEPBGXZ:PROC
EXTRN	__imp_?append@?$basic_string@GU?$char_traits@G@std@@V?$allocator@G@2@@std@@QAEAAV12@IG@Z:PROC
EXTRN	__imp_??4?$basic_string@DU?$char_traits@D@std@@V?$allocator@D@2@@std@@QAEAAV01@ABV01@@Z:PROC
EXTRN	__imp_?substr@?$basic_string@DU?$char_traits@D@std@@V?$allocator@D@2@@std@@QBE?AV12@II@Z:PROC
EXTRN	__imp_?npos@?$basic_string@DU?$char_traits@D@std@@V?$allocator@D@2@@std@@2IB:DWORD
EXTRN	__imp__sscanf:PROC
EXTRN	__imp_?length@?$basic_string@DU?$char_traits@D@std@@V?$allocator@D@2@@std@@QBEIXZ:PROC
EXTRN	__imp__fgets:PROC
EXTRN	__imp__fopen:PROC
EXTRN	?GetUserFilePath@@YA_NAAV?$basic_string@DU?$char_traits@D@std@@V?$allocator@D@2@@std@@ABV?$basic_string@GU?$char_traits@G@std@@V?$allocator@G@2@@2@ABV12@@Z:PROC ; GetUserFilePath
EXTRN	__imp_??0?$basic_string@DU?$char_traits@D@std@@V?$allocator@D@2@@std@@QAE@XZ:PROC
EXTRN	__imp_??1?$basic_string@GU?$char_traits@G@std@@V?$allocator@G@2@@std@@QAE@XZ:PROC
EXTRN	__imp_?ToLower@@YA?AV?$basic_string@GU?$char_traits@G@std@@V?$allocator@G@2@@std@@ABV12@@Z:PROC
EXTRN	__imp_??0?$basic_string@GU?$char_traits@G@std@@V?$allocator@G@2@@std@@QAE@PBG@Z:PROC
EXTRN	__imp_?GetActiveCharacterName@PlayerDB@@QBEPBGI@Z:PROC
EXTRN	__imp_?Players@@3VPlayerDB@@A:BYTE
xdata$x	SEGMENT
__catchsym$?CheckTransferLog@GiveCash@@YAXI@Z$10 DD 00H
	DD	00H
	DD	00H
	DD	FLAT:__catch$?CheckTransferLog@GiveCash@@YAXI@Z$0
__tryblocktable$?CheckTransferLog@GiveCash@@YAXI@Z DD 05H
	DD	09H
	DD	0aH
	DD	01H
	DD	FLAT:__catchsym$?CheckTransferLog@GiveCash@@YAXI@Z$10
__ehfuncinfo$?CheckTransferLog@GiveCash@@YAXI@Z DD 019930522H
	DD	0bH
	DD	FLAT:__unwindtable$?CheckTransferLog@GiveCash@@YAXI@Z
	DD	01H
	DD	FLAT:__tryblocktable$?CheckTransferLog@GiveCash@@YAXI@Z
	DD	2 DUP(00H)
	DD	00H
	DD	00H
__unwindtable$?CheckTransferLog@GiveCash@@YAXI@Z DD 0ffffffffH
	DD	FLAT:__unwindfunclet$?CheckTransferLog@GiveCash@@YAXI@Z$2
	DD	00H
	DD	FLAT:__unwindfunclet$?CheckTransferLog@GiveCash@@YAXI@Z$3
	DD	0ffffffffH
	DD	FLAT:__unwindfunclet$?CheckTransferLog@GiveCash@@YAXI@Z$3
	DD	02H
	DD	FLAT:__unwindfunclet$?CheckTransferLog@GiveCash@@YAXI@Z$4
	DD	03H
	DD	FLAT:__unwindfunclet$?CheckTransferLog@GiveCash@@YAXI@Z$5
	DD	03H
	DD	00H
	DD	05H
	DD	FLAT:__unwindfunclet$?CheckTransferLog@GiveCash@@YAXI@Z$6
	DD	06H
	DD	FLAT:__unwindfunclet$?CheckTransferLog@GiveCash@@YAXI@Z$7
	DD	07H
	DD	FLAT:__unwindfunclet$?CheckTransferLog@GiveCash@@YAXI@Z$8
	DD	07H
	DD	FLAT:__unwindfunclet$?CheckTransferLog@GiveCash@@YAXI@Z$9
	DD	03H
	DD	00H
; Function compile flags: /Odtp
xdata$x	ENDS
_TEXT	SEGMENT
tv205 = -1252						; size = 4
tv136 = -1248						; size = 4
tv202 = -1244						; size = 4
tv140 = -1240						; size = 4
$T144099 = -1236					; size = 4
$T144098 = -1232					; size = 28
$T144097 = -1204					; size = 28
$T144096 = -1173					; size = 1
$T144095 = -1172					; size = 28
_lHiByte$139085 = -1144					; size = 4
_lLoByte$139086 = -1140					; size = 4
_msg$139083 = -1136					; size = 28
_scValue$139082 = -1108					; size = 28
_buf$139078 = -1080					; size = 1000
_wscCharname$ = -80					; size = 28
_logFile$ = -52						; size = 28
__$ArrayPad$ = -24					; size = 4
_f$ = -20						; size = 4
__$EHRec$ = -16						; size = 16
_iClientID$ = 8						; size = 4
?CheckTransferLog@GiveCash@@YAXI@Z PROC			; GiveCash::CheckTransferLog
; Line 47
	push	ebp
	mov	ebp, esp
	push	-1
	push	__ehhandler$?CheckTransferLog@GiveCash@@YAXI@Z
	mov	eax, DWORD PTR fs:0
	push	eax
	push	ecx
	sub	esp, 1236				; 000004d4H
	mov	eax, DWORD PTR ___security_cookie
	xor	eax, ebp
	mov	DWORD PTR __$ArrayPad$[ebp], eax
	push	ebx
	push	esi
	push	edi
	push	eax
	lea	eax, DWORD PTR __$EHRec$[ebp+4]
	mov	DWORD PTR fs:0, eax
	mov	DWORD PTR __$EHRec$[ebp], esp
; Line 48
	mov	eax, DWORD PTR _iClientID$[ebp]
	push	eax
	mov	ecx, DWORD PTR __imp_?Players@@3VPlayerDB@@A
	call	DWORD PTR __imp_?GetActiveCharacterName@PlayerDB@@QBEPBGI@Z
	push	eax
	lea	ecx, DWORD PTR $T144095[ebp]
	call	DWORD PTR __imp_??0?$basic_string@GU?$char_traits@G@std@@V?$allocator@G@2@@std@@QAE@PBG@Z
	mov	DWORD PTR __$EHRec$[ebp+12], 0
	lea	ecx, DWORD PTR $T144095[ebp]
	push	ecx
	lea	edx, DWORD PTR _wscCharname$[ebp]
	push	edx
	call	DWORD PTR __imp_?ToLower@@YA?AV?$basic_string@GU?$char_traits@G@std@@V?$allocator@G@2@@std@@ABV12@@Z
	add	esp, 8
	mov	BYTE PTR __$EHRec$[ebp+12], 2
	lea	ecx, DWORD PTR $T144095[ebp]
	call	DWORD PTR __imp_??1?$basic_string@GU?$char_traits@G@std@@V?$allocator@G@2@@std@@QAE@XZ
; Line 50
	lea	ecx, DWORD PTR _logFile$[ebp]
	call	DWORD PTR __imp_??0?$basic_string@DU?$char_traits@D@std@@V?$allocator@D@2@@std@@QAE@XZ
	mov	BYTE PTR __$EHRec$[ebp+12], 3
; Line 51
	push	OFFSET $SG139073
	lea	ecx, DWORD PTR $T144097[ebp]
	call	DWORD PTR __imp_??0?$basic_string@DU?$char_traits@D@std@@V?$allocator@D@2@@std@@QAE@PBD@Z
	mov	BYTE PTR __$EHRec$[ebp+12], 4
	lea	eax, DWORD PTR $T144097[ebp]
	push	eax
	lea	ecx, DWORD PTR _wscCharname$[ebp]
	push	ecx
	lea	edx, DWORD PTR _logFile$[ebp]
	push	edx
	call	?GetUserFilePath@@YA_NAAV?$basic_string@DU?$char_traits@D@std@@V?$allocator@D@2@@std@@ABV?$basic_string@GU?$char_traits@G@std@@V?$allocator@G@2@@2@ABV12@@Z ; GetUserFilePath
	add	esp, 12					; 0000000cH
	movzx	eax, al
	neg	eax
	sbb	eax, eax
	add	eax, 1
	mov	BYTE PTR $T144096[ebp], al
	mov	BYTE PTR __$EHRec$[ebp+12], 3
	lea	ecx, DWORD PTR $T144097[ebp]
	call	DWORD PTR __imp_??1?$basic_string@DU?$char_traits@D@std@@V?$allocator@D@2@@std@@QAE@XZ
	movzx	ecx, BYTE PTR $T144096[ebp]
	test	ecx, ecx
	je	SHORT $LN7@CheckTrans
; Line 52
	mov	BYTE PTR __$EHRec$[ebp+12], 2
	lea	ecx, DWORD PTR _logFile$[ebp]
	call	DWORD PTR __imp_??1?$basic_string@DU?$char_traits@D@std@@V?$allocator@D@2@@std@@QAE@XZ
	mov	DWORD PTR __$EHRec$[ebp+12], -1
	lea	ecx, DWORD PTR _wscCharname$[ebp]
	call	DWORD PTR __imp_??1?$basic_string@GU?$char_traits@G@std@@V?$allocator@G@2@@std@@QAE@XZ
	jmp	$LN8@CheckTrans
$LN7@CheckTrans:
; Line 54
	push	OFFSET $SG139075
	lea	ecx, DWORD PTR _logFile$[ebp]
	call	DWORD PTR __imp_?c_str@?$basic_string@DU?$char_traits@D@std@@V?$allocator@D@2@@std@@QBEPBDXZ
	push	eax
	call	DWORD PTR __imp__fopen
	add	esp, 8
	mov	DWORD PTR _f$[ebp], eax
; Line 55
	cmp	DWORD PTR _f$[ebp], 0
	jne	SHORT $LN6@CheckTrans
; Line 56
	mov	BYTE PTR __$EHRec$[ebp+12], 2
	lea	ecx, DWORD PTR _logFile$[ebp]
	call	DWORD PTR __imp_??1?$basic_string@DU?$char_traits@D@std@@V?$allocator@D@2@@std@@QAE@XZ
	mov	DWORD PTR __$EHRec$[ebp+12], -1
	lea	ecx, DWORD PTR _wscCharname$[ebp]
	call	DWORD PTR __imp_??1?$basic_string@GU?$char_traits@G@std@@V?$allocator@G@2@@std@@QAE@XZ
	jmp	$LN8@CheckTrans
$LN6@CheckTrans:
; Line 61
	mov	BYTE PTR __$EHRec$[ebp+12], 5
$LN4@CheckTrans:
; Line 63
	mov	edx, DWORD PTR _f$[ebp]
	push	edx
	push	1000					; 000003e8H
	lea	eax, DWORD PTR _buf$139078[ebp]
	push	eax
	call	DWORD PTR __imp__fgets
	add	esp, 12					; 0000000cH
	test	eax, eax
	je	$LN3@CheckTrans
; Line 65
	lea	ecx, DWORD PTR _buf$139078[ebp]
	push	ecx
	lea	ecx, DWORD PTR _scValue$139082[ebp]
	call	DWORD PTR __imp_??0?$basic_string@DU?$char_traits@D@std@@V?$allocator@D@2@@std@@QAE@PBD@Z
	mov	BYTE PTR __$EHRec$[ebp+12], 6
; Line 66
	push	OFFSET $SG139084
	lea	ecx, DWORD PTR _msg$139083[ebp]
	call	DWORD PTR __imp_??0?$basic_string@GU?$char_traits@G@std@@V?$allocator@G@2@@std@@QAE@PBG@Z
	mov	BYTE PTR __$EHRec$[ebp+12], 7
$LN2@CheckTrans:
; Line 69
	lea	ecx, DWORD PTR _scValue$139082[ebp]
	call	DWORD PTR __imp_?length@?$basic_string@DU?$char_traits@D@std@@V?$allocator@D@2@@std@@QBEIXZ
	cmp	eax, 3
	jbe	$LN1@CheckTrans
	lea	edx, DWORD PTR _lLoByte$139086[ebp]
	push	edx
	lea	eax, DWORD PTR _lHiByte$139085[ebp]
	push	eax
	push	OFFSET $SG139090
	lea	ecx, DWORD PTR _scValue$139082[ebp]
	call	DWORD PTR __imp_?c_str@?$basic_string@DU?$char_traits@D@std@@V?$allocator@D@2@@std@@QBEPBDXZ
	push	eax
	call	DWORD PTR __imp__sscanf
	add	esp, 16					; 00000010H
	cmp	eax, 2
	jne	SHORT $LN1@CheckTrans
; Line 71
	mov	ecx, DWORD PTR __imp_?npos@?$basic_string@DU?$char_traits@D@std@@V?$allocator@D@2@@std@@2IB
	mov	edx, DWORD PTR [ecx]
	push	edx
	push	4
	lea	eax, DWORD PTR $T144098[ebp]
	push	eax
	lea	ecx, DWORD PTR _scValue$139082[ebp]
	call	DWORD PTR __imp_?substr@?$basic_string@DU?$char_traits@D@std@@V?$allocator@D@2@@std@@QBE?AV12@II@Z
	mov	DWORD PTR tv140[ebp], eax
	mov	ecx, DWORD PTR tv140[ebp]
	mov	DWORD PTR tv202[ebp], ecx
	mov	BYTE PTR __$EHRec$[ebp+12], 8
	mov	edx, DWORD PTR tv202[ebp]
	push	edx
	lea	ecx, DWORD PTR _scValue$139082[ebp]
	call	DWORD PTR __imp_??4?$basic_string@DU?$char_traits@D@std@@V?$allocator@D@2@@std@@QAEAAV01@ABV01@@Z
	mov	BYTE PTR __$EHRec$[ebp+12], 7
	lea	ecx, DWORD PTR $T144098[ebp]
	call	DWORD PTR __imp_??1?$basic_string@DU?$char_traits@D@std@@V?$allocator@D@2@@std@@QAE@XZ
; Line 72
	mov	eax, DWORD PTR _lHiByte$139085[ebp]
	shl	eax, 8
	or	eax, DWORD PTR _lLoByte$139086[ebp]
	push	eax
	push	1
	lea	ecx, DWORD PTR _msg$139083[ebp]
	call	DWORD PTR __imp_?append@?$basic_string@GU?$char_traits@G@std@@V?$allocator@G@2@@std@@QAEAAV12@IG@Z
; Line 73
	jmp	$LN2@CheckTrans
$LN1@CheckTrans:
; Line 74
	lea	ecx, DWORD PTR _msg$139083[ebp]
	call	DWORD PTR __imp_?c_str@?$basic_string@GU?$char_traits@G@std@@V?$allocator@G@2@@std@@QBEPBGXZ
	push	eax
	sub	esp, 28					; 0000001cH
	mov	ecx, esp
	mov	DWORD PTR $T144099[ebp], esp
	push	OFFSET $SG139184
	call	DWORD PTR __imp_??0?$basic_string@GU?$char_traits@G@std@@V?$allocator@G@2@@std@@QAE@PBG@Z
	mov	DWORD PTR tv136[ebp], eax
	mov	ecx, DWORD PTR tv136[ebp]
	mov	DWORD PTR tv205[ebp], ecx
	mov	BYTE PTR __$EHRec$[ebp+12], 9
	mov	edx, DWORD PTR _iClientID$[ebp]
	push	edx
	mov	BYTE PTR __$EHRec$[ebp+12], 7
	call	DWORD PTR __imp_?PrintUserCmdText@@YAXIV?$basic_string@GU?$char_traits@G@std@@V?$allocator@G@2@@std@@ZZ
	add	esp, 36					; 00000024H
; Line 75
	mov	BYTE PTR __$EHRec$[ebp+12], 6
	lea	ecx, DWORD PTR _msg$139083[ebp]
	call	DWORD PTR __imp_??1?$basic_string@GU?$char_traits@G@std@@V?$allocator@G@2@@std@@QAE@XZ
	mov	BYTE PTR __$EHRec$[ebp+12], 5
	lea	ecx, DWORD PTR _scValue$139082[ebp]
	call	DWORD PTR __imp_??1?$basic_string@DU?$char_traits@D@std@@V?$allocator@D@2@@std@@QAE@XZ
	jmp	$LN4@CheckTrans
$LN3@CheckTrans:
	jmp	SHORT $LN10@CheckTrans
__catch$?CheckTransferLog@GiveCash@@YAXI@Z$0:
; Line 76
	mov	DWORD PTR __$EHRec$[ebp+12], 3
	mov	eax, __tryend$?CheckTransferLog@GiveCash@@YAXI@Z$1
	ret	0
$LN10@CheckTrans:
	mov	DWORD PTR __$EHRec$[ebp+12], 3
__tryend$?CheckTransferLog@GiveCash@@YAXI@Z$1:
; Line 78
	mov	eax, DWORD PTR _f$[ebp]
	push	eax
	call	DWORD PTR __imp__fclose
	add	esp, 4
; Line 79
	lea	ecx, DWORD PTR _logFile$[ebp]
	call	DWORD PTR __imp_?c_str@?$basic_string@DU?$char_traits@D@std@@V?$allocator@D@2@@std@@QBEPBDXZ
	push	eax
	call	DWORD PTR __imp__remove
	add	esp, 4
; Line 80
	mov	BYTE PTR __$EHRec$[ebp+12], 2
	lea	ecx, DWORD PTR _logFile$[ebp]
	call	DWORD PTR __imp_??1?$basic_string@DU?$char_traits@D@std@@V?$allocator@D@2@@std@@QAE@XZ
	mov	DWORD PTR __$EHRec$[ebp+12], -1
	lea	ecx, DWORD PTR _wscCharname$[ebp]
	call	DWORD PTR __imp_??1?$basic_string@GU?$char_traits@G@std@@V?$allocator@G@2@@std@@QAE@XZ
$LN8@CheckTrans:
	mov	ecx, DWORD PTR __$EHRec$[ebp+4]
	mov	DWORD PTR fs:0, ecx
	pop	ecx
	pop	edi
	pop	esi
	pop	ebx
	mov	ecx, DWORD PTR __$ArrayPad$[ebp]
	xor	ecx, ebp
	call	@__security_check_cookie@4
	mov	esp, ebp
	pop	ebp
	ret	0
_TEXT	ENDS
text$x	SEGMENT
__unwindfunclet$?CheckTransferLog@GiveCash@@YAXI@Z$2:
	lea	ecx, DWORD PTR $T144095[ebp]
	jmp	DWORD PTR __imp_??1?$basic_string@GU?$char_traits@G@std@@V?$allocator@G@2@@std@@QAE@XZ
__unwindfunclet$?CheckTransferLog@GiveCash@@YAXI@Z$3:
	lea	ecx, DWORD PTR _wscCharname$[ebp]
	jmp	DWORD PTR __imp_??1?$basic_string@GU?$char_traits@G@std@@V?$allocator@G@2@@std@@QAE@XZ
__unwindfunclet$?CheckTransferLog@GiveCash@@YAXI@Z$4:
	lea	ecx, DWORD PTR _logFile$[ebp]
	jmp	DWORD PTR __imp_??1?$basic_string@DU?$char_traits@D@std@@V?$allocator@D@2@@std@@QAE@XZ
__unwindfunclet$?CheckTransferLog@GiveCash@@YAXI@Z$5:
	lea	ecx, DWORD PTR $T144097[ebp]
	jmp	DWORD PTR __imp_??1?$basic_string@DU?$char_traits@D@std@@V?$allocator@D@2@@std@@QAE@XZ
__unwindfunclet$?CheckTransferLog@GiveCash@@YAXI@Z$6:
	lea	ecx, DWORD PTR _scValue$139082[ebp]
	jmp	DWORD PTR __imp_??1?$basic_string@DU?$char_traits@D@std@@V?$allocator@D@2@@std@@QAE@XZ
__unwindfunclet$?CheckTransferLog@GiveCash@@YAXI@Z$7:
	lea	ecx, DWORD PTR _msg$139083[ebp]
	jmp	DWORD PTR __imp_??1?$basic_string@GU?$char_traits@G@std@@V?$allocator@G@2@@std@@QAE@XZ
__unwindfunclet$?CheckTransferLog@GiveCash@@YAXI@Z$8:
	lea	ecx, DWORD PTR $T144098[ebp]
	jmp	DWORD PTR __imp_??1?$basic_string@DU?$char_traits@D@std@@V?$allocator@D@2@@std@@QAE@XZ
__unwindfunclet$?CheckTransferLog@GiveCash@@YAXI@Z$9:
	mov	ecx, DWORD PTR $T144099[ebp]
	jmp	DWORD PTR __imp_??1?$basic_string@GU?$char_traits@G@std@@V?$allocator@G@2@@std@@QAE@XZ
__ehhandler$?CheckTransferLog@GiveCash@@YAXI@Z:
	mov	edx, DWORD PTR [esp+8]
	lea	eax, DWORD PTR [edx+12]
	mov	ecx, DWORD PTR [edx-1256]
	xor	ecx, eax
	call	@__security_check_cookie@4
	mov	ecx, DWORD PTR [edx-12]
	xor	ecx, eax
	call	@__security_check_cookie@4
	mov	eax, OFFSET __ehfuncinfo$?CheckTransferLog@GiveCash@@YAXI@Z
	jmp	___CxxFrameHandler3
text$x	ENDS
?CheckTransferLog@GiveCash@@YAXI@Z ENDP			; GiveCash::CheckTransferLog
PUBLIC	?BaseEnter@GiveCash@@YAXII@Z			; GiveCash::BaseEnter
; Function compile flags: /Odtp
_TEXT	SEGMENT
_iBaseID$ = 8						; size = 4
_iClientID$ = 12					; size = 4
?BaseEnter@GiveCash@@YAXII@Z PROC			; GiveCash::BaseEnter
; Line 160
	push	ebp
	mov	ebp, esp
; Line 161
	mov	eax, DWORD PTR _iClientID$[ebp]
	push	eax
	call	?CheckTransferLog@GiveCash@@YAXI@Z	; GiveCash::CheckTransferLog
	add	esp, 4
; Line 162
	pop	ebp
	ret	0
?BaseEnter@GiveCash@@YAXII@Z ENDP			; GiveCash::BaseEnter
_TEXT	ENDS
PUBLIC	__real@41ddcd6500000000
PUBLIC	__real@00000000
PUBLIC	__$ArrayPad$
PUBLIC	?UserCmd_GiveCash@GiveCash@@YA_NIABV?$basic_string@GU?$char_traits@G@std@@V?$allocator@G@2@@std@@0PBG@Z ; GiveCash::UserCmd_GiveCash
EXTRN	__imp_??Y?$basic_string@GU?$char_traits@G@std@@V?$allocator@G@2@@std@@QAEAAV01@PBG@Z:PROC
EXTRN	__imp_??0?$basic_string@GU?$char_traits@G@std@@V?$allocator@G@2@@std@@QAE@ABV01@@Z:PROC
EXTRN	__imp_??$?HGU?$char_traits@G@std@@V?$allocator@G@1@@std@@YA?AV?$basic_string@GU?$char_traits@G@std@@V?$allocator@G@2@@0@ABV10@0@Z:PROC
EXTRN	__imp_?HkAddCash@@YA?AW4HK_ERROR@@ABV?$basic_string@GU?$char_traits@G@std@@V?$allocator@G@2@@std@@H@Z:PROC
EXTRN	__imp_?ClientInfo@@3PAUCLIENT_INFO@@A:BYTE
EXTRN	?HkSaveChar@@YAXI@Z:PROC			; HkSaveChar
EXTRN	__imp_?AddLog@@YAXPBDZZ:PROC
EXTRN	__imp_?wstos@@YA?AV?$basic_string@DU?$char_traits@D@std@@V?$allocator@D@2@@std@@ABV?$basic_string@GU?$char_traits@G@std@@V?$allocator@G@2@@2@@Z:PROC
EXTRN	__imp_?HkGetAccountID@@YA?AV?$basic_string@GU?$char_traits@G@std@@V?$allocator@G@2@@std@@PAVCAccount@@@Z:PROC
EXTRN	?HkAntiCheat@@YA?AW4HK_ERROR@@I@Z:PROC		; HkAntiCheat
EXTRN	__imp_?HkIsInCharSelectMenu@@YA_NI@Z:PROC
EXTRN	__imp_?HkGetClientIdFromCharname@@YAIABV?$basic_string@GU?$char_traits@G@std@@V?$allocator@G@2@@std@@@Z:PROC
EXTRN	?HKGetShipValue@@YA?AW4HK_ERROR@@ABV?$basic_string@GU?$char_traits@G@std@@V?$allocator@G@2@@std@@AAM@Z:PROC ; HKGetShipValue
EXTRN	__imp_??$?HGU?$char_traits@G@std@@V?$allocator@G@1@@std@@YA?AV?$basic_string@GU?$char_traits@G@std@@V?$allocator@G@2@@0@ABV10@PBG@Z:PROC
EXTRN	__imp_?ToMoneyStr@@YA?AV?$basic_string@GU?$char_traits@G@std@@V?$allocator@G@2@@std@@H@Z:PROC
EXTRN	__imp_??$?HGU?$char_traits@G@std@@V?$allocator@G@1@@std@@YA?AV?$basic_string@GU?$char_traits@G@std@@V?$allocator@G@2@@0@PBGABV10@@Z:PROC
EXTRN	__imp_?HkErrGetText@@YA?AV?$basic_string@GU?$char_traits@G@std@@V?$allocator@G@2@@std@@W4HK_ERROR@@@Z:PROC
EXTRN	__imp_?HkGetCash@@YA?AW4HK_ERROR@@ABV?$basic_string@GU?$char_traits@G@std@@V?$allocator@G@2@@std@@AAH@Z:PROC
EXTRN	?HkGetOnLineTime@@YA?AW4HK_ERROR@@ABV?$basic_string@GU?$char_traits@G@std@@V?$allocator@G@2@@std@@AAH@Z:PROC ; HkGetOnLineTime
EXTRN	__imp_?HkGetAccountByCharname@@YAPAVCAccount@@ABV?$basic_string@GU?$char_traits@G@std@@V?$allocator@G@2@@std@@@Z:PROC
EXTRN	__imp_??$?8GU?$char_traits@G@std@@V?$allocator@G@1@@std@@YA_NABV?$basic_string@GU?$char_traits@G@std@@V?$allocator@G@2@@0@PBG@Z:PROC
EXTRN	__imp_??$?9GU?$char_traits@G@std@@V?$allocator@G@1@@std@@YA_NABV?$basic_string@GU?$char_traits@G@std@@V?$allocator@G@2@@0@PBG@Z:PROC
EXTRN	__imp_?size@?$basic_string@GU?$char_traits@G@std@@V?$allocator@G@2@@std@@QBEIXZ:PROC
EXTRN	__imp_?length@?$basic_string@GU?$char_traits@G@std@@V?$allocator@G@2@@std@@QBEIXZ:PROC
EXTRN	__imp_?ToInt@@YAHABV?$basic_string@GU?$char_traits@G@std@@V?$allocator@G@2@@std@@@Z:PROC
EXTRN	__imp_??4?$basic_string@GU?$char_traits@G@std@@V?$allocator@G@2@@std@@QAEAAV01@ABV01@@Z:PROC
EXTRN	__imp_?ReplaceStr@@YA?AV?$basic_string@GU?$char_traits@G@std@@V?$allocator@G@2@@std@@ABV12@00@Z:PROC
EXTRN	__imp_?GetParam@@YA?AV?$basic_string@GU?$char_traits@G@std@@V?$allocator@G@2@@std@@ABV12@GI@Z:PROC
EXTRN	__fltused:DWORD
;	COMDAT __real@41ddcd6500000000
CONST	SEGMENT
__real@41ddcd6500000000 DQ 041ddcd6500000000r	; 2e+009
CONST	ENDS
;	COMDAT __real@00000000
CONST	SEGMENT
__real@00000000 DD 000000000r			; 0
CONST	ENDS
xdata$x	SEGMENT
__ehfuncinfo$?UserCmd_GiveCash@GiveCash@@YA_NIABV?$basic_string@GU?$char_traits@G@std@@V?$allocator@G@2@@std@@0PBG@Z DD 019930522H
	DD	074H
	DD	FLAT:__unwindtable$?UserCmd_GiveCash@GiveCash@@YA_NIABV?$basic_string@GU?$char_traits@G@std@@V?$allocator@G@2@@std@@0PBG@Z
	DD	2 DUP(00H)
	DD	2 DUP(00H)
	DD	00H
	DD	00H
__unwindtable$?UserCmd_GiveCash@GiveCash@@YA_NIABV?$basic_string@GU?$char_traits@G@std@@V?$allocator@G@2@@std@@0PBG@Z DD 0ffffffffH
	DD	FLAT:__unwindfunclet$?UserCmd_GiveCash@GiveCash@@YA_NIABV?$basic_string@GU?$char_traits@G@std@@V?$allocator@G@2@@std@@0PBG@Z$0
	DD	00H
	DD	FLAT:__unwindfunclet$?UserCmd_GiveCash@GiveCash@@YA_NIABV?$basic_string@GU?$char_traits@G@std@@V?$allocator@G@2@@std@@0PBG@Z$1
	DD	01H
	DD	FLAT:__unwindfunclet$?UserCmd_GiveCash@GiveCash@@YA_NIABV?$basic_string@GU?$char_traits@G@std@@V?$allocator@G@2@@std@@0PBG@Z$2
	DD	02H
	DD	FLAT:__unwindfunclet$?UserCmd_GiveCash@GiveCash@@YA_NIABV?$basic_string@GU?$char_traits@G@std@@V?$allocator@G@2@@std@@0PBG@Z$3
	DD	03H
	DD	FLAT:__unwindfunclet$?UserCmd_GiveCash@GiveCash@@YA_NIABV?$basic_string@GU?$char_traits@G@std@@V?$allocator@G@2@@std@@0PBG@Z$4
	DD	04H
	DD	FLAT:__unwindfunclet$?UserCmd_GiveCash@GiveCash@@YA_NIABV?$basic_string@GU?$char_traits@G@std@@V?$allocator@G@2@@std@@0PBG@Z$5
	DD	05H
	DD	FLAT:__unwindfunclet$?UserCmd_GiveCash@GiveCash@@YA_NIABV?$basic_string@GU?$char_traits@G@std@@V?$allocator@G@2@@std@@0PBG@Z$6
	DD	03H
	DD	FLAT:__unwindfunclet$?UserCmd_GiveCash@GiveCash@@YA_NIABV?$basic_string@GU?$char_traits@G@std@@V?$allocator@G@2@@std@@0PBG@Z$7
	DD	07H
	DD	FLAT:__unwindfunclet$?UserCmd_GiveCash@GiveCash@@YA_NIABV?$basic_string@GU?$char_traits@G@std@@V?$allocator@G@2@@std@@0PBG@Z$8
	DD	08H
	DD	FLAT:__unwindfunclet$?UserCmd_GiveCash@GiveCash@@YA_NIABV?$basic_string@GU?$char_traits@G@std@@V?$allocator@G@2@@std@@0PBG@Z$9
	DD	03H
	DD	FLAT:__unwindfunclet$?UserCmd_GiveCash@GiveCash@@YA_NIABV?$basic_string@GU?$char_traits@G@std@@V?$allocator@G@2@@std@@0PBG@Z$10
	DD	0aH
	DD	FLAT:__unwindfunclet$?UserCmd_GiveCash@GiveCash@@YA_NIABV?$basic_string@GU?$char_traits@G@std@@V?$allocator@G@2@@std@@0PBG@Z$11
	DD	0bH
	DD	FLAT:__unwindfunclet$?UserCmd_GiveCash@GiveCash@@YA_NIABV?$basic_string@GU?$char_traits@G@std@@V?$allocator@G@2@@std@@0PBG@Z$12
	DD	03H
	DD	FLAT:__unwindfunclet$?UserCmd_GiveCash@GiveCash@@YA_NIABV?$basic_string@GU?$char_traits@G@std@@V?$allocator@G@2@@std@@0PBG@Z$13
	DD	03H
	DD	FLAT:__unwindfunclet$?UserCmd_GiveCash@GiveCash@@YA_NIABV?$basic_string@GU?$char_traits@G@std@@V?$allocator@G@2@@std@@0PBG@Z$14
	DD	03H
	DD	FLAT:__unwindfunclet$?UserCmd_GiveCash@GiveCash@@YA_NIABV?$basic_string@GU?$char_traits@G@std@@V?$allocator@G@2@@std@@0PBG@Z$15
	DD	03H
	DD	FLAT:__unwindfunclet$?UserCmd_GiveCash@GiveCash@@YA_NIABV?$basic_string@GU?$char_traits@G@std@@V?$allocator@G@2@@std@@0PBG@Z$16
	DD	03H
	DD	FLAT:__unwindfunclet$?UserCmd_GiveCash@GiveCash@@YA_NIABV?$basic_string@GU?$char_traits@G@std@@V?$allocator@G@2@@std@@0PBG@Z$17
	DD	03H
	DD	FLAT:__unwindfunclet$?UserCmd_GiveCash@GiveCash@@YA_NIABV?$basic_string@GU?$char_traits@G@std@@V?$allocator@G@2@@std@@0PBG@Z$18
	DD	012H
	DD	FLAT:__unwindfunclet$?UserCmd_GiveCash@GiveCash@@YA_NIABV?$basic_string@GU?$char_traits@G@std@@V?$allocator@G@2@@std@@0PBG@Z$19
	DD	03H
	DD	FLAT:__unwindfunclet$?UserCmd_GiveCash@GiveCash@@YA_NIABV?$basic_string@GU?$char_traits@G@std@@V?$allocator@G@2@@std@@0PBG@Z$20
	DD	014H
	DD	FLAT:__unwindfunclet$?UserCmd_GiveCash@GiveCash@@YA_NIABV?$basic_string@GU?$char_traits@G@std@@V?$allocator@G@2@@std@@0PBG@Z$21
	DD	015H
	DD	FLAT:__unwindfunclet$?UserCmd_GiveCash@GiveCash@@YA_NIABV?$basic_string@GU?$char_traits@G@std@@V?$allocator@G@2@@std@@0PBG@Z$22
	DD	03H
	DD	FLAT:__unwindfunclet$?UserCmd_GiveCash@GiveCash@@YA_NIABV?$basic_string@GU?$char_traits@G@std@@V?$allocator@G@2@@std@@0PBG@Z$23
	DD	03H
	DD	FLAT:__unwindfunclet$?UserCmd_GiveCash@GiveCash@@YA_NIABV?$basic_string@GU?$char_traits@G@std@@V?$allocator@G@2@@std@@0PBG@Z$24
	DD	018H
	DD	FLAT:__unwindfunclet$?UserCmd_GiveCash@GiveCash@@YA_NIABV?$basic_string@GU?$char_traits@G@std@@V?$allocator@G@2@@std@@0PBG@Z$25
	DD	03H
	DD	FLAT:__unwindfunclet$?UserCmd_GiveCash@GiveCash@@YA_NIABV?$basic_string@GU?$char_traits@G@std@@V?$allocator@G@2@@std@@0PBG@Z$26
	DD	03H
	DD	FLAT:__unwindfunclet$?UserCmd_GiveCash@GiveCash@@YA_NIABV?$basic_string@GU?$char_traits@G@std@@V?$allocator@G@2@@std@@0PBG@Z$27
	DD	01bH
	DD	FLAT:__unwindfunclet$?UserCmd_GiveCash@GiveCash@@YA_NIABV?$basic_string@GU?$char_traits@G@std@@V?$allocator@G@2@@std@@0PBG@Z$28
	DD	03H
	DD	FLAT:__unwindfunclet$?UserCmd_GiveCash@GiveCash@@YA_NIABV?$basic_string@GU?$char_traits@G@std@@V?$allocator@G@2@@std@@0PBG@Z$29
	DD	03H
	DD	FLAT:__unwindfunclet$?UserCmd_GiveCash@GiveCash@@YA_NIABV?$basic_string@GU?$char_traits@G@std@@V?$allocator@G@2@@std@@0PBG@Z$30
	DD	01eH
	DD	FLAT:__unwindfunclet$?UserCmd_GiveCash@GiveCash@@YA_NIABV?$basic_string@GU?$char_traits@G@std@@V?$allocator@G@2@@std@@0PBG@Z$31
	DD	01fH
	DD	FLAT:__unwindfunclet$?UserCmd_GiveCash@GiveCash@@YA_NIABV?$basic_string@GU?$char_traits@G@std@@V?$allocator@G@2@@std@@0PBG@Z$32
	DD	020H
	DD	FLAT:__unwindfunclet$?UserCmd_GiveCash@GiveCash@@YA_NIABV?$basic_string@GU?$char_traits@G@std@@V?$allocator@G@2@@std@@0PBG@Z$33
	DD	021H
	DD	FLAT:__unwindfunclet$?UserCmd_GiveCash@GiveCash@@YA_NIABV?$basic_string@GU?$char_traits@G@std@@V?$allocator@G@2@@std@@0PBG@Z$34
	DD	022H
	DD	FLAT:__unwindfunclet$?UserCmd_GiveCash@GiveCash@@YA_NIABV?$basic_string@GU?$char_traits@G@std@@V?$allocator@G@2@@std@@0PBG@Z$35
	DD	023H
	DD	FLAT:__unwindfunclet$?UserCmd_GiveCash@GiveCash@@YA_NIABV?$basic_string@GU?$char_traits@G@std@@V?$allocator@G@2@@std@@0PBG@Z$36
	DD	024H
	DD	FLAT:__unwindfunclet$?UserCmd_GiveCash@GiveCash@@YA_NIABV?$basic_string@GU?$char_traits@G@std@@V?$allocator@G@2@@std@@0PBG@Z$37
	DD	03H
	DD	FLAT:__unwindfunclet$?UserCmd_GiveCash@GiveCash@@YA_NIABV?$basic_string@GU?$char_traits@G@std@@V?$allocator@G@2@@std@@0PBG@Z$38
	DD	03H
	DD	FLAT:__unwindfunclet$?UserCmd_GiveCash@GiveCash@@YA_NIABV?$basic_string@GU?$char_traits@G@std@@V?$allocator@G@2@@std@@0PBG@Z$39
	DD	027H
	DD	FLAT:__unwindfunclet$?UserCmd_GiveCash@GiveCash@@YA_NIABV?$basic_string@GU?$char_traits@G@std@@V?$allocator@G@2@@std@@0PBG@Z$40
	DD	028H
	DD	FLAT:__unwindfunclet$?UserCmd_GiveCash@GiveCash@@YA_NIABV?$basic_string@GU?$char_traits@G@std@@V?$allocator@G@2@@std@@0PBG@Z$41
	DD	029H
	DD	FLAT:__unwindfunclet$?UserCmd_GiveCash@GiveCash@@YA_NIABV?$basic_string@GU?$char_traits@G@std@@V?$allocator@G@2@@std@@0PBG@Z$42
	DD	02aH
	DD	FLAT:__unwindfunclet$?UserCmd_GiveCash@GiveCash@@YA_NIABV?$basic_string@GU?$char_traits@G@std@@V?$allocator@G@2@@std@@0PBG@Z$43
	DD	02bH
	DD	FLAT:__unwindfunclet$?UserCmd_GiveCash@GiveCash@@YA_NIABV?$basic_string@GU?$char_traits@G@std@@V?$allocator@G@2@@std@@0PBG@Z$44
	DD	02cH
	DD	FLAT:__unwindfunclet$?UserCmd_GiveCash@GiveCash@@YA_NIABV?$basic_string@GU?$char_traits@G@std@@V?$allocator@G@2@@std@@0PBG@Z$45
	DD	02dH
	DD	FLAT:__unwindfunclet$?UserCmd_GiveCash@GiveCash@@YA_NIABV?$basic_string@GU?$char_traits@G@std@@V?$allocator@G@2@@std@@0PBG@Z$46
	DD	03H
	DD	FLAT:__unwindfunclet$?UserCmd_GiveCash@GiveCash@@YA_NIABV?$basic_string@GU?$char_traits@G@std@@V?$allocator@G@2@@std@@0PBG@Z$47
	DD	02fH
	DD	FLAT:__unwindfunclet$?UserCmd_GiveCash@GiveCash@@YA_NIABV?$basic_string@GU?$char_traits@G@std@@V?$allocator@G@2@@std@@0PBG@Z$48
	DD	03H
	DD	FLAT:__unwindfunclet$?UserCmd_GiveCash@GiveCash@@YA_NIABV?$basic_string@GU?$char_traits@G@std@@V?$allocator@G@2@@std@@0PBG@Z$49
	DD	03H
	DD	FLAT:__unwindfunclet$?UserCmd_GiveCash@GiveCash@@YA_NIABV?$basic_string@GU?$char_traits@G@std@@V?$allocator@G@2@@std@@0PBG@Z$50
	DD	032H
	DD	FLAT:__unwindfunclet$?UserCmd_GiveCash@GiveCash@@YA_NIABV?$basic_string@GU?$char_traits@G@std@@V?$allocator@G@2@@std@@0PBG@Z$51
	DD	033H
	DD	FLAT:__unwindfunclet$?UserCmd_GiveCash@GiveCash@@YA_NIABV?$basic_string@GU?$char_traits@G@std@@V?$allocator@G@2@@std@@0PBG@Z$52
	DD	034H
	DD	FLAT:__unwindfunclet$?UserCmd_GiveCash@GiveCash@@YA_NIABV?$basic_string@GU?$char_traits@G@std@@V?$allocator@G@2@@std@@0PBG@Z$53
	DD	035H
	DD	FLAT:__unwindfunclet$?UserCmd_GiveCash@GiveCash@@YA_NIABV?$basic_string@GU?$char_traits@G@std@@V?$allocator@G@2@@std@@0PBG@Z$54
	DD	036H
	DD	FLAT:__unwindfunclet$?UserCmd_GiveCash@GiveCash@@YA_NIABV?$basic_string@GU?$char_traits@G@std@@V?$allocator@G@2@@std@@0PBG@Z$55
	DD	037H
	DD	FLAT:__unwindfunclet$?UserCmd_GiveCash@GiveCash@@YA_NIABV?$basic_string@GU?$char_traits@G@std@@V?$allocator@G@2@@std@@0PBG@Z$56
	DD	038H
	DD	FLAT:__unwindfunclet$?UserCmd_GiveCash@GiveCash@@YA_NIABV?$basic_string@GU?$char_traits@G@std@@V?$allocator@G@2@@std@@0PBG@Z$57
	DD	03H
	DD	FLAT:__unwindfunclet$?UserCmd_GiveCash@GiveCash@@YA_NIABV?$basic_string@GU?$char_traits@G@std@@V?$allocator@G@2@@std@@0PBG@Z$58
	DD	03aH
	DD	FLAT:__unwindfunclet$?UserCmd_GiveCash@GiveCash@@YA_NIABV?$basic_string@GU?$char_traits@G@std@@V?$allocator@G@2@@std@@0PBG@Z$59
	DD	03H
	DD	FLAT:__unwindfunclet$?UserCmd_GiveCash@GiveCash@@YA_NIABV?$basic_string@GU?$char_traits@G@std@@V?$allocator@G@2@@std@@0PBG@Z$60
	DD	03H
	DD	FLAT:__unwindfunclet$?UserCmd_GiveCash@GiveCash@@YA_NIABV?$basic_string@GU?$char_traits@G@std@@V?$allocator@G@2@@std@@0PBG@Z$61
	DD	03dH
	DD	FLAT:__unwindfunclet$?UserCmd_GiveCash@GiveCash@@YA_NIABV?$basic_string@GU?$char_traits@G@std@@V?$allocator@G@2@@std@@0PBG@Z$62
	DD	03eH
	DD	FLAT:__unwindfunclet$?UserCmd_GiveCash@GiveCash@@YA_NIABV?$basic_string@GU?$char_traits@G@std@@V?$allocator@G@2@@std@@0PBG@Z$63
	DD	03fH
	DD	FLAT:__unwindfunclet$?UserCmd_GiveCash@GiveCash@@YA_NIABV?$basic_string@GU?$char_traits@G@std@@V?$allocator@G@2@@std@@0PBG@Z$64
	DD	040H
	DD	FLAT:__unwindfunclet$?UserCmd_GiveCash@GiveCash@@YA_NIABV?$basic_string@GU?$char_traits@G@std@@V?$allocator@G@2@@std@@0PBG@Z$65
	DD	041H
	DD	FLAT:__unwindfunclet$?UserCmd_GiveCash@GiveCash@@YA_NIABV?$basic_string@GU?$char_traits@G@std@@V?$allocator@G@2@@std@@0PBG@Z$66
	DD	042H
	DD	FLAT:__unwindfunclet$?UserCmd_GiveCash@GiveCash@@YA_NIABV?$basic_string@GU?$char_traits@G@std@@V?$allocator@G@2@@std@@0PBG@Z$67
	DD	043H
	DD	FLAT:__unwindfunclet$?UserCmd_GiveCash@GiveCash@@YA_NIABV?$basic_string@GU?$char_traits@G@std@@V?$allocator@G@2@@std@@0PBG@Z$68
	DD	03H
	DD	FLAT:__unwindfunclet$?UserCmd_GiveCash@GiveCash@@YA_NIABV?$basic_string@GU?$char_traits@G@std@@V?$allocator@G@2@@std@@0PBG@Z$69
	DD	045H
	DD	FLAT:__unwindfunclet$?UserCmd_GiveCash@GiveCash@@YA_NIABV?$basic_string@GU?$char_traits@G@std@@V?$allocator@G@2@@std@@0PBG@Z$70
	DD	046H
	DD	FLAT:__unwindfunclet$?UserCmd_GiveCash@GiveCash@@YA_NIABV?$basic_string@GU?$char_traits@G@std@@V?$allocator@G@2@@std@@0PBG@Z$71
	DD	047H
	DD	FLAT:__unwindfunclet$?UserCmd_GiveCash@GiveCash@@YA_NIABV?$basic_string@GU?$char_traits@G@std@@V?$allocator@G@2@@std@@0PBG@Z$72
	DD	048H
	DD	FLAT:__unwindfunclet$?UserCmd_GiveCash@GiveCash@@YA_NIABV?$basic_string@GU?$char_traits@G@std@@V?$allocator@G@2@@std@@0PBG@Z$73
	DD	049H
	DD	FLAT:__unwindfunclet$?UserCmd_GiveCash@GiveCash@@YA_NIABV?$basic_string@GU?$char_traits@G@std@@V?$allocator@G@2@@std@@0PBG@Z$74
	DD	04aH
	DD	FLAT:__unwindfunclet$?UserCmd_GiveCash@GiveCash@@YA_NIABV?$basic_string@GU?$char_traits@G@std@@V?$allocator@G@2@@std@@0PBG@Z$75
	DD	04bH
	DD	FLAT:__unwindfunclet$?UserCmd_GiveCash@GiveCash@@YA_NIABV?$basic_string@GU?$char_traits@G@std@@V?$allocator@G@2@@std@@0PBG@Z$76
	DD	04cH
	DD	FLAT:__unwindfunclet$?UserCmd_GiveCash@GiveCash@@YA_NIABV?$basic_string@GU?$char_traits@G@std@@V?$allocator@G@2@@std@@0PBG@Z$77
	DD	04dH
	DD	FLAT:__unwindfunclet$?UserCmd_GiveCash@GiveCash@@YA_NIABV?$basic_string@GU?$char_traits@G@std@@V?$allocator@G@2@@std@@0PBG@Z$78
	DD	04eH
	DD	FLAT:__unwindfunclet$?UserCmd_GiveCash@GiveCash@@YA_NIABV?$basic_string@GU?$char_traits@G@std@@V?$allocator@G@2@@std@@0PBG@Z$79
	DD	04fH
	DD	FLAT:__unwindfunclet$?UserCmd_GiveCash@GiveCash@@YA_NIABV?$basic_string@GU?$char_traits@G@std@@V?$allocator@G@2@@std@@0PBG@Z$80
	DD	03H
	DD	FLAT:__unwindfunclet$?UserCmd_GiveCash@GiveCash@@YA_NIABV?$basic_string@GU?$char_traits@G@std@@V?$allocator@G@2@@std@@0PBG@Z$81
	DD	03H
	DD	FLAT:__unwindfunclet$?UserCmd_GiveCash@GiveCash@@YA_NIABV?$basic_string@GU?$char_traits@G@std@@V?$allocator@G@2@@std@@0PBG@Z$82
	DD	052H
	DD	FLAT:__unwindfunclet$?UserCmd_GiveCash@GiveCash@@YA_NIABV?$basic_string@GU?$char_traits@G@std@@V?$allocator@G@2@@std@@0PBG@Z$83
	DD	053H
	DD	FLAT:__unwindfunclet$?UserCmd_GiveCash@GiveCash@@YA_NIABV?$basic_string@GU?$char_traits@G@std@@V?$allocator@G@2@@std@@0PBG@Z$84
	DD	054H
	DD	FLAT:__unwindfunclet$?UserCmd_GiveCash@GiveCash@@YA_NIABV?$basic_string@GU?$char_traits@G@std@@V?$allocator@G@2@@std@@0PBG@Z$85
	DD	055H
	DD	FLAT:__unwindfunclet$?UserCmd_GiveCash@GiveCash@@YA_NIABV?$basic_string@GU?$char_traits@G@std@@V?$allocator@G@2@@std@@0PBG@Z$86
	DD	054H
	DD	FLAT:__unwindfunclet$?UserCmd_GiveCash@GiveCash@@YA_NIABV?$basic_string@GU?$char_traits@G@std@@V?$allocator@G@2@@std@@0PBG@Z$86
	DD	053H
	DD	FLAT:__unwindfunclet$?UserCmd_GiveCash@GiveCash@@YA_NIABV?$basic_string@GU?$char_traits@G@std@@V?$allocator@G@2@@std@@0PBG@Z$86
	DD	052H
	DD	FLAT:__unwindfunclet$?UserCmd_GiveCash@GiveCash@@YA_NIABV?$basic_string@GU?$char_traits@G@std@@V?$allocator@G@2@@std@@0PBG@Z$86
	DD	03H
	DD	FLAT:__unwindfunclet$?UserCmd_GiveCash@GiveCash@@YA_NIABV?$basic_string@GU?$char_traits@G@std@@V?$allocator@G@2@@std@@0PBG@Z$86
	DD	05aH
	DD	FLAT:__unwindfunclet$?UserCmd_GiveCash@GiveCash@@YA_NIABV?$basic_string@GU?$char_traits@G@std@@V?$allocator@G@2@@std@@0PBG@Z$87
	DD	05aH
	DD	FLAT:__unwindfunclet$?UserCmd_GiveCash@GiveCash@@YA_NIABV?$basic_string@GU?$char_traits@G@std@@V?$allocator@G@2@@std@@0PBG@Z$88
	DD	05cH
	DD	FLAT:__unwindfunclet$?UserCmd_GiveCash@GiveCash@@YA_NIABV?$basic_string@GU?$char_traits@G@std@@V?$allocator@G@2@@std@@0PBG@Z$89
	DD	05dH
	DD	FLAT:__unwindfunclet$?UserCmd_GiveCash@GiveCash@@YA_NIABV?$basic_string@GU?$char_traits@G@std@@V?$allocator@G@2@@std@@0PBG@Z$90
	DD	05eH
	DD	FLAT:__unwindfunclet$?UserCmd_GiveCash@GiveCash@@YA_NIABV?$basic_string@GU?$char_traits@G@std@@V?$allocator@G@2@@std@@0PBG@Z$91
	DD	05fH
	DD	FLAT:__unwindfunclet$?UserCmd_GiveCash@GiveCash@@YA_NIABV?$basic_string@GU?$char_traits@G@std@@V?$allocator@G@2@@std@@0PBG@Z$92
	DD	05eH
	DD	FLAT:__unwindfunclet$?UserCmd_GiveCash@GiveCash@@YA_NIABV?$basic_string@GU?$char_traits@G@std@@V?$allocator@G@2@@std@@0PBG@Z$92
	DD	05dH
	DD	FLAT:__unwindfunclet$?UserCmd_GiveCash@GiveCash@@YA_NIABV?$basic_string@GU?$char_traits@G@std@@V?$allocator@G@2@@std@@0PBG@Z$92
	DD	05cH
	DD	FLAT:__unwindfunclet$?UserCmd_GiveCash@GiveCash@@YA_NIABV?$basic_string@GU?$char_traits@G@std@@V?$allocator@G@2@@std@@0PBG@Z$92
	DD	05aH
	DD	FLAT:__unwindfunclet$?UserCmd_GiveCash@GiveCash@@YA_NIABV?$basic_string@GU?$char_traits@G@std@@V?$allocator@G@2@@std@@0PBG@Z$92
	DD	064H
	DD	FLAT:__unwindfunclet$?UserCmd_GiveCash@GiveCash@@YA_NIABV?$basic_string@GU?$char_traits@G@std@@V?$allocator@G@2@@std@@0PBG@Z$93
	DD	065H
	DD	FLAT:__unwindfunclet$?UserCmd_GiveCash@GiveCash@@YA_NIABV?$basic_string@GU?$char_traits@G@std@@V?$allocator@G@2@@std@@0PBG@Z$94
	DD	05aH
	DD	FLAT:__unwindfunclet$?UserCmd_GiveCash@GiveCash@@YA_NIABV?$basic_string@GU?$char_traits@G@std@@V?$allocator@G@2@@std@@0PBG@Z$95
	DD	067H
	DD	FLAT:__unwindfunclet$?UserCmd_GiveCash@GiveCash@@YA_NIABV?$basic_string@GU?$char_traits@G@std@@V?$allocator@G@2@@std@@0PBG@Z$96
	DD	068H
	DD	FLAT:__unwindfunclet$?UserCmd_GiveCash@GiveCash@@YA_NIABV?$basic_string@GU?$char_traits@G@std@@V?$allocator@G@2@@std@@0PBG@Z$97
	DD	069H
	DD	FLAT:__unwindfunclet$?UserCmd_GiveCash@GiveCash@@YA_NIABV?$basic_string@GU?$char_traits@G@std@@V?$allocator@G@2@@std@@0PBG@Z$98
	DD	06aH
	DD	FLAT:__unwindfunclet$?UserCmd_GiveCash@GiveCash@@YA_NIABV?$basic_string@GU?$char_traits@G@std@@V?$allocator@G@2@@std@@0PBG@Z$99
	DD	06bH
	DD	FLAT:__unwindfunclet$?UserCmd_GiveCash@GiveCash@@YA_NIABV?$basic_string@GU?$char_traits@G@std@@V?$allocator@G@2@@std@@0PBG@Z$100
	DD	06cH
	DD	FLAT:__unwindfunclet$?UserCmd_GiveCash@GiveCash@@YA_NIABV?$basic_string@GU?$char_traits@G@std@@V?$allocator@G@2@@std@@0PBG@Z$101
	DD	06dH
	DD	FLAT:__unwindfunclet$?UserCmd_GiveCash@GiveCash@@YA_NIABV?$basic_string@GU?$char_traits@G@std@@V?$allocator@G@2@@std@@0PBG@Z$102
	DD	05aH
	DD	FLAT:__unwindfunclet$?UserCmd_GiveCash@GiveCash@@YA_NIABV?$basic_string@GU?$char_traits@G@std@@V?$allocator@G@2@@std@@0PBG@Z$103
	DD	06fH
	DD	FLAT:__unwindfunclet$?UserCmd_GiveCash@GiveCash@@YA_NIABV?$basic_string@GU?$char_traits@G@std@@V?$allocator@G@2@@std@@0PBG@Z$104
	DD	070H
	DD	FLAT:__unwindfunclet$?UserCmd_GiveCash@GiveCash@@YA_NIABV?$basic_string@GU?$char_traits@G@std@@V?$allocator@G@2@@std@@0PBG@Z$105
	DD	071H
	DD	FLAT:__unwindfunclet$?UserCmd_GiveCash@GiveCash@@YA_NIABV?$basic_string@GU?$char_traits@G@std@@V?$allocator@G@2@@std@@0PBG@Z$106
	DD	05aH
	DD	FLAT:__unwindfunclet$?UserCmd_GiveCash@GiveCash@@YA_NIABV?$basic_string@GU?$char_traits@G@std@@V?$allocator@G@2@@std@@0PBG@Z$107
; Function compile flags: /Odtp
xdata$x	ENDS
_TEXT	SEGMENT
tv1609 = -3408						; size = 4
tv1720 = -3404						; size = 4
tv1606 = -3400						; size = 4
tv1719 = -3396						; size = 4
tv1604 = -3392						; size = 4
tv1718 = -3388						; size = 4
tv1602 = -3384						; size = 4
tv1717 = -3380						; size = 4
tv1600 = -3376						; size = 4
tv1716 = -3372						; size = 4
tv1598 = -3368						; size = 4
tv1715 = -3364						; size = 4
tv1596 = -3360						; size = 4
tv1714 = -3356						; size = 4
tv1594 = -3352						; size = 4
tv1713 = -3348						; size = 4
tv1592 = -3344						; size = 4
tv1712 = -3340						; size = 4
tv1590 = -3336						; size = 4
tv1711 = -3332						; size = 4
tv1588 = -3328						; size = 4
tv1710 = -3324						; size = 4
tv1586 = -3320						; size = 4
tv1709 = -3316						; size = 4
tv1584 = -3312						; size = 4
tv1708 = -3308						; size = 4
tv1582 = -3304						; size = 4
tv1706 = -3300						; size = 4
tv1579 = -3296						; size = 4
tv1129 = -3292						; size = 4
tv1574 = -3288						; size = 4
tv1705 = -3284						; size = 4
tv1572 = -3280						; size = 4
tv1704 = -3276						; size = 4
tv1570 = -3272						; size = 4
tv1703 = -3268						; size = 4
tv1137 = -3264						; size = 4
tv1568 = -3260						; size = 4
tv1701 = -3256						; size = 4
tv1563 = -3252						; size = 4
tv1076 = -3248						; size = 4
tv1557 = -3244						; size = 4
tv1699 = -3240						; size = 4
tv1555 = -3236						; size = 4
tv1698 = -3232						; size = 4
tv1553 = -3228						; size = 4
tv1697 = -3224						; size = 4
tv1084 = -3220						; size = 4
tv1551 = -3216						; size = 4
tv1695 = -3212						; size = 4
tv1542 = -3208						; size = 4
tv1693 = -3204						; size = 4
tv1540 = -3200						; size = 4
tv1692 = -3196						; size = 4
tv1538 = -3192						; size = 4
tv1691 = -3188						; size = 4
tv1536 = -3184						; size = 4
tv1690 = -3180						; size = 4
tv1534 = -3176						; size = 4
tv1689 = -3172						; size = 4
tv1532 = -3168						; size = 4
tv1688 = -3164						; size = 4
tv1530 = -3160						; size = 4
tv1687 = -3156						; size = 4
tv1528 = -3152						; size = 4
tv1686 = -3148						; size = 4
tv1526 = -3144						; size = 4
tv1685 = -3140						; size = 4
tv1524 = -3136						; size = 4
tv1684 = -3132						; size = 4
tv1522 = -3128						; size = 4
tv1683 = -3124						; size = 4
tv1520 = -3120						; size = 4
tv1682 = -3116						; size = 4
tv1518 = -3112						; size = 4
tv1681 = -3108						; size = 4
tv1512 = -3104						; size = 4
tv1680 = -3100						; size = 4
tv1510 = -3096						; size = 4
tv1679 = -3092						; size = 4
tv1508 = -3088						; size = 4
tv1678 = -3084						; size = 4
tv1506 = -3080						; size = 4
tv1677 = -3076						; size = 4
tv1504 = -3072						; size = 4
tv1676 = -3068						; size = 4
tv1502 = -3064						; size = 4
tv1675 = -3060						; size = 4
tv1500 = -3056						; size = 4
tv1674 = -3052						; size = 4
tv1498 = -3048						; size = 4
tv1673 = -3044						; size = 4
tv1496 = -3040						; size = 4
tv1671 = -3036						; size = 4
tv1490 = -3032						; size = 4
tv1669 = -3028						; size = 4
tv1488 = -3024						; size = 4
tv1668 = -3020						; size = 4
tv1482 = -3016						; size = 4
tv1667 = -3012						; size = 4
tv1480 = -3008						; size = 4
tv1666 = -3004						; size = 4
tv1478 = -3000						; size = 4
tv1665 = -2996						; size = 4
tv1476 = -2992						; size = 4
tv1664 = -2988						; size = 4
tv1474 = -2984						; size = 4
tv1663 = -2980						; size = 4
tv1472 = -2976						; size = 4
tv1662 = -2972						; size = 4
tv1470 = -2968						; size = 4
tv1661 = -2964						; size = 4
tv1468 = -2960						; size = 4
tv1660 = -2956						; size = 4
tv1466 = -2952						; size = 4
tv1658 = -2948						; size = 4
tv1460 = -2944						; size = 4
tv1656 = -2940						; size = 4
tv1458 = -2936						; size = 4
tv1655 = -2932						; size = 4
tv1452 = -2928						; size = 4
tv1654 = -2924						; size = 4
tv1450 = -2920						; size = 4
tv1653 = -2916						; size = 4
tv1448 = -2912						; size = 4
tv1652 = -2908						; size = 4
tv1446 = -2904						; size = 4
tv1651 = -2900						; size = 4
tv1444 = -2896						; size = 4
tv1650 = -2892						; size = 4
tv1442 = -2888						; size = 4
tv1649 = -2884						; size = 4
tv1440 = -2880						; size = 4
tv1648 = -2876						; size = 4
tv1438 = -2872						; size = 4
tv1647 = -2868						; size = 4
tv1436 = -2864						; size = 4
tv1645 = -2860						; size = 4
tv1430 = -2856						; size = 4
tv1644 = -2852						; size = 4
tv1428 = -2848						; size = 4
tv1643 = -2844						; size = 4
tv1426 = -2840						; size = 4
tv1642 = -2836						; size = 4
tv1424 = -2832						; size = 4
tv1641 = -2828						; size = 4
tv1422 = -2824						; size = 4
tv1640 = -2820						; size = 4
tv1420 = -2816						; size = 4
tv1639 = -2812						; size = 4
tv1418 = -2808						; size = 4
tv1638 = -2804						; size = 4
tv1416 = -2800						; size = 4
tv1637 = -2796						; size = 4
tv1414 = -2792						; size = 4
tv1635 = -2788						; size = 4
tv1408 = -2784						; size = 4
tv1633 = -2780						; size = 4
tv1406 = -2776						; size = 4
tv1632 = -2772						; size = 4
tv1400 = -2768						; size = 4
tv1630 = -2764						; size = 4
tv1394 = -2760						; size = 4
tv1628 = -2756						; size = 4
tv1392 = -2752						; size = 4
tv1627 = -2748						; size = 4
tv1386 = -2744						; size = 4
tv1625 = -2740						; size = 4
tv1380 = -2736						; size = 4
tv1623 = -2732						; size = 4
tv1378 = -2728						; size = 4
tv1622 = -2724						; size = 4
tv1376 = -2720						; size = 4
tv1621 = -2716						; size = 4
tv1370 = -2712						; size = 4
tv1619 = -2708						; size = 4
tv1368 = -2704						; size = 4
tv1618 = -2700						; size = 4
tv1362 = -2696						; size = 4
tv1616 = -2692						; size = 4
tv1356 = -2688						; size = 4
tv65 = -2684						; size = 4
tv1350 = -2680						; size = 4
tv77 = -2676						; size = 4
tv1344 = -2672						; size = 4
tv93 = -2668						; size = 4
tv1342 = -2664						; size = 4
tv159 = -2660						; size = 4
tv1340 = -2656						; size = 4
tv164 = -2652						; size = 4
tv1336 = -2648						; size = 4
tv147 = -2644						; size = 4
tv1332 = -2640						; size = 4
tv130 = -2636						; size = 4
$T144330 = -2632					; size = 4
$T144247 = -2625					; size = 1
$T144246 = -2624					; size = 4
$T144245 = -2620					; size = 28
$T144244 = -2592					; size = 28
$T144243 = -2564					; size = 28
$T144242 = -2536					; size = 28
$T144241 = -2508					; size = 28
$T144240 = -2480					; size = 28
$T144239 = -2452					; size = 28
$T144238 = -2424					; size = 28
$T144237 = -2396					; size = 28
$T144236 = -2368					; size = 28
$T144235 = -2340					; size = 28
$T144234 = -2312					; size = 28
$T144233 = -2284					; size = 4
$T144232 = -2280					; size = 4
$T144231 = -2276					; size = 28
$T144230 = -2248					; size = 28
$T144229 = -2220					; size = 28
$T144226 = -2192					; size = 28
$T144225 = -2164					; size = 4
$T144224 = -2160					; size = 4
$T144223 = -2156					; size = 28
$T144222 = -2128					; size = 28
$T144221 = -2100					; size = 28
$T144218 = -2072					; size = 28
$T144217 = -2044					; size = 4
$T144216 = -2037					; size = 1
$T144215 = -2036					; size = 4
$T144214 = -2032					; size = 28
$T144213 = -2004					; size = 28
$T144212 = -1976					; size = 28
$T144211 = -1948					; size = 28
$T144210 = -1920					; size = 28
$T144209 = -1892					; size = 28
$T144208 = -1864					; size = 28
$T144207 = -1836					; size = 28
$T144206 = -1808					; size = 28
$T144205 = -1780					; size = 28
$T144204 = -1752					; size = 28
$T144203 = -1724					; size = 28
$T144202 = -1693					; size = 1
$T144201 = -1692					; size = 28
$T144200 = -1664					; size = 28
$T144199 = -1636					; size = 28
$T144198 = -1608					; size = 28
$T144197 = -1580					; size = 28
$T144196 = -1552					; size = 28
$T144195 = -1524					; size = 28
$T144194 = -1496					; size = 28
$T144193 = -1468					; size = 4
$T144192 = -1461					; size = 1
$T144191 = -1460					; size = 28
$T144190 = -1432					; size = 4
$T144189 = -1425					; size = 1
$T144188 = -1424					; size = 28
$T144187 = -1396					; size = 28
$T144186 = -1368					; size = 28
$T144185 = -1340					; size = 28
$T144184 = -1312					; size = 28
$T144183 = -1284					; size = 28
$T144182 = -1256					; size = 28
$T144181 = -1228					; size = 28
$T144180 = -1200					; size = 4
$T144179 = -1193					; size = 1
$T144178 = -1192					; size = 28
$T144177 = -1164					; size = 4
$T144176 = -1157					; size = 1
$T144175 = -1156					; size = 28
$T144174 = -1128					; size = 28
$T144173 = -1100					; size = 28
$T144172 = -1072					; size = 28
$T144171 = -1044					; size = 28
$T144170 = -1016					; size = 28
$T144169 = -988						; size = 28
$T144168 = -960						; size = 28
$T144167 = -932						; size = 4
$T144166 = -925						; size = 1
$T144165 = -924						; size = 28
$T144164 = -896						; size = 28
$T144163 = -868						; size = 28
$T144162 = -840						; size = 28
$T144161 = -812						; size = 28
$T144160 = -784						; size = 28
$T144159 = -756						; size = 28
$T144158 = -728						; size = 28
$T144157 = -700						; size = 4
$T144156 = -693						; size = 1
$T144155 = -692						; size = 28
$T144154 = -664						; size = 4
$T144153 = -657						; size = 1
$T144152 = -656						; size = 4
$T144151 = -649						; size = 1
$T144150 = -648						; size = 28
$T144149 = -620						; size = 4
$T144148 = -613						; size = 1
$T144147 = -612						; size = 4
$T144146 = -605						; size = 1
$T144145 = -604						; size = 28
$T144144 = -576						; size = 28
$T144143 = -548						; size = 4
$T144142 = -541						; size = 1
$T144141 = -540						; size = 28
$T144140 = -512						; size = 4
$T144139 = -505						; size = 1
$T144138 = -504						; size = 4
$T144137 = -497						; size = 1
$T144136 = -496						; size = 4
$T144135 = -489						; size = 1
$T144134 = -488						; size = 4
$T144133 = -481						; size = 1
$T144132 = -480						; size = 4
$T144131 = -476						; size = 4
$T144130 = -472						; size = 28
$T144129 = -444						; size = 28
$T144128 = -416						; size = 28
$T144127 = -388						; size = 28
$T144126 = -360						; size = 28
$T144125 = -332						; size = 28
$T144124 = -304						; size = 28
$T144123 = -276						; size = 28
$T144122 = -248						; size = 28
_msg$139452 = -220					; size = 28
_err$ = -192						; size = 4
_wscCharname$ = -188					; size = 28
_iExpectedCash$ = -160					; size = 4
_iCurrCash$ = -156					; size = 4
_targetClientId$ = -152					; size = 4
_msg$ = -148						; size = 28
_secs$ = -120						; size = 4
_fTargetValue$ = -116					; size = 4
_wscTargetCharname$ = -112				; size = 28
_wscCash$ = -84						; size = 28
_wscAnon$ = -56						; size = 28
__$ArrayPad$ = -28					; size = 4
_cash$ = -24						; size = 4
_bAnon$ = -17						; size = 1
_iCash$ = -16						; size = 4
__$EHRec$ = -12						; size = 12
_iClientID$ = 8						; size = 4
_wscCmd$ = 12						; size = 4
_wscParam$ = 16						; size = 4
_usage$ = 20						; size = 4
?UserCmd_GiveCash@GiveCash@@YA_NIABV?$basic_string@GU?$char_traits@G@std@@V?$allocator@G@2@@std@@0PBG@Z PROC ; GiveCash::UserCmd_GiveCash
; Line 166
	push	ebp
	mov	ebp, esp
	push	-1
	push	__ehhandler$?UserCmd_GiveCash@GiveCash@@YA_NIABV?$basic_string@GU?$char_traits@G@std@@V?$allocator@G@2@@std@@0PBG@Z
	mov	eax, DWORD PTR fs:0
	push	eax
	sub	esp, 3396				; 00000d44H
	mov	eax, DWORD PTR ___security_cookie
	xor	eax, ebp
	mov	DWORD PTR __$ArrayPad$[ebp], eax
	push	esi
	push	eax
	lea	eax, DWORD PTR __$EHRec$[ebp]
	mov	DWORD PTR fs:0, eax
	mov	DWORD PTR $T144330[ebp], 0
; Line 171
	mov	eax, DWORD PTR _iClientID$[ebp]
	push	eax
	mov	ecx, DWORD PTR __imp_?Players@@3VPlayerDB@@A
	call	DWORD PTR __imp_?GetActiveCharacterName@PlayerDB@@QBEPBGI@Z
	push	eax
	lea	ecx, DWORD PTR _wscCharname$[ebp]
	call	DWORD PTR __imp_??0?$basic_string@GU?$char_traits@G@std@@V?$allocator@G@2@@std@@QAE@PBG@Z
	mov	DWORD PTR __$EHRec$[ebp+8], 0
; Line 174
	push	0
	push	32					; 00000020H
	mov	ecx, DWORD PTR _wscParam$[ebp]
	push	ecx
	lea	edx, DWORD PTR _wscTargetCharname$[ebp]
	push	edx
	call	DWORD PTR __imp_?GetParam@@YA?AV?$basic_string@GU?$char_traits@G@std@@V?$allocator@G@2@@std@@ABV12@GI@Z
	add	esp, 16					; 00000010H
	mov	BYTE PTR __$EHRec$[ebp+8], 1
; Line 175
	push	1
	push	32					; 00000020H
	mov	eax, DWORD PTR _wscParam$[ebp]
	push	eax
	lea	ecx, DWORD PTR _wscCash$[ebp]
	push	ecx
	call	DWORD PTR __imp_?GetParam@@YA?AV?$basic_string@GU?$char_traits@G@std@@V?$allocator@G@2@@std@@ABV12@GI@Z
	add	esp, 16					; 00000010H
	mov	BYTE PTR __$EHRec$[ebp+8], 2
; Line 176
	push	2
	push	32					; 00000020H
	mov	edx, DWORD PTR _wscParam$[ebp]
	push	edx
	lea	eax, DWORD PTR _wscAnon$[ebp]
	push	eax
	call	DWORD PTR __imp_?GetParam@@YA?AV?$basic_string@GU?$char_traits@G@std@@V?$allocator@G@2@@std@@ABV12@GI@Z
	add	esp, 16					; 00000010H
	mov	BYTE PTR __$EHRec$[ebp+8], 3
; Line 177
	push	OFFSET $SG139275
	lea	ecx, DWORD PTR $T144122[ebp]
	call	DWORD PTR __imp_??0?$basic_string@GU?$char_traits@G@std@@V?$allocator@G@2@@std@@QAE@PBG@Z
	mov	BYTE PTR __$EHRec$[ebp+8], 4
	push	OFFSET $SG139276
	lea	ecx, DWORD PTR $T144123[ebp]
	call	DWORD PTR __imp_??0?$basic_string@GU?$char_traits@G@std@@V?$allocator@G@2@@std@@QAE@PBG@Z
	mov	BYTE PTR __$EHRec$[ebp+8], 5
	lea	ecx, DWORD PTR $T144122[ebp]
	push	ecx
	lea	edx, DWORD PTR $T144123[ebp]
	push	edx
	lea	eax, DWORD PTR _wscCash$[ebp]
	push	eax
	lea	ecx, DWORD PTR $T144124[ebp]
	push	ecx
	call	DWORD PTR __imp_?ReplaceStr@@YA?AV?$basic_string@GU?$char_traits@G@std@@V?$allocator@G@2@@std@@ABV12@00@Z
	add	esp, 16					; 00000010H
	mov	DWORD PTR tv130[ebp], eax
	mov	edx, DWORD PTR tv130[ebp]
	mov	DWORD PTR tv1332[ebp], edx
	mov	BYTE PTR __$EHRec$[ebp+8], 6
	mov	eax, DWORD PTR tv1332[ebp]
	push	eax
	lea	ecx, DWORD PTR _wscCash$[ebp]
	call	DWORD PTR __imp_??4?$basic_string@GU?$char_traits@G@std@@V?$allocator@G@2@@std@@QAEAAV01@ABV01@@Z
	mov	BYTE PTR __$EHRec$[ebp+8], 5
	lea	ecx, DWORD PTR $T144124[ebp]
	call	DWORD PTR __imp_??1?$basic_string@GU?$char_traits@G@std@@V?$allocator@G@2@@std@@QAE@XZ
	mov	BYTE PTR __$EHRec$[ebp+8], 4
	lea	ecx, DWORD PTR $T144123[ebp]
	call	DWORD PTR __imp_??1?$basic_string@GU?$char_traits@G@std@@V?$allocator@G@2@@std@@QAE@XZ
	mov	BYTE PTR __$EHRec$[ebp+8], 3
	lea	ecx, DWORD PTR $T144122[ebp]
	call	DWORD PTR __imp_??1?$basic_string@GU?$char_traits@G@std@@V?$allocator@G@2@@std@@QAE@XZ
; Line 178
	push	OFFSET $SG139280
	lea	ecx, DWORD PTR $T144125[ebp]
	call	DWORD PTR __imp_??0?$basic_string@GU?$char_traits@G@std@@V?$allocator@G@2@@std@@QAE@PBG@Z
	mov	BYTE PTR __$EHRec$[ebp+8], 7
	push	OFFSET $SG139281
	lea	ecx, DWORD PTR $T144126[ebp]
	call	DWORD PTR __imp_??0?$basic_string@GU?$char_traits@G@std@@V?$allocator@G@2@@std@@QAE@PBG@Z
	mov	BYTE PTR __$EHRec$[ebp+8], 8
	lea	ecx, DWORD PTR $T144125[ebp]
	push	ecx
	lea	edx, DWORD PTR $T144126[ebp]
	push	edx
	lea	eax, DWORD PTR _wscCash$[ebp]
	push	eax
	lea	ecx, DWORD PTR $T144127[ebp]
	push	ecx
	call	DWORD PTR __imp_?ReplaceStr@@YA?AV?$basic_string@GU?$char_traits@G@std@@V?$allocator@G@2@@std@@ABV12@00@Z
	add	esp, 16					; 00000010H
	mov	DWORD PTR tv147[ebp], eax
	mov	edx, DWORD PTR tv147[ebp]
	mov	DWORD PTR tv1336[ebp], edx
	mov	BYTE PTR __$EHRec$[ebp+8], 9
	mov	eax, DWORD PTR tv1336[ebp]
	push	eax
	lea	ecx, DWORD PTR _wscCash$[ebp]
	call	DWORD PTR __imp_??4?$basic_string@GU?$char_traits@G@std@@V?$allocator@G@2@@std@@QAEAAV01@ABV01@@Z
	mov	BYTE PTR __$EHRec$[ebp+8], 8
	lea	ecx, DWORD PTR $T144127[ebp]
	call	DWORD PTR __imp_??1?$basic_string@GU?$char_traits@G@std@@V?$allocator@G@2@@std@@QAE@XZ
	mov	BYTE PTR __$EHRec$[ebp+8], 7
	lea	ecx, DWORD PTR $T144126[ebp]
	call	DWORD PTR __imp_??1?$basic_string@GU?$char_traits@G@std@@V?$allocator@G@2@@std@@QAE@XZ
	mov	BYTE PTR __$EHRec$[ebp+8], 3
	lea	ecx, DWORD PTR $T144125[ebp]
	call	DWORD PTR __imp_??1?$basic_string@GU?$char_traits@G@std@@V?$allocator@G@2@@std@@QAE@XZ
; Line 179
	push	OFFSET $SG139285
	lea	ecx, DWORD PTR $T144128[ebp]
	call	DWORD PTR __imp_??0?$basic_string@GU?$char_traits@G@std@@V?$allocator@G@2@@std@@QAE@PBG@Z
	mov	BYTE PTR __$EHRec$[ebp+8], 10		; 0000000aH
	push	OFFSET $SG139286
	lea	ecx, DWORD PTR $T144129[ebp]
	call	DWORD PTR __imp_??0?$basic_string@GU?$char_traits@G@std@@V?$allocator@G@2@@std@@QAE@PBG@Z
	mov	BYTE PTR __$EHRec$[ebp+8], 11		; 0000000bH
	lea	ecx, DWORD PTR $T144128[ebp]
	push	ecx
	lea	edx, DWORD PTR $T144129[ebp]
	push	edx
	lea	eax, DWORD PTR _wscCash$[ebp]
	push	eax
	lea	ecx, DWORD PTR $T144130[ebp]
	push	ecx
	call	DWORD PTR __imp_?ReplaceStr@@YA?AV?$basic_string@GU?$char_traits@G@std@@V?$allocator@G@2@@std@@ABV12@00@Z
	add	esp, 16					; 00000010H
	mov	DWORD PTR tv164[ebp], eax
	mov	edx, DWORD PTR tv164[ebp]
	mov	DWORD PTR tv1340[ebp], edx
	mov	BYTE PTR __$EHRec$[ebp+8], 12		; 0000000cH
	mov	eax, DWORD PTR tv1340[ebp]
	push	eax
	lea	ecx, DWORD PTR _wscCash$[ebp]
	call	DWORD PTR __imp_??4?$basic_string@GU?$char_traits@G@std@@V?$allocator@G@2@@std@@QAEAAV01@ABV01@@Z
	mov	BYTE PTR __$EHRec$[ebp+8], 11		; 0000000bH
	lea	ecx, DWORD PTR $T144130[ebp]
	call	DWORD PTR __imp_??1?$basic_string@GU?$char_traits@G@std@@V?$allocator@G@2@@std@@QAE@XZ
	mov	BYTE PTR __$EHRec$[ebp+8], 10		; 0000000aH
	lea	ecx, DWORD PTR $T144129[ebp]
	call	DWORD PTR __imp_??1?$basic_string@GU?$char_traits@G@std@@V?$allocator@G@2@@std@@QAE@XZ
	mov	BYTE PTR __$EHRec$[ebp+8], 3
	lea	ecx, DWORD PTR $T144128[ebp]
	call	DWORD PTR __imp_??1?$basic_string@GU?$char_traits@G@std@@V?$allocator@G@2@@std@@QAE@XZ
; Line 180
	lea	ecx, DWORD PTR _wscCash$[ebp]
	push	ecx
	call	DWORD PTR __imp_?ToInt@@YAHABV?$basic_string@GU?$char_traits@G@std@@V?$allocator@G@2@@std@@@Z
	add	esp, 4
	mov	DWORD PTR _cash$[ebp], eax
; Line 181
	lea	ecx, DWORD PTR _wscTargetCharname$[ebp]
	call	DWORD PTR __imp_?length@?$basic_string@GU?$char_traits@G@std@@V?$allocator@G@2@@std@@QBEIXZ
	test	eax, eax
	je	SHORT $LN28@UserCmd_Gi
	cmp	DWORD PTR _cash$[ebp], 0
	jle	SHORT $LN28@UserCmd_Gi
	lea	ecx, DWORD PTR _wscAnon$[ebp]
	call	DWORD PTR __imp_?size@?$basic_string@GU?$char_traits@G@std@@V?$allocator@G@2@@std@@QBEIXZ
	test	eax, eax
	je	$LN29@UserCmd_Gi
	push	OFFSET $SG139290
	lea	edx, DWORD PTR _wscAnon$[ebp]
	push	edx
	call	DWORD PTR __imp_??$?9GU?$char_traits@G@std@@V?$allocator@G@1@@std@@YA_NABV?$basic_string@GU?$char_traits@G@std@@V?$allocator@G@2@@0@PBG@Z
	add	esp, 8
	movzx	eax, al
	test	eax, eax
	je	$LN29@UserCmd_Gi
$LN28@UserCmd_Gi:
; Line 183
	sub	esp, 28					; 0000001cH
	mov	ecx, esp
	mov	DWORD PTR $T144131[ebp], esp
	push	OFFSET $SG139292
	call	DWORD PTR __imp_??0?$basic_string@GU?$char_traits@G@std@@V?$allocator@G@2@@std@@QAE@PBG@Z
	mov	DWORD PTR tv159[ebp], eax
	mov	ecx, DWORD PTR tv159[ebp]
	mov	DWORD PTR tv1342[ebp], ecx
	mov	BYTE PTR __$EHRec$[ebp+8], 13		; 0000000dH
	mov	edx, DWORD PTR _iClientID$[ebp]
	push	edx
	mov	BYTE PTR __$EHRec$[ebp+8], 3
	call	DWORD PTR __imp_?PrintUserCmdText@@YAXIV?$basic_string@GU?$char_traits@G@std@@V?$allocator@G@2@@std@@ZZ
	add	esp, 32					; 00000020H
; Line 184
	sub	esp, 28					; 0000001cH
	mov	ecx, esp
	mov	DWORD PTR $T144132[ebp], esp
	mov	eax, DWORD PTR _usage$[ebp]
	push	eax
	call	DWORD PTR __imp_??0?$basic_string@GU?$char_traits@G@std@@V?$allocator@G@2@@std@@QAE@PBG@Z
	mov	DWORD PTR tv93[ebp], eax
	mov	ecx, DWORD PTR tv93[ebp]
	mov	DWORD PTR tv1344[ebp], ecx
	mov	BYTE PTR __$EHRec$[ebp+8], 14		; 0000000eH
	mov	edx, DWORD PTR _iClientID$[ebp]
	push	edx
	mov	BYTE PTR __$EHRec$[ebp+8], 3
	call	DWORD PTR __imp_?PrintUserCmdText@@YAXIV?$basic_string@GU?$char_traits@G@std@@V?$allocator@G@2@@std@@ZZ
	add	esp, 32					; 00000020H
; Line 185
	mov	BYTE PTR $T144133[ebp], 1
	mov	BYTE PTR __$EHRec$[ebp+8], 2
	lea	ecx, DWORD PTR _wscAnon$[ebp]
	call	DWORD PTR __imp_??1?$basic_string@GU?$char_traits@G@std@@V?$allocator@G@2@@std@@QAE@XZ
	mov	BYTE PTR __$EHRec$[ebp+8], 1
	lea	ecx, DWORD PTR _wscCash$[ebp]
	call	DWORD PTR __imp_??1?$basic_string@GU?$char_traits@G@std@@V?$allocator@G@2@@std@@QAE@XZ
	mov	BYTE PTR __$EHRec$[ebp+8], 0
	lea	ecx, DWORD PTR _wscTargetCharname$[ebp]
	call	DWORD PTR __imp_??1?$basic_string@GU?$char_traits@G@std@@V?$allocator@G@2@@std@@QAE@XZ
	mov	DWORD PTR __$EHRec$[ebp+8], -1
	lea	ecx, DWORD PTR _wscCharname$[ebp]
	call	DWORD PTR __imp_??1?$basic_string@GU?$char_traits@G@std@@V?$allocator@G@2@@std@@QAE@XZ
	mov	al, BYTE PTR $T144133[ebp]
	jmp	$LN30@UserCmd_Gi
$LN29@UserCmd_Gi:
; Line 188
	mov	BYTE PTR _bAnon$[ebp], 0
; Line 189
	push	OFFSET $SG139297
	lea	eax, DWORD PTR _wscAnon$[ebp]
	push	eax
	call	DWORD PTR __imp_??$?8GU?$char_traits@G@std@@V?$allocator@G@1@@std@@YA_NABV?$basic_string@GU?$char_traits@G@std@@V?$allocator@G@2@@0@PBG@Z
	add	esp, 8
	movzx	ecx, al
	test	ecx, ecx
	je	SHORT $LN27@UserCmd_Gi
; Line 190
	mov	BYTE PTR _bAnon$[ebp], 1
$LN27@UserCmd_Gi:
; Line 192
	lea	edx, DWORD PTR _wscTargetCharname$[ebp]
	push	edx
	call	DWORD PTR __imp_?HkGetAccountByCharname@@YAPAVCAccount@@ABV?$basic_string@GU?$char_traits@G@std@@V?$allocator@G@2@@std@@@Z
	add	esp, 4
	test	eax, eax
	jne	$LN26@UserCmd_Gi
; Line 194
	sub	esp, 28					; 0000001cH
	mov	ecx, esp
	mov	DWORD PTR $T144134[ebp], esp
	push	OFFSET $SG139300
	call	DWORD PTR __imp_??0?$basic_string@GU?$char_traits@G@std@@V?$allocator@G@2@@std@@QAE@PBG@Z
	mov	DWORD PTR tv77[ebp], eax
	mov	eax, DWORD PTR tv77[ebp]
	mov	DWORD PTR tv1350[ebp], eax
	mov	BYTE PTR __$EHRec$[ebp+8], 15		; 0000000fH
	mov	ecx, DWORD PTR _iClientID$[ebp]
	push	ecx
	mov	BYTE PTR __$EHRec$[ebp+8], 3
	call	DWORD PTR __imp_?PrintUserCmdText@@YAXIV?$basic_string@GU?$char_traits@G@std@@V?$allocator@G@2@@std@@ZZ
	add	esp, 32					; 00000020H
; Line 195
	mov	BYTE PTR $T144135[ebp], 1
	mov	BYTE PTR __$EHRec$[ebp+8], 2
	lea	ecx, DWORD PTR _wscAnon$[ebp]
	call	DWORD PTR __imp_??1?$basic_string@GU?$char_traits@G@std@@V?$allocator@G@2@@std@@QAE@XZ
	mov	BYTE PTR __$EHRec$[ebp+8], 1
	lea	ecx, DWORD PTR _wscCash$[ebp]
	call	DWORD PTR __imp_??1?$basic_string@GU?$char_traits@G@std@@V?$allocator@G@2@@std@@QAE@XZ
	mov	BYTE PTR __$EHRec$[ebp+8], 0
	lea	ecx, DWORD PTR _wscTargetCharname$[ebp]
	call	DWORD PTR __imp_??1?$basic_string@GU?$char_traits@G@std@@V?$allocator@G@2@@std@@QAE@XZ
	mov	DWORD PTR __$EHRec$[ebp+8], -1
	lea	ecx, DWORD PTR _wscCharname$[ebp]
	call	DWORD PTR __imp_??1?$basic_string@GU?$char_traits@G@std@@V?$allocator@G@2@@std@@QAE@XZ
	mov	al, BYTE PTR $T144135[ebp]
	jmp	$LN30@UserCmd_Gi
$LN26@UserCmd_Gi:
; Line 198
	mov	DWORD PTR _secs$[ebp], 0
; Line 199
	lea	edx, DWORD PTR _secs$[ebp]
	push	edx
	lea	eax, DWORD PTR _wscCharname$[ebp]
	push	eax
	call	?HkGetOnLineTime@@YA?AW4HK_ERROR@@ABV?$basic_string@GU?$char_traits@G@std@@V?$allocator@G@2@@std@@AAH@Z ; HkGetOnLineTime
	add	esp, 8
; Line 200
	mov	ecx, DWORD PTR _secs$[ebp]
	cmp	ecx, DWORD PTR _set_iMinTime
	jge	$LN25@UserCmd_Gi
; Line 202
	sub	esp, 28					; 0000001cH
	mov	ecx, esp
	mov	DWORD PTR $T144136[ebp], esp
	push	OFFSET $SG139305
	call	DWORD PTR __imp_??0?$basic_string@GU?$char_traits@G@std@@V?$allocator@G@2@@std@@QAE@PBG@Z
	mov	DWORD PTR tv65[ebp], eax
	mov	edx, DWORD PTR tv65[ebp]
	mov	DWORD PTR tv1356[ebp], edx
	mov	BYTE PTR __$EHRec$[ebp+8], 16		; 00000010H
	mov	eax, DWORD PTR _iClientID$[ebp]
	push	eax
	mov	BYTE PTR __$EHRec$[ebp+8], 3
	call	DWORD PTR __imp_?PrintUserCmdText@@YAXIV?$basic_string@GU?$char_traits@G@std@@V?$allocator@G@2@@std@@ZZ
	add	esp, 32					; 00000020H
; Line 203
	mov	BYTE PTR $T144137[ebp], 1
	mov	BYTE PTR __$EHRec$[ebp+8], 2
	lea	ecx, DWORD PTR _wscAnon$[ebp]
	call	DWORD PTR __imp_??1?$basic_string@GU?$char_traits@G@std@@V?$allocator@G@2@@std@@QAE@XZ
	mov	BYTE PTR __$EHRec$[ebp+8], 1
	lea	ecx, DWORD PTR _wscCash$[ebp]
	call	DWORD PTR __imp_??1?$basic_string@GU?$char_traits@G@std@@V?$allocator@G@2@@std@@QAE@XZ
	mov	BYTE PTR __$EHRec$[ebp+8], 0
	lea	ecx, DWORD PTR _wscTargetCharname$[ebp]
	call	DWORD PTR __imp_??1?$basic_string@GU?$char_traits@G@std@@V?$allocator@G@2@@std@@QAE@XZ
	mov	DWORD PTR __$EHRec$[ebp+8], -1
	lea	ecx, DWORD PTR _wscCharname$[ebp]
	call	DWORD PTR __imp_??1?$basic_string@GU?$char_traits@G@std@@V?$allocator@G@2@@std@@QAE@XZ
	mov	al, BYTE PTR $T144137[ebp]
	jmp	$LN30@UserCmd_Gi
$LN25@UserCmd_Gi:
; Line 206
	lea	ecx, DWORD PTR _wscCharname$[ebp]
	push	ecx
	call	?InBlockedSystem@GiveCash@@YA_NABV?$basic_string@GU?$char_traits@G@std@@V?$allocator@G@2@@std@@@Z ; GiveCash::InBlockedSystem
	add	esp, 4
	movzx	edx, al
	test	edx, edx
	jne	SHORT $LN23@UserCmd_Gi
	lea	eax, DWORD PTR _wscTargetCharname$[ebp]
	push	eax
	call	?InBlockedSystem@GiveCash@@YA_NABV?$basic_string@GU?$char_traits@G@std@@V?$allocator@G@2@@std@@@Z ; GiveCash::InBlockedSystem
	add	esp, 4
	movzx	ecx, al
	test	ecx, ecx
	je	$LN24@UserCmd_Gi
$LN23@UserCmd_Gi:
; Line 208
	sub	esp, 28					; 0000001cH
	mov	ecx, esp
	mov	DWORD PTR $T144138[ebp], esp
	push	OFFSET $SG139310
	call	DWORD PTR __imp_??0?$basic_string@GU?$char_traits@G@std@@V?$allocator@G@2@@std@@QAE@PBG@Z
	mov	DWORD PTR tv1616[ebp], eax
	mov	edx, DWORD PTR tv1616[ebp]
	mov	DWORD PTR tv1362[ebp], edx
	mov	BYTE PTR __$EHRec$[ebp+8], 17		; 00000011H
	mov	eax, DWORD PTR _iClientID$[ebp]
	push	eax
	mov	BYTE PTR __$EHRec$[ebp+8], 3
	call	DWORD PTR __imp_?PrintUserCmdText@@YAXIV?$basic_string@GU?$char_traits@G@std@@V?$allocator@G@2@@std@@ZZ
	add	esp, 32					; 00000020H
; Line 209
	mov	BYTE PTR $T144139[ebp], 1
	mov	BYTE PTR __$EHRec$[ebp+8], 2
	lea	ecx, DWORD PTR _wscAnon$[ebp]
	call	DWORD PTR __imp_??1?$basic_string@GU?$char_traits@G@std@@V?$allocator@G@2@@std@@QAE@XZ
	mov	BYTE PTR __$EHRec$[ebp+8], 1
	lea	ecx, DWORD PTR _wscCash$[ebp]
	call	DWORD PTR __imp_??1?$basic_string@GU?$char_traits@G@std@@V?$allocator@G@2@@std@@QAE@XZ
	mov	BYTE PTR __$EHRec$[ebp+8], 0
	lea	ecx, DWORD PTR _wscTargetCharname$[ebp]
	call	DWORD PTR __imp_??1?$basic_string@GU?$char_traits@G@std@@V?$allocator@G@2@@std@@QAE@XZ
	mov	DWORD PTR __$EHRec$[ebp+8], -1
	lea	ecx, DWORD PTR _wscCharname$[ebp]
	call	DWORD PTR __imp_??1?$basic_string@GU?$char_traits@G@std@@V?$allocator@G@2@@std@@QAE@XZ
	mov	al, BYTE PTR $T144139[ebp]
	jmp	$LN30@UserCmd_Gi
$LN24@UserCmd_Gi:
; Line 214
	mov	DWORD PTR _iCash$[ebp], 0
; Line 215
	lea	ecx, DWORD PTR _iCash$[ebp]
	push	ecx
	lea	edx, DWORD PTR _wscCharname$[ebp]
	push	edx
	call	DWORD PTR __imp_?HkGetCash@@YA?AW4HK_ERROR@@ABV?$basic_string@GU?$char_traits@G@std@@V?$allocator@G@2@@std@@AAH@Z
	add	esp, 8
	mov	DWORD PTR _err$[ebp], eax
	cmp	DWORD PTR _err$[ebp], 0
	je	$LN22@UserCmd_Gi
; Line 216
	mov	eax, DWORD PTR _err$[ebp]
	push	eax
	lea	ecx, DWORD PTR $T144141[ebp]
	push	ecx
	call	DWORD PTR __imp_?HkErrGetText@@YA?AV?$basic_string@GU?$char_traits@G@std@@V?$allocator@G@2@@std@@W4HK_ERROR@@@Z
	add	esp, 8
	mov	DWORD PTR tv1618[ebp], eax
	mov	edx, DWORD PTR tv1618[ebp]
	mov	DWORD PTR tv1368[ebp], edx
	mov	BYTE PTR __$EHRec$[ebp+8], 18		; 00000012H
	sub	esp, 28					; 0000001cH
	mov	eax, esp
	mov	DWORD PTR $T144140[ebp], esp
	mov	ecx, DWORD PTR tv1368[ebp]
	push	ecx
	push	OFFSET $SG139317
	push	eax
	call	DWORD PTR __imp_??$?HGU?$char_traits@G@std@@V?$allocator@G@1@@std@@YA?AV?$basic_string@GU?$char_traits@G@std@@V?$allocator@G@2@@0@PBGABV10@@Z
	add	esp, 12					; 0000000cH
	mov	DWORD PTR tv1619[ebp], eax
	mov	edx, DWORD PTR tv1619[ebp]
	mov	DWORD PTR tv1370[ebp], edx
	mov	BYTE PTR __$EHRec$[ebp+8], 19		; 00000013H
	mov	eax, DWORD PTR _iClientID$[ebp]
	push	eax
	mov	BYTE PTR __$EHRec$[ebp+8], 18		; 00000012H
	call	DWORD PTR __imp_?PrintUserCmdText@@YAXIV?$basic_string@GU?$char_traits@G@std@@V?$allocator@G@2@@std@@ZZ
	add	esp, 32					; 00000020H
	mov	BYTE PTR __$EHRec$[ebp+8], 3
	lea	ecx, DWORD PTR $T144141[ebp]
	call	DWORD PTR __imp_??1?$basic_string@GU?$char_traits@G@std@@V?$allocator@G@2@@std@@QAE@XZ
; Line 217
	mov	BYTE PTR $T144142[ebp], 1
	mov	BYTE PTR __$EHRec$[ebp+8], 2
	lea	ecx, DWORD PTR _wscAnon$[ebp]
	call	DWORD PTR __imp_??1?$basic_string@GU?$char_traits@G@std@@V?$allocator@G@2@@std@@QAE@XZ
	mov	BYTE PTR __$EHRec$[ebp+8], 1
	lea	ecx, DWORD PTR _wscCash$[ebp]
	call	DWORD PTR __imp_??1?$basic_string@GU?$char_traits@G@std@@V?$allocator@G@2@@std@@QAE@XZ
	mov	BYTE PTR __$EHRec$[ebp+8], 0
	lea	ecx, DWORD PTR _wscTargetCharname$[ebp]
	call	DWORD PTR __imp_??1?$basic_string@GU?$char_traits@G@std@@V?$allocator@G@2@@std@@QAE@XZ
	mov	DWORD PTR __$EHRec$[ebp+8], -1
	lea	ecx, DWORD PTR _wscCharname$[ebp]
	call	DWORD PTR __imp_??1?$basic_string@GU?$char_traits@G@std@@V?$allocator@G@2@@std@@QAE@XZ
	mov	al, BYTE PTR $T144142[ebp]
	jmp	$LN30@UserCmd_Gi
$LN22@UserCmd_Gi:
; Line 219
	mov	ecx, DWORD PTR _cash$[ebp]
	cmp	ecx, DWORD PTR _set_iMinTransfer
	jl	SHORT $LN20@UserCmd_Gi
	cmp	DWORD PTR _cash$[ebp], 0
	jge	$LN21@UserCmd_Gi
$LN20@UserCmd_Gi:
; Line 220
	sub	esp, 28					; 0000001cH
	mov	esi, esp
	mov	DWORD PTR $T144143[ebp], esp
	push	OFFSET $SG139325
	mov	edx, DWORD PTR _set_iMinTransfer
	push	edx
	lea	eax, DWORD PTR $T144144[ebp]
	push	eax
	call	DWORD PTR __imp_?ToMoneyStr@@YA?AV?$basic_string@GU?$char_traits@G@std@@V?$allocator@G@2@@std@@H@Z
	add	esp, 8
	mov	DWORD PTR tv1621[ebp], eax
	mov	ecx, DWORD PTR tv1621[ebp]
	mov	DWORD PTR tv1376[ebp], ecx
	mov	BYTE PTR __$EHRec$[ebp+8], 20		; 00000014H
	mov	edx, DWORD PTR tv1376[ebp]
	push	edx
	push	OFFSET $SG139326
	lea	eax, DWORD PTR $T144145[ebp]
	push	eax
	call	DWORD PTR __imp_??$?HGU?$char_traits@G@std@@V?$allocator@G@1@@std@@YA?AV?$basic_string@GU?$char_traits@G@std@@V?$allocator@G@2@@0@PBGABV10@@Z
	add	esp, 12					; 0000000cH
	mov	DWORD PTR tv1622[ebp], eax
	mov	ecx, DWORD PTR tv1622[ebp]
	mov	DWORD PTR tv1378[ebp], ecx
	mov	BYTE PTR __$EHRec$[ebp+8], 21		; 00000015H
	mov	edx, DWORD PTR tv1378[ebp]
	push	edx
	push	esi
	call	DWORD PTR __imp_??$?HGU?$char_traits@G@std@@V?$allocator@G@1@@std@@YA?AV?$basic_string@GU?$char_traits@G@std@@V?$allocator@G@2@@0@ABV10@PBG@Z
	add	esp, 12					; 0000000cH
	mov	DWORD PTR tv1623[ebp], eax
	mov	eax, DWORD PTR tv1623[ebp]
	mov	DWORD PTR tv1380[ebp], eax
	mov	BYTE PTR __$EHRec$[ebp+8], 22		; 00000016H
	mov	ecx, DWORD PTR _iClientID$[ebp]
	push	ecx
	mov	BYTE PTR __$EHRec$[ebp+8], 21		; 00000015H
	call	DWORD PTR __imp_?PrintUserCmdText@@YAXIV?$basic_string@GU?$char_traits@G@std@@V?$allocator@G@2@@std@@ZZ
	add	esp, 32					; 00000020H
	mov	BYTE PTR __$EHRec$[ebp+8], 20		; 00000014H
	lea	ecx, DWORD PTR $T144145[ebp]
	call	DWORD PTR __imp_??1?$basic_string@GU?$char_traits@G@std@@V?$allocator@G@2@@std@@QAE@XZ
	mov	BYTE PTR __$EHRec$[ebp+8], 3
	lea	ecx, DWORD PTR $T144144[ebp]
	call	DWORD PTR __imp_??1?$basic_string@GU?$char_traits@G@std@@V?$allocator@G@2@@std@@QAE@XZ
; Line 221
	mov	BYTE PTR $T144146[ebp], 1
	mov	BYTE PTR __$EHRec$[ebp+8], 2
	lea	ecx, DWORD PTR _wscAnon$[ebp]
	call	DWORD PTR __imp_??1?$basic_string@GU?$char_traits@G@std@@V?$allocator@G@2@@std@@QAE@XZ
	mov	BYTE PTR __$EHRec$[ebp+8], 1
	lea	ecx, DWORD PTR _wscCash$[ebp]
	call	DWORD PTR __imp_??1?$basic_string@GU?$char_traits@G@std@@V?$allocator@G@2@@std@@QAE@XZ
	mov	BYTE PTR __$EHRec$[ebp+8], 0
	lea	ecx, DWORD PTR _wscTargetCharname$[ebp]
	call	DWORD PTR __imp_??1?$basic_string@GU?$char_traits@G@std@@V?$allocator@G@2@@std@@QAE@XZ
	mov	DWORD PTR __$EHRec$[ebp+8], -1
	lea	ecx, DWORD PTR _wscCharname$[ebp]
	call	DWORD PTR __imp_??1?$basic_string@GU?$char_traits@G@std@@V?$allocator@G@2@@std@@QAE@XZ
	mov	al, BYTE PTR $T144146[ebp]
	jmp	$LN30@UserCmd_Gi
$LN21@UserCmd_Gi:
; Line 223
	mov	edx, DWORD PTR _iCash$[ebp]
	cmp	edx, DWORD PTR _cash$[ebp]
	jge	$LN19@UserCmd_Gi
; Line 225
	sub	esp, 28					; 0000001cH
	mov	ecx, esp
	mov	DWORD PTR $T144147[ebp], esp
	push	OFFSET $SG139330
	call	DWORD PTR __imp_??0?$basic_string@GU?$char_traits@G@std@@V?$allocator@G@2@@std@@QAE@PBG@Z
	mov	DWORD PTR tv1625[ebp], eax
	mov	eax, DWORD PTR tv1625[ebp]
	mov	DWORD PTR tv1386[ebp], eax
	mov	BYTE PTR __$EHRec$[ebp+8], 23		; 00000017H
	mov	ecx, DWORD PTR _iClientID$[ebp]
	push	ecx
	mov	BYTE PTR __$EHRec$[ebp+8], 3
	call	DWORD PTR __imp_?PrintUserCmdText@@YAXIV?$basic_string@GU?$char_traits@G@std@@V?$allocator@G@2@@std@@ZZ
	add	esp, 32					; 00000020H
; Line 226
	mov	BYTE PTR $T144148[ebp], 1
	mov	BYTE PTR __$EHRec$[ebp+8], 2
	lea	ecx, DWORD PTR _wscAnon$[ebp]
	call	DWORD PTR __imp_??1?$basic_string@GU?$char_traits@G@std@@V?$allocator@G@2@@std@@QAE@XZ
	mov	BYTE PTR __$EHRec$[ebp+8], 1
	lea	ecx, DWORD PTR _wscCash$[ebp]
	call	DWORD PTR __imp_??1?$basic_string@GU?$char_traits@G@std@@V?$allocator@G@2@@std@@QAE@XZ
	mov	BYTE PTR __$EHRec$[ebp+8], 0
	lea	ecx, DWORD PTR _wscTargetCharname$[ebp]
	call	DWORD PTR __imp_??1?$basic_string@GU?$char_traits@G@std@@V?$allocator@G@2@@std@@QAE@XZ
	mov	DWORD PTR __$EHRec$[ebp+8], -1
	lea	ecx, DWORD PTR _wscCharname$[ebp]
	call	DWORD PTR __imp_??1?$basic_string@GU?$char_traits@G@std@@V?$allocator@G@2@@std@@QAE@XZ
	mov	al, BYTE PTR $T144148[ebp]
	jmp	$LN30@UserCmd_Gi
$LN19@UserCmd_Gi:
; Line 230
	fldz
	fstp	DWORD PTR _fTargetValue$[ebp]
; Line 231
	lea	edx, DWORD PTR _fTargetValue$[ebp]
	push	edx
	lea	eax, DWORD PTR _wscTargetCharname$[ebp]
	push	eax
	call	?HKGetShipValue@@YA?AW4HK_ERROR@@ABV?$basic_string@GU?$char_traits@G@std@@V?$allocator@G@2@@std@@AAM@Z ; HKGetShipValue
	add	esp, 8
	test	eax, eax
	je	$LN18@UserCmd_Gi
; Line 233
	mov	ecx, DWORD PTR _err$[ebp]
	push	ecx
	lea	edx, DWORD PTR $T144150[ebp]
	push	edx
	call	DWORD PTR __imp_?HkErrGetText@@YA?AV?$basic_string@GU?$char_traits@G@std@@V?$allocator@G@2@@std@@W4HK_ERROR@@@Z
	add	esp, 8
	mov	DWORD PTR tv1627[ebp], eax
	mov	eax, DWORD PTR tv1627[ebp]
	mov	DWORD PTR tv1392[ebp], eax
	mov	BYTE PTR __$EHRec$[ebp+8], 24		; 00000018H
	sub	esp, 28					; 0000001cH
	mov	ecx, esp
	mov	DWORD PTR $T144149[ebp], esp
	mov	edx, DWORD PTR tv1392[ebp]
	push	edx
	push	OFFSET $SG139337
	push	ecx
	call	DWORD PTR __imp_??$?HGU?$char_traits@G@std@@V?$allocator@G@1@@std@@YA?AV?$basic_string@GU?$char_traits@G@std@@V?$allocator@G@2@@0@PBGABV10@@Z
	add	esp, 12					; 0000000cH
	mov	DWORD PTR tv1628[ebp], eax
	mov	eax, DWORD PTR tv1628[ebp]
	mov	DWORD PTR tv1394[ebp], eax
	mov	BYTE PTR __$EHRec$[ebp+8], 25		; 00000019H
	mov	ecx, DWORD PTR _iClientID$[ebp]
	push	ecx
	mov	BYTE PTR __$EHRec$[ebp+8], 24		; 00000018H
	call	DWORD PTR __imp_?PrintUserCmdText@@YAXIV?$basic_string@GU?$char_traits@G@std@@V?$allocator@G@2@@std@@ZZ
	add	esp, 32					; 00000020H
	mov	BYTE PTR __$EHRec$[ebp+8], 3
	lea	ecx, DWORD PTR $T144150[ebp]
	call	DWORD PTR __imp_??1?$basic_string@GU?$char_traits@G@std@@V?$allocator@G@2@@std@@QAE@XZ
; Line 234
	mov	BYTE PTR $T144151[ebp], 1
	mov	BYTE PTR __$EHRec$[ebp+8], 2
	lea	ecx, DWORD PTR _wscAnon$[ebp]
	call	DWORD PTR __imp_??1?$basic_string@GU?$char_traits@G@std@@V?$allocator@G@2@@std@@QAE@XZ
	mov	BYTE PTR __$EHRec$[ebp+8], 1
	lea	ecx, DWORD PTR _wscCash$[ebp]
	call	DWORD PTR __imp_??1?$basic_string@GU?$char_traits@G@std@@V?$allocator@G@2@@std@@QAE@XZ
	mov	BYTE PTR __$EHRec$[ebp+8], 0
	lea	ecx, DWORD PTR _wscTargetCharname$[ebp]
	call	DWORD PTR __imp_??1?$basic_string@GU?$char_traits@G@std@@V?$allocator@G@2@@std@@QAE@XZ
	mov	DWORD PTR __$EHRec$[ebp+8], -1
	lea	ecx, DWORD PTR _wscCharname$[ebp]
	call	DWORD PTR __imp_??1?$basic_string@GU?$char_traits@G@std@@V?$allocator@G@2@@std@@QAE@XZ
	mov	al, BYTE PTR $T144151[ebp]
	jmp	$LN30@UserCmd_Gi
$LN18@UserCmd_Gi:
; Line 236
	fild	DWORD PTR _cash$[ebp]
	fadd	DWORD PTR _fTargetValue$[ebp]
	fcomp	QWORD PTR __real@41ddcd6500000000
	fnstsw	ax
	test	ah, 65					; 00000041H
	jne	$LN17@UserCmd_Gi
; Line 238
	sub	esp, 28					; 0000001cH
	mov	ecx, esp
	mov	DWORD PTR $T144152[ebp], esp
	push	OFFSET $SG139341
	call	DWORD PTR __imp_??0?$basic_string@GU?$char_traits@G@std@@V?$allocator@G@2@@std@@QAE@PBG@Z
	mov	DWORD PTR tv1630[ebp], eax
	mov	edx, DWORD PTR tv1630[ebp]
	mov	DWORD PTR tv1400[ebp], edx
	mov	BYTE PTR __$EHRec$[ebp+8], 26		; 0000001aH
	mov	eax, DWORD PTR _iClientID$[ebp]
	push	eax
	mov	BYTE PTR __$EHRec$[ebp+8], 3
	call	DWORD PTR __imp_?PrintUserCmdText@@YAXIV?$basic_string@GU?$char_traits@G@std@@V?$allocator@G@2@@std@@ZZ
	add	esp, 32					; 00000020H
; Line 239
	mov	BYTE PTR $T144153[ebp], 1
	mov	BYTE PTR __$EHRec$[ebp+8], 2
	lea	ecx, DWORD PTR _wscAnon$[ebp]
	call	DWORD PTR __imp_??1?$basic_string@GU?$char_traits@G@std@@V?$allocator@G@2@@std@@QAE@XZ
	mov	BYTE PTR __$EHRec$[ebp+8], 1
	lea	ecx, DWORD PTR _wscCash$[ebp]
	call	DWORD PTR __imp_??1?$basic_string@GU?$char_traits@G@std@@V?$allocator@G@2@@std@@QAE@XZ
	mov	BYTE PTR __$EHRec$[ebp+8], 0
	lea	ecx, DWORD PTR _wscTargetCharname$[ebp]
	call	DWORD PTR __imp_??1?$basic_string@GU?$char_traits@G@std@@V?$allocator@G@2@@std@@QAE@XZ
	mov	DWORD PTR __$EHRec$[ebp+8], -1
	lea	ecx, DWORD PTR _wscCharname$[ebp]
	call	DWORD PTR __imp_??1?$basic_string@GU?$char_traits@G@std@@V?$allocator@G@2@@std@@QAE@XZ
	mov	al, BYTE PTR $T144153[ebp]
	jmp	$LN30@UserCmd_Gi
$LN17@UserCmd_Gi:
; Line 243
	mov	DWORD PTR _iExpectedCash$[ebp], 0
; Line 244
	lea	ecx, DWORD PTR _iExpectedCash$[ebp]
	push	ecx
	lea	edx, DWORD PTR _wscTargetCharname$[ebp]
	push	edx
	call	DWORD PTR __imp_?HkGetCash@@YA?AW4HK_ERROR@@ABV?$basic_string@GU?$char_traits@G@std@@V?$allocator@G@2@@std@@AAH@Z
	add	esp, 8
	mov	DWORD PTR _err$[ebp], eax
	cmp	DWORD PTR _err$[ebp], 0
	je	$LN16@UserCmd_Gi
; Line 246
	mov	eax, DWORD PTR _err$[ebp]
	push	eax
	lea	ecx, DWORD PTR $T144155[ebp]
	push	ecx
	call	DWORD PTR __imp_?HkErrGetText@@YA?AV?$basic_string@GU?$char_traits@G@std@@V?$allocator@G@2@@std@@W4HK_ERROR@@@Z
	add	esp, 8
	mov	DWORD PTR tv1632[ebp], eax
	mov	edx, DWORD PTR tv1632[ebp]
	mov	DWORD PTR tv1406[ebp], edx
	mov	BYTE PTR __$EHRec$[ebp+8], 27		; 0000001bH
	sub	esp, 28					; 0000001cH
	mov	eax, esp
	mov	DWORD PTR $T144154[ebp], esp
	mov	ecx, DWORD PTR tv1406[ebp]
	push	ecx
	push	OFFSET $SG139348
	push	eax
	call	DWORD PTR __imp_??$?HGU?$char_traits@G@std@@V?$allocator@G@1@@std@@YA?AV?$basic_string@GU?$char_traits@G@std@@V?$allocator@G@2@@0@PBGABV10@@Z
	add	esp, 12					; 0000000cH
	mov	DWORD PTR tv1633[ebp], eax
	mov	edx, DWORD PTR tv1633[ebp]
	mov	DWORD PTR tv1408[ebp], edx
	mov	BYTE PTR __$EHRec$[ebp+8], 28		; 0000001cH
	mov	eax, DWORD PTR _iClientID$[ebp]
	push	eax
	mov	BYTE PTR __$EHRec$[ebp+8], 27		; 0000001bH
	call	DWORD PTR __imp_?PrintUserCmdText@@YAXIV?$basic_string@GU?$char_traits@G@std@@V?$allocator@G@2@@std@@ZZ
	add	esp, 32					; 00000020H
	mov	BYTE PTR __$EHRec$[ebp+8], 3
	lea	ecx, DWORD PTR $T144155[ebp]
	call	DWORD PTR __imp_??1?$basic_string@GU?$char_traits@G@std@@V?$allocator@G@2@@std@@QAE@XZ
; Line 247
	mov	BYTE PTR $T144156[ebp], 1
	mov	BYTE PTR __$EHRec$[ebp+8], 2
	lea	ecx, DWORD PTR _wscAnon$[ebp]
	call	DWORD PTR __imp_??1?$basic_string@GU?$char_traits@G@std@@V?$allocator@G@2@@std@@QAE@XZ
	mov	BYTE PTR __$EHRec$[ebp+8], 1
	lea	ecx, DWORD PTR _wscCash$[ebp]
	call	DWORD PTR __imp_??1?$basic_string@GU?$char_traits@G@std@@V?$allocator@G@2@@std@@QAE@XZ
	mov	BYTE PTR __$EHRec$[ebp+8], 0
	lea	ecx, DWORD PTR _wscTargetCharname$[ebp]
	call	DWORD PTR __imp_??1?$basic_string@GU?$char_traits@G@std@@V?$allocator@G@2@@std@@QAE@XZ
	mov	DWORD PTR __$EHRec$[ebp+8], -1
	lea	ecx, DWORD PTR _wscCharname$[ebp]
	call	DWORD PTR __imp_??1?$basic_string@GU?$char_traits@G@std@@V?$allocator@G@2@@std@@QAE@XZ
	mov	al, BYTE PTR $T144156[ebp]
	jmp	$LN30@UserCmd_Gi
$LN16@UserCmd_Gi:
; Line 249
	mov	ecx, DWORD PTR _iExpectedCash$[ebp]
	add	ecx, DWORD PTR _cash$[ebp]
	mov	DWORD PTR _iExpectedCash$[ebp], ecx
; Line 252
	lea	edx, DWORD PTR _wscTargetCharname$[ebp]
	push	edx
	call	DWORD PTR __imp_?HkGetClientIdFromCharname@@YAIABV?$basic_string@GU?$char_traits@G@std@@V?$allocator@G@2@@std@@@Z
	add	esp, 4
	mov	DWORD PTR _targetClientId$[ebp], eax
; Line 253
	cmp	DWORD PTR _targetClientId$[ebp], -1
	je	$LN15@UserCmd_Gi
	mov	eax, DWORD PTR _targetClientId$[ebp]
	push	eax
	call	DWORD PTR __imp_?HkIsInCharSelectMenu@@YA_NI@Z
	add	esp, 4
	movzx	ecx, al
	test	ecx, ecx
	jne	$LN15@UserCmd_Gi
; Line 255
	mov	edx, DWORD PTR _targetClientId$[ebp]
	push	edx
	call	?HkAntiCheat@@YA?AW4HK_ERROR@@I@Z	; HkAntiCheat
	add	esp, 4
	test	eax, eax
	je	$LN14@UserCmd_Gi
; Line 257
	sub	esp, 28					; 0000001cH
	mov	ecx, esp
	mov	DWORD PTR $T144157[ebp], esp
	push	OFFSET $SG139354
	call	DWORD PTR __imp_??0?$basic_string@GU?$char_traits@G@std@@V?$allocator@G@2@@std@@QAE@PBG@Z
	mov	DWORD PTR tv1635[ebp], eax
	mov	eax, DWORD PTR tv1635[ebp]
	mov	DWORD PTR tv1414[ebp], eax
	mov	BYTE PTR __$EHRec$[ebp+8], 29		; 0000001dH
	mov	ecx, DWORD PTR _iClientID$[ebp]
	push	ecx
	mov	BYTE PTR __$EHRec$[ebp+8], 3
	call	DWORD PTR __imp_?PrintUserCmdText@@YAXIV?$basic_string@GU?$char_traits@G@std@@V?$allocator@G@2@@std@@ZZ
	add	esp, 32					; 00000020H
; Line 261
	lea	edx, DWORD PTR _wscTargetCharname$[ebp]
	push	edx
	call	DWORD PTR __imp_?HkGetAccountByCharname@@YAPAVCAccount@@ABV?$basic_string@GU?$char_traits@G@std@@V?$allocator@G@2@@std@@@Z
	add	esp, 4
	push	eax
	lea	eax, DWORD PTR $T144158[ebp]
	push	eax
	call	DWORD PTR __imp_?HkGetAccountID@@YA?AV?$basic_string@GU?$char_traits@G@std@@V?$allocator@G@2@@std@@PAVCAccount@@@Z
	add	esp, 8
	mov	DWORD PTR tv1637[ebp], eax
	mov	ecx, DWORD PTR tv1637[ebp]
	mov	DWORD PTR tv1416[ebp], ecx
	mov	BYTE PTR __$EHRec$[ebp+8], 30		; 0000001eH
	mov	edx, DWORD PTR tv1416[ebp]
	push	edx
	lea	eax, DWORD PTR $T144159[ebp]
	push	eax
	call	DWORD PTR __imp_?wstos@@YA?AV?$basic_string@DU?$char_traits@D@std@@V?$allocator@D@2@@std@@ABV?$basic_string@GU?$char_traits@G@std@@V?$allocator@G@2@@2@@Z
	add	esp, 8
	mov	DWORD PTR tv1638[ebp], eax
	mov	ecx, DWORD PTR tv1638[ebp]
	mov	DWORD PTR tv1418[ebp], ecx
	mov	BYTE PTR __$EHRec$[ebp+8], 31		; 0000001fH
	mov	ecx, DWORD PTR tv1418[ebp]
	call	DWORD PTR __imp_?c_str@?$basic_string@DU?$char_traits@D@std@@V?$allocator@D@2@@std@@QBEPBDXZ
	push	eax
	lea	edx, DWORD PTR _wscTargetCharname$[ebp]
	push	edx
	lea	eax, DWORD PTR $T144160[ebp]
	push	eax
	call	DWORD PTR __imp_?wstos@@YA?AV?$basic_string@DU?$char_traits@D@std@@V?$allocator@D@2@@std@@ABV?$basic_string@GU?$char_traits@G@std@@V?$allocator@G@2@@2@@Z
	add	esp, 8
	mov	DWORD PTR tv1639[ebp], eax
	mov	ecx, DWORD PTR tv1639[ebp]
	mov	DWORD PTR tv1420[ebp], ecx
	mov	BYTE PTR __$EHRec$[ebp+8], 32		; 00000020H
	mov	ecx, DWORD PTR tv1420[ebp]
	call	DWORD PTR __imp_?c_str@?$basic_string@DU?$char_traits@D@std@@V?$allocator@D@2@@std@@QBEPBDXZ
	push	eax
	lea	edx, DWORD PTR _wscCharname$[ebp]
	push	edx
	call	DWORD PTR __imp_?HkGetAccountByCharname@@YAPAVCAccount@@ABV?$basic_string@GU?$char_traits@G@std@@V?$allocator@G@2@@std@@@Z
	add	esp, 4
	push	eax
	lea	eax, DWORD PTR $T144161[ebp]
	push	eax
	call	DWORD PTR __imp_?HkGetAccountID@@YA?AV?$basic_string@GU?$char_traits@G@std@@V?$allocator@G@2@@std@@PAVCAccount@@@Z
	add	esp, 8
	mov	DWORD PTR tv1640[ebp], eax
	mov	ecx, DWORD PTR tv1640[ebp]
	mov	DWORD PTR tv1422[ebp], ecx
	mov	BYTE PTR __$EHRec$[ebp+8], 33		; 00000021H
	mov	edx, DWORD PTR tv1422[ebp]
	push	edx
	lea	eax, DWORD PTR $T144162[ebp]
	push	eax
	call	DWORD PTR __imp_?wstos@@YA?AV?$basic_string@DU?$char_traits@D@std@@V?$allocator@D@2@@std@@ABV?$basic_string@GU?$char_traits@G@std@@V?$allocator@G@2@@2@@Z
	add	esp, 8
	mov	DWORD PTR tv1641[ebp], eax
	mov	ecx, DWORD PTR tv1641[ebp]
	mov	DWORD PTR tv1424[ebp], ecx
	mov	BYTE PTR __$EHRec$[ebp+8], 34		; 00000022H
	mov	ecx, DWORD PTR tv1424[ebp]
	call	DWORD PTR __imp_?c_str@?$basic_string@DU?$char_traits@D@std@@V?$allocator@D@2@@std@@QBEPBDXZ
	push	eax
	lea	edx, DWORD PTR _wscCharname$[ebp]
	push	edx
	lea	eax, DWORD PTR $T144163[ebp]
	push	eax
	call	DWORD PTR __imp_?wstos@@YA?AV?$basic_string@DU?$char_traits@D@std@@V?$allocator@D@2@@std@@ABV?$basic_string@GU?$char_traits@G@std@@V?$allocator@G@2@@2@@Z
	add	esp, 8
	mov	DWORD PTR tv1642[ebp], eax
	mov	ecx, DWORD PTR tv1642[ebp]
	mov	DWORD PTR tv1426[ebp], ecx
	mov	BYTE PTR __$EHRec$[ebp+8], 35		; 00000023H
	mov	ecx, DWORD PTR tv1426[ebp]
	call	DWORD PTR __imp_?c_str@?$basic_string@DU?$char_traits@D@std@@V?$allocator@D@2@@std@@QBEPBDXZ
	push	eax
	mov	edx, DWORD PTR _cash$[ebp]
	push	edx
	lea	eax, DWORD PTR $T144164[ebp]
	push	eax
	call	DWORD PTR __imp_?ToMoneyStr@@YA?AV?$basic_string@GU?$char_traits@G@std@@V?$allocator@G@2@@std@@H@Z
	add	esp, 8
	mov	DWORD PTR tv1643[ebp], eax
	mov	ecx, DWORD PTR tv1643[ebp]
	mov	DWORD PTR tv1428[ebp], ecx
	mov	BYTE PTR __$EHRec$[ebp+8], 36		; 00000024H
	mov	edx, DWORD PTR tv1428[ebp]
	push	edx
	lea	eax, DWORD PTR $T144165[ebp]
	push	eax
	call	DWORD PTR __imp_?wstos@@YA?AV?$basic_string@DU?$char_traits@D@std@@V?$allocator@D@2@@std@@ABV?$basic_string@GU?$char_traits@G@std@@V?$allocator@G@2@@2@@Z
	add	esp, 8
	mov	DWORD PTR tv1644[ebp], eax
	mov	ecx, DWORD PTR tv1644[ebp]
	mov	DWORD PTR tv1430[ebp], ecx
	mov	BYTE PTR __$EHRec$[ebp+8], 37		; 00000025H
	mov	ecx, DWORD PTR tv1430[ebp]
	call	DWORD PTR __imp_?c_str@?$basic_string@DU?$char_traits@D@std@@V?$allocator@D@2@@std@@QBEPBDXZ
	push	eax
	push	OFFSET $SG139363
	call	DWORD PTR __imp_?AddLog@@YAXPBDZZ
	add	esp, 24					; 00000018H
	mov	BYTE PTR __$EHRec$[ebp+8], 36		; 00000024H
	lea	ecx, DWORD PTR $T144165[ebp]
	call	DWORD PTR __imp_??1?$basic_string@DU?$char_traits@D@std@@V?$allocator@D@2@@std@@QAE@XZ
	mov	BYTE PTR __$EHRec$[ebp+8], 35		; 00000023H
	lea	ecx, DWORD PTR $T144164[ebp]
	call	DWORD PTR __imp_??1?$basic_string@GU?$char_traits@G@std@@V?$allocator@G@2@@std@@QAE@XZ
	mov	BYTE PTR __$EHRec$[ebp+8], 34		; 00000022H
	lea	ecx, DWORD PTR $T144163[ebp]
	call	DWORD PTR __imp_??1?$basic_string@DU?$char_traits@D@std@@V?$allocator@D@2@@std@@QAE@XZ
	mov	BYTE PTR __$EHRec$[ebp+8], 33		; 00000021H
	lea	ecx, DWORD PTR $T144162[ebp]
	call	DWORD PTR __imp_??1?$basic_string@DU?$char_traits@D@std@@V?$allocator@D@2@@std@@QAE@XZ
	mov	BYTE PTR __$EHRec$[ebp+8], 32		; 00000020H
	lea	ecx, DWORD PTR $T144161[ebp]
	call	DWORD PTR __imp_??1?$basic_string@GU?$char_traits@G@std@@V?$allocator@G@2@@std@@QAE@XZ
	mov	BYTE PTR __$EHRec$[ebp+8], 31		; 0000001fH
	lea	ecx, DWORD PTR $T144160[ebp]
	call	DWORD PTR __imp_??1?$basic_string@DU?$char_traits@D@std@@V?$allocator@D@2@@std@@QAE@XZ
	mov	BYTE PTR __$EHRec$[ebp+8], 30		; 0000001eH
	lea	ecx, DWORD PTR $T144159[ebp]
	call	DWORD PTR __imp_??1?$basic_string@DU?$char_traits@D@std@@V?$allocator@D@2@@std@@QAE@XZ
	mov	BYTE PTR __$EHRec$[ebp+8], 3
	lea	ecx, DWORD PTR $T144158[ebp]
	call	DWORD PTR __imp_??1?$basic_string@GU?$char_traits@G@std@@V?$allocator@G@2@@std@@QAE@XZ
; Line 262
	mov	BYTE PTR $T144166[ebp], 1
	mov	BYTE PTR __$EHRec$[ebp+8], 2
	lea	ecx, DWORD PTR _wscAnon$[ebp]
	call	DWORD PTR __imp_??1?$basic_string@GU?$char_traits@G@std@@V?$allocator@G@2@@std@@QAE@XZ
	mov	BYTE PTR __$EHRec$[ebp+8], 1
	lea	ecx, DWORD PTR _wscCash$[ebp]
	call	DWORD PTR __imp_??1?$basic_string@GU?$char_traits@G@std@@V?$allocator@G@2@@std@@QAE@XZ
	mov	BYTE PTR __$EHRec$[ebp+8], 0
	lea	ecx, DWORD PTR _wscTargetCharname$[ebp]
	call	DWORD PTR __imp_??1?$basic_string@GU?$char_traits@G@std@@V?$allocator@G@2@@std@@QAE@XZ
	mov	DWORD PTR __$EHRec$[ebp+8], -1
	lea	ecx, DWORD PTR _wscCharname$[ebp]
	call	DWORD PTR __imp_??1?$basic_string@GU?$char_traits@G@std@@V?$allocator@G@2@@std@@QAE@XZ
	mov	al, BYTE PTR $T144166[ebp]
	jmp	$LN30@UserCmd_Gi
$LN14@UserCmd_Gi:
; Line 264
	mov	edx, DWORD PTR _targetClientId$[ebp]
	push	edx
	call	?HkSaveChar@@YAXI@Z			; HkSaveChar
	add	esp, 4
$LN15@UserCmd_Gi:
; Line 267
	cmp	DWORD PTR _targetClientId$[ebp], -1
	je	$LN12@UserCmd_Gi
; Line 269
	mov	eax, DWORD PTR _iClientID$[ebp]
	imul	eax, 2368				; 00000940H
	mov	ecx, DWORD PTR __imp_?ClientInfo@@3PAUCLIENT_INFO@@A
	cmp	DWORD PTR [ecx+eax+2092], 0
	jne	SHORT $LN11@UserCmd_Gi
	mov	edx, DWORD PTR _targetClientId$[ebp]
	imul	edx, 2368				; 00000940H
	mov	eax, DWORD PTR __imp_?ClientInfo@@3PAUCLIENT_INFO@@A
	cmp	DWORD PTR [eax+edx+2092], 0
	je	$LN12@UserCmd_Gi
$LN11@UserCmd_Gi:
; Line 271
	sub	esp, 28					; 0000001cH
	mov	ecx, esp
	mov	DWORD PTR $T144167[ebp], esp
	push	OFFSET $SG139369
	call	DWORD PTR __imp_??0?$basic_string@GU?$char_traits@G@std@@V?$allocator@G@2@@std@@QAE@PBG@Z
	mov	DWORD PTR tv1645[ebp], eax
	mov	ecx, DWORD PTR tv1645[ebp]
	mov	DWORD PTR tv1436[ebp], ecx
	mov	BYTE PTR __$EHRec$[ebp+8], 38		; 00000026H
	mov	edx, DWORD PTR _iClientID$[ebp]
	push	edx
	mov	BYTE PTR __$EHRec$[ebp+8], 3
	call	DWORD PTR __imp_?PrintUserCmdText@@YAXIV?$basic_string@GU?$char_traits@G@std@@V?$allocator@G@2@@std@@ZZ
	add	esp, 32					; 00000020H
; Line 276
	mov	eax, DWORD PTR _targetClientId$[ebp]
	push	eax
	mov	ecx, DWORD PTR _iClientID$[ebp]
	push	ecx
	lea	edx, DWORD PTR _wscTargetCharname$[ebp]
	push	edx
	call	DWORD PTR __imp_?HkGetAccountByCharname@@YAPAVCAccount@@ABV?$basic_string@GU?$char_traits@G@std@@V?$allocator@G@2@@std@@@Z
	add	esp, 4
	push	eax
	lea	eax, DWORD PTR $T144168[ebp]
	push	eax
	call	DWORD PTR __imp_?HkGetAccountID@@YA?AV?$basic_string@GU?$char_traits@G@std@@V?$allocator@G@2@@std@@PAVCAccount@@@Z
	add	esp, 8
	mov	DWORD PTR tv1647[ebp], eax
	mov	ecx, DWORD PTR tv1647[ebp]
	mov	DWORD PTR tv1438[ebp], ecx
	mov	BYTE PTR __$EHRec$[ebp+8], 39		; 00000027H
	mov	edx, DWORD PTR tv1438[ebp]
	push	edx
	lea	eax, DWORD PTR $T144169[ebp]
	push	eax
	call	DWORD PTR __imp_?wstos@@YA?AV?$basic_string@DU?$char_traits@D@std@@V?$allocator@D@2@@std@@ABV?$basic_string@GU?$char_traits@G@std@@V?$allocator@G@2@@2@@Z
	add	esp, 8
	mov	DWORD PTR tv1648[ebp], eax
	mov	ecx, DWORD PTR tv1648[ebp]
	mov	DWORD PTR tv1440[ebp], ecx
	mov	BYTE PTR __$EHRec$[ebp+8], 40		; 00000028H
	mov	ecx, DWORD PTR tv1440[ebp]
	call	DWORD PTR __imp_?c_str@?$basic_string@DU?$char_traits@D@std@@V?$allocator@D@2@@std@@QBEPBDXZ
	push	eax
	lea	edx, DWORD PTR _wscTargetCharname$[ebp]
	push	edx
	lea	eax, DWORD PTR $T144170[ebp]
	push	eax
	call	DWORD PTR __imp_?wstos@@YA?AV?$basic_string@DU?$char_traits@D@std@@V?$allocator@D@2@@std@@ABV?$basic_string@GU?$char_traits@G@std@@V?$allocator@G@2@@2@@Z
	add	esp, 8
	mov	DWORD PTR tv1649[ebp], eax
	mov	ecx, DWORD PTR tv1649[ebp]
	mov	DWORD PTR tv1442[ebp], ecx
	mov	BYTE PTR __$EHRec$[ebp+8], 41		; 00000029H
	mov	ecx, DWORD PTR tv1442[ebp]
	call	DWORD PTR __imp_?c_str@?$basic_string@DU?$char_traits@D@std@@V?$allocator@D@2@@std@@QBEPBDXZ
	push	eax
	lea	edx, DWORD PTR _wscCharname$[ebp]
	push	edx
	call	DWORD PTR __imp_?HkGetAccountByCharname@@YAPAVCAccount@@ABV?$basic_string@GU?$char_traits@G@std@@V?$allocator@G@2@@std@@@Z
	add	esp, 4
	push	eax
	lea	eax, DWORD PTR $T144171[ebp]
	push	eax
	call	DWORD PTR __imp_?HkGetAccountID@@YA?AV?$basic_string@GU?$char_traits@G@std@@V?$allocator@G@2@@std@@PAVCAccount@@@Z
	add	esp, 8
	mov	DWORD PTR tv1650[ebp], eax
	mov	ecx, DWORD PTR tv1650[ebp]
	mov	DWORD PTR tv1444[ebp], ecx
	mov	BYTE PTR __$EHRec$[ebp+8], 42		; 0000002aH
	mov	edx, DWORD PTR tv1444[ebp]
	push	edx
	lea	eax, DWORD PTR $T144172[ebp]
	push	eax
	call	DWORD PTR __imp_?wstos@@YA?AV?$basic_string@DU?$char_traits@D@std@@V?$allocator@D@2@@std@@ABV?$basic_string@GU?$char_traits@G@std@@V?$allocator@G@2@@2@@Z
	add	esp, 8
	mov	DWORD PTR tv1651[ebp], eax
	mov	ecx, DWORD PTR tv1651[ebp]
	mov	DWORD PTR tv1446[ebp], ecx
	mov	BYTE PTR __$EHRec$[ebp+8], 43		; 0000002bH
	mov	ecx, DWORD PTR tv1446[ebp]
	call	DWORD PTR __imp_?c_str@?$basic_string@DU?$char_traits@D@std@@V?$allocator@D@2@@std@@QBEPBDXZ
	push	eax
	lea	edx, DWORD PTR _wscCharname$[ebp]
	push	edx
	lea	eax, DWORD PTR $T144173[ebp]
	push	eax
	call	DWORD PTR __imp_?wstos@@YA?AV?$basic_string@DU?$char_traits@D@std@@V?$allocator@D@2@@std@@ABV?$basic_string@GU?$char_traits@G@std@@V?$allocator@G@2@@2@@Z
	add	esp, 8
	mov	DWORD PTR tv1652[ebp], eax
	mov	ecx, DWORD PTR tv1652[ebp]
	mov	DWORD PTR tv1448[ebp], ecx
	mov	BYTE PTR __$EHRec$[ebp+8], 44		; 0000002cH
	mov	ecx, DWORD PTR tv1448[ebp]
	call	DWORD PTR __imp_?c_str@?$basic_string@DU?$char_traits@D@std@@V?$allocator@D@2@@std@@QBEPBDXZ
	push	eax
	mov	edx, DWORD PTR _cash$[ebp]
	push	edx
	lea	eax, DWORD PTR $T144174[ebp]
	push	eax
	call	DWORD PTR __imp_?ToMoneyStr@@YA?AV?$basic_string@GU?$char_traits@G@std@@V?$allocator@G@2@@std@@H@Z
	add	esp, 8
	mov	DWORD PTR tv1653[ebp], eax
	mov	ecx, DWORD PTR tv1653[ebp]
	mov	DWORD PTR tv1450[ebp], ecx
	mov	BYTE PTR __$EHRec$[ebp+8], 45		; 0000002dH
	mov	edx, DWORD PTR tv1450[ebp]
	push	edx
	lea	eax, DWORD PTR $T144175[ebp]
	push	eax
	call	DWORD PTR __imp_?wstos@@YA?AV?$basic_string@DU?$char_traits@D@std@@V?$allocator@D@2@@std@@ABV?$basic_string@GU?$char_traits@G@std@@V?$allocator@G@2@@2@@Z
	add	esp, 8
	mov	DWORD PTR tv1654[ebp], eax
	mov	ecx, DWORD PTR tv1654[ebp]
	mov	DWORD PTR tv1452[ebp], ecx
	mov	BYTE PTR __$EHRec$[ebp+8], 46		; 0000002eH
	mov	ecx, DWORD PTR tv1452[ebp]
	call	DWORD PTR __imp_?c_str@?$basic_string@DU?$char_traits@D@std@@V?$allocator@D@2@@std@@QBEPBDXZ
	push	eax
	push	OFFSET $SG139378
	call	DWORD PTR __imp_?AddLog@@YAXPBDZZ
	add	esp, 32					; 00000020H
	mov	BYTE PTR __$EHRec$[ebp+8], 45		; 0000002dH
	lea	ecx, DWORD PTR $T144175[ebp]
	call	DWORD PTR __imp_??1?$basic_string@DU?$char_traits@D@std@@V?$allocator@D@2@@std@@QAE@XZ
	mov	BYTE PTR __$EHRec$[ebp+8], 44		; 0000002cH
	lea	ecx, DWORD PTR $T144174[ebp]
	call	DWORD PTR __imp_??1?$basic_string@GU?$char_traits@G@std@@V?$allocator@G@2@@std@@QAE@XZ
	mov	BYTE PTR __$EHRec$[ebp+8], 43		; 0000002bH
	lea	ecx, DWORD PTR $T144173[ebp]
	call	DWORD PTR __imp_??1?$basic_string@DU?$char_traits@D@std@@V?$allocator@D@2@@std@@QAE@XZ
	mov	BYTE PTR __$EHRec$[ebp+8], 42		; 0000002aH
	lea	ecx, DWORD PTR $T144172[ebp]
	call	DWORD PTR __imp_??1?$basic_string@DU?$char_traits@D@std@@V?$allocator@D@2@@std@@QAE@XZ
	mov	BYTE PTR __$EHRec$[ebp+8], 41		; 00000029H
	lea	ecx, DWORD PTR $T144171[ebp]
	call	DWORD PTR __imp_??1?$basic_string@GU?$char_traits@G@std@@V?$allocator@G@2@@std@@QAE@XZ
	mov	BYTE PTR __$EHRec$[ebp+8], 40		; 00000028H
	lea	ecx, DWORD PTR $T144170[ebp]
	call	DWORD PTR __imp_??1?$basic_string@DU?$char_traits@D@std@@V?$allocator@D@2@@std@@QAE@XZ
	mov	BYTE PTR __$EHRec$[ebp+8], 39		; 00000027H
	lea	ecx, DWORD PTR $T144169[ebp]
	call	DWORD PTR __imp_??1?$basic_string@DU?$char_traits@D@std@@V?$allocator@D@2@@std@@QAE@XZ
	mov	BYTE PTR __$EHRec$[ebp+8], 3
	lea	ecx, DWORD PTR $T144168[ebp]
	call	DWORD PTR __imp_??1?$basic_string@GU?$char_traits@G@std@@V?$allocator@G@2@@std@@QAE@XZ
; Line 277
	mov	BYTE PTR $T144176[ebp], 1
	mov	BYTE PTR __$EHRec$[ebp+8], 2
	lea	ecx, DWORD PTR _wscAnon$[ebp]
	call	DWORD PTR __imp_??1?$basic_string@GU?$char_traits@G@std@@V?$allocator@G@2@@std@@QAE@XZ
	mov	BYTE PTR __$EHRec$[ebp+8], 1
	lea	ecx, DWORD PTR _wscCash$[ebp]
	call	DWORD PTR __imp_??1?$basic_string@GU?$char_traits@G@std@@V?$allocator@G@2@@std@@QAE@XZ
	mov	BYTE PTR __$EHRec$[ebp+8], 0
	lea	ecx, DWORD PTR _wscTargetCharname$[ebp]
	call	DWORD PTR __imp_??1?$basic_string@GU?$char_traits@G@std@@V?$allocator@G@2@@std@@QAE@XZ
	mov	DWORD PTR __$EHRec$[ebp+8], -1
	lea	ecx, DWORD PTR _wscCharname$[ebp]
	call	DWORD PTR __imp_??1?$basic_string@GU?$char_traits@G@std@@V?$allocator@G@2@@std@@QAE@XZ
	mov	al, BYTE PTR $T144176[ebp]
	jmp	$LN30@UserCmd_Gi
$LN12@UserCmd_Gi:
; Line 283
	xor	edx, edx
	sub	edx, DWORD PTR _cash$[ebp]
	push	edx
	lea	eax, DWORD PTR _wscCharname$[ebp]
	push	eax
	call	DWORD PTR __imp_?HkAddCash@@YA?AW4HK_ERROR@@ABV?$basic_string@GU?$char_traits@G@std@@V?$allocator@G@2@@std@@H@Z
	add	esp, 8
	mov	DWORD PTR _err$[ebp], eax
	cmp	DWORD PTR _err$[ebp], 0
	je	$LN10@UserCmd_Gi
; Line 285
	mov	ecx, DWORD PTR _err$[ebp]
	push	ecx
	lea	edx, DWORD PTR $T144178[ebp]
	push	edx
	call	DWORD PTR __imp_?HkErrGetText@@YA?AV?$basic_string@GU?$char_traits@G@std@@V?$allocator@G@2@@std@@W4HK_ERROR@@@Z
	add	esp, 8
	mov	DWORD PTR tv1655[ebp], eax
	mov	eax, DWORD PTR tv1655[ebp]
	mov	DWORD PTR tv1458[ebp], eax
	mov	BYTE PTR __$EHRec$[ebp+8], 47		; 0000002fH
	sub	esp, 28					; 0000001cH
	mov	ecx, esp
	mov	DWORD PTR $T144177[ebp], esp
	mov	edx, DWORD PTR tv1458[ebp]
	push	edx
	push	OFFSET $SG139384
	push	ecx
	call	DWORD PTR __imp_??$?HGU?$char_traits@G@std@@V?$allocator@G@1@@std@@YA?AV?$basic_string@GU?$char_traits@G@std@@V?$allocator@G@2@@0@PBGABV10@@Z
	add	esp, 12					; 0000000cH
	mov	DWORD PTR tv1656[ebp], eax
	mov	eax, DWORD PTR tv1656[ebp]
	mov	DWORD PTR tv1460[ebp], eax
	mov	BYTE PTR __$EHRec$[ebp+8], 48		; 00000030H
	mov	ecx, DWORD PTR _iClientID$[ebp]
	push	ecx
	mov	BYTE PTR __$EHRec$[ebp+8], 47		; 0000002fH
	call	DWORD PTR __imp_?PrintUserCmdText@@YAXIV?$basic_string@GU?$char_traits@G@std@@V?$allocator@G@2@@std@@ZZ
	add	esp, 32					; 00000020H
	mov	BYTE PTR __$EHRec$[ebp+8], 3
	lea	ecx, DWORD PTR $T144178[ebp]
	call	DWORD PTR __imp_??1?$basic_string@GU?$char_traits@G@std@@V?$allocator@G@2@@std@@QAE@XZ
; Line 286
	mov	BYTE PTR $T144179[ebp], 1
	mov	BYTE PTR __$EHRec$[ebp+8], 2
	lea	ecx, DWORD PTR _wscAnon$[ebp]
	call	DWORD PTR __imp_??1?$basic_string@GU?$char_traits@G@std@@V?$allocator@G@2@@std@@QAE@XZ
	mov	BYTE PTR __$EHRec$[ebp+8], 1
	lea	ecx, DWORD PTR _wscCash$[ebp]
	call	DWORD PTR __imp_??1?$basic_string@GU?$char_traits@G@std@@V?$allocator@G@2@@std@@QAE@XZ
	mov	BYTE PTR __$EHRec$[ebp+8], 0
	lea	ecx, DWORD PTR _wscTargetCharname$[ebp]
	call	DWORD PTR __imp_??1?$basic_string@GU?$char_traits@G@std@@V?$allocator@G@2@@std@@QAE@XZ
	mov	DWORD PTR __$EHRec$[ebp+8], -1
	lea	ecx, DWORD PTR _wscCharname$[ebp]
	call	DWORD PTR __imp_??1?$basic_string@GU?$char_traits@G@std@@V?$allocator@G@2@@std@@QAE@XZ
	mov	al, BYTE PTR $T144179[ebp]
	jmp	$LN30@UserCmd_Gi
$LN10@UserCmd_Gi:
; Line 289
	mov	edx, DWORD PTR _iClientID$[ebp]
	push	edx
	call	?HkAntiCheat@@YA?AW4HK_ERROR@@I@Z	; HkAntiCheat
	add	esp, 4
	test	eax, eax
	je	$LN9@UserCmd_Gi
; Line 291
	sub	esp, 28					; 0000001cH
	mov	ecx, esp
	mov	DWORD PTR $T144180[ebp], esp
	push	OFFSET $SG139388
	call	DWORD PTR __imp_??0?$basic_string@GU?$char_traits@G@std@@V?$allocator@G@2@@std@@QAE@PBG@Z
	mov	DWORD PTR tv1658[ebp], eax
	mov	eax, DWORD PTR tv1658[ebp]
	mov	DWORD PTR tv1466[ebp], eax
	mov	BYTE PTR __$EHRec$[ebp+8], 49		; 00000031H
	mov	ecx, DWORD PTR _iClientID$[ebp]
	push	ecx
	mov	BYTE PTR __$EHRec$[ebp+8], 3
	call	DWORD PTR __imp_?PrintUserCmdText@@YAXIV?$basic_string@GU?$char_traits@G@std@@V?$allocator@G@2@@std@@ZZ
	add	esp, 32					; 00000020H
; Line 295
	lea	edx, DWORD PTR _wscTargetCharname$[ebp]
	push	edx
	call	DWORD PTR __imp_?HkGetAccountByCharname@@YAPAVCAccount@@ABV?$basic_string@GU?$char_traits@G@std@@V?$allocator@G@2@@std@@@Z
	add	esp, 4
	push	eax
	lea	eax, DWORD PTR $T144181[ebp]
	push	eax
	call	DWORD PTR __imp_?HkGetAccountID@@YA?AV?$basic_string@GU?$char_traits@G@std@@V?$allocator@G@2@@std@@PAVCAccount@@@Z
	add	esp, 8
	mov	DWORD PTR tv1660[ebp], eax
	mov	ecx, DWORD PTR tv1660[ebp]
	mov	DWORD PTR tv1468[ebp], ecx
	mov	BYTE PTR __$EHRec$[ebp+8], 50		; 00000032H
	mov	edx, DWORD PTR tv1468[ebp]
	push	edx
	lea	eax, DWORD PTR $T144182[ebp]
	push	eax
	call	DWORD PTR __imp_?wstos@@YA?AV?$basic_string@DU?$char_traits@D@std@@V?$allocator@D@2@@std@@ABV?$basic_string@GU?$char_traits@G@std@@V?$allocator@G@2@@2@@Z
	add	esp, 8
	mov	DWORD PTR tv1661[ebp], eax
	mov	ecx, DWORD PTR tv1661[ebp]
	mov	DWORD PTR tv1470[ebp], ecx
	mov	BYTE PTR __$EHRec$[ebp+8], 51		; 00000033H
	mov	ecx, DWORD PTR tv1470[ebp]
	call	DWORD PTR __imp_?c_str@?$basic_string@DU?$char_traits@D@std@@V?$allocator@D@2@@std@@QBEPBDXZ
	push	eax
	lea	edx, DWORD PTR _wscTargetCharname$[ebp]
	push	edx
	lea	eax, DWORD PTR $T144183[ebp]
	push	eax
	call	DWORD PTR __imp_?wstos@@YA?AV?$basic_string@DU?$char_traits@D@std@@V?$allocator@D@2@@std@@ABV?$basic_string@GU?$char_traits@G@std@@V?$allocator@G@2@@2@@Z
	add	esp, 8
	mov	DWORD PTR tv1662[ebp], eax
	mov	ecx, DWORD PTR tv1662[ebp]
	mov	DWORD PTR tv1472[ebp], ecx
	mov	BYTE PTR __$EHRec$[ebp+8], 52		; 00000034H
	mov	ecx, DWORD PTR tv1472[ebp]
	call	DWORD PTR __imp_?c_str@?$basic_string@DU?$char_traits@D@std@@V?$allocator@D@2@@std@@QBEPBDXZ
	push	eax
	lea	edx, DWORD PTR _wscCharname$[ebp]
	push	edx
	call	DWORD PTR __imp_?HkGetAccountByCharname@@YAPAVCAccount@@ABV?$basic_string@GU?$char_traits@G@std@@V?$allocator@G@2@@std@@@Z
	add	esp, 4
	push	eax
	lea	eax, DWORD PTR $T144184[ebp]
	push	eax
	call	DWORD PTR __imp_?HkGetAccountID@@YA?AV?$basic_string@GU?$char_traits@G@std@@V?$allocator@G@2@@std@@PAVCAccount@@@Z
	add	esp, 8
	mov	DWORD PTR tv1663[ebp], eax
	mov	ecx, DWORD PTR tv1663[ebp]
	mov	DWORD PTR tv1474[ebp], ecx
	mov	BYTE PTR __$EHRec$[ebp+8], 53		; 00000035H
	mov	edx, DWORD PTR tv1474[ebp]
	push	edx
	lea	eax, DWORD PTR $T144185[ebp]
	push	eax
	call	DWORD PTR __imp_?wstos@@YA?AV?$basic_string@DU?$char_traits@D@std@@V?$allocator@D@2@@std@@ABV?$basic_string@GU?$char_traits@G@std@@V?$allocator@G@2@@2@@Z
	add	esp, 8
	mov	DWORD PTR tv1664[ebp], eax
	mov	ecx, DWORD PTR tv1664[ebp]
	mov	DWORD PTR tv1476[ebp], ecx
	mov	BYTE PTR __$EHRec$[ebp+8], 54		; 00000036H
	mov	ecx, DWORD PTR tv1476[ebp]
	call	DWORD PTR __imp_?c_str@?$basic_string@DU?$char_traits@D@std@@V?$allocator@D@2@@std@@QBEPBDXZ
	push	eax
	lea	edx, DWORD PTR _wscCharname$[ebp]
	push	edx
	lea	eax, DWORD PTR $T144186[ebp]
	push	eax
	call	DWORD PTR __imp_?wstos@@YA?AV?$basic_string@DU?$char_traits@D@std@@V?$allocator@D@2@@std@@ABV?$basic_string@GU?$char_traits@G@std@@V?$allocator@G@2@@2@@Z
	add	esp, 8
	mov	DWORD PTR tv1665[ebp], eax
	mov	ecx, DWORD PTR tv1665[ebp]
	mov	DWORD PTR tv1478[ebp], ecx
	mov	BYTE PTR __$EHRec$[ebp+8], 55		; 00000037H
	mov	ecx, DWORD PTR tv1478[ebp]
	call	DWORD PTR __imp_?c_str@?$basic_string@DU?$char_traits@D@std@@V?$allocator@D@2@@std@@QBEPBDXZ
	push	eax
	mov	edx, DWORD PTR _cash$[ebp]
	push	edx
	lea	eax, DWORD PTR $T144187[ebp]
	push	eax
	call	DWORD PTR __imp_?ToMoneyStr@@YA?AV?$basic_string@GU?$char_traits@G@std@@V?$allocator@G@2@@std@@H@Z
	add	esp, 8
	mov	DWORD PTR tv1666[ebp], eax
	mov	ecx, DWORD PTR tv1666[ebp]
	mov	DWORD PTR tv1480[ebp], ecx
	mov	BYTE PTR __$EHRec$[ebp+8], 56		; 00000038H
	mov	edx, DWORD PTR tv1480[ebp]
	push	edx
	lea	eax, DWORD PTR $T144188[ebp]
	push	eax
	call	DWORD PTR __imp_?wstos@@YA?AV?$basic_string@DU?$char_traits@D@std@@V?$allocator@D@2@@std@@ABV?$basic_string@GU?$char_traits@G@std@@V?$allocator@G@2@@2@@Z
	add	esp, 8
	mov	DWORD PTR tv1667[ebp], eax
	mov	ecx, DWORD PTR tv1667[ebp]
	mov	DWORD PTR tv1482[ebp], ecx
	mov	BYTE PTR __$EHRec$[ebp+8], 57		; 00000039H
	mov	ecx, DWORD PTR tv1482[ebp]
	call	DWORD PTR __imp_?c_str@?$basic_string@DU?$char_traits@D@std@@V?$allocator@D@2@@std@@QBEPBDXZ
	push	eax
	push	OFFSET $SG139397
	call	DWORD PTR __imp_?AddLog@@YAXPBDZZ
	add	esp, 24					; 00000018H
	mov	BYTE PTR __$EHRec$[ebp+8], 56		; 00000038H
	lea	ecx, DWORD PTR $T144188[ebp]
	call	DWORD PTR __imp_??1?$basic_string@DU?$char_traits@D@std@@V?$allocator@D@2@@std@@QAE@XZ
	mov	BYTE PTR __$EHRec$[ebp+8], 55		; 00000037H
	lea	ecx, DWORD PTR $T144187[ebp]
	call	DWORD PTR __imp_??1?$basic_string@GU?$char_traits@G@std@@V?$allocator@G@2@@std@@QAE@XZ
	mov	BYTE PTR __$EHRec$[ebp+8], 54		; 00000036H
	lea	ecx, DWORD PTR $T144186[ebp]
	call	DWORD PTR __imp_??1?$basic_string@DU?$char_traits@D@std@@V?$allocator@D@2@@std@@QAE@XZ
	mov	BYTE PTR __$EHRec$[ebp+8], 53		; 00000035H
	lea	ecx, DWORD PTR $T144185[ebp]
	call	DWORD PTR __imp_??1?$basic_string@DU?$char_traits@D@std@@V?$allocator@D@2@@std@@QAE@XZ
	mov	BYTE PTR __$EHRec$[ebp+8], 52		; 00000034H
	lea	ecx, DWORD PTR $T144184[ebp]
	call	DWORD PTR __imp_??1?$basic_string@GU?$char_traits@G@std@@V?$allocator@G@2@@std@@QAE@XZ
	mov	BYTE PTR __$EHRec$[ebp+8], 51		; 00000033H
	lea	ecx, DWORD PTR $T144183[ebp]
	call	DWORD PTR __imp_??1?$basic_string@DU?$char_traits@D@std@@V?$allocator@D@2@@std@@QAE@XZ
	mov	BYTE PTR __$EHRec$[ebp+8], 50		; 00000032H
	lea	ecx, DWORD PTR $T144182[ebp]
	call	DWORD PTR __imp_??1?$basic_string@DU?$char_traits@D@std@@V?$allocator@D@2@@std@@QAE@XZ
	mov	BYTE PTR __$EHRec$[ebp+8], 3
	lea	ecx, DWORD PTR $T144181[ebp]
	call	DWORD PTR __imp_??1?$basic_string@GU?$char_traits@G@std@@V?$allocator@G@2@@std@@QAE@XZ
; Line 296
	mov	BYTE PTR $T144189[ebp], 1
	mov	BYTE PTR __$EHRec$[ebp+8], 2
	lea	ecx, DWORD PTR _wscAnon$[ebp]
	call	DWORD PTR __imp_??1?$basic_string@GU?$char_traits@G@std@@V?$allocator@G@2@@std@@QAE@XZ
	mov	BYTE PTR __$EHRec$[ebp+8], 1
	lea	ecx, DWORD PTR _wscCash$[ebp]
	call	DWORD PTR __imp_??1?$basic_string@GU?$char_traits@G@std@@V?$allocator@G@2@@std@@QAE@XZ
	mov	BYTE PTR __$EHRec$[ebp+8], 0
	lea	ecx, DWORD PTR _wscTargetCharname$[ebp]
	call	DWORD PTR __imp_??1?$basic_string@GU?$char_traits@G@std@@V?$allocator@G@2@@std@@QAE@XZ
	mov	DWORD PTR __$EHRec$[ebp+8], -1
	lea	ecx, DWORD PTR _wscCharname$[ebp]
	call	DWORD PTR __imp_??1?$basic_string@GU?$char_traits@G@std@@V?$allocator@G@2@@std@@QAE@XZ
	mov	al, BYTE PTR $T144189[ebp]
	jmp	$LN30@UserCmd_Gi
$LN9@UserCmd_Gi:
; Line 298
	mov	edx, DWORD PTR _iClientID$[ebp]
	push	edx
	call	?HkSaveChar@@YAXI@Z			; HkSaveChar
	add	esp, 4
; Line 301
	mov	eax, DWORD PTR _cash$[ebp]
	push	eax
	lea	ecx, DWORD PTR _wscTargetCharname$[ebp]
	push	ecx
	call	DWORD PTR __imp_?HkAddCash@@YA?AW4HK_ERROR@@ABV?$basic_string@GU?$char_traits@G@std@@V?$allocator@G@2@@std@@H@Z
	add	esp, 8
	mov	DWORD PTR _err$[ebp], eax
	cmp	DWORD PTR _err$[ebp], 0
	je	$LN8@UserCmd_Gi
; Line 303
	mov	edx, DWORD PTR _err$[ebp]
	push	edx
	lea	eax, DWORD PTR $T144191[ebp]
	push	eax
	call	DWORD PTR __imp_?HkErrGetText@@YA?AV?$basic_string@GU?$char_traits@G@std@@V?$allocator@G@2@@std@@W4HK_ERROR@@@Z
	add	esp, 8
	mov	DWORD PTR tv1668[ebp], eax
	mov	ecx, DWORD PTR tv1668[ebp]
	mov	DWORD PTR tv1488[ebp], ecx
	mov	BYTE PTR __$EHRec$[ebp+8], 58		; 0000003aH
	sub	esp, 28					; 0000001cH
	mov	edx, esp
	mov	DWORD PTR $T144190[ebp], esp
	mov	eax, DWORD PTR tv1488[ebp]
	push	eax
	push	OFFSET $SG139403
	push	edx
	call	DWORD PTR __imp_??$?HGU?$char_traits@G@std@@V?$allocator@G@1@@std@@YA?AV?$basic_string@GU?$char_traits@G@std@@V?$allocator@G@2@@0@PBGABV10@@Z
	add	esp, 12					; 0000000cH
	mov	DWORD PTR tv1669[ebp], eax
	mov	ecx, DWORD PTR tv1669[ebp]
	mov	DWORD PTR tv1490[ebp], ecx
	mov	BYTE PTR __$EHRec$[ebp+8], 59		; 0000003bH
	mov	edx, DWORD PTR _iClientID$[ebp]
	push	edx
	mov	BYTE PTR __$EHRec$[ebp+8], 58		; 0000003aH
	call	DWORD PTR __imp_?PrintUserCmdText@@YAXIV?$basic_string@GU?$char_traits@G@std@@V?$allocator@G@2@@std@@ZZ
	add	esp, 32					; 00000020H
	mov	BYTE PTR __$EHRec$[ebp+8], 3
	lea	ecx, DWORD PTR $T144191[ebp]
	call	DWORD PTR __imp_??1?$basic_string@GU?$char_traits@G@std@@V?$allocator@G@2@@std@@QAE@XZ
; Line 304
	mov	BYTE PTR $T144192[ebp], 1
	mov	BYTE PTR __$EHRec$[ebp+8], 2
	lea	ecx, DWORD PTR _wscAnon$[ebp]
	call	DWORD PTR __imp_??1?$basic_string@GU?$char_traits@G@std@@V?$allocator@G@2@@std@@QAE@XZ
	mov	BYTE PTR __$EHRec$[ebp+8], 1
	lea	ecx, DWORD PTR _wscCash$[ebp]
	call	DWORD PTR __imp_??1?$basic_string@GU?$char_traits@G@std@@V?$allocator@G@2@@std@@QAE@XZ
	mov	BYTE PTR __$EHRec$[ebp+8], 0
	lea	ecx, DWORD PTR _wscTargetCharname$[ebp]
	call	DWORD PTR __imp_??1?$basic_string@GU?$char_traits@G@std@@V?$allocator@G@2@@std@@QAE@XZ
	mov	DWORD PTR __$EHRec$[ebp+8], -1
	lea	ecx, DWORD PTR _wscCharname$[ebp]
	call	DWORD PTR __imp_??1?$basic_string@GU?$char_traits@G@std@@V?$allocator@G@2@@std@@QAE@XZ
	mov	al, BYTE PTR $T144192[ebp]
	jmp	$LN30@UserCmd_Gi
$LN8@UserCmd_Gi:
; Line 307
	lea	eax, DWORD PTR _wscTargetCharname$[ebp]
	push	eax
	call	DWORD PTR __imp_?HkGetClientIdFromCharname@@YAIABV?$basic_string@GU?$char_traits@G@std@@V?$allocator@G@2@@std@@@Z
	add	esp, 4
	mov	DWORD PTR _targetClientId$[ebp], eax
; Line 308
	cmp	DWORD PTR _targetClientId$[ebp], -1
	je	$LN7@UserCmd_Gi
	mov	ecx, DWORD PTR _targetClientId$[ebp]
	push	ecx
	call	DWORD PTR __imp_?HkIsInCharSelectMenu@@YA_NI@Z
	add	esp, 4
	movzx	edx, al
	test	edx, edx
	jne	$LN7@UserCmd_Gi
; Line 310
	mov	eax, DWORD PTR _targetClientId$[ebp]
	push	eax
	call	?HkAntiCheat@@YA?AW4HK_ERROR@@I@Z	; HkAntiCheat
	add	esp, 4
	test	eax, eax
	je	$LN6@UserCmd_Gi
; Line 312
	sub	esp, 28					; 0000001cH
	mov	ecx, esp
	mov	DWORD PTR $T144193[ebp], esp
	push	OFFSET $SG139408
	call	DWORD PTR __imp_??0?$basic_string@GU?$char_traits@G@std@@V?$allocator@G@2@@std@@QAE@PBG@Z
	mov	DWORD PTR tv1671[ebp], eax
	mov	ecx, DWORD PTR tv1671[ebp]
	mov	DWORD PTR tv1496[ebp], ecx
	mov	BYTE PTR __$EHRec$[ebp+8], 60		; 0000003cH
	mov	edx, DWORD PTR _iClientID$[ebp]
	push	edx
	mov	BYTE PTR __$EHRec$[ebp+8], 3
	call	DWORD PTR __imp_?PrintUserCmdText@@YAXIV?$basic_string@GU?$char_traits@G@std@@V?$allocator@G@2@@std@@ZZ
	add	esp, 32					; 00000020H
; Line 316
	lea	eax, DWORD PTR _wscTargetCharname$[ebp]
	push	eax
	call	DWORD PTR __imp_?HkGetAccountByCharname@@YAPAVCAccount@@ABV?$basic_string@GU?$char_traits@G@std@@V?$allocator@G@2@@std@@@Z
	add	esp, 4
	push	eax
	lea	ecx, DWORD PTR $T144194[ebp]
	push	ecx
	call	DWORD PTR __imp_?HkGetAccountID@@YA?AV?$basic_string@GU?$char_traits@G@std@@V?$allocator@G@2@@std@@PAVCAccount@@@Z
	add	esp, 8
	mov	DWORD PTR tv1673[ebp], eax
	mov	edx, DWORD PTR tv1673[ebp]
	mov	DWORD PTR tv1498[ebp], edx
	mov	BYTE PTR __$EHRec$[ebp+8], 61		; 0000003dH
	mov	eax, DWORD PTR tv1498[ebp]
	push	eax
	lea	ecx, DWORD PTR $T144195[ebp]
	push	ecx
	call	DWORD PTR __imp_?wstos@@YA?AV?$basic_string@DU?$char_traits@D@std@@V?$allocator@D@2@@std@@ABV?$basic_string@GU?$char_traits@G@std@@V?$allocator@G@2@@2@@Z
	add	esp, 8
	mov	DWORD PTR tv1674[ebp], eax
	mov	edx, DWORD PTR tv1674[ebp]
	mov	DWORD PTR tv1500[ebp], edx
	mov	BYTE PTR __$EHRec$[ebp+8], 62		; 0000003eH
	mov	ecx, DWORD PTR tv1500[ebp]
	call	DWORD PTR __imp_?c_str@?$basic_string@DU?$char_traits@D@std@@V?$allocator@D@2@@std@@QBEPBDXZ
	push	eax
	lea	eax, DWORD PTR _wscTargetCharname$[ebp]
	push	eax
	lea	ecx, DWORD PTR $T144196[ebp]
	push	ecx
	call	DWORD PTR __imp_?wstos@@YA?AV?$basic_string@DU?$char_traits@D@std@@V?$allocator@D@2@@std@@ABV?$basic_string@GU?$char_traits@G@std@@V?$allocator@G@2@@2@@Z
	add	esp, 8
	mov	DWORD PTR tv1675[ebp], eax
	mov	edx, DWORD PTR tv1675[ebp]
	mov	DWORD PTR tv1502[ebp], edx
	mov	BYTE PTR __$EHRec$[ebp+8], 63		; 0000003fH
	mov	ecx, DWORD PTR tv1502[ebp]
	call	DWORD PTR __imp_?c_str@?$basic_string@DU?$char_traits@D@std@@V?$allocator@D@2@@std@@QBEPBDXZ
	push	eax
	lea	eax, DWORD PTR _wscCharname$[ebp]
	push	eax
	call	DWORD PTR __imp_?HkGetAccountByCharname@@YAPAVCAccount@@ABV?$basic_string@GU?$char_traits@G@std@@V?$allocator@G@2@@std@@@Z
	add	esp, 4
	push	eax
	lea	ecx, DWORD PTR $T144197[ebp]
	push	ecx
	call	DWORD PTR __imp_?HkGetAccountID@@YA?AV?$basic_string@GU?$char_traits@G@std@@V?$allocator@G@2@@std@@PAVCAccount@@@Z
	add	esp, 8
	mov	DWORD PTR tv1676[ebp], eax
	mov	edx, DWORD PTR tv1676[ebp]
	mov	DWORD PTR tv1504[ebp], edx
	mov	BYTE PTR __$EHRec$[ebp+8], 64		; 00000040H
	mov	eax, DWORD PTR tv1504[ebp]
	push	eax
	lea	ecx, DWORD PTR $T144198[ebp]
	push	ecx
	call	DWORD PTR __imp_?wstos@@YA?AV?$basic_string@DU?$char_traits@D@std@@V?$allocator@D@2@@std@@ABV?$basic_string@GU?$char_traits@G@std@@V?$allocator@G@2@@2@@Z
	add	esp, 8
	mov	DWORD PTR tv1677[ebp], eax
	mov	edx, DWORD PTR tv1677[ebp]
	mov	DWORD PTR tv1506[ebp], edx
	mov	BYTE PTR __$EHRec$[ebp+8], 65		; 00000041H
	mov	ecx, DWORD PTR tv1506[ebp]
	call	DWORD PTR __imp_?c_str@?$basic_string@DU?$char_traits@D@std@@V?$allocator@D@2@@std@@QBEPBDXZ
	push	eax
	lea	eax, DWORD PTR _wscCharname$[ebp]
	push	eax
	lea	ecx, DWORD PTR $T144199[ebp]
	push	ecx
	call	DWORD PTR __imp_?wstos@@YA?AV?$basic_string@DU?$char_traits@D@std@@V?$allocator@D@2@@std@@ABV?$basic_string@GU?$char_traits@G@std@@V?$allocator@G@2@@2@@Z
	add	esp, 8
	mov	DWORD PTR tv1678[ebp], eax
	mov	edx, DWORD PTR tv1678[ebp]
	mov	DWORD PTR tv1508[ebp], edx
	mov	BYTE PTR __$EHRec$[ebp+8], 66		; 00000042H
	mov	ecx, DWORD PTR tv1508[ebp]
	call	DWORD PTR __imp_?c_str@?$basic_string@DU?$char_traits@D@std@@V?$allocator@D@2@@std@@QBEPBDXZ
	push	eax
	mov	eax, DWORD PTR _cash$[ebp]
	push	eax
	lea	ecx, DWORD PTR $T144200[ebp]
	push	ecx
	call	DWORD PTR __imp_?ToMoneyStr@@YA?AV?$basic_string@GU?$char_traits@G@std@@V?$allocator@G@2@@std@@H@Z
	add	esp, 8
	mov	DWORD PTR tv1679[ebp], eax
	mov	edx, DWORD PTR tv1679[ebp]
	mov	DWORD PTR tv1510[ebp], edx
	mov	BYTE PTR __$EHRec$[ebp+8], 67		; 00000043H
	mov	eax, DWORD PTR tv1510[ebp]
	push	eax
	lea	ecx, DWORD PTR $T144201[ebp]
	push	ecx
	call	DWORD PTR __imp_?wstos@@YA?AV?$basic_string@DU?$char_traits@D@std@@V?$allocator@D@2@@std@@ABV?$basic_string@GU?$char_traits@G@std@@V?$allocator@G@2@@2@@Z
	add	esp, 8
	mov	DWORD PTR tv1680[ebp], eax
	mov	edx, DWORD PTR tv1680[ebp]
	mov	DWORD PTR tv1512[ebp], edx
	mov	BYTE PTR __$EHRec$[ebp+8], 68		; 00000044H
	mov	ecx, DWORD PTR tv1512[ebp]
	call	DWORD PTR __imp_?c_str@?$basic_string@DU?$char_traits@D@std@@V?$allocator@D@2@@std@@QBEPBDXZ
	push	eax
	push	OFFSET $SG139417
	call	DWORD PTR __imp_?AddLog@@YAXPBDZZ
	add	esp, 24					; 00000018H
	mov	BYTE PTR __$EHRec$[ebp+8], 67		; 00000043H
	lea	ecx, DWORD PTR $T144201[ebp]
	call	DWORD PTR __imp_??1?$basic_string@DU?$char_traits@D@std@@V?$allocator@D@2@@std@@QAE@XZ
	mov	BYTE PTR __$EHRec$[ebp+8], 66		; 00000042H
	lea	ecx, DWORD PTR $T144200[ebp]
	call	DWORD PTR __imp_??1?$basic_string@GU?$char_traits@G@std@@V?$allocator@G@2@@std@@QAE@XZ
	mov	BYTE PTR __$EHRec$[ebp+8], 65		; 00000041H
	lea	ecx, DWORD PTR $T144199[ebp]
	call	DWORD PTR __imp_??1?$basic_string@DU?$char_traits@D@std@@V?$allocator@D@2@@std@@QAE@XZ
	mov	BYTE PTR __$EHRec$[ebp+8], 64		; 00000040H
	lea	ecx, DWORD PTR $T144198[ebp]
	call	DWORD PTR __imp_??1?$basic_string@DU?$char_traits@D@std@@V?$allocator@D@2@@std@@QAE@XZ
	mov	BYTE PTR __$EHRec$[ebp+8], 63		; 0000003fH
	lea	ecx, DWORD PTR $T144197[ebp]
	call	DWORD PTR __imp_??1?$basic_string@GU?$char_traits@G@std@@V?$allocator@G@2@@std@@QAE@XZ
	mov	BYTE PTR __$EHRec$[ebp+8], 62		; 0000003eH
	lea	ecx, DWORD PTR $T144196[ebp]
	call	DWORD PTR __imp_??1?$basic_string@DU?$char_traits@D@std@@V?$allocator@D@2@@std@@QAE@XZ
	mov	BYTE PTR __$EHRec$[ebp+8], 61		; 0000003dH
	lea	ecx, DWORD PTR $T144195[ebp]
	call	DWORD PTR __imp_??1?$basic_string@DU?$char_traits@D@std@@V?$allocator@D@2@@std@@QAE@XZ
	mov	BYTE PTR __$EHRec$[ebp+8], 3
	lea	ecx, DWORD PTR $T144194[ebp]
	call	DWORD PTR __imp_??1?$basic_string@GU?$char_traits@G@std@@V?$allocator@G@2@@std@@QAE@XZ
; Line 317
	mov	BYTE PTR $T144202[ebp], 1
	mov	BYTE PTR __$EHRec$[ebp+8], 2
	lea	ecx, DWORD PTR _wscAnon$[ebp]
	call	DWORD PTR __imp_??1?$basic_string@GU?$char_traits@G@std@@V?$allocator@G@2@@std@@QAE@XZ
	mov	BYTE PTR __$EHRec$[ebp+8], 1
	lea	ecx, DWORD PTR _wscCash$[ebp]
	call	DWORD PTR __imp_??1?$basic_string@GU?$char_traits@G@std@@V?$allocator@G@2@@std@@QAE@XZ
	mov	BYTE PTR __$EHRec$[ebp+8], 0
	lea	ecx, DWORD PTR _wscTargetCharname$[ebp]
	call	DWORD PTR __imp_??1?$basic_string@GU?$char_traits@G@std@@V?$allocator@G@2@@std@@QAE@XZ
	mov	DWORD PTR __$EHRec$[ebp+8], -1
	lea	ecx, DWORD PTR _wscCharname$[ebp]
	call	DWORD PTR __imp_??1?$basic_string@GU?$char_traits@G@std@@V?$allocator@G@2@@std@@QAE@XZ
	mov	al, BYTE PTR $T144202[ebp]
	jmp	$LN30@UserCmd_Gi
$LN6@UserCmd_Gi:
; Line 319
	mov	eax, DWORD PTR _targetClientId$[ebp]
	push	eax
	call	?HkSaveChar@@YAXI@Z			; HkSaveChar
	add	esp, 4
$LN7@UserCmd_Gi:
; Line 326
	lea	ecx, DWORD PTR _iCurrCash$[ebp]
	push	ecx
	lea	edx, DWORD PTR _wscTargetCharname$[ebp]
	push	edx
	call	DWORD PTR __imp_?HkGetCash@@YA?AW4HK_ERROR@@ABV?$basic_string@GU?$char_traits@G@std@@V?$allocator@G@2@@std@@AAH@Z
	add	esp, 8
	mov	DWORD PTR _err$[ebp], eax
	cmp	DWORD PTR _err$[ebp], 0
	jne	SHORT $LN4@UserCmd_Gi
	mov	eax, DWORD PTR _iCurrCash$[ebp]
	cmp	eax, DWORD PTR _iExpectedCash$[ebp]
	je	$LN5@UserCmd_Gi
$LN4@UserCmd_Gi:
; Line 332
	mov	ecx, DWORD PTR _iExpectedCash$[ebp]
	push	ecx
	lea	edx, DWORD PTR $T144203[ebp]
	push	edx
	call	DWORD PTR __imp_?ToMoneyStr@@YA?AV?$basic_string@GU?$char_traits@G@std@@V?$allocator@G@2@@std@@H@Z
	add	esp, 8
	mov	DWORD PTR tv1681[ebp], eax
	mov	eax, DWORD PTR tv1681[ebp]
	mov	DWORD PTR tv1518[ebp], eax
	mov	BYTE PTR __$EHRec$[ebp+8], 69		; 00000045H
	mov	ecx, DWORD PTR tv1518[ebp]
	push	ecx
	lea	edx, DWORD PTR $T144204[ebp]
	push	edx
	call	DWORD PTR __imp_?wstos@@YA?AV?$basic_string@DU?$char_traits@D@std@@V?$allocator@D@2@@std@@ABV?$basic_string@GU?$char_traits@G@std@@V?$allocator@G@2@@2@@Z
	add	esp, 8
	mov	DWORD PTR tv1682[ebp], eax
	mov	eax, DWORD PTR tv1682[ebp]
	mov	DWORD PTR tv1520[ebp], eax
	mov	BYTE PTR __$EHRec$[ebp+8], 70		; 00000046H
	mov	ecx, DWORD PTR tv1520[ebp]
	call	DWORD PTR __imp_?c_str@?$basic_string@DU?$char_traits@D@std@@V?$allocator@D@2@@std@@QBEPBDXZ
	push	eax
	mov	ecx, DWORD PTR _iCurrCash$[ebp]
	push	ecx
	lea	edx, DWORD PTR $T144205[ebp]
	push	edx
	call	DWORD PTR __imp_?ToMoneyStr@@YA?AV?$basic_string@GU?$char_traits@G@std@@V?$allocator@G@2@@std@@H@Z
	add	esp, 8
	mov	DWORD PTR tv1683[ebp], eax
	mov	eax, DWORD PTR tv1683[ebp]
	mov	DWORD PTR tv1522[ebp], eax
	mov	BYTE PTR __$EHRec$[ebp+8], 71		; 00000047H
	mov	ecx, DWORD PTR tv1522[ebp]
	push	ecx
	lea	edx, DWORD PTR $T144206[ebp]
	push	edx
	call	DWORD PTR __imp_?wstos@@YA?AV?$basic_string@DU?$char_traits@D@std@@V?$allocator@D@2@@std@@ABV?$basic_string@GU?$char_traits@G@std@@V?$allocator@G@2@@2@@Z
	add	esp, 8
	mov	DWORD PTR tv1684[ebp], eax
	mov	eax, DWORD PTR tv1684[ebp]
	mov	DWORD PTR tv1524[ebp], eax
	mov	BYTE PTR __$EHRec$[ebp+8], 72		; 00000048H
	mov	ecx, DWORD PTR tv1524[ebp]
	call	DWORD PTR __imp_?c_str@?$basic_string@DU?$char_traits@D@std@@V?$allocator@D@2@@std@@QBEPBDXZ
	push	eax
	lea	ecx, DWORD PTR _wscTargetCharname$[ebp]
	push	ecx
	call	DWORD PTR __imp_?HkGetAccountByCharname@@YAPAVCAccount@@ABV?$basic_string@GU?$char_traits@G@std@@V?$allocator@G@2@@std@@@Z
	add	esp, 4
	push	eax
	lea	edx, DWORD PTR $T144207[ebp]
	push	edx
	call	DWORD PTR __imp_?HkGetAccountID@@YA?AV?$basic_string@GU?$char_traits@G@std@@V?$allocator@G@2@@std@@PAVCAccount@@@Z
	add	esp, 8
	mov	DWORD PTR tv1685[ebp], eax
	mov	eax, DWORD PTR tv1685[ebp]
	mov	DWORD PTR tv1526[ebp], eax
	mov	BYTE PTR __$EHRec$[ebp+8], 73		; 00000049H
	mov	ecx, DWORD PTR tv1526[ebp]
	push	ecx
	lea	edx, DWORD PTR $T144208[ebp]
	push	edx
	call	DWORD PTR __imp_?wstos@@YA?AV?$basic_string@DU?$char_traits@D@std@@V?$allocator@D@2@@std@@ABV?$basic_string@GU?$char_traits@G@std@@V?$allocator@G@2@@2@@Z
	add	esp, 8
	mov	DWORD PTR tv1686[ebp], eax
	mov	eax, DWORD PTR tv1686[ebp]
	mov	DWORD PTR tv1528[ebp], eax
	mov	BYTE PTR __$EHRec$[ebp+8], 74		; 0000004aH
	mov	ecx, DWORD PTR tv1528[ebp]
	call	DWORD PTR __imp_?c_str@?$basic_string@DU?$char_traits@D@std@@V?$allocator@D@2@@std@@QBEPBDXZ
	push	eax
	lea	ecx, DWORD PTR _wscTargetCharname$[ebp]
	push	ecx
	lea	edx, DWORD PTR $T144209[ebp]
	push	edx
	call	DWORD PTR __imp_?wstos@@YA?AV?$basic_string@DU?$char_traits@D@std@@V?$allocator@D@2@@std@@ABV?$basic_string@GU?$char_traits@G@std@@V?$allocator@G@2@@2@@Z
	add	esp, 8
	mov	DWORD PTR tv1687[ebp], eax
	mov	eax, DWORD PTR tv1687[ebp]
	mov	DWORD PTR tv1530[ebp], eax
	mov	BYTE PTR __$EHRec$[ebp+8], 75		; 0000004bH
	mov	ecx, DWORD PTR tv1530[ebp]
	call	DWORD PTR __imp_?c_str@?$basic_string@DU?$char_traits@D@std@@V?$allocator@D@2@@std@@QBEPBDXZ
	push	eax
	lea	ecx, DWORD PTR _wscCharname$[ebp]
	push	ecx
	call	DWORD PTR __imp_?HkGetAccountByCharname@@YAPAVCAccount@@ABV?$basic_string@GU?$char_traits@G@std@@V?$allocator@G@2@@std@@@Z
	add	esp, 4
	push	eax
	lea	edx, DWORD PTR $T144210[ebp]
	push	edx
	call	DWORD PTR __imp_?HkGetAccountID@@YA?AV?$basic_string@GU?$char_traits@G@std@@V?$allocator@G@2@@std@@PAVCAccount@@@Z
	add	esp, 8
	mov	DWORD PTR tv1688[ebp], eax
	mov	eax, DWORD PTR tv1688[ebp]
	mov	DWORD PTR tv1532[ebp], eax
	mov	BYTE PTR __$EHRec$[ebp+8], 76		; 0000004cH
	mov	ecx, DWORD PTR tv1532[ebp]
	push	ecx
	lea	edx, DWORD PTR $T144211[ebp]
	push	edx
	call	DWORD PTR __imp_?wstos@@YA?AV?$basic_string@DU?$char_traits@D@std@@V?$allocator@D@2@@std@@ABV?$basic_string@GU?$char_traits@G@std@@V?$allocator@G@2@@2@@Z
	add	esp, 8
	mov	DWORD PTR tv1689[ebp], eax
	mov	eax, DWORD PTR tv1689[ebp]
	mov	DWORD PTR tv1534[ebp], eax
	mov	BYTE PTR __$EHRec$[ebp+8], 77		; 0000004dH
	mov	ecx, DWORD PTR tv1534[ebp]
	call	DWORD PTR __imp_?c_str@?$basic_string@DU?$char_traits@D@std@@V?$allocator@D@2@@std@@QBEPBDXZ
	push	eax
	lea	ecx, DWORD PTR _wscCharname$[ebp]
	push	ecx
	lea	edx, DWORD PTR $T144212[ebp]
	push	edx
	call	DWORD PTR __imp_?wstos@@YA?AV?$basic_string@DU?$char_traits@D@std@@V?$allocator@D@2@@std@@ABV?$basic_string@GU?$char_traits@G@std@@V?$allocator@G@2@@2@@Z
	add	esp, 8
	mov	DWORD PTR tv1690[ebp], eax
	mov	eax, DWORD PTR tv1690[ebp]
	mov	DWORD PTR tv1536[ebp], eax
	mov	BYTE PTR __$EHRec$[ebp+8], 78		; 0000004eH
	mov	ecx, DWORD PTR tv1536[ebp]
	call	DWORD PTR __imp_?c_str@?$basic_string@DU?$char_traits@D@std@@V?$allocator@D@2@@std@@QBEPBDXZ
	push	eax
	mov	ecx, DWORD PTR _cash$[ebp]
	push	ecx
	lea	edx, DWORD PTR $T144213[ebp]
	push	edx
	call	DWORD PTR __imp_?ToMoneyStr@@YA?AV?$basic_string@GU?$char_traits@G@std@@V?$allocator@G@2@@std@@H@Z
	add	esp, 8
	mov	DWORD PTR tv1691[ebp], eax
	mov	eax, DWORD PTR tv1691[ebp]
	mov	DWORD PTR tv1538[ebp], eax
	mov	BYTE PTR __$EHRec$[ebp+8], 79		; 0000004fH
	mov	ecx, DWORD PTR tv1538[ebp]
	push	ecx
	lea	edx, DWORD PTR $T144214[ebp]
	push	edx
	call	DWORD PTR __imp_?wstos@@YA?AV?$basic_string@DU?$char_traits@D@std@@V?$allocator@D@2@@std@@ABV?$basic_string@GU?$char_traits@G@std@@V?$allocator@G@2@@2@@Z
	add	esp, 8
	mov	DWORD PTR tv1692[ebp], eax
	mov	eax, DWORD PTR tv1692[ebp]
	mov	DWORD PTR tv1540[ebp], eax
	mov	BYTE PTR __$EHRec$[ebp+8], 80		; 00000050H
	mov	ecx, DWORD PTR tv1540[ebp]
	call	DWORD PTR __imp_?c_str@?$basic_string@DU?$char_traits@D@std@@V?$allocator@D@2@@std@@QBEPBDXZ
	push	eax
	push	OFFSET $SG139434
	call	DWORD PTR __imp_?AddLog@@YAXPBDZZ
	add	esp, 32					; 00000020H
	mov	BYTE PTR __$EHRec$[ebp+8], 79		; 0000004fH
	lea	ecx, DWORD PTR $T144214[ebp]
	call	DWORD PTR __imp_??1?$basic_string@DU?$char_traits@D@std@@V?$allocator@D@2@@std@@QAE@XZ
	mov	BYTE PTR __$EHRec$[ebp+8], 78		; 0000004eH
	lea	ecx, DWORD PTR $T144213[ebp]
	call	DWORD PTR __imp_??1?$basic_string@GU?$char_traits@G@std@@V?$allocator@G@2@@std@@QAE@XZ
	mov	BYTE PTR __$EHRec$[ebp+8], 77		; 0000004dH
	lea	ecx, DWORD PTR $T144212[ebp]
	call	DWORD PTR __imp_??1?$basic_string@DU?$char_traits@D@std@@V?$allocator@D@2@@std@@QAE@XZ
	mov	BYTE PTR __$EHRec$[ebp+8], 76		; 0000004cH
	lea	ecx, DWORD PTR $T144211[ebp]
	call	DWORD PTR __imp_??1?$basic_string@DU?$char_traits@D@std@@V?$allocator@D@2@@std@@QAE@XZ
	mov	BYTE PTR __$EHRec$[ebp+8], 75		; 0000004bH
	lea	ecx, DWORD PTR $T144210[ebp]
	call	DWORD PTR __imp_??1?$basic_string@GU?$char_traits@G@std@@V?$allocator@G@2@@std@@QAE@XZ
	mov	BYTE PTR __$EHRec$[ebp+8], 74		; 0000004aH
	lea	ecx, DWORD PTR $T144209[ebp]
	call	DWORD PTR __imp_??1?$basic_string@DU?$char_traits@D@std@@V?$allocator@D@2@@std@@QAE@XZ
	mov	BYTE PTR __$EHRec$[ebp+8], 73		; 00000049H
	lea	ecx, DWORD PTR $T144208[ebp]
	call	DWORD PTR __imp_??1?$basic_string@DU?$char_traits@D@std@@V?$allocator@D@2@@std@@QAE@XZ
	mov	BYTE PTR __$EHRec$[ebp+8], 72		; 00000048H
	lea	ecx, DWORD PTR $T144207[ebp]
	call	DWORD PTR __imp_??1?$basic_string@GU?$char_traits@G@std@@V?$allocator@G@2@@std@@QAE@XZ
	mov	BYTE PTR __$EHRec$[ebp+8], 71		; 00000047H
	lea	ecx, DWORD PTR $T144206[ebp]
	call	DWORD PTR __imp_??1?$basic_string@DU?$char_traits@D@std@@V?$allocator@D@2@@std@@QAE@XZ
	mov	BYTE PTR __$EHRec$[ebp+8], 70		; 00000046H
	lea	ecx, DWORD PTR $T144205[ebp]
	call	DWORD PTR __imp_??1?$basic_string@GU?$char_traits@G@std@@V?$allocator@G@2@@std@@QAE@XZ
	mov	BYTE PTR __$EHRec$[ebp+8], 69		; 00000045H
	lea	ecx, DWORD PTR $T144204[ebp]
	call	DWORD PTR __imp_??1?$basic_string@DU?$char_traits@D@std@@V?$allocator@D@2@@std@@QAE@XZ
	mov	BYTE PTR __$EHRec$[ebp+8], 3
	lea	ecx, DWORD PTR $T144203[ebp]
	call	DWORD PTR __imp_??1?$basic_string@GU?$char_traits@G@std@@V?$allocator@G@2@@std@@QAE@XZ
; Line 333
	sub	esp, 28					; 0000001cH
	mov	ecx, esp
	mov	DWORD PTR $T144215[ebp], esp
	push	OFFSET $SG139436
	call	DWORD PTR __imp_??0?$basic_string@GU?$char_traits@G@std@@V?$allocator@G@2@@std@@QAE@PBG@Z
	mov	DWORD PTR tv1693[ebp], eax
	mov	ecx, DWORD PTR tv1693[ebp]
	mov	DWORD PTR tv1542[ebp], ecx
	mov	BYTE PTR __$EHRec$[ebp+8], 81		; 00000051H
	mov	edx, DWORD PTR _iClientID$[ebp]
	push	edx
	mov	BYTE PTR __$EHRec$[ebp+8], 3
	call	DWORD PTR __imp_?PrintUserCmdText@@YAXIV?$basic_string@GU?$char_traits@G@std@@V?$allocator@G@2@@std@@ZZ
	add	esp, 32					; 00000020H
; Line 334
	mov	BYTE PTR $T144216[ebp], 1
	mov	BYTE PTR __$EHRec$[ebp+8], 2
	lea	ecx, DWORD PTR _wscAnon$[ebp]
	call	DWORD PTR __imp_??1?$basic_string@GU?$char_traits@G@std@@V?$allocator@G@2@@std@@QAE@XZ
	mov	BYTE PTR __$EHRec$[ebp+8], 1
	lea	ecx, DWORD PTR _wscCash$[ebp]
	call	DWORD PTR __imp_??1?$basic_string@GU?$char_traits@G@std@@V?$allocator@G@2@@std@@QAE@XZ
	mov	BYTE PTR __$EHRec$[ebp+8], 0
	lea	ecx, DWORD PTR _wscTargetCharname$[ebp]
	call	DWORD PTR __imp_??1?$basic_string@GU?$char_traits@G@std@@V?$allocator@G@2@@std@@QAE@XZ
	mov	DWORD PTR __$EHRec$[ebp+8], -1
	lea	ecx, DWORD PTR _wscCharname$[ebp]
	call	DWORD PTR __imp_??1?$basic_string@GU?$char_traits@G@std@@V?$allocator@G@2@@std@@QAE@XZ
	mov	al, BYTE PTR $T144216[ebp]
	jmp	$LN30@UserCmd_Gi
$LN5@UserCmd_Gi:
; Line 339
	movzx	eax, BYTE PTR _bAnon$[ebp]
	test	eax, eax
	je	SHORT $LN32@UserCmd_Gi
	push	OFFSET $SG139445
	lea	ecx, DWORD PTR $T144218[ebp]
	call	DWORD PTR __imp_??0?$basic_string@GU?$char_traits@G@std@@V?$allocator@G@2@@std@@QAE@PBG@Z
	mov	DWORD PTR tv1695[ebp], eax
	mov	ecx, DWORD PTR tv1695[ebp]
	mov	DWORD PTR tv1551[ebp], ecx
	mov	BYTE PTR __$EHRec$[ebp+8], 82		; 00000052H
	mov	edx, DWORD PTR $T144330[ebp]
	or	edx, 1
	mov	DWORD PTR $T144330[ebp], edx
	mov	eax, DWORD PTR tv1551[ebp]
	mov	DWORD PTR tv1084[ebp], eax
	jmp	SHORT $LN33@UserCmd_Gi
$LN32@UserCmd_Gi:
	lea	ecx, DWORD PTR _wscCharname$[ebp]
	mov	DWORD PTR tv1084[ebp], ecx
$LN33@UserCmd_Gi:
	mov	edx, DWORD PTR tv1084[ebp]
	mov	DWORD PTR $T144217[ebp], edx
	mov	eax, DWORD PTR $T144217[ebp]
	push	eax
	push	OFFSET $SG139446
	mov	ecx, DWORD PTR _cash$[ebp]
	push	ecx
	lea	edx, DWORD PTR $T144221[ebp]
	push	edx
	call	DWORD PTR __imp_?ToMoneyStr@@YA?AV?$basic_string@GU?$char_traits@G@std@@V?$allocator@G@2@@std@@H@Z
	add	esp, 8
	mov	DWORD PTR tv1697[ebp], eax
	mov	eax, DWORD PTR tv1697[ebp]
	mov	DWORD PTR tv1553[ebp], eax
	mov	DWORD PTR __$EHRec$[ebp+8], 83		; 00000053H
	mov	ecx, DWORD PTR tv1553[ebp]
	push	ecx
	push	OFFSET $SG139447
	lea	edx, DWORD PTR $T144222[ebp]
	push	edx
	call	DWORD PTR __imp_??$?HGU?$char_traits@G@std@@V?$allocator@G@1@@std@@YA?AV?$basic_string@GU?$char_traits@G@std@@V?$allocator@G@2@@0@PBGABV10@@Z
	add	esp, 12					; 0000000cH
	mov	DWORD PTR tv1698[ebp], eax
	mov	eax, DWORD PTR tv1698[ebp]
	mov	DWORD PTR tv1555[ebp], eax
	mov	BYTE PTR __$EHRec$[ebp+8], 84		; 00000054H
	mov	ecx, DWORD PTR tv1555[ebp]
	push	ecx
	lea	edx, DWORD PTR $T144223[ebp]
	push	edx
	call	DWORD PTR __imp_??$?HGU?$char_traits@G@std@@V?$allocator@G@1@@std@@YA?AV?$basic_string@GU?$char_traits@G@std@@V?$allocator@G@2@@0@ABV10@PBG@Z
	add	esp, 12					; 0000000cH
	mov	DWORD PTR tv1699[ebp], eax
	mov	eax, DWORD PTR tv1699[ebp]
	mov	DWORD PTR tv1557[ebp], eax
	mov	BYTE PTR __$EHRec$[ebp+8], 85		; 00000055H
	mov	ecx, DWORD PTR tv1557[ebp]
	push	ecx
	lea	edx, DWORD PTR _msg$[ebp]
	push	edx
	call	DWORD PTR __imp_??$?HGU?$char_traits@G@std@@V?$allocator@G@1@@std@@YA?AV?$basic_string@GU?$char_traits@G@std@@V?$allocator@G@2@@0@ABV10@0@Z
	add	esp, 12					; 0000000cH
	mov	BYTE PTR __$EHRec$[ebp+8], 87		; 00000057H
	lea	ecx, DWORD PTR $T144223[ebp]
	call	DWORD PTR __imp_??1?$basic_string@GU?$char_traits@G@std@@V?$allocator@G@2@@std@@QAE@XZ
	mov	BYTE PTR __$EHRec$[ebp+8], 88		; 00000058H
	lea	ecx, DWORD PTR $T144222[ebp]
	call	DWORD PTR __imp_??1?$basic_string@GU?$char_traits@G@std@@V?$allocator@G@2@@std@@QAE@XZ
	mov	BYTE PTR __$EHRec$[ebp+8], 89		; 00000059H
	lea	ecx, DWORD PTR $T144221[ebp]
	call	DWORD PTR __imp_??1?$basic_string@GU?$char_traits@G@std@@V?$allocator@G@2@@std@@QAE@XZ
	mov	BYTE PTR __$EHRec$[ebp+8], 90		; 0000005aH
	mov	eax, DWORD PTR $T144330[ebp]
	and	eax, 1
	je	SHORT $LN124@UserCmd_Gi
	and	DWORD PTR $T144330[ebp], -2		; fffffffeH
	lea	ecx, DWORD PTR $T144218[ebp]
	call	DWORD PTR __imp_??1?$basic_string@GU?$char_traits@G@std@@V?$allocator@G@2@@std@@QAE@XZ
$LN124@UserCmd_Gi:
; Line 340
	cmp	DWORD PTR _targetClientId$[ebp], -1
	je	SHORT $LN3@UserCmd_Gi
	mov	ecx, DWORD PTR _targetClientId$[ebp]
	push	ecx
	call	DWORD PTR __imp_?HkIsInCharSelectMenu@@YA_NI@Z
	add	esp, 4
	movzx	edx, al
	test	edx, edx
	jne	SHORT $LN3@UserCmd_Gi
; Line 342
	lea	ecx, DWORD PTR _msg$[ebp]
	call	DWORD PTR __imp_?c_str@?$basic_string@GU?$char_traits@G@std@@V?$allocator@G@2@@std@@QBEPBGXZ
	push	eax
	sub	esp, 28					; 0000001cH
	mov	ecx, esp
	mov	DWORD PTR $T144224[ebp], esp
	push	OFFSET $SG139450
	call	DWORD PTR __imp_??0?$basic_string@GU?$char_traits@G@std@@V?$allocator@G@2@@std@@QAE@PBG@Z
	mov	DWORD PTR tv1076[ebp], eax
	mov	eax, DWORD PTR tv1076[ebp]
	mov	DWORD PTR tv1563[ebp], eax
	mov	BYTE PTR __$EHRec$[ebp+8], 91		; 0000005bH
	mov	ecx, DWORD PTR _targetClientId$[ebp]
	push	ecx
	mov	BYTE PTR __$EHRec$[ebp+8], 90		; 0000005aH
	call	DWORD PTR __imp_?PrintUserCmdText@@YAXIV?$basic_string@GU?$char_traits@G@std@@V?$allocator@G@2@@std@@ZZ
	add	esp, 36					; 00000024H
; Line 347
	jmp	$LN2@UserCmd_Gi
$LN3@UserCmd_Gi:
; Line 349
	movzx	edx, BYTE PTR _bAnon$[ebp]
	test	edx, edx
	je	SHORT $LN34@UserCmd_Gi
	push	OFFSET $SG139459
	lea	ecx, DWORD PTR $T144226[ebp]
	call	DWORD PTR __imp_??0?$basic_string@GU?$char_traits@G@std@@V?$allocator@G@2@@std@@QAE@PBG@Z
	mov	DWORD PTR tv1701[ebp], eax
	mov	eax, DWORD PTR tv1701[ebp]
	mov	DWORD PTR tv1568[ebp], eax
	mov	BYTE PTR __$EHRec$[ebp+8], 92		; 0000005cH
	mov	ecx, DWORD PTR $T144330[ebp]
	or	ecx, 2
	mov	DWORD PTR $T144330[ebp], ecx
	mov	edx, DWORD PTR tv1568[ebp]
	mov	DWORD PTR tv1137[ebp], edx
	jmp	SHORT $LN35@UserCmd_Gi
$LN34@UserCmd_Gi:
	lea	eax, DWORD PTR _wscCharname$[ebp]
	mov	DWORD PTR tv1137[ebp], eax
$LN35@UserCmd_Gi:
	mov	ecx, DWORD PTR tv1137[ebp]
	mov	DWORD PTR $T144225[ebp], ecx
	mov	edx, DWORD PTR $T144225[ebp]
	push	edx
	push	OFFSET $SG139460
	mov	eax, DWORD PTR _cash$[ebp]
	push	eax
	lea	ecx, DWORD PTR $T144229[ebp]
	push	ecx
	call	DWORD PTR __imp_?ToMoneyStr@@YA?AV?$basic_string@GU?$char_traits@G@std@@V?$allocator@G@2@@std@@H@Z
	add	esp, 8
	mov	DWORD PTR tv1703[ebp], eax
	mov	edx, DWORD PTR tv1703[ebp]
	mov	DWORD PTR tv1570[ebp], edx
	mov	DWORD PTR __$EHRec$[ebp+8], 93		; 0000005dH
	mov	eax, DWORD PTR tv1570[ebp]
	push	eax
	push	OFFSET $SG139461
	lea	ecx, DWORD PTR $T144230[ebp]
	push	ecx
	call	DWORD PTR __imp_??$?HGU?$char_traits@G@std@@V?$allocator@G@1@@std@@YA?AV?$basic_string@GU?$char_traits@G@std@@V?$allocator@G@2@@0@PBGABV10@@Z
	add	esp, 12					; 0000000cH
	mov	DWORD PTR tv1704[ebp], eax
	mov	edx, DWORD PTR tv1704[ebp]
	mov	DWORD PTR tv1572[ebp], edx
	mov	BYTE PTR __$EHRec$[ebp+8], 94		; 0000005eH
	mov	eax, DWORD PTR tv1572[ebp]
	push	eax
	lea	ecx, DWORD PTR $T144231[ebp]
	push	ecx
	call	DWORD PTR __imp_??$?HGU?$char_traits@G@std@@V?$allocator@G@1@@std@@YA?AV?$basic_string@GU?$char_traits@G@std@@V?$allocator@G@2@@0@ABV10@PBG@Z
	add	esp, 12					; 0000000cH
	mov	DWORD PTR tv1705[ebp], eax
	mov	edx, DWORD PTR tv1705[ebp]
	mov	DWORD PTR tv1574[ebp], edx
	mov	BYTE PTR __$EHRec$[ebp+8], 95		; 0000005fH
	mov	eax, DWORD PTR tv1574[ebp]
	push	eax
	lea	ecx, DWORD PTR _msg$139452[ebp]
	push	ecx
	call	DWORD PTR __imp_??$?HGU?$char_traits@G@std@@V?$allocator@G@1@@std@@YA?AV?$basic_string@GU?$char_traits@G@std@@V?$allocator@G@2@@0@ABV10@0@Z
	add	esp, 12					; 0000000cH
	mov	BYTE PTR __$EHRec$[ebp+8], 97		; 00000061H
	lea	ecx, DWORD PTR $T144231[ebp]
	call	DWORD PTR __imp_??1?$basic_string@GU?$char_traits@G@std@@V?$allocator@G@2@@std@@QAE@XZ
	mov	BYTE PTR __$EHRec$[ebp+8], 98		; 00000062H
	lea	ecx, DWORD PTR $T144230[ebp]
	call	DWORD PTR __imp_??1?$basic_string@GU?$char_traits@G@std@@V?$allocator@G@2@@std@@QAE@XZ
	mov	BYTE PTR __$EHRec$[ebp+8], 99		; 00000063H
	lea	ecx, DWORD PTR $T144229[ebp]
	call	DWORD PTR __imp_??1?$basic_string@GU?$char_traits@G@std@@V?$allocator@G@2@@std@@QAE@XZ
	mov	BYTE PTR __$EHRec$[ebp+8], 100		; 00000064H
	mov	edx, DWORD PTR $T144330[ebp]
	and	edx, 2
	je	SHORT $LN132@UserCmd_Gi
	and	DWORD PTR $T144330[ebp], -3		; fffffffdH
	lea	ecx, DWORD PTR $T144226[ebp]
	call	DWORD PTR __imp_??1?$basic_string@GU?$char_traits@G@std@@V?$allocator@G@2@@std@@QAE@XZ
$LN132@UserCmd_Gi:
; Line 350
	sub	esp, 28					; 0000001cH
	mov	ecx, esp
	mov	DWORD PTR $T144232[ebp], esp
	lea	eax, DWORD PTR _msg$139452[ebp]
	push	eax
	call	DWORD PTR __imp_??0?$basic_string@GU?$char_traits@G@std@@V?$allocator@G@2@@std@@QAE@ABV01@@Z
	mov	DWORD PTR tv1129[ebp], eax
	mov	ecx, DWORD PTR tv1129[ebp]
	mov	DWORD PTR tv1579[ebp], ecx
	mov	BYTE PTR __$EHRec$[ebp+8], 101		; 00000065H
	sub	esp, 28					; 0000001cH
	mov	ecx, esp
	mov	DWORD PTR $T144233[ebp], esp
	lea	edx, DWORD PTR _wscTargetCharname$[ebp]
	push	edx
	call	DWORD PTR __imp_??0?$basic_string@GU?$char_traits@G@std@@V?$allocator@G@2@@std@@QAE@ABV01@@Z
	mov	DWORD PTR tv1706[ebp], eax
	mov	eax, DWORD PTR tv1706[ebp]
	mov	DWORD PTR tv1582[ebp], eax
	mov	BYTE PTR __$EHRec$[ebp+8], 102		; 00000066H
	mov	BYTE PTR __$EHRec$[ebp+8], 100		; 00000064H
	call	?LogTransfer@GiveCash@@YAXV?$basic_string@GU?$char_traits@G@std@@V?$allocator@G@2@@std@@0@Z ; GiveCash::LogTransfer
	add	esp, 56					; 00000038H
; Line 351
	mov	BYTE PTR __$EHRec$[ebp+8], 90		; 0000005aH
	lea	ecx, DWORD PTR _msg$139452[ebp]
	call	DWORD PTR __imp_??1?$basic_string@GU?$char_traits@G@std@@V?$allocator@G@2@@std@@QAE@XZ
$LN2@UserCmd_Gi:
; Line 356
	lea	ecx, DWORD PTR _wscTargetCharname$[ebp]
	push	ecx
	call	DWORD PTR __imp_?HkGetAccountByCharname@@YAPAVCAccount@@ABV?$basic_string@GU?$char_traits@G@std@@V?$allocator@G@2@@std@@@Z
	add	esp, 4
	push	eax
	lea	edx, DWORD PTR $T144234[ebp]
	push	edx
	call	DWORD PTR __imp_?HkGetAccountID@@YA?AV?$basic_string@GU?$char_traits@G@std@@V?$allocator@G@2@@std@@PAVCAccount@@@Z
	add	esp, 8
	mov	DWORD PTR tv1708[ebp], eax
	mov	eax, DWORD PTR tv1708[ebp]
	mov	DWORD PTR tv1584[ebp], eax
	mov	BYTE PTR __$EHRec$[ebp+8], 103		; 00000067H
	mov	ecx, DWORD PTR tv1584[ebp]
	push	ecx
	lea	edx, DWORD PTR $T144235[ebp]
	push	edx
	call	DWORD PTR __imp_?wstos@@YA?AV?$basic_string@DU?$char_traits@D@std@@V?$allocator@D@2@@std@@ABV?$basic_string@GU?$char_traits@G@std@@V?$allocator@G@2@@2@@Z
	add	esp, 8
	mov	DWORD PTR tv1709[ebp], eax
	mov	eax, DWORD PTR tv1709[ebp]
	mov	DWORD PTR tv1586[ebp], eax
	mov	BYTE PTR __$EHRec$[ebp+8], 104		; 00000068H
	mov	ecx, DWORD PTR tv1586[ebp]
	call	DWORD PTR __imp_?c_str@?$basic_string@DU?$char_traits@D@std@@V?$allocator@D@2@@std@@QBEPBDXZ
	push	eax
	lea	ecx, DWORD PTR _wscTargetCharname$[ebp]
	push	ecx
	lea	edx, DWORD PTR $T144236[ebp]
	push	edx
	call	DWORD PTR __imp_?wstos@@YA?AV?$basic_string@DU?$char_traits@D@std@@V?$allocator@D@2@@std@@ABV?$basic_string@GU?$char_traits@G@std@@V?$allocator@G@2@@2@@Z
	add	esp, 8
	mov	DWORD PTR tv1710[ebp], eax
	mov	eax, DWORD PTR tv1710[ebp]
	mov	DWORD PTR tv1588[ebp], eax
	mov	BYTE PTR __$EHRec$[ebp+8], 105		; 00000069H
	mov	ecx, DWORD PTR tv1588[ebp]
	call	DWORD PTR __imp_?c_str@?$basic_string@DU?$char_traits@D@std@@V?$allocator@D@2@@std@@QBEPBDXZ
	push	eax
	lea	ecx, DWORD PTR _wscCharname$[ebp]
	push	ecx
	call	DWORD PTR __imp_?HkGetAccountByCharname@@YAPAVCAccount@@ABV?$basic_string@GU?$char_traits@G@std@@V?$allocator@G@2@@std@@@Z
	add	esp, 4
	push	eax
	lea	edx, DWORD PTR $T144237[ebp]
	push	edx
	call	DWORD PTR __imp_?HkGetAccountID@@YA?AV?$basic_string@GU?$char_traits@G@std@@V?$allocator@G@2@@std@@PAVCAccount@@@Z
	add	esp, 8
	mov	DWORD PTR tv1711[ebp], eax
	mov	eax, DWORD PTR tv1711[ebp]
	mov	DWORD PTR tv1590[ebp], eax
	mov	BYTE PTR __$EHRec$[ebp+8], 106		; 0000006aH
	mov	ecx, DWORD PTR tv1590[ebp]
	push	ecx
	lea	edx, DWORD PTR $T144238[ebp]
	push	edx
	call	DWORD PTR __imp_?wstos@@YA?AV?$basic_string@DU?$char_traits@D@std@@V?$allocator@D@2@@std@@ABV?$basic_string@GU?$char_traits@G@std@@V?$allocator@G@2@@2@@Z
	add	esp, 8
	mov	DWORD PTR tv1712[ebp], eax
	mov	eax, DWORD PTR tv1712[ebp]
	mov	DWORD PTR tv1592[ebp], eax
	mov	BYTE PTR __$EHRec$[ebp+8], 107		; 0000006bH
	mov	ecx, DWORD PTR tv1592[ebp]
	call	DWORD PTR __imp_?c_str@?$basic_string@DU?$char_traits@D@std@@V?$allocator@D@2@@std@@QBEPBDXZ
	push	eax
	lea	ecx, DWORD PTR _wscCharname$[ebp]
	push	ecx
	lea	edx, DWORD PTR $T144239[ebp]
	push	edx
	call	DWORD PTR __imp_?wstos@@YA?AV?$basic_string@DU?$char_traits@D@std@@V?$allocator@D@2@@std@@ABV?$basic_string@GU?$char_traits@G@std@@V?$allocator@G@2@@2@@Z
	add	esp, 8
	mov	DWORD PTR tv1713[ebp], eax
	mov	eax, DWORD PTR tv1713[ebp]
	mov	DWORD PTR tv1594[ebp], eax
	mov	BYTE PTR __$EHRec$[ebp+8], 108		; 0000006cH
	mov	ecx, DWORD PTR tv1594[ebp]
	call	DWORD PTR __imp_?c_str@?$basic_string@DU?$char_traits@D@std@@V?$allocator@D@2@@std@@QBEPBDXZ
	push	eax
	mov	ecx, DWORD PTR _cash$[ebp]
	push	ecx
	lea	edx, DWORD PTR $T144240[ebp]
	push	edx
	call	DWORD PTR __imp_?ToMoneyStr@@YA?AV?$basic_string@GU?$char_traits@G@std@@V?$allocator@G@2@@std@@H@Z
	add	esp, 8
	mov	DWORD PTR tv1714[ebp], eax
	mov	eax, DWORD PTR tv1714[ebp]
	mov	DWORD PTR tv1596[ebp], eax
	mov	BYTE PTR __$EHRec$[ebp+8], 109		; 0000006dH
	mov	ecx, DWORD PTR tv1596[ebp]
	push	ecx
	lea	edx, DWORD PTR $T144241[ebp]
	push	edx
	call	DWORD PTR __imp_?wstos@@YA?AV?$basic_string@DU?$char_traits@D@std@@V?$allocator@D@2@@std@@ABV?$basic_string@GU?$char_traits@G@std@@V?$allocator@G@2@@2@@Z
	add	esp, 8
	mov	DWORD PTR tv1715[ebp], eax
	mov	eax, DWORD PTR tv1715[ebp]
	mov	DWORD PTR tv1598[ebp], eax
	mov	BYTE PTR __$EHRec$[ebp+8], 110		; 0000006eH
	mov	ecx, DWORD PTR tv1598[ebp]
	call	DWORD PTR __imp_?c_str@?$basic_string@DU?$char_traits@D@std@@V?$allocator@D@2@@std@@QBEPBDXZ
	push	eax
	push	OFFSET $SG139472
	call	DWORD PTR __imp_?AddLog@@YAXPBDZZ
	add	esp, 24					; 00000018H
	mov	BYTE PTR __$EHRec$[ebp+8], 109		; 0000006dH
	lea	ecx, DWORD PTR $T144241[ebp]
	call	DWORD PTR __imp_??1?$basic_string@DU?$char_traits@D@std@@V?$allocator@D@2@@std@@QAE@XZ
	mov	BYTE PTR __$EHRec$[ebp+8], 108		; 0000006cH
	lea	ecx, DWORD PTR $T144240[ebp]
	call	DWORD PTR __imp_??1?$basic_string@GU?$char_traits@G@std@@V?$allocator@G@2@@std@@QAE@XZ
	mov	BYTE PTR __$EHRec$[ebp+8], 107		; 0000006bH
	lea	ecx, DWORD PTR $T144239[ebp]
	call	DWORD PTR __imp_??1?$basic_string@DU?$char_traits@D@std@@V?$allocator@D@2@@std@@QAE@XZ
	mov	BYTE PTR __$EHRec$[ebp+8], 106		; 0000006aH
	lea	ecx, DWORD PTR $T144238[ebp]
	call	DWORD PTR __imp_??1?$basic_string@DU?$char_traits@D@std@@V?$allocator@D@2@@std@@QAE@XZ
	mov	BYTE PTR __$EHRec$[ebp+8], 105		; 00000069H
	lea	ecx, DWORD PTR $T144237[ebp]
	call	DWORD PTR __imp_??1?$basic_string@GU?$char_traits@G@std@@V?$allocator@G@2@@std@@QAE@XZ
	mov	BYTE PTR __$EHRec$[ebp+8], 104		; 00000068H
	lea	ecx, DWORD PTR $T144236[ebp]
	call	DWORD PTR __imp_??1?$basic_string@DU?$char_traits@D@std@@V?$allocator@D@2@@std@@QAE@XZ
	mov	BYTE PTR __$EHRec$[ebp+8], 103		; 00000067H
	lea	ecx, DWORD PTR $T144235[ebp]
	call	DWORD PTR __imp_??1?$basic_string@DU?$char_traits@D@std@@V?$allocator@D@2@@std@@QAE@XZ
	mov	BYTE PTR __$EHRec$[ebp+8], 90		; 0000005aH
	lea	ecx, DWORD PTR $T144234[ebp]
	call	DWORD PTR __imp_??1?$basic_string@GU?$char_traits@G@std@@V?$allocator@G@2@@std@@QAE@XZ
; Line 359
	lea	ecx, DWORD PTR _wscTargetCharname$[ebp]
	push	ecx
	push	OFFSET $SG139477
	mov	edx, DWORD PTR _cash$[ebp]
	push	edx
	lea	eax, DWORD PTR $T144242[ebp]
	push	eax
	call	DWORD PTR __imp_?ToMoneyStr@@YA?AV?$basic_string@GU?$char_traits@G@std@@V?$allocator@G@2@@std@@H@Z
	add	esp, 8
	mov	DWORD PTR tv1716[ebp], eax
	mov	ecx, DWORD PTR tv1716[ebp]
	mov	DWORD PTR tv1600[ebp], ecx
	mov	BYTE PTR __$EHRec$[ebp+8], 111		; 0000006fH
	mov	edx, DWORD PTR tv1600[ebp]
	push	edx
	push	OFFSET $SG139478
	lea	eax, DWORD PTR $T144243[ebp]
	push	eax
	call	DWORD PTR __imp_??$?HGU?$char_traits@G@std@@V?$allocator@G@1@@std@@YA?AV?$basic_string@GU?$char_traits@G@std@@V?$allocator@G@2@@0@PBGABV10@@Z
	add	esp, 12					; 0000000cH
	mov	DWORD PTR tv1717[ebp], eax
	mov	ecx, DWORD PTR tv1717[ebp]
	mov	DWORD PTR tv1602[ebp], ecx
	mov	BYTE PTR __$EHRec$[ebp+8], 112		; 00000070H
	mov	edx, DWORD PTR tv1602[ebp]
	push	edx
	lea	eax, DWORD PTR $T144244[ebp]
	push	eax
	call	DWORD PTR __imp_??$?HGU?$char_traits@G@std@@V?$allocator@G@1@@std@@YA?AV?$basic_string@GU?$char_traits@G@std@@V?$allocator@G@2@@0@ABV10@PBG@Z
	add	esp, 12					; 0000000cH
	mov	DWORD PTR tv1718[ebp], eax
	mov	ecx, DWORD PTR tv1718[ebp]
	mov	DWORD PTR tv1604[ebp], ecx
	mov	BYTE PTR __$EHRec$[ebp+8], 113		; 00000071H
	mov	edx, DWORD PTR tv1604[ebp]
	push	edx
	lea	eax, DWORD PTR $T144245[ebp]
	push	eax
	call	DWORD PTR __imp_??$?HGU?$char_traits@G@std@@V?$allocator@G@1@@std@@YA?AV?$basic_string@GU?$char_traits@G@std@@V?$allocator@G@2@@0@ABV10@0@Z
	add	esp, 12					; 0000000cH
	mov	DWORD PTR tv1719[ebp], eax
	mov	ecx, DWORD PTR tv1719[ebp]
	mov	DWORD PTR tv1606[ebp], ecx
	mov	BYTE PTR __$EHRec$[ebp+8], 114		; 00000072H
	mov	edx, DWORD PTR tv1606[ebp]
	push	edx
	lea	ecx, DWORD PTR _msg$[ebp]
	call	DWORD PTR __imp_??4?$basic_string@GU?$char_traits@G@std@@V?$allocator@G@2@@std@@QAEAAV01@ABV01@@Z
	mov	BYTE PTR __$EHRec$[ebp+8], 113		; 00000071H
	lea	ecx, DWORD PTR $T144245[ebp]
	call	DWORD PTR __imp_??1?$basic_string@GU?$char_traits@G@std@@V?$allocator@G@2@@std@@QAE@XZ
	mov	BYTE PTR __$EHRec$[ebp+8], 112		; 00000070H
	lea	ecx, DWORD PTR $T144244[ebp]
	call	DWORD PTR __imp_??1?$basic_string@GU?$char_traits@G@std@@V?$allocator@G@2@@std@@QAE@XZ
	mov	BYTE PTR __$EHRec$[ebp+8], 111		; 0000006fH
	lea	ecx, DWORD PTR $T144243[ebp]
	call	DWORD PTR __imp_??1?$basic_string@GU?$char_traits@G@std@@V?$allocator@G@2@@std@@QAE@XZ
	mov	BYTE PTR __$EHRec$[ebp+8], 90		; 0000005aH
	lea	ecx, DWORD PTR $T144242[ebp]
	call	DWORD PTR __imp_??1?$basic_string@GU?$char_traits@G@std@@V?$allocator@G@2@@std@@QAE@XZ
; Line 360
	movzx	eax, BYTE PTR _bAnon$[ebp]
	test	eax, eax
	je	SHORT $LN1@UserCmd_Gi
; Line 361
	push	OFFSET $SG139480
	lea	ecx, DWORD PTR _msg$[ebp]
	call	DWORD PTR __imp_??Y?$basic_string@GU?$char_traits@G@std@@V?$allocator@G@2@@std@@QAEAAV01@PBG@Z
$LN1@UserCmd_Gi:
; Line 362
	lea	ecx, DWORD PTR _msg$[ebp]
	call	DWORD PTR __imp_?c_str@?$basic_string@GU?$char_traits@G@std@@V?$allocator@G@2@@std@@QBEPBGXZ
	push	eax
	sub	esp, 28					; 0000001cH
	mov	ecx, esp
	mov	DWORD PTR $T144246[ebp], esp
	push	OFFSET $SG139482
	call	DWORD PTR __imp_??0?$basic_string@GU?$char_traits@G@std@@V?$allocator@G@2@@std@@QAE@PBG@Z
	mov	DWORD PTR tv1720[ebp], eax
	mov	ecx, DWORD PTR tv1720[ebp]
	mov	DWORD PTR tv1609[ebp], ecx
	mov	BYTE PTR __$EHRec$[ebp+8], 115		; 00000073H
	mov	edx, DWORD PTR _iClientID$[ebp]
	push	edx
	mov	BYTE PTR __$EHRec$[ebp+8], 90		; 0000005aH
	call	DWORD PTR __imp_?PrintUserCmdText@@YAXIV?$basic_string@GU?$char_traits@G@std@@V?$allocator@G@2@@std@@ZZ
	add	esp, 36					; 00000024H
; Line 363
	mov	BYTE PTR $T144247[ebp], 1
	mov	BYTE PTR __$EHRec$[ebp+8], 3
	lea	ecx, DWORD PTR _msg$[ebp]
	call	DWORD PTR __imp_??1?$basic_string@GU?$char_traits@G@std@@V?$allocator@G@2@@std@@QAE@XZ
	mov	BYTE PTR __$EHRec$[ebp+8], 2
	lea	ecx, DWORD PTR _wscAnon$[ebp]
	call	DWORD PTR __imp_??1?$basic_string@GU?$char_traits@G@std@@V?$allocator@G@2@@std@@QAE@XZ
	mov	BYTE PTR __$EHRec$[ebp+8], 1
	lea	ecx, DWORD PTR _wscCash$[ebp]
	call	DWORD PTR __imp_??1?$basic_string@GU?$char_traits@G@std@@V?$allocator@G@2@@std@@QAE@XZ
	mov	BYTE PTR __$EHRec$[ebp+8], 0
	lea	ecx, DWORD PTR _wscTargetCharname$[ebp]
	call	DWORD PTR __imp_??1?$basic_string@GU?$char_traits@G@std@@V?$allocator@G@2@@std@@QAE@XZ
	mov	DWORD PTR __$EHRec$[ebp+8], -1
	lea	ecx, DWORD PTR _wscCharname$[ebp]
	call	DWORD PTR __imp_??1?$basic_string@GU?$char_traits@G@std@@V?$allocator@G@2@@std@@QAE@XZ
	mov	al, BYTE PTR $T144247[ebp]
$LN30@UserCmd_Gi:
; Line 364
	mov	ecx, DWORD PTR __$EHRec$[ebp]
	mov	DWORD PTR fs:0, ecx
	pop	ecx
	pop	esi
	mov	ecx, DWORD PTR __$ArrayPad$[ebp]
	xor	ecx, ebp
	call	@__security_check_cookie@4
	mov	esp, ebp
	pop	ebp
	ret	0
_TEXT	ENDS
text$x	SEGMENT
__unwindfunclet$?UserCmd_GiveCash@GiveCash@@YA_NIABV?$basic_string@GU?$char_traits@G@std@@V?$allocator@G@2@@std@@0PBG@Z$0:
	lea	ecx, DWORD PTR _wscCharname$[ebp]
	jmp	DWORD PTR __imp_??1?$basic_string@GU?$char_traits@G@std@@V?$allocator@G@2@@std@@QAE@XZ
__unwindfunclet$?UserCmd_GiveCash@GiveCash@@YA_NIABV?$basic_string@GU?$char_traits@G@std@@V?$allocator@G@2@@std@@0PBG@Z$1:
	lea	ecx, DWORD PTR _wscTargetCharname$[ebp]
	jmp	DWORD PTR __imp_??1?$basic_string@GU?$char_traits@G@std@@V?$allocator@G@2@@std@@QAE@XZ
__unwindfunclet$?UserCmd_GiveCash@GiveCash@@YA_NIABV?$basic_string@GU?$char_traits@G@std@@V?$allocator@G@2@@std@@0PBG@Z$2:
	lea	ecx, DWORD PTR _wscCash$[ebp]
	jmp	DWORD PTR __imp_??1?$basic_string@GU?$char_traits@G@std@@V?$allocator@G@2@@std@@QAE@XZ
__unwindfunclet$?UserCmd_GiveCash@GiveCash@@YA_NIABV?$basic_string@GU?$char_traits@G@std@@V?$allocator@G@2@@std@@0PBG@Z$3:
	lea	ecx, DWORD PTR _wscAnon$[ebp]
	jmp	DWORD PTR __imp_??1?$basic_string@GU?$char_traits@G@std@@V?$allocator@G@2@@std@@QAE@XZ
__unwindfunclet$?UserCmd_GiveCash@GiveCash@@YA_NIABV?$basic_string@GU?$char_traits@G@std@@V?$allocator@G@2@@std@@0PBG@Z$4:
	lea	ecx, DWORD PTR $T144122[ebp]
	jmp	DWORD PTR __imp_??1?$basic_string@GU?$char_traits@G@std@@V?$allocator@G@2@@std@@QAE@XZ
__unwindfunclet$?UserCmd_GiveCash@GiveCash@@YA_NIABV?$basic_string@GU?$char_traits@G@std@@V?$allocator@G@2@@std@@0PBG@Z$5:
	lea	ecx, DWORD PTR $T144123[ebp]
	jmp	DWORD PTR __imp_??1?$basic_string@GU?$char_traits@G@std@@V?$allocator@G@2@@std@@QAE@XZ
__unwindfunclet$?UserCmd_GiveCash@GiveCash@@YA_NIABV?$basic_string@GU?$char_traits@G@std@@V?$allocator@G@2@@std@@0PBG@Z$6:
	lea	ecx, DWORD PTR $T144124[ebp]
	jmp	DWORD PTR __imp_??1?$basic_string@GU?$char_traits@G@std@@V?$allocator@G@2@@std@@QAE@XZ
__unwindfunclet$?UserCmd_GiveCash@GiveCash@@YA_NIABV?$basic_string@GU?$char_traits@G@std@@V?$allocator@G@2@@std@@0PBG@Z$7:
	lea	ecx, DWORD PTR $T144125[ebp]
	jmp	DWORD PTR __imp_??1?$basic_string@GU?$char_traits@G@std@@V?$allocator@G@2@@std@@QAE@XZ
__unwindfunclet$?UserCmd_GiveCash@GiveCash@@YA_NIABV?$basic_string@GU?$char_traits@G@std@@V?$allocator@G@2@@std@@0PBG@Z$8:
	lea	ecx, DWORD PTR $T144126[ebp]
	jmp	DWORD PTR __imp_??1?$basic_string@GU?$char_traits@G@std@@V?$allocator@G@2@@std@@QAE@XZ
__unwindfunclet$?UserCmd_GiveCash@GiveCash@@YA_NIABV?$basic_string@GU?$char_traits@G@std@@V?$allocator@G@2@@std@@0PBG@Z$9:
	lea	ecx, DWORD PTR $T144127[ebp]
	jmp	DWORD PTR __imp_??1?$basic_string@GU?$char_traits@G@std@@V?$allocator@G@2@@std@@QAE@XZ
__unwindfunclet$?UserCmd_GiveCash@GiveCash@@YA_NIABV?$basic_string@GU?$char_traits@G@std@@V?$allocator@G@2@@std@@0PBG@Z$10:
	lea	ecx, DWORD PTR $T144128[ebp]
	jmp	DWORD PTR __imp_??1?$basic_string@GU?$char_traits@G@std@@V?$allocator@G@2@@std@@QAE@XZ
__unwindfunclet$?UserCmd_GiveCash@GiveCash@@YA_NIABV?$basic_string@GU?$char_traits@G@std@@V?$allocator@G@2@@std@@0PBG@Z$11:
	lea	ecx, DWORD PTR $T144129[ebp]
	jmp	DWORD PTR __imp_??1?$basic_string@GU?$char_traits@G@std@@V?$allocator@G@2@@std@@QAE@XZ
__unwindfunclet$?UserCmd_GiveCash@GiveCash@@YA_NIABV?$basic_string@GU?$char_traits@G@std@@V?$allocator@G@2@@std@@0PBG@Z$12:
	lea	ecx, DWORD PTR $T144130[ebp]
	jmp	DWORD PTR __imp_??1?$basic_string@GU?$char_traits@G@std@@V?$allocator@G@2@@std@@QAE@XZ
__unwindfunclet$?UserCmd_GiveCash@GiveCash@@YA_NIABV?$basic_string@GU?$char_traits@G@std@@V?$allocator@G@2@@std@@0PBG@Z$13:
	mov	ecx, DWORD PTR $T144131[ebp]
	jmp	DWORD PTR __imp_??1?$basic_string@GU?$char_traits@G@std@@V?$allocator@G@2@@std@@QAE@XZ
__unwindfunclet$?UserCmd_GiveCash@GiveCash@@YA_NIABV?$basic_string@GU?$char_traits@G@std@@V?$allocator@G@2@@std@@0PBG@Z$14:
	mov	ecx, DWORD PTR $T144132[ebp]
	jmp	DWORD PTR __imp_??1?$basic_string@GU?$char_traits@G@std@@V?$allocator@G@2@@std@@QAE@XZ
__unwindfunclet$?UserCmd_GiveCash@GiveCash@@YA_NIABV?$basic_string@GU?$char_traits@G@std@@V?$allocator@G@2@@std@@0PBG@Z$15:
	mov	ecx, DWORD PTR $T144134[ebp]
	jmp	DWORD PTR __imp_??1?$basic_string@GU?$char_traits@G@std@@V?$allocator@G@2@@std@@QAE@XZ
__unwindfunclet$?UserCmd_GiveCash@GiveCash@@YA_NIABV?$basic_string@GU?$char_traits@G@std@@V?$allocator@G@2@@std@@0PBG@Z$16:
	mov	ecx, DWORD PTR $T144136[ebp]
	jmp	DWORD PTR __imp_??1?$basic_string@GU?$char_traits@G@std@@V?$allocator@G@2@@std@@QAE@XZ
__unwindfunclet$?UserCmd_GiveCash@GiveCash@@YA_NIABV?$basic_string@GU?$char_traits@G@std@@V?$allocator@G@2@@std@@0PBG@Z$17:
	mov	ecx, DWORD PTR $T144138[ebp]
	jmp	DWORD PTR __imp_??1?$basic_string@GU?$char_traits@G@std@@V?$allocator@G@2@@std@@QAE@XZ
__unwindfunclet$?UserCmd_GiveCash@GiveCash@@YA_NIABV?$basic_string@GU?$char_traits@G@std@@V?$allocator@G@2@@std@@0PBG@Z$18:
	lea	ecx, DWORD PTR $T144141[ebp]
	jmp	DWORD PTR __imp_??1?$basic_string@GU?$char_traits@G@std@@V?$allocator@G@2@@std@@QAE@XZ
__unwindfunclet$?UserCmd_GiveCash@GiveCash@@YA_NIABV?$basic_string@GU?$char_traits@G@std@@V?$allocator@G@2@@std@@0PBG@Z$19:
	mov	ecx, DWORD PTR $T144140[ebp]
	jmp	DWORD PTR __imp_??1?$basic_string@GU?$char_traits@G@std@@V?$allocator@G@2@@std@@QAE@XZ
__unwindfunclet$?UserCmd_GiveCash@GiveCash@@YA_NIABV?$basic_string@GU?$char_traits@G@std@@V?$allocator@G@2@@std@@0PBG@Z$20:
	lea	ecx, DWORD PTR $T144144[ebp]
	jmp	DWORD PTR __imp_??1?$basic_string@GU?$char_traits@G@std@@V?$allocator@G@2@@std@@QAE@XZ
__unwindfunclet$?UserCmd_GiveCash@GiveCash@@YA_NIABV?$basic_string@GU?$char_traits@G@std@@V?$allocator@G@2@@std@@0PBG@Z$21:
	lea	ecx, DWORD PTR $T144145[ebp]
	jmp	DWORD PTR __imp_??1?$basic_string@GU?$char_traits@G@std@@V?$allocator@G@2@@std@@QAE@XZ
__unwindfunclet$?UserCmd_GiveCash@GiveCash@@YA_NIABV?$basic_string@GU?$char_traits@G@std@@V?$allocator@G@2@@std@@0PBG@Z$22:
	mov	ecx, DWORD PTR $T144143[ebp]
	jmp	DWORD PTR __imp_??1?$basic_string@GU?$char_traits@G@std@@V?$allocator@G@2@@std@@QAE@XZ
__unwindfunclet$?UserCmd_GiveCash@GiveCash@@YA_NIABV?$basic_string@GU?$char_traits@G@std@@V?$allocator@G@2@@std@@0PBG@Z$23:
	mov	ecx, DWORD PTR $T144147[ebp]
	jmp	DWORD PTR __imp_??1?$basic_string@GU?$char_traits@G@std@@V?$allocator@G@2@@std@@QAE@XZ
__unwindfunclet$?UserCmd_GiveCash@GiveCash@@YA_NIABV?$basic_string@GU?$char_traits@G@std@@V?$allocator@G@2@@std@@0PBG@Z$24:
	lea	ecx, DWORD PTR $T144150[ebp]
	jmp	DWORD PTR __imp_??1?$basic_string@GU?$char_traits@G@std@@V?$allocator@G@2@@std@@QAE@XZ
__unwindfunclet$?UserCmd_GiveCash@GiveCash@@YA_NIABV?$basic_string@GU?$char_traits@G@std@@V?$allocator@G@2@@std@@0PBG@Z$25:
	mov	ecx, DWORD PTR $T144149[ebp]
	jmp	DWORD PTR __imp_??1?$basic_string@GU?$char_traits@G@std@@V?$allocator@G@2@@std@@QAE@XZ
__unwindfunclet$?UserCmd_GiveCash@GiveCash@@YA_NIABV?$basic_string@GU?$char_traits@G@std@@V?$allocator@G@2@@std@@0PBG@Z$26:
	mov	ecx, DWORD PTR $T144152[ebp]
	jmp	DWORD PTR __imp_??1?$basic_string@GU?$char_traits@G@std@@V?$allocator@G@2@@std@@QAE@XZ
__unwindfunclet$?UserCmd_GiveCash@GiveCash@@YA_NIABV?$basic_string@GU?$char_traits@G@std@@V?$allocator@G@2@@std@@0PBG@Z$27:
	lea	ecx, DWORD PTR $T144155[ebp]
	jmp	DWORD PTR __imp_??1?$basic_string@GU?$char_traits@G@std@@V?$allocator@G@2@@std@@QAE@XZ
__unwindfunclet$?UserCmd_GiveCash@GiveCash@@YA_NIABV?$basic_string@GU?$char_traits@G@std@@V?$allocator@G@2@@std@@0PBG@Z$28:
	mov	ecx, DWORD PTR $T144154[ebp]
	jmp	DWORD PTR __imp_??1?$basic_string@GU?$char_traits@G@std@@V?$allocator@G@2@@std@@QAE@XZ
__unwindfunclet$?UserCmd_GiveCash@GiveCash@@YA_NIABV?$basic_string@GU?$char_traits@G@std@@V?$allocator@G@2@@std@@0PBG@Z$29:
	mov	ecx, DWORD PTR $T144157[ebp]
	jmp	DWORD PTR __imp_??1?$basic_string@GU?$char_traits@G@std@@V?$allocator@G@2@@std@@QAE@XZ
__unwindfunclet$?UserCmd_GiveCash@GiveCash@@YA_NIABV?$basic_string@GU?$char_traits@G@std@@V?$allocator@G@2@@std@@0PBG@Z$30:
	lea	ecx, DWORD PTR $T144158[ebp]
	jmp	DWORD PTR __imp_??1?$basic_string@GU?$char_traits@G@std@@V?$allocator@G@2@@std@@QAE@XZ
__unwindfunclet$?UserCmd_GiveCash@GiveCash@@YA_NIABV?$basic_string@GU?$char_traits@G@std@@V?$allocator@G@2@@std@@0PBG@Z$31:
	lea	ecx, DWORD PTR $T144159[ebp]
	jmp	DWORD PTR __imp_??1?$basic_string@DU?$char_traits@D@std@@V?$allocator@D@2@@std@@QAE@XZ
__unwindfunclet$?UserCmd_GiveCash@GiveCash@@YA_NIABV?$basic_string@GU?$char_traits@G@std@@V?$allocator@G@2@@std@@0PBG@Z$32:
	lea	ecx, DWORD PTR $T144160[ebp]
	jmp	DWORD PTR __imp_??1?$basic_string@DU?$char_traits@D@std@@V?$allocator@D@2@@std@@QAE@XZ
__unwindfunclet$?UserCmd_GiveCash@GiveCash@@YA_NIABV?$basic_string@GU?$char_traits@G@std@@V?$allocator@G@2@@std@@0PBG@Z$33:
	lea	ecx, DWORD PTR $T144161[ebp]
	jmp	DWORD PTR __imp_??1?$basic_string@GU?$char_traits@G@std@@V?$allocator@G@2@@std@@QAE@XZ
__unwindfunclet$?UserCmd_GiveCash@GiveCash@@YA_NIABV?$basic_string@GU?$char_traits@G@std@@V?$allocator@G@2@@std@@0PBG@Z$34:
	lea	ecx, DWORD PTR $T144162[ebp]
	jmp	DWORD PTR __imp_??1?$basic_string@DU?$char_traits@D@std@@V?$allocator@D@2@@std@@QAE@XZ
__unwindfunclet$?UserCmd_GiveCash@GiveCash@@YA_NIABV?$basic_string@GU?$char_traits@G@std@@V?$allocator@G@2@@std@@0PBG@Z$35:
	lea	ecx, DWORD PTR $T144163[ebp]
	jmp	DWORD PTR __imp_??1?$basic_string@DU?$char_traits@D@std@@V?$allocator@D@2@@std@@QAE@XZ
__unwindfunclet$?UserCmd_GiveCash@GiveCash@@YA_NIABV?$basic_string@GU?$char_traits@G@std@@V?$allocator@G@2@@std@@0PBG@Z$36:
	lea	ecx, DWORD PTR $T144164[ebp]
	jmp	DWORD PTR __imp_??1?$basic_string@GU?$char_traits@G@std@@V?$allocator@G@2@@std@@QAE@XZ
__unwindfunclet$?UserCmd_GiveCash@GiveCash@@YA_NIABV?$basic_string@GU?$char_traits@G@std@@V?$allocator@G@2@@std@@0PBG@Z$37:
	lea	ecx, DWORD PTR $T144165[ebp]
	jmp	DWORD PTR __imp_??1?$basic_string@DU?$char_traits@D@std@@V?$allocator@D@2@@std@@QAE@XZ
__unwindfunclet$?UserCmd_GiveCash@GiveCash@@YA_NIABV?$basic_string@GU?$char_traits@G@std@@V?$allocator@G@2@@std@@0PBG@Z$38:
	mov	ecx, DWORD PTR $T144167[ebp]
	jmp	DWORD PTR __imp_??1?$basic_string@GU?$char_traits@G@std@@V?$allocator@G@2@@std@@QAE@XZ
__unwindfunclet$?UserCmd_GiveCash@GiveCash@@YA_NIABV?$basic_string@GU?$char_traits@G@std@@V?$allocator@G@2@@std@@0PBG@Z$39:
	lea	ecx, DWORD PTR $T144168[ebp]
	jmp	DWORD PTR __imp_??1?$basic_string@GU?$char_traits@G@std@@V?$allocator@G@2@@std@@QAE@XZ
__unwindfunclet$?UserCmd_GiveCash@GiveCash@@YA_NIABV?$basic_string@GU?$char_traits@G@std@@V?$allocator@G@2@@std@@0PBG@Z$40:
	lea	ecx, DWORD PTR $T144169[ebp]
	jmp	DWORD PTR __imp_??1?$basic_string@DU?$char_traits@D@std@@V?$allocator@D@2@@std@@QAE@XZ
__unwindfunclet$?UserCmd_GiveCash@GiveCash@@YA_NIABV?$basic_string@GU?$char_traits@G@std@@V?$allocator@G@2@@std@@0PBG@Z$41:
	lea	ecx, DWORD PTR $T144170[ebp]
	jmp	DWORD PTR __imp_??1?$basic_string@DU?$char_traits@D@std@@V?$allocator@D@2@@std@@QAE@XZ
__unwindfunclet$?UserCmd_GiveCash@GiveCash@@YA_NIABV?$basic_string@GU?$char_traits@G@std@@V?$allocator@G@2@@std@@0PBG@Z$42:
	lea	ecx, DWORD PTR $T144171[ebp]
	jmp	DWORD PTR __imp_??1?$basic_string@GU?$char_traits@G@std@@V?$allocator@G@2@@std@@QAE@XZ
__unwindfunclet$?UserCmd_GiveCash@GiveCash@@YA_NIABV?$basic_string@GU?$char_traits@G@std@@V?$allocator@G@2@@std@@0PBG@Z$43:
	lea	ecx, DWORD PTR $T144172[ebp]
	jmp	DWORD PTR __imp_??1?$basic_string@DU?$char_traits@D@std@@V?$allocator@D@2@@std@@QAE@XZ
__unwindfunclet$?UserCmd_GiveCash@GiveCash@@YA_NIABV?$basic_string@GU?$char_traits@G@std@@V?$allocator@G@2@@std@@0PBG@Z$44:
	lea	ecx, DWORD PTR $T144173[ebp]
	jmp	DWORD PTR __imp_??1?$basic_string@DU?$char_traits@D@std@@V?$allocator@D@2@@std@@QAE@XZ
__unwindfunclet$?UserCmd_GiveCash@GiveCash@@YA_NIABV?$basic_string@GU?$char_traits@G@std@@V?$allocator@G@2@@std@@0PBG@Z$45:
	lea	ecx, DWORD PTR $T144174[ebp]
	jmp	DWORD PTR __imp_??1?$basic_string@GU?$char_traits@G@std@@V?$allocator@G@2@@std@@QAE@XZ
__unwindfunclet$?UserCmd_GiveCash@GiveCash@@YA_NIABV?$basic_string@GU?$char_traits@G@std@@V?$allocator@G@2@@std@@0PBG@Z$46:
	lea	ecx, DWORD PTR $T144175[ebp]
	jmp	DWORD PTR __imp_??1?$basic_string@DU?$char_traits@D@std@@V?$allocator@D@2@@std@@QAE@XZ
__unwindfunclet$?UserCmd_GiveCash@GiveCash@@YA_NIABV?$basic_string@GU?$char_traits@G@std@@V?$allocator@G@2@@std@@0PBG@Z$47:
	lea	ecx, DWORD PTR $T144178[ebp]
	jmp	DWORD PTR __imp_??1?$basic_string@GU?$char_traits@G@std@@V?$allocator@G@2@@std@@QAE@XZ
__unwindfunclet$?UserCmd_GiveCash@GiveCash@@YA_NIABV?$basic_string@GU?$char_traits@G@std@@V?$allocator@G@2@@std@@0PBG@Z$48:
	mov	ecx, DWORD PTR $T144177[ebp]
	jmp	DWORD PTR __imp_??1?$basic_string@GU?$char_traits@G@std@@V?$allocator@G@2@@std@@QAE@XZ
__unwindfunclet$?UserCmd_GiveCash@GiveCash@@YA_NIABV?$basic_string@GU?$char_traits@G@std@@V?$allocator@G@2@@std@@0PBG@Z$49:
	mov	ecx, DWORD PTR $T144180[ebp]
	jmp	DWORD PTR __imp_??1?$basic_string@GU?$char_traits@G@std@@V?$allocator@G@2@@std@@QAE@XZ
__unwindfunclet$?UserCmd_GiveCash@GiveCash@@YA_NIABV?$basic_string@GU?$char_traits@G@std@@V?$allocator@G@2@@std@@0PBG@Z$50:
	lea	ecx, DWORD PTR $T144181[ebp]
	jmp	DWORD PTR __imp_??1?$basic_string@GU?$char_traits@G@std@@V?$allocator@G@2@@std@@QAE@XZ
__unwindfunclet$?UserCmd_GiveCash@GiveCash@@YA_NIABV?$basic_string@GU?$char_traits@G@std@@V?$allocator@G@2@@std@@0PBG@Z$51:
	lea	ecx, DWORD PTR $T144182[ebp]
	jmp	DWORD PTR __imp_??1?$basic_string@DU?$char_traits@D@std@@V?$allocator@D@2@@std@@QAE@XZ
__unwindfunclet$?UserCmd_GiveCash@GiveCash@@YA_NIABV?$basic_string@GU?$char_traits@G@std@@V?$allocator@G@2@@std@@0PBG@Z$52:
	lea	ecx, DWORD PTR $T144183[ebp]
	jmp	DWORD PTR __imp_??1?$basic_string@DU?$char_traits@D@std@@V?$allocator@D@2@@std@@QAE@XZ
__unwindfunclet$?UserCmd_GiveCash@GiveCash@@YA_NIABV?$basic_string@GU?$char_traits@G@std@@V?$allocator@G@2@@std@@0PBG@Z$53:
	lea	ecx, DWORD PTR $T144184[ebp]
	jmp	DWORD PTR __imp_??1?$basic_string@GU?$char_traits@G@std@@V?$allocator@G@2@@std@@QAE@XZ
__unwindfunclet$?UserCmd_GiveCash@GiveCash@@YA_NIABV?$basic_string@GU?$char_traits@G@std@@V?$allocator@G@2@@std@@0PBG@Z$54:
	lea	ecx, DWORD PTR $T144185[ebp]
	jmp	DWORD PTR __imp_??1?$basic_string@DU?$char_traits@D@std@@V?$allocator@D@2@@std@@QAE@XZ
__unwindfunclet$?UserCmd_GiveCash@GiveCash@@YA_NIABV?$basic_string@GU?$char_traits@G@std@@V?$allocator@G@2@@std@@0PBG@Z$55:
	lea	ecx, DWORD PTR $T144186[ebp]
	jmp	DWORD PTR __imp_??1?$basic_string@DU?$char_traits@D@std@@V?$allocator@D@2@@std@@QAE@XZ
__unwindfunclet$?UserCmd_GiveCash@GiveCash@@YA_NIABV?$basic_string@GU?$char_traits@G@std@@V?$allocator@G@2@@std@@0PBG@Z$56:
	lea	ecx, DWORD PTR $T144187[ebp]
	jmp	DWORD PTR __imp_??1?$basic_string@GU?$char_traits@G@std@@V?$allocator@G@2@@std@@QAE@XZ
__unwindfunclet$?UserCmd_GiveCash@GiveCash@@YA_NIABV?$basic_string@GU?$char_traits@G@std@@V?$allocator@G@2@@std@@0PBG@Z$57:
	lea	ecx, DWORD PTR $T144188[ebp]
	jmp	DWORD PTR __imp_??1?$basic_string@DU?$char_traits@D@std@@V?$allocator@D@2@@std@@QAE@XZ
__unwindfunclet$?UserCmd_GiveCash@GiveCash@@YA_NIABV?$basic_string@GU?$char_traits@G@std@@V?$allocator@G@2@@std@@0PBG@Z$58:
	lea	ecx, DWORD PTR $T144191[ebp]
	jmp	DWORD PTR __imp_??1?$basic_string@GU?$char_traits@G@std@@V?$allocator@G@2@@std@@QAE@XZ
__unwindfunclet$?UserCmd_GiveCash@GiveCash@@YA_NIABV?$basic_string@GU?$char_traits@G@std@@V?$allocator@G@2@@std@@0PBG@Z$59:
	mov	ecx, DWORD PTR $T144190[ebp]
	jmp	DWORD PTR __imp_??1?$basic_string@GU?$char_traits@G@std@@V?$allocator@G@2@@std@@QAE@XZ
__unwindfunclet$?UserCmd_GiveCash@GiveCash@@YA_NIABV?$basic_string@GU?$char_traits@G@std@@V?$allocator@G@2@@std@@0PBG@Z$60:
	mov	ecx, DWORD PTR $T144193[ebp]
	jmp	DWORD PTR __imp_??1?$basic_string@GU?$char_traits@G@std@@V?$allocator@G@2@@std@@QAE@XZ
__unwindfunclet$?UserCmd_GiveCash@GiveCash@@YA_NIABV?$basic_string@GU?$char_traits@G@std@@V?$allocator@G@2@@std@@0PBG@Z$61:
	lea	ecx, DWORD PTR $T144194[ebp]
	jmp	DWORD PTR __imp_??1?$basic_string@GU?$char_traits@G@std@@V?$allocator@G@2@@std@@QAE@XZ
__unwindfunclet$?UserCmd_GiveCash@GiveCash@@YA_NIABV?$basic_string@GU?$char_traits@G@std@@V?$allocator@G@2@@std@@0PBG@Z$62:
	lea	ecx, DWORD PTR $T144195[ebp]
	jmp	DWORD PTR __imp_??1?$basic_string@DU?$char_traits@D@std@@V?$allocator@D@2@@std@@QAE@XZ
__unwindfunclet$?UserCmd_GiveCash@GiveCash@@YA_NIABV?$basic_string@GU?$char_traits@G@std@@V?$allocator@G@2@@std@@0PBG@Z$63:
	lea	ecx, DWORD PTR $T144196[ebp]
	jmp	DWORD PTR __imp_??1?$basic_string@DU?$char_traits@D@std@@V?$allocator@D@2@@std@@QAE@XZ
__unwindfunclet$?UserCmd_GiveCash@GiveCash@@YA_NIABV?$basic_string@GU?$char_traits@G@std@@V?$allocator@G@2@@std@@0PBG@Z$64:
	lea	ecx, DWORD PTR $T144197[ebp]
	jmp	DWORD PTR __imp_??1?$basic_string@GU?$char_traits@G@std@@V?$allocator@G@2@@std@@QAE@XZ
__unwindfunclet$?UserCmd_GiveCash@GiveCash@@YA_NIABV?$basic_string@GU?$char_traits@G@std@@V?$allocator@G@2@@std@@0PBG@Z$65:
	lea	ecx, DWORD PTR $T144198[ebp]
	jmp	DWORD PTR __imp_??1?$basic_string@DU?$char_traits@D@std@@V?$allocator@D@2@@std@@QAE@XZ
__unwindfunclet$?UserCmd_GiveCash@GiveCash@@YA_NIABV?$basic_string@GU?$char_traits@G@std@@V?$allocator@G@2@@std@@0PBG@Z$66:
	lea	ecx, DWORD PTR $T144199[ebp]
	jmp	DWORD PTR __imp_??1?$basic_string@DU?$char_traits@D@std@@V?$allocator@D@2@@std@@QAE@XZ
__unwindfunclet$?UserCmd_GiveCash@GiveCash@@YA_NIABV?$basic_string@GU?$char_traits@G@std@@V?$allocator@G@2@@std@@0PBG@Z$67:
	lea	ecx, DWORD PTR $T144200[ebp]
	jmp	DWORD PTR __imp_??1?$basic_string@GU?$char_traits@G@std@@V?$allocator@G@2@@std@@QAE@XZ
__unwindfunclet$?UserCmd_GiveCash@GiveCash@@YA_NIABV?$basic_string@GU?$char_traits@G@std@@V?$allocator@G@2@@std@@0PBG@Z$68:
	lea	ecx, DWORD PTR $T144201[ebp]
	jmp	DWORD PTR __imp_??1?$basic_string@DU?$char_traits@D@std@@V?$allocator@D@2@@std@@QAE@XZ
__unwindfunclet$?UserCmd_GiveCash@GiveCash@@YA_NIABV?$basic_string@GU?$char_traits@G@std@@V?$allocator@G@2@@std@@0PBG@Z$69:
	lea	ecx, DWORD PTR $T144203[ebp]
	jmp	DWORD PTR __imp_??1?$basic_string@GU?$char_traits@G@std@@V?$allocator@G@2@@std@@QAE@XZ
__unwindfunclet$?UserCmd_GiveCash@GiveCash@@YA_NIABV?$basic_string@GU?$char_traits@G@std@@V?$allocator@G@2@@std@@0PBG@Z$70:
	lea	ecx, DWORD PTR $T144204[ebp]
	jmp	DWORD PTR __imp_??1?$basic_string@DU?$char_traits@D@std@@V?$allocator@D@2@@std@@QAE@XZ
__unwindfunclet$?UserCmd_GiveCash@GiveCash@@YA_NIABV?$basic_string@GU?$char_traits@G@std@@V?$allocator@G@2@@std@@0PBG@Z$71:
	lea	ecx, DWORD PTR $T144205[ebp]
	jmp	DWORD PTR __imp_??1?$basic_string@GU?$char_traits@G@std@@V?$allocator@G@2@@std@@QAE@XZ
__unwindfunclet$?UserCmd_GiveCash@GiveCash@@YA_NIABV?$basic_string@GU?$char_traits@G@std@@V?$allocator@G@2@@std@@0PBG@Z$72:
	lea	ecx, DWORD PTR $T144206[ebp]
	jmp	DWORD PTR __imp_??1?$basic_string@DU?$char_traits@D@std@@V?$allocator@D@2@@std@@QAE@XZ
__unwindfunclet$?UserCmd_GiveCash@GiveCash@@YA_NIABV?$basic_string@GU?$char_traits@G@std@@V?$allocator@G@2@@std@@0PBG@Z$73:
	lea	ecx, DWORD PTR $T144207[ebp]
	jmp	DWORD PTR __imp_??1?$basic_string@GU?$char_traits@G@std@@V?$allocator@G@2@@std@@QAE@XZ
__unwindfunclet$?UserCmd_GiveCash@GiveCash@@YA_NIABV?$basic_string@GU?$char_traits@G@std@@V?$allocator@G@2@@std@@0PBG@Z$74:
	lea	ecx, DWORD PTR $T144208[ebp]
	jmp	DWORD PTR __imp_??1?$basic_string@DU?$char_traits@D@std@@V?$allocator@D@2@@std@@QAE@XZ
__unwindfunclet$?UserCmd_GiveCash@GiveCash@@YA_NIABV?$basic_string@GU?$char_traits@G@std@@V?$allocator@G@2@@std@@0PBG@Z$75:
	lea	ecx, DWORD PTR $T144209[ebp]
	jmp	DWORD PTR __imp_??1?$basic_string@DU?$char_traits@D@std@@V?$allocator@D@2@@std@@QAE@XZ
__unwindfunclet$?UserCmd_GiveCash@GiveCash@@YA_NIABV?$basic_string@GU?$char_traits@G@std@@V?$allocator@G@2@@std@@0PBG@Z$76:
	lea	ecx, DWORD PTR $T144210[ebp]
	jmp	DWORD PTR __imp_??1?$basic_string@GU?$char_traits@G@std@@V?$allocator@G@2@@std@@QAE@XZ
__unwindfunclet$?UserCmd_GiveCash@GiveCash@@YA_NIABV?$basic_string@GU?$char_traits@G@std@@V?$allocator@G@2@@std@@0PBG@Z$77:
	lea	ecx, DWORD PTR $T144211[ebp]
	jmp	DWORD PTR __imp_??1?$basic_string@DU?$char_traits@D@std@@V?$allocator@D@2@@std@@QAE@XZ
__unwindfunclet$?UserCmd_GiveCash@GiveCash@@YA_NIABV?$basic_string@GU?$char_traits@G@std@@V?$allocator@G@2@@std@@0PBG@Z$78:
	lea	ecx, DWORD PTR $T144212[ebp]
	jmp	DWORD PTR __imp_??1?$basic_string@DU?$char_traits@D@std@@V?$allocator@D@2@@std@@QAE@XZ
__unwindfunclet$?UserCmd_GiveCash@GiveCash@@YA_NIABV?$basic_string@GU?$char_traits@G@std@@V?$allocator@G@2@@std@@0PBG@Z$79:
	lea	ecx, DWORD PTR $T144213[ebp]
	jmp	DWORD PTR __imp_??1?$basic_string@GU?$char_traits@G@std@@V?$allocator@G@2@@std@@QAE@XZ
__unwindfunclet$?UserCmd_GiveCash@GiveCash@@YA_NIABV?$basic_string@GU?$char_traits@G@std@@V?$allocator@G@2@@std@@0PBG@Z$80:
	lea	ecx, DWORD PTR $T144214[ebp]
	jmp	DWORD PTR __imp_??1?$basic_string@DU?$char_traits@D@std@@V?$allocator@D@2@@std@@QAE@XZ
__unwindfunclet$?UserCmd_GiveCash@GiveCash@@YA_NIABV?$basic_string@GU?$char_traits@G@std@@V?$allocator@G@2@@std@@0PBG@Z$81:
	mov	ecx, DWORD PTR $T144215[ebp]
	jmp	DWORD PTR __imp_??1?$basic_string@GU?$char_traits@G@std@@V?$allocator@G@2@@std@@QAE@XZ
__unwindfunclet$?UserCmd_GiveCash@GiveCash@@YA_NIABV?$basic_string@GU?$char_traits@G@std@@V?$allocator@G@2@@std@@0PBG@Z$82:
	mov	eax, DWORD PTR $T144330[ebp]
	and	eax, 1
	je	$LN119@UserCmd_Gi
	and	DWORD PTR $T144330[ebp], -2		; fffffffeH
	lea	ecx, DWORD PTR $T144218[ebp]
	jmp	DWORD PTR __imp_??1?$basic_string@GU?$char_traits@G@std@@V?$allocator@G@2@@std@@QAE@XZ
$LN119@UserCmd_Gi:
	ret	0
__unwindfunclet$?UserCmd_GiveCash@GiveCash@@YA_NIABV?$basic_string@GU?$char_traits@G@std@@V?$allocator@G@2@@std@@0PBG@Z$83:
	lea	ecx, DWORD PTR $T144221[ebp]
	jmp	DWORD PTR __imp_??1?$basic_string@GU?$char_traits@G@std@@V?$allocator@G@2@@std@@QAE@XZ
__unwindfunclet$?UserCmd_GiveCash@GiveCash@@YA_NIABV?$basic_string@GU?$char_traits@G@std@@V?$allocator@G@2@@std@@0PBG@Z$84:
	lea	ecx, DWORD PTR $T144222[ebp]
	jmp	DWORD PTR __imp_??1?$basic_string@GU?$char_traits@G@std@@V?$allocator@G@2@@std@@QAE@XZ
__unwindfunclet$?UserCmd_GiveCash@GiveCash@@YA_NIABV?$basic_string@GU?$char_traits@G@std@@V?$allocator@G@2@@std@@0PBG@Z$85:
	lea	ecx, DWORD PTR $T144223[ebp]
	jmp	DWORD PTR __imp_??1?$basic_string@GU?$char_traits@G@std@@V?$allocator@G@2@@std@@QAE@XZ
__unwindfunclet$?UserCmd_GiveCash@GiveCash@@YA_NIABV?$basic_string@GU?$char_traits@G@std@@V?$allocator@G@2@@std@@0PBG@Z$86:
	lea	ecx, DWORD PTR _msg$[ebp]
	jmp	DWORD PTR __imp_??1?$basic_string@GU?$char_traits@G@std@@V?$allocator@G@2@@std@@QAE@XZ
__unwindfunclet$?UserCmd_GiveCash@GiveCash@@YA_NIABV?$basic_string@GU?$char_traits@G@std@@V?$allocator@G@2@@std@@0PBG@Z$87:
	mov	ecx, DWORD PTR $T144224[ebp]
	jmp	DWORD PTR __imp_??1?$basic_string@GU?$char_traits@G@std@@V?$allocator@G@2@@std@@QAE@XZ
__unwindfunclet$?UserCmd_GiveCash@GiveCash@@YA_NIABV?$basic_string@GU?$char_traits@G@std@@V?$allocator@G@2@@std@@0PBG@Z$88:
	mov	eax, DWORD PTR $T144330[ebp]
	and	eax, 2
	je	$LN127@UserCmd_Gi
	and	DWORD PTR $T144330[ebp], -3		; fffffffdH
	lea	ecx, DWORD PTR $T144226[ebp]
	jmp	DWORD PTR __imp_??1?$basic_string@GU?$char_traits@G@std@@V?$allocator@G@2@@std@@QAE@XZ
$LN127@UserCmd_Gi:
	ret	0
__unwindfunclet$?UserCmd_GiveCash@GiveCash@@YA_NIABV?$basic_string@GU?$char_traits@G@std@@V?$allocator@G@2@@std@@0PBG@Z$89:
	lea	ecx, DWORD PTR $T144229[ebp]
	jmp	DWORD PTR __imp_??1?$basic_string@GU?$char_traits@G@std@@V?$allocator@G@2@@std@@QAE@XZ
__unwindfunclet$?UserCmd_GiveCash@GiveCash@@YA_NIABV?$basic_string@GU?$char_traits@G@std@@V?$allocator@G@2@@std@@0PBG@Z$90:
	lea	ecx, DWORD PTR $T144230[ebp]
	jmp	DWORD PTR __imp_??1?$basic_string@GU?$char_traits@G@std@@V?$allocator@G@2@@std@@QAE@XZ
__unwindfunclet$?UserCmd_GiveCash@GiveCash@@YA_NIABV?$basic_string@GU?$char_traits@G@std@@V?$allocator@G@2@@std@@0PBG@Z$91:
	lea	ecx, DWORD PTR $T144231[ebp]
	jmp	DWORD PTR __imp_??1?$basic_string@GU?$char_traits@G@std@@V?$allocator@G@2@@std@@QAE@XZ
__unwindfunclet$?UserCmd_GiveCash@GiveCash@@YA_NIABV?$basic_string@GU?$char_traits@G@std@@V?$allocator@G@2@@std@@0PBG@Z$92:
	lea	ecx, DWORD PTR _msg$139452[ebp]
	jmp	DWORD PTR __imp_??1?$basic_string@GU?$char_traits@G@std@@V?$allocator@G@2@@std@@QAE@XZ
__unwindfunclet$?UserCmd_GiveCash@GiveCash@@YA_NIABV?$basic_string@GU?$char_traits@G@std@@V?$allocator@G@2@@std@@0PBG@Z$93:
	mov	ecx, DWORD PTR $T144232[ebp]
	jmp	DWORD PTR __imp_??1?$basic_string@GU?$char_traits@G@std@@V?$allocator@G@2@@std@@QAE@XZ
__unwindfunclet$?UserCmd_GiveCash@GiveCash@@YA_NIABV?$basic_string@GU?$char_traits@G@std@@V?$allocator@G@2@@std@@0PBG@Z$94:
	mov	ecx, DWORD PTR $T144233[ebp]
	jmp	DWORD PTR __imp_??1?$basic_string@GU?$char_traits@G@std@@V?$allocator@G@2@@std@@QAE@XZ
__unwindfunclet$?UserCmd_GiveCash@GiveCash@@YA_NIABV?$basic_string@GU?$char_traits@G@std@@V?$allocator@G@2@@std@@0PBG@Z$95:
	lea	ecx, DWORD PTR $T144234[ebp]
	jmp	DWORD PTR __imp_??1?$basic_string@GU?$char_traits@G@std@@V?$allocator@G@2@@std@@QAE@XZ
__unwindfunclet$?UserCmd_GiveCash@GiveCash@@YA_NIABV?$basic_string@GU?$char_traits@G@std@@V?$allocator@G@2@@std@@0PBG@Z$96:
	lea	ecx, DWORD PTR $T144235[ebp]
	jmp	DWORD PTR __imp_??1?$basic_string@DU?$char_traits@D@std@@V?$allocator@D@2@@std@@QAE@XZ
__unwindfunclet$?UserCmd_GiveCash@GiveCash@@YA_NIABV?$basic_string@GU?$char_traits@G@std@@V?$allocator@G@2@@std@@0PBG@Z$97:
	lea	ecx, DWORD PTR $T144236[ebp]
	jmp	DWORD PTR __imp_??1?$basic_string@DU?$char_traits@D@std@@V?$allocator@D@2@@std@@QAE@XZ
__unwindfunclet$?UserCmd_GiveCash@GiveCash@@YA_NIABV?$basic_string@GU?$char_traits@G@std@@V?$allocator@G@2@@std@@0PBG@Z$98:
	lea	ecx, DWORD PTR $T144237[ebp]
	jmp	DWORD PTR __imp_??1?$basic_string@GU?$char_traits@G@std@@V?$allocator@G@2@@std@@QAE@XZ
__unwindfunclet$?UserCmd_GiveCash@GiveCash@@YA_NIABV?$basic_string@GU?$char_traits@G@std@@V?$allocator@G@2@@std@@0PBG@Z$99:
	lea	ecx, DWORD PTR $T144238[ebp]
	jmp	DWORD PTR __imp_??1?$basic_string@DU?$char_traits@D@std@@V?$allocator@D@2@@std@@QAE@XZ
__unwindfunclet$?UserCmd_GiveCash@GiveCash@@YA_NIABV?$basic_string@GU?$char_traits@G@std@@V?$allocator@G@2@@std@@0PBG@Z$100:
	lea	ecx, DWORD PTR $T144239[ebp]
	jmp	DWORD PTR __imp_??1?$basic_string@DU?$char_traits@D@std@@V?$allocator@D@2@@std@@QAE@XZ
__unwindfunclet$?UserCmd_GiveCash@GiveCash@@YA_NIABV?$basic_string@GU?$char_traits@G@std@@V?$allocator@G@2@@std@@0PBG@Z$101:
	lea	ecx, DWORD PTR $T144240[ebp]
	jmp	DWORD PTR __imp_??1?$basic_string@GU?$char_traits@G@std@@V?$allocator@G@2@@std@@QAE@XZ
__unwindfunclet$?UserCmd_GiveCash@GiveCash@@YA_NIABV?$basic_string@GU?$char_traits@G@std@@V?$allocator@G@2@@std@@0PBG@Z$102:
	lea	ecx, DWORD PTR $T144241[ebp]
	jmp	DWORD PTR __imp_??1?$basic_string@DU?$char_traits@D@std@@V?$allocator@D@2@@std@@QAE@XZ
__unwindfunclet$?UserCmd_GiveCash@GiveCash@@YA_NIABV?$basic_string@GU?$char_traits@G@std@@V?$allocator@G@2@@std@@0PBG@Z$103:
	lea	ecx, DWORD PTR $T144242[ebp]
	jmp	DWORD PTR __imp_??1?$basic_string@GU?$char_traits@G@std@@V?$allocator@G@2@@std@@QAE@XZ
__unwindfunclet$?UserCmd_GiveCash@GiveCash@@YA_NIABV?$basic_string@GU?$char_traits@G@std@@V?$allocator@G@2@@std@@0PBG@Z$104:
	lea	ecx, DWORD PTR $T144243[ebp]
	jmp	DWORD PTR __imp_??1?$basic_string@GU?$char_traits@G@std@@V?$allocator@G@2@@std@@QAE@XZ
__unwindfunclet$?UserCmd_GiveCash@GiveCash@@YA_NIABV?$basic_string@GU?$char_traits@G@std@@V?$allocator@G@2@@std@@0PBG@Z$105:
	lea	ecx, DWORD PTR $T144244[ebp]
	jmp	DWORD PTR __imp_??1?$basic_string@GU?$char_traits@G@std@@V?$allocator@G@2@@std@@QAE@XZ
__unwindfunclet$?UserCmd_GiveCash@GiveCash@@YA_NIABV?$basic_string@GU?$char_traits@G@std@@V?$allocator@G@2@@std@@0PBG@Z$106:
	lea	ecx, DWORD PTR $T144245[ebp]
	jmp	DWORD PTR __imp_??1?$basic_string@GU?$char_traits@G@std@@V?$allocator@G@2@@std@@QAE@XZ
__unwindfunclet$?UserCmd_GiveCash@GiveCash@@YA_NIABV?$basic_string@GU?$char_traits@G@std@@V?$allocator@G@2@@std@@0PBG@Z$107:
	mov	ecx, DWORD PTR $T144246[ebp]
	jmp	DWORD PTR __imp_??1?$basic_string@GU?$char_traits@G@std@@V?$allocator@G@2@@std@@QAE@XZ
__ehhandler$?UserCmd_GiveCash@GiveCash@@YA_NIABV?$basic_string@GU?$char_traits@G@std@@V?$allocator@G@2@@std@@0PBG@Z:
	mov	edx, DWORD PTR [esp+8]
	lea	eax, DWORD PTR [edx+12]
	mov	ecx, DWORD PTR [edx-3404]
	xor	ecx, eax
	call	@__security_check_cookie@4
	mov	ecx, DWORD PTR [edx-16]
	xor	ecx, eax
	call	@__security_check_cookie@4
	mov	eax, OFFSET __ehfuncinfo$?UserCmd_GiveCash@GiveCash@@YA_NIABV?$basic_string@GU?$char_traits@G@std@@V?$allocator@G@2@@std@@0PBG@Z
	jmp	___CxxFrameHandler3
text$x	ENDS
?UserCmd_GiveCash@GiveCash@@YA_NIABV?$basic_string@GU?$char_traits@G@std@@V?$allocator@G@2@@std@@0PBG@Z ENDP ; GiveCash::UserCmd_GiveCash
PUBLIC	__$ArrayPad$
EXTRN	__imp__fprintf:PROC
EXTRN	__imp_??A?$basic_string@GU?$char_traits@G@std@@V?$allocator@G@2@@std@@QAEAAGI@Z:PROC
xdata$x	SEGMENT
__catchsym$?LogTransfer@GiveCash@@YAXV?$basic_string@GU?$char_traits@G@std@@V?$allocator@G@2@@std@@0@Z$6 DD 00H
	DD	00H
	DD	00H
	DD	FLAT:__catch$?LogTransfer@GiveCash@@YAXV?$basic_string@GU?$char_traits@G@std@@V?$allocator@G@2@@std@@0@Z$0
__tryblocktable$?LogTransfer@GiveCash@@YAXV?$basic_string@GU?$char_traits@G@std@@V?$allocator@G@2@@std@@0@Z DD 04H
	DD	04H
	DD	05H
	DD	01H
	DD	FLAT:__catchsym$?LogTransfer@GiveCash@@YAXV?$basic_string@GU?$char_traits@G@std@@V?$allocator@G@2@@std@@0@Z$6
__ehfuncinfo$?LogTransfer@GiveCash@@YAXV?$basic_string@GU?$char_traits@G@std@@V?$allocator@G@2@@std@@0@Z DD 019930522H
	DD	06H
	DD	FLAT:__unwindtable$?LogTransfer@GiveCash@@YAXV?$basic_string@GU?$char_traits@G@std@@V?$allocator@G@2@@std@@0@Z
	DD	01H
	DD	FLAT:__tryblocktable$?LogTransfer@GiveCash@@YAXV?$basic_string@GU?$char_traits@G@std@@V?$allocator@G@2@@std@@0@Z
	DD	2 DUP(00H)
	DD	00H
	DD	00H
__unwindtable$?LogTransfer@GiveCash@@YAXV?$basic_string@GU?$char_traits@G@std@@V?$allocator@G@2@@std@@0@Z DD 0ffffffffH
	DD	FLAT:__unwindfunclet$?LogTransfer@GiveCash@@YAXV?$basic_string@GU?$char_traits@G@std@@V?$allocator@G@2@@std@@0@Z$2
	DD	00H
	DD	FLAT:__unwindfunclet$?LogTransfer@GiveCash@@YAXV?$basic_string@GU?$char_traits@G@std@@V?$allocator@G@2@@std@@0@Z$3
	DD	01H
	DD	FLAT:__unwindfunclet$?LogTransfer@GiveCash@@YAXV?$basic_string@GU?$char_traits@G@std@@V?$allocator@G@2@@std@@0@Z$4
	DD	02H
	DD	FLAT:__unwindfunclet$?LogTransfer@GiveCash@@YAXV?$basic_string@GU?$char_traits@G@std@@V?$allocator@G@2@@std@@0@Z$5
	DD	02H
	DD	00H
	DD	02H
	DD	00H
; Function compile flags: /Odtp
xdata$x	ENDS
_TEXT	SEGMENT
$T144373 = -88						; size = 28
$T144372 = -59						; size = 1
_cHiByte$139202 = -58					; size = 1
_cLoByte$139203 = -57					; size = 1
_i$139198 = -56						; size = 4
_logFile$ = -52						; size = 28
_f$ = -24						; size = 4
__$ArrayPad$ = -20					; size = 4
__$EHRec$ = -16						; size = 16
_wscToCharname$ = 8					; size = 28
_msg$ = 36						; size = 28
?LogTransfer@GiveCash@@YAXV?$basic_string@GU?$char_traits@G@std@@V?$allocator@G@2@@std@@0@Z PROC ; GiveCash::LogTransfer
; Line 88
	push	ebp
	mov	ebp, esp
	push	-1
	push	__ehhandler$?LogTransfer@GiveCash@@YAXV?$basic_string@GU?$char_traits@G@std@@V?$allocator@G@2@@std@@0@Z
	mov	eax, DWORD PTR fs:0
	push	eax
	push	ecx
	sub	esp, 72					; 00000048H
	mov	eax, DWORD PTR ___security_cookie
	xor	eax, ebp
	mov	DWORD PTR __$ArrayPad$[ebp], eax
	push	ebx
	push	esi
	push	edi
	push	eax
	lea	eax, DWORD PTR __$EHRec$[ebp+4]
	mov	DWORD PTR fs:0, eax
	mov	DWORD PTR __$EHRec$[ebp], esp
	mov	DWORD PTR __$EHRec$[ebp+12], 1
; Line 89
	lea	ecx, DWORD PTR _logFile$[ebp]
	call	DWORD PTR __imp_??0?$basic_string@DU?$char_traits@D@std@@V?$allocator@D@2@@std@@QAE@XZ
	mov	BYTE PTR __$EHRec$[ebp+12], 2
; Line 90
	push	OFFSET $SG139193
	lea	ecx, DWORD PTR $T144373[ebp]
	call	DWORD PTR __imp_??0?$basic_string@DU?$char_traits@D@std@@V?$allocator@D@2@@std@@QAE@PBD@Z
	mov	BYTE PTR __$EHRec$[ebp+12], 3
	lea	eax, DWORD PTR $T144373[ebp]
	push	eax
	lea	ecx, DWORD PTR _wscToCharname$[ebp]
	push	ecx
	lea	edx, DWORD PTR _logFile$[ebp]
	push	edx
	call	?GetUserFilePath@@YA_NAAV?$basic_string@DU?$char_traits@D@std@@V?$allocator@D@2@@std@@ABV?$basic_string@GU?$char_traits@G@std@@V?$allocator@G@2@@2@ABV12@@Z ; GetUserFilePath
	add	esp, 12					; 0000000cH
	movzx	eax, al
	neg	eax
	sbb	eax, eax
	add	eax, 1
	mov	BYTE PTR $T144372[ebp], al
	mov	BYTE PTR __$EHRec$[ebp+12], 2
	lea	ecx, DWORD PTR $T144373[ebp]
	call	DWORD PTR __imp_??1?$basic_string@DU?$char_traits@D@std@@V?$allocator@D@2@@std@@QAE@XZ
	movzx	ecx, BYTE PTR $T144372[ebp]
	test	ecx, ecx
	je	SHORT $LN6@LogTransfe
; Line 91
	mov	BYTE PTR __$EHRec$[ebp+12], 1
	lea	ecx, DWORD PTR _logFile$[ebp]
	call	DWORD PTR __imp_??1?$basic_string@DU?$char_traits@D@std@@V?$allocator@D@2@@std@@QAE@XZ
	mov	BYTE PTR __$EHRec$[ebp+12], 0
	lea	ecx, DWORD PTR _wscToCharname$[ebp]
	call	DWORD PTR __imp_??1?$basic_string@GU?$char_traits@G@std@@V?$allocator@G@2@@std@@QAE@XZ
	mov	DWORD PTR __$EHRec$[ebp+12], -1
	lea	ecx, DWORD PTR _msg$[ebp]
	call	DWORD PTR __imp_??1?$basic_string@GU?$char_traits@G@std@@V?$allocator@G@2@@std@@QAE@XZ
	jmp	$LN7@LogTransfe
$LN6@LogTransfe:
; Line 92
	push	OFFSET $SG139195
	lea	ecx, DWORD PTR _logFile$[ebp]
	call	DWORD PTR __imp_?c_str@?$basic_string@DU?$char_traits@D@std@@V?$allocator@D@2@@std@@QBEPBDXZ
	push	eax
	call	DWORD PTR __imp__fopen
	add	esp, 8
	mov	DWORD PTR _f$[ebp], eax
; Line 93
	cmp	DWORD PTR _f$[ebp], 0
	jne	SHORT $LN5@LogTransfe
; Line 94
	mov	BYTE PTR __$EHRec$[ebp+12], 1
	lea	ecx, DWORD PTR _logFile$[ebp]
	call	DWORD PTR __imp_??1?$basic_string@DU?$char_traits@D@std@@V?$allocator@D@2@@std@@QAE@XZ
	mov	BYTE PTR __$EHRec$[ebp+12], 0
	lea	ecx, DWORD PTR _wscToCharname$[ebp]
	call	DWORD PTR __imp_??1?$basic_string@GU?$char_traits@G@std@@V?$allocator@G@2@@std@@QAE@XZ
	mov	DWORD PTR __$EHRec$[ebp+12], -1
	lea	ecx, DWORD PTR _msg$[ebp]
	call	DWORD PTR __imp_??1?$basic_string@GU?$char_traits@G@std@@V?$allocator@G@2@@std@@QAE@XZ
	jmp	$LN7@LogTransfe
$LN5@LogTransfe:
; Line 97
	mov	BYTE PTR __$EHRec$[ebp+12], 4
; Line 98
	mov	DWORD PTR _i$139198[ebp], 0
	jmp	SHORT $LN3@LogTransfe
$LN2@LogTransfe:
	mov	edx, DWORD PTR _i$139198[ebp]
	add	edx, 1
	mov	DWORD PTR _i$139198[ebp], edx
$LN3@LogTransfe:
	lea	ecx, DWORD PTR _msg$[ebp]
	call	DWORD PTR __imp_?length@?$basic_string@GU?$char_traits@G@std@@V?$allocator@G@2@@std@@QBEIXZ
	cmp	DWORD PTR _i$139198[ebp], eax
	jae	SHORT $LN1@LogTransfe
; Line 100
	mov	eax, DWORD PTR _i$139198[ebp]
	push	eax
	lea	ecx, DWORD PTR _msg$[ebp]
	call	DWORD PTR __imp_??A?$basic_string@GU?$char_traits@G@std@@V?$allocator@G@2@@std@@QAEAAGI@Z
	movzx	ecx, WORD PTR [eax]
	sar	ecx, 8
	mov	BYTE PTR _cHiByte$139202[ebp], cl
; Line 101
	mov	edx, DWORD PTR _i$139198[ebp]
	push	edx
	lea	ecx, DWORD PTR _msg$[ebp]
	call	DWORD PTR __imp_??A?$basic_string@GU?$char_traits@G@std@@V?$allocator@G@2@@std@@QAEAAGI@Z
	movzx	eax, WORD PTR [eax]
	and	eax, 255				; 000000ffH
	mov	BYTE PTR _cLoByte$139203[ebp], al
; Line 102
	movsx	ecx, BYTE PTR _cLoByte$139203[ebp]
	and	ecx, 255				; 000000ffH
	push	ecx
	movsx	edx, BYTE PTR _cHiByte$139202[ebp]
	and	edx, 255				; 000000ffH
	push	edx
	push	OFFSET $SG139206
	mov	eax, DWORD PTR _f$[ebp]
	push	eax
	call	DWORD PTR __imp__fprintf
	add	esp, 16					; 00000010H
; Line 103
	jmp	SHORT $LN2@LogTransfe
$LN1@LogTransfe:
; Line 104
	push	OFFSET $SG139207
	mov	ecx, DWORD PTR _f$[ebp]
	push	ecx
	call	DWORD PTR __imp__fprintf
	add	esp, 8
	jmp	SHORT $LN9@LogTransfe
__catch$?LogTransfer@GiveCash@@YAXV?$basic_string@GU?$char_traits@G@std@@V?$allocator@G@2@@std@@0@Z$0:
; Line 106
	mov	DWORD PTR __$EHRec$[ebp+12], 2
	mov	eax, __tryend$?LogTransfer@GiveCash@@YAXV?$basic_string@GU?$char_traits@G@std@@V?$allocator@G@2@@std@@0@Z$1
	ret	0
$LN9@LogTransfe:
	mov	DWORD PTR __$EHRec$[ebp+12], 2
__tryend$?LogTransfer@GiveCash@@YAXV?$basic_string@GU?$char_traits@G@std@@V?$allocator@G@2@@std@@0@Z$1:
; Line 107
	mov	edx, DWORD PTR _f$[ebp]
	push	edx
	call	DWORD PTR __imp__fclose
	add	esp, 4
; Line 108
	mov	BYTE PTR __$EHRec$[ebp+12], 1
	lea	ecx, DWORD PTR _logFile$[ebp]
	call	DWORD PTR __imp_??1?$basic_string@DU?$char_traits@D@std@@V?$allocator@D@2@@std@@QAE@XZ
	mov	BYTE PTR __$EHRec$[ebp+12], 0
	lea	ecx, DWORD PTR _wscToCharname$[ebp]
	call	DWORD PTR __imp_??1?$basic_string@GU?$char_traits@G@std@@V?$allocator@G@2@@std@@QAE@XZ
	mov	DWORD PTR __$EHRec$[ebp+12], -1
	lea	ecx, DWORD PTR _msg$[ebp]
	call	DWORD PTR __imp_??1?$basic_string@GU?$char_traits@G@std@@V?$allocator@G@2@@std@@QAE@XZ
	jmp	SHORT $LN7@LogTransfe
; Line 109
	mov	BYTE PTR __$EHRec$[ebp+12], 0
	lea	ecx, DWORD PTR _wscToCharname$[ebp]
	call	DWORD PTR __imp_??1?$basic_string@GU?$char_traits@G@std@@V?$allocator@G@2@@std@@QAE@XZ
	mov	DWORD PTR __$EHRec$[ebp+12], -1
	lea	ecx, DWORD PTR _msg$[ebp]
	call	DWORD PTR __imp_??1?$basic_string@GU?$char_traits@G@std@@V?$allocator@G@2@@std@@QAE@XZ
$LN7@LogTransfe:
	mov	ecx, DWORD PTR __$EHRec$[ebp+4]
	mov	DWORD PTR fs:0, ecx
	pop	ecx
	pop	edi
	pop	esi
	pop	ebx
	mov	ecx, DWORD PTR __$ArrayPad$[ebp]
	xor	ecx, ebp
	call	@__security_check_cookie@4
	mov	esp, ebp
	pop	ebp
	ret	0
_TEXT	ENDS
text$x	SEGMENT
__unwindfunclet$?LogTransfer@GiveCash@@YAXV?$basic_string@GU?$char_traits@G@std@@V?$allocator@G@2@@std@@0@Z$2:
	lea	ecx, DWORD PTR _msg$[ebp]
	jmp	DWORD PTR __imp_??1?$basic_string@GU?$char_traits@G@std@@V?$allocator@G@2@@std@@QAE@XZ
__unwindfunclet$?LogTransfer@GiveCash@@YAXV?$basic_string@GU?$char_traits@G@std@@V?$allocator@G@2@@std@@0@Z$3:
	lea	ecx, DWORD PTR _wscToCharname$[ebp]
	jmp	DWORD PTR __imp_??1?$basic_string@GU?$char_traits@G@std@@V?$allocator@G@2@@std@@QAE@XZ
__unwindfunclet$?LogTransfer@GiveCash@@YAXV?$basic_string@GU?$char_traits@G@std@@V?$allocator@G@2@@std@@0@Z$4:
	lea	ecx, DWORD PTR _logFile$[ebp]
	jmp	DWORD PTR __imp_??1?$basic_string@DU?$char_traits@D@std@@V?$allocator@D@2@@std@@QAE@XZ
__unwindfunclet$?LogTransfer@GiveCash@@YAXV?$basic_string@GU?$char_traits@G@std@@V?$allocator@G@2@@std@@0@Z$5:
	lea	ecx, DWORD PTR $T144373[ebp]
	jmp	DWORD PTR __imp_??1?$basic_string@DU?$char_traits@D@std@@V?$allocator@D@2@@std@@QAE@XZ
__ehhandler$?LogTransfer@GiveCash@@YAXV?$basic_string@GU?$char_traits@G@std@@V?$allocator@G@2@@std@@0@Z:
	mov	edx, DWORD PTR [esp+8]
	lea	eax, DWORD PTR [edx+12]
	mov	ecx, DWORD PTR [edx-92]
	xor	ecx, eax
	call	@__security_check_cookie@4
	mov	ecx, DWORD PTR [edx-8]
	xor	ecx, eax
	call	@__security_check_cookie@4
	mov	eax, OFFSET __ehfuncinfo$?LogTransfer@GiveCash@@YAXV?$basic_string@GU?$char_traits@G@std@@V?$allocator@G@2@@std@@0@Z
	jmp	___CxxFrameHandler3
text$x	ENDS
?LogTransfer@GiveCash@@YAXV?$basic_string@GU?$char_traits@G@std@@V?$allocator@G@2@@std@@0@Z ENDP ; GiveCash::LogTransfer
PUBLIC	__$ArrayPad$
EXTRN	__imp_?GetSystemID@pub@@YAHAAIPBD@Z:PROC
EXTRN	__imp_?HkFLIniGet@@YA?AW4HK_ERROR@@ABV?$basic_string@GU?$char_traits@G@std@@V?$allocator@G@2@@std@@0AAV23@@Z:PROC
EXTRN	__imp_??0?$basic_string@GU?$char_traits@G@std@@V?$allocator@G@2@@std@@QAE@XZ:PROC
EXTRN	__imp_?GetSystem@Player@pub@@YAHABIAAI@Z:PROC
xdata$x	SEGMENT
__unwindtable$?InBlockedSystem@GiveCash@@YA_NABV?$basic_string@GU?$char_traits@G@std@@V?$allocator@G@2@@std@@@Z DD 0ffffffffH
	DD	FLAT:__unwindfunclet$?InBlockedSystem@GiveCash@@YA_NABV?$basic_string@GU?$char_traits@G@std@@V?$allocator@G@2@@std@@@Z$0
	DD	00H
	DD	FLAT:__unwindfunclet$?InBlockedSystem@GiveCash@@YA_NABV?$basic_string@GU?$char_traits@G@std@@V?$allocator@G@2@@std@@@Z$1
	DD	00H
	DD	FLAT:__unwindfunclet$?InBlockedSystem@GiveCash@@YA_NABV?$basic_string@GU?$char_traits@G@std@@V?$allocator@G@2@@std@@@Z$2
__ehfuncinfo$?InBlockedSystem@GiveCash@@YA_NABV?$basic_string@GU?$char_traits@G@std@@V?$allocator@G@2@@std@@@Z DD 019930522H
	DD	03H
	DD	FLAT:__unwindtable$?InBlockedSystem@GiveCash@@YA_NABV?$basic_string@GU?$char_traits@G@std@@V?$allocator@G@2@@std@@@Z
	DD	2 DUP(00H)
	DD	2 DUP(00H)
	DD	00H
	DD	00H
; Function compile flags: /Odtp
xdata$x	ENDS
_TEXT	SEGMENT
tv133 = -132						; size = 4
tv77 = -128						; size = 4
$T144396 = -122						; size = 1
$T144395 = -121						; size = 1
$T144394 = -120						; size = 28
$T144393 = -89						; size = 1
$T144392 = -88						; size = 28
$T144391 = -57						; size = 1
_iSystem$139214 = -56					; size = 4
_iClientID$ = -52					; size = 4
_wscSystemNick$ = -48					; size = 28
__$ArrayPad$ = -20					; size = 4
_iSystem$ = -16						; size = 4
__$EHRec$ = -12						; size = 12
_wscCharname$ = 8					; size = 4
?InBlockedSystem@GiveCash@@YA_NABV?$basic_string@GU?$char_traits@G@std@@V?$allocator@G@2@@std@@@Z PROC ; GiveCash::InBlockedSystem
; Line 113
	push	ebp
	mov	ebp, esp
	push	-1
	push	__ehhandler$?InBlockedSystem@GiveCash@@YA_NABV?$basic_string@GU?$char_traits@G@std@@V?$allocator@G@2@@std@@@Z
	mov	eax, DWORD PTR fs:0
	push	eax
	sub	esp, 120				; 00000078H
	mov	eax, DWORD PTR ___security_cookie
	xor	eax, ebp
	mov	DWORD PTR __$ArrayPad$[ebp], eax
	push	eax
	lea	eax, DWORD PTR __$EHRec$[ebp]
	mov	DWORD PTR fs:0, eax
; Line 115
	cmp	DWORD PTR _set_iBlockedSystem, 0
	jne	SHORT $LN5@InBlockedS
; Line 116
	xor	al, al
	jmp	$LN6@InBlockedS
$LN5@InBlockedS:
; Line 119
	mov	eax, DWORD PTR _wscCharname$[ebp]
	push	eax
	call	DWORD PTR __imp_?HkGetClientIdFromCharname@@YAIABV?$basic_string@GU?$char_traits@G@std@@V?$allocator@G@2@@std@@@Z
	add	esp, 4
	mov	DWORD PTR _iClientID$[ebp], eax
; Line 120
	cmp	DWORD PTR _iClientID$[ebp], -1
	je	SHORT $LN4@InBlockedS
; Line 122
	mov	DWORD PTR _iSystem$139214[ebp], 0
; Line 123
	lea	ecx, DWORD PTR _iSystem$139214[ebp]
	push	ecx
	lea	edx, DWORD PTR _iClientID$[ebp]
	push	edx
	call	DWORD PTR __imp_?GetSystem@Player@pub@@YAHABIAAI@Z
	add	esp, 8
; Line 124
	mov	eax, DWORD PTR _iSystem$139214[ebp]
	cmp	eax, DWORD PTR _set_iBlockedSystem
	jne	SHORT $LN3@InBlockedS
; Line 125
	mov	al, 1
	jmp	$LN6@InBlockedS
$LN3@InBlockedS:
; Line 126
	xor	al, al
	jmp	$LN6@InBlockedS
$LN4@InBlockedS:
; Line 130
	lea	ecx, DWORD PTR _wscSystemNick$[ebp]
	call	DWORD PTR __imp_??0?$basic_string@GU?$char_traits@G@std@@V?$allocator@G@2@@std@@QAE@XZ
	mov	DWORD PTR __$EHRec$[ebp+8], 0
; Line 131
	push	OFFSET $SG139220
	lea	ecx, DWORD PTR $T144392[ebp]
	call	DWORD PTR __imp_??0?$basic_string@GU?$char_traits@G@std@@V?$allocator@G@2@@std@@QAE@PBG@Z
	mov	BYTE PTR __$EHRec$[ebp+8], 1
	lea	ecx, DWORD PTR _wscSystemNick$[ebp]
	push	ecx
	lea	edx, DWORD PTR $T144392[ebp]
	push	edx
	mov	eax, DWORD PTR _wscCharname$[ebp]
	push	eax
	call	DWORD PTR __imp_?HkFLIniGet@@YA?AW4HK_ERROR@@ABV?$basic_string@GU?$char_traits@G@std@@V?$allocator@G@2@@std@@0AAV23@@Z
	add	esp, 12					; 0000000cH
	neg	eax
	sbb	eax, eax
	neg	eax
	mov	BYTE PTR $T144391[ebp], al
	mov	BYTE PTR __$EHRec$[ebp+8], 0
	lea	ecx, DWORD PTR $T144392[ebp]
	call	DWORD PTR __imp_??1?$basic_string@GU?$char_traits@G@std@@V?$allocator@G@2@@std@@QAE@XZ
	movzx	ecx, BYTE PTR $T144391[ebp]
	test	ecx, ecx
	je	SHORT $LN2@InBlockedS
; Line 132
	mov	BYTE PTR $T144393[ebp], 0
	mov	DWORD PTR __$EHRec$[ebp+8], -1
	lea	ecx, DWORD PTR _wscSystemNick$[ebp]
	call	DWORD PTR __imp_??1?$basic_string@GU?$char_traits@G@std@@V?$allocator@G@2@@std@@QAE@XZ
	mov	al, BYTE PTR $T144393[ebp]
	jmp	$LN6@InBlockedS
$LN2@InBlockedS:
; Line 134
	mov	DWORD PTR _iSystem$[ebp], 0
; Line 135
	lea	edx, DWORD PTR _wscSystemNick$[ebp]
	push	edx
	lea	eax, DWORD PTR $T144394[ebp]
	push	eax
	call	DWORD PTR __imp_?wstos@@YA?AV?$basic_string@DU?$char_traits@D@std@@V?$allocator@D@2@@std@@ABV?$basic_string@GU?$char_traits@G@std@@V?$allocator@G@2@@2@@Z
	add	esp, 8
	mov	DWORD PTR tv77[ebp], eax
	mov	ecx, DWORD PTR tv77[ebp]
	mov	DWORD PTR tv133[ebp], ecx
	mov	BYTE PTR __$EHRec$[ebp+8], 2
	mov	ecx, DWORD PTR tv133[ebp]
	call	DWORD PTR __imp_?c_str@?$basic_string@DU?$char_traits@D@std@@V?$allocator@D@2@@std@@QBEPBDXZ
	push	eax
	lea	edx, DWORD PTR _iSystem$[ebp]
	push	edx
	call	DWORD PTR __imp_?GetSystemID@pub@@YAHAAIPBD@Z
	add	esp, 8
	mov	BYTE PTR __$EHRec$[ebp+8], 0
	lea	ecx, DWORD PTR $T144394[ebp]
	call	DWORD PTR __imp_??1?$basic_string@DU?$char_traits@D@std@@V?$allocator@D@2@@std@@QAE@XZ
; Line 136
	mov	eax, DWORD PTR _iSystem$[ebp]
	cmp	eax, DWORD PTR _set_iBlockedSystem
	jne	SHORT $LN1@InBlockedS
; Line 137
	mov	BYTE PTR $T144395[ebp], 1
	mov	DWORD PTR __$EHRec$[ebp+8], -1
	lea	ecx, DWORD PTR _wscSystemNick$[ebp]
	call	DWORD PTR __imp_??1?$basic_string@GU?$char_traits@G@std@@V?$allocator@G@2@@std@@QAE@XZ
	mov	al, BYTE PTR $T144395[ebp]
	jmp	SHORT $LN6@InBlockedS
$LN1@InBlockedS:
; Line 138
	mov	BYTE PTR $T144396[ebp], 0
	mov	DWORD PTR __$EHRec$[ebp+8], -1
	lea	ecx, DWORD PTR _wscSystemNick$[ebp]
	call	DWORD PTR __imp_??1?$basic_string@GU?$char_traits@G@std@@V?$allocator@G@2@@std@@QAE@XZ
	mov	al, BYTE PTR $T144396[ebp]
$LN6@InBlockedS:
; Line 139
	mov	ecx, DWORD PTR __$EHRec$[ebp]
	mov	DWORD PTR fs:0, ecx
	pop	ecx
	mov	ecx, DWORD PTR __$ArrayPad$[ebp]
	xor	ecx, ebp
	call	@__security_check_cookie@4
	mov	esp, ebp
	pop	ebp
	ret	0
_TEXT	ENDS
text$x	SEGMENT
__unwindfunclet$?InBlockedSystem@GiveCash@@YA_NABV?$basic_string@GU?$char_traits@G@std@@V?$allocator@G@2@@std@@@Z$0:
	lea	ecx, DWORD PTR _wscSystemNick$[ebp]
	jmp	DWORD PTR __imp_??1?$basic_string@GU?$char_traits@G@std@@V?$allocator@G@2@@std@@QAE@XZ
__unwindfunclet$?InBlockedSystem@GiveCash@@YA_NABV?$basic_string@GU?$char_traits@G@std@@V?$allocator@G@2@@std@@@Z$1:
	lea	ecx, DWORD PTR $T144392[ebp]
	jmp	DWORD PTR __imp_??1?$basic_string@GU?$char_traits@G@std@@V?$allocator@G@2@@std@@QAE@XZ
__unwindfunclet$?InBlockedSystem@GiveCash@@YA_NABV?$basic_string@GU?$char_traits@G@std@@V?$allocator@G@2@@std@@@Z$2:
	lea	ecx, DWORD PTR $T144394[ebp]
	jmp	DWORD PTR __imp_??1?$basic_string@DU?$char_traits@D@std@@V?$allocator@D@2@@std@@QAE@XZ
__ehhandler$?InBlockedSystem@GiveCash@@YA_NABV?$basic_string@GU?$char_traits@G@std@@V?$allocator@G@2@@std@@@Z:
	mov	edx, DWORD PTR [esp+8]
	lea	eax, DWORD PTR [edx+12]
	mov	ecx, DWORD PTR [edx-124]
	xor	ecx, eax
	call	@__security_check_cookie@4
	mov	ecx, DWORD PTR [edx-8]
	xor	ecx, eax
	call	@__security_check_cookie@4
	mov	eax, OFFSET __ehfuncinfo$?InBlockedSystem@GiveCash@@YA_NABV?$basic_string@GU?$char_traits@G@std@@V?$allocator@G@2@@std@@@Z
	jmp	___CxxFrameHandler3
text$x	ENDS
?InBlockedSystem@GiveCash@@YA_NABV?$basic_string@GU?$char_traits@G@std@@V?$allocator@G@2@@std@@@Z ENDP ; GiveCash::InBlockedSystem
PUBLIC	__$ArrayPad$
PUBLIC	?UserCmd_SetCashCode@GiveCash@@YA_NIABV?$basic_string@GU?$char_traits@G@std@@V?$allocator@G@2@@std@@0PBG@Z ; GiveCash::UserCmd_SetCashCode
EXTRN	__imp_?IniWriteW@@YAXABV?$basic_string@DU?$char_traits@D@std@@V?$allocator@D@2@@std@@00ABV?$basic_string@GU?$char_traits@G@std@@V?$allocator@G@2@@2@@Z:PROC
xdata$x	SEGMENT
__ehfuncinfo$?UserCmd_SetCashCode@GiveCash@@YA_NIABV?$basic_string@GU?$char_traits@G@std@@V?$allocator@G@2@@std@@0PBG@Z DD 019930522H
	DD	0dH
	DD	FLAT:__unwindtable$?UserCmd_SetCashCode@GiveCash@@YA_NIABV?$basic_string@GU?$char_traits@G@std@@V?$allocator@G@2@@std@@0PBG@Z
	DD	2 DUP(00H)
	DD	2 DUP(00H)
	DD	00H
	DD	00H
__unwindtable$?UserCmd_SetCashCode@GiveCash@@YA_NIABV?$basic_string@GU?$char_traits@G@std@@V?$allocator@G@2@@std@@0PBG@Z DD 0ffffffffH
	DD	FLAT:__unwindfunclet$?UserCmd_SetCashCode@GiveCash@@YA_NIABV?$basic_string@GU?$char_traits@G@std@@V?$allocator@G@2@@std@@0PBG@Z$0
	DD	00H
	DD	FLAT:__unwindfunclet$?UserCmd_SetCashCode@GiveCash@@YA_NIABV?$basic_string@GU?$char_traits@G@std@@V?$allocator@G@2@@std@@0PBG@Z$1
	DD	01H
	DD	FLAT:__unwindfunclet$?UserCmd_SetCashCode@GiveCash@@YA_NIABV?$basic_string@GU?$char_traits@G@std@@V?$allocator@G@2@@std@@0PBG@Z$2
	DD	01H
	DD	FLAT:__unwindfunclet$?UserCmd_SetCashCode@GiveCash@@YA_NIABV?$basic_string@GU?$char_traits@G@std@@V?$allocator@G@2@@std@@0PBG@Z$3
	DD	03H
	DD	FLAT:__unwindfunclet$?UserCmd_SetCashCode@GiveCash@@YA_NIABV?$basic_string@GU?$char_traits@G@std@@V?$allocator@G@2@@std@@0PBG@Z$4
	DD	03H
	DD	FLAT:__unwindfunclet$?UserCmd_SetCashCode@GiveCash@@YA_NIABV?$basic_string@GU?$char_traits@G@std@@V?$allocator@G@2@@std@@0PBG@Z$5
	DD	03H
	DD	FLAT:__unwindfunclet$?UserCmd_SetCashCode@GiveCash@@YA_NIABV?$basic_string@GU?$char_traits@G@std@@V?$allocator@G@2@@std@@0PBG@Z$6
	DD	06H
	DD	FLAT:__unwindfunclet$?UserCmd_SetCashCode@GiveCash@@YA_NIABV?$basic_string@GU?$char_traits@G@std@@V?$allocator@G@2@@std@@0PBG@Z$7
	DD	07H
	DD	FLAT:__unwindfunclet$?UserCmd_SetCashCode@GiveCash@@YA_NIABV?$basic_string@GU?$char_traits@G@std@@V?$allocator@G@2@@std@@0PBG@Z$8
	DD	03H
	DD	FLAT:__unwindfunclet$?UserCmd_SetCashCode@GiveCash@@YA_NIABV?$basic_string@GU?$char_traits@G@std@@V?$allocator@G@2@@std@@0PBG@Z$9
	DD	03H
	DD	FLAT:__unwindfunclet$?UserCmd_SetCashCode@GiveCash@@YA_NIABV?$basic_string@GU?$char_traits@G@std@@V?$allocator@G@2@@std@@0PBG@Z$10
	DD	0aH
	DD	FLAT:__unwindfunclet$?UserCmd_SetCashCode@GiveCash@@YA_NIABV?$basic_string@GU?$char_traits@G@std@@V?$allocator@G@2@@std@@0PBG@Z$11
	DD	03H
	DD	FLAT:__unwindfunclet$?UserCmd_SetCashCode@GiveCash@@YA_NIABV?$basic_string@GU?$char_traits@G@std@@V?$allocator@G@2@@std@@0PBG@Z$12
; Function compile flags: /Odtp
xdata$x	ENDS
_TEXT	SEGMENT
tv241 = -328						; size = 4
tv202 = -324						; size = 4
tv237 = -320						; size = 4
tv175 = -316						; size = 4
tv232 = -312						; size = 4
tv72 = -308						; size = 4
tv230 = -304						; size = 4
tv88 = -300						; size = 4
$T144418 = -293						; size = 1
$T144417 = -292						; size = 4
$T144416 = -288						; size = 28
$T144415 = -260						; size = 28
$T144414 = -232						; size = 4
$T144413 = -228						; size = 28
$T144412 = -200						; size = 28
$T144411 = -172						; size = 28
$T144410 = -144						; size = 4
$T144409 = -140						; size = 4
$T144408 = -133						; size = 1
$T144407 = -132						; size = 28
$T144406 = -101						; size = 1
_scFile$ = -100						; size = 28
_wscCharname$ = -72					; size = 28
_wscCode$ = -44						; size = 28
__$ArrayPad$ = -16					; size = 4
__$EHRec$ = -12						; size = 12
_iClientID$ = 8						; size = 4
_wscCmd$ = 12						; size = 4
_wscParam$ = 16						; size = 4
_usage$ = 20						; size = 4
?UserCmd_SetCashCode@GiveCash@@YA_NIABV?$basic_string@GU?$char_traits@G@std@@V?$allocator@G@2@@std@@0PBG@Z PROC ; GiveCash::UserCmd_SetCashCode
; Line 368
	push	ebp
	mov	ebp, esp
	push	-1
	push	__ehhandler$?UserCmd_SetCashCode@GiveCash@@YA_NIABV?$basic_string@GU?$char_traits@G@std@@V?$allocator@G@2@@std@@0PBG@Z
	mov	eax, DWORD PTR fs:0
	push	eax
	sub	esp, 316				; 0000013cH
	mov	eax, DWORD PTR ___security_cookie
	xor	eax, ebp
	mov	DWORD PTR __$ArrayPad$[ebp], eax
	push	eax
	lea	eax, DWORD PTR __$EHRec$[ebp]
	mov	DWORD PTR fs:0, eax
; Line 369
	mov	eax, DWORD PTR _iClientID$[ebp]
	push	eax
	mov	ecx, DWORD PTR __imp_?Players@@3VPlayerDB@@A
	call	DWORD PTR __imp_?GetActiveCharacterName@PlayerDB@@QBEPBGI@Z
	push	eax
	lea	ecx, DWORD PTR _wscCharname$[ebp]
	call	DWORD PTR __imp_??0?$basic_string@GU?$char_traits@G@std@@V?$allocator@G@2@@std@@QAE@PBG@Z
	mov	DWORD PTR __$EHRec$[ebp+8], 0
; Line 370
	lea	ecx, DWORD PTR _scFile$[ebp]
	call	DWORD PTR __imp_??0?$basic_string@DU?$char_traits@D@std@@V?$allocator@D@2@@std@@QAE@XZ
	mov	BYTE PTR __$EHRec$[ebp+8], 1
; Line 371
	push	OFFSET $SG139496
	lea	ecx, DWORD PTR $T144407[ebp]
	call	DWORD PTR __imp_??0?$basic_string@DU?$char_traits@D@std@@V?$allocator@D@2@@std@@QAE@PBD@Z
	mov	BYTE PTR __$EHRec$[ebp+8], 2
	lea	ecx, DWORD PTR $T144407[ebp]
	push	ecx
	lea	edx, DWORD PTR _wscCharname$[ebp]
	push	edx
	lea	eax, DWORD PTR _scFile$[ebp]
	push	eax
	call	?GetUserFilePath@@YA_NAAV?$basic_string@DU?$char_traits@D@std@@V?$allocator@D@2@@std@@ABV?$basic_string@GU?$char_traits@G@std@@V?$allocator@G@2@@2@ABV12@@Z ; GetUserFilePath
	add	esp, 12					; 0000000cH
	movzx	ecx, al
	neg	ecx
	sbb	ecx, ecx
	add	ecx, 1
	mov	BYTE PTR $T144406[ebp], cl
	mov	BYTE PTR __$EHRec$[ebp+8], 1
	lea	ecx, DWORD PTR $T144407[ebp]
	call	DWORD PTR __imp_??1?$basic_string@DU?$char_traits@D@std@@V?$allocator@D@2@@std@@QAE@XZ
	movzx	edx, BYTE PTR $T144406[ebp]
	test	edx, edx
	je	SHORT $LN5@UserCmd_Se
; Line 372
	mov	BYTE PTR $T144408[ebp], 1
	mov	BYTE PTR __$EHRec$[ebp+8], 0
	lea	ecx, DWORD PTR _scFile$[ebp]
	call	DWORD PTR __imp_??1?$basic_string@DU?$char_traits@D@std@@V?$allocator@D@2@@std@@QAE@XZ
	mov	DWORD PTR __$EHRec$[ebp+8], -1
	lea	ecx, DWORD PTR _wscCharname$[ebp]
	call	DWORD PTR __imp_??1?$basic_string@GU?$char_traits@G@std@@V?$allocator@G@2@@std@@QAE@XZ
	mov	al, BYTE PTR $T144408[ebp]
	jmp	$LN6@UserCmd_Se
$LN5@UserCmd_Se:
; Line 374
	push	0
	push	32					; 00000020H
	mov	eax, DWORD PTR _wscParam$[ebp]
	push	eax
	lea	ecx, DWORD PTR _wscCode$[ebp]
	push	ecx
	call	DWORD PTR __imp_?GetParam@@YA?AV?$basic_string@GU?$char_traits@G@std@@V?$allocator@G@2@@std@@ABV12@GI@Z
	add	esp, 16					; 00000010H
	mov	BYTE PTR __$EHRec$[ebp+8], 3
; Line 376
	lea	ecx, DWORD PTR _wscCode$[ebp]
	call	DWORD PTR __imp_?size@?$basic_string@GU?$char_traits@G@std@@V?$allocator@G@2@@std@@QBEIXZ
	test	eax, eax
	jne	SHORT $LN4@UserCmd_Se
; Line 378
	sub	esp, 28					; 0000001cH
	mov	ecx, esp
	mov	DWORD PTR $T144409[ebp], esp
	push	OFFSET $SG139502
	call	DWORD PTR __imp_??0?$basic_string@GU?$char_traits@G@std@@V?$allocator@G@2@@std@@QAE@PBG@Z
	mov	DWORD PTR tv88[ebp], eax
	mov	edx, DWORD PTR tv88[ebp]
	mov	DWORD PTR tv230[ebp], edx
	mov	BYTE PTR __$EHRec$[ebp+8], 4
	mov	eax, DWORD PTR _iClientID$[ebp]
	push	eax
	mov	BYTE PTR __$EHRec$[ebp+8], 3
	call	DWORD PTR __imp_?PrintUserCmdText@@YAXIV?$basic_string@GU?$char_traits@G@std@@V?$allocator@G@2@@std@@ZZ
	add	esp, 32					; 00000020H
; Line 379
	sub	esp, 28					; 0000001cH
	mov	ecx, esp
	mov	DWORD PTR $T144410[ebp], esp
	mov	edx, DWORD PTR _usage$[ebp]
	push	edx
	call	DWORD PTR __imp_??0?$basic_string@GU?$char_traits@G@std@@V?$allocator@G@2@@std@@QAE@PBG@Z
	mov	DWORD PTR tv72[ebp], eax
	mov	eax, DWORD PTR tv72[ebp]
	mov	DWORD PTR tv232[ebp], eax
	mov	BYTE PTR __$EHRec$[ebp+8], 5
	mov	ecx, DWORD PTR _iClientID$[ebp]
	push	ecx
	mov	BYTE PTR __$EHRec$[ebp+8], 3
	call	DWORD PTR __imp_?PrintUserCmdText@@YAXIV?$basic_string@GU?$char_traits@G@std@@V?$allocator@G@2@@std@@ZZ
	add	esp, 32					; 00000020H
	jmp	$LN3@UserCmd_Se
$LN4@UserCmd_Se:
; Line 381
	push	OFFSET $SG139506
	lea	edx, DWORD PTR _wscCode$[ebp]
	push	edx
	call	DWORD PTR __imp_??$?8GU?$char_traits@G@std@@V?$allocator@G@1@@std@@YA_NABV?$basic_string@GU?$char_traits@G@std@@V?$allocator@G@2@@0@PBG@Z
	add	esp, 8
	movzx	eax, al
	test	eax, eax
	je	$LN2@UserCmd_Se
; Line 383
	push	OFFSET $SG139510
	lea	ecx, DWORD PTR $T144411[ebp]
	call	DWORD PTR __imp_??0?$basic_string@GU?$char_traits@G@std@@V?$allocator@G@2@@std@@QAE@PBG@Z
	mov	BYTE PTR __$EHRec$[ebp+8], 6
	push	OFFSET $SG139511
	lea	ecx, DWORD PTR $T144412[ebp]
	call	DWORD PTR __imp_??0?$basic_string@DU?$char_traits@D@std@@V?$allocator@D@2@@std@@QAE@PBD@Z
	mov	BYTE PTR __$EHRec$[ebp+8], 7
	push	OFFSET $SG139512
	lea	ecx, DWORD PTR $T144413[ebp]
	call	DWORD PTR __imp_??0?$basic_string@DU?$char_traits@D@std@@V?$allocator@D@2@@std@@QAE@PBD@Z
	mov	BYTE PTR __$EHRec$[ebp+8], 8
	lea	ecx, DWORD PTR $T144411[ebp]
	push	ecx
	lea	edx, DWORD PTR $T144412[ebp]
	push	edx
	lea	eax, DWORD PTR $T144413[ebp]
	push	eax
	lea	ecx, DWORD PTR _scFile$[ebp]
	push	ecx
	call	DWORD PTR __imp_?IniWriteW@@YAXABV?$basic_string@DU?$char_traits@D@std@@V?$allocator@D@2@@std@@00ABV?$basic_string@GU?$char_traits@G@std@@V?$allocator@G@2@@2@@Z
	add	esp, 16					; 00000010H
	mov	BYTE PTR __$EHRec$[ebp+8], 7
	lea	ecx, DWORD PTR $T144413[ebp]
	call	DWORD PTR __imp_??1?$basic_string@DU?$char_traits@D@std@@V?$allocator@D@2@@std@@QAE@XZ
	mov	BYTE PTR __$EHRec$[ebp+8], 6
	lea	ecx, DWORD PTR $T144412[ebp]
	call	DWORD PTR __imp_??1?$basic_string@DU?$char_traits@D@std@@V?$allocator@D@2@@std@@QAE@XZ
	mov	BYTE PTR __$EHRec$[ebp+8], 3
	lea	ecx, DWORD PTR $T144411[ebp]
	call	DWORD PTR __imp_??1?$basic_string@GU?$char_traits@G@std@@V?$allocator@G@2@@std@@QAE@XZ
; Line 384
	sub	esp, 28					; 0000001cH
	mov	ecx, esp
	mov	DWORD PTR $T144414[ebp], esp
	push	OFFSET $SG139514
	call	DWORD PTR __imp_??0?$basic_string@GU?$char_traits@G@std@@V?$allocator@G@2@@std@@QAE@PBG@Z
	mov	DWORD PTR tv175[ebp], eax
	mov	edx, DWORD PTR tv175[ebp]
	mov	DWORD PTR tv237[ebp], edx
	mov	BYTE PTR __$EHRec$[ebp+8], 9
	mov	eax, DWORD PTR _iClientID$[ebp]
	push	eax
	mov	BYTE PTR __$EHRec$[ebp+8], 3
	call	DWORD PTR __imp_?PrintUserCmdText@@YAXIV?$basic_string@GU?$char_traits@G@std@@V?$allocator@G@2@@std@@ZZ
	add	esp, 32					; 00000020H
; Line 386
	jmp	$LN3@UserCmd_Se
$LN2@UserCmd_Se:
; Line 388
	push	OFFSET $SG139518
	lea	ecx, DWORD PTR $T144415[ebp]
	call	DWORD PTR __imp_??0?$basic_string@DU?$char_traits@D@std@@V?$allocator@D@2@@std@@QAE@PBD@Z
	mov	BYTE PTR __$EHRec$[ebp+8], 10		; 0000000aH
	push	OFFSET $SG139519
	lea	ecx, DWORD PTR $T144416[ebp]
	call	DWORD PTR __imp_??0?$basic_string@DU?$char_traits@D@std@@V?$allocator@D@2@@std@@QAE@PBD@Z
	mov	BYTE PTR __$EHRec$[ebp+8], 11		; 0000000bH
	lea	ecx, DWORD PTR _wscCode$[ebp]
	push	ecx
	lea	edx, DWORD PTR $T144415[ebp]
	push	edx
	lea	eax, DWORD PTR $T144416[ebp]
	push	eax
	lea	ecx, DWORD PTR _scFile$[ebp]
	push	ecx
	call	DWORD PTR __imp_?IniWriteW@@YAXABV?$basic_string@DU?$char_traits@D@std@@V?$allocator@D@2@@std@@00ABV?$basic_string@GU?$char_traits@G@std@@V?$allocator@G@2@@2@@Z
	add	esp, 16					; 00000010H
	mov	BYTE PTR __$EHRec$[ebp+8], 10		; 0000000aH
	lea	ecx, DWORD PTR $T144416[ebp]
	call	DWORD PTR __imp_??1?$basic_string@DU?$char_traits@D@std@@V?$allocator@D@2@@std@@QAE@XZ
	mov	BYTE PTR __$EHRec$[ebp+8], 3
	lea	ecx, DWORD PTR $T144415[ebp]
	call	DWORD PTR __imp_??1?$basic_string@DU?$char_traits@D@std@@V?$allocator@D@2@@std@@QAE@XZ
; Line 389
	sub	esp, 28					; 0000001cH
	mov	edx, esp
	mov	DWORD PTR $T144417[ebp], esp
	lea	eax, DWORD PTR _wscCode$[ebp]
	push	eax
	push	OFFSET $SG139522
	push	edx
	call	DWORD PTR __imp_??$?HGU?$char_traits@G@std@@V?$allocator@G@1@@std@@YA?AV?$basic_string@GU?$char_traits@G@std@@V?$allocator@G@2@@0@PBGABV10@@Z
	add	esp, 12					; 0000000cH
	mov	DWORD PTR tv202[ebp], eax
	mov	ecx, DWORD PTR tv202[ebp]
	mov	DWORD PTR tv241[ebp], ecx
	mov	BYTE PTR __$EHRec$[ebp+8], 12		; 0000000cH
	mov	edx, DWORD PTR _iClientID$[ebp]
	push	edx
	mov	BYTE PTR __$EHRec$[ebp+8], 3
	call	DWORD PTR __imp_?PrintUserCmdText@@YAXIV?$basic_string@GU?$char_traits@G@std@@V?$allocator@G@2@@std@@ZZ
	add	esp, 32					; 00000020H
$LN3@UserCmd_Se:
; Line 391
	mov	BYTE PTR $T144418[ebp], 1
	mov	BYTE PTR __$EHRec$[ebp+8], 1
	lea	ecx, DWORD PTR _wscCode$[ebp]
	call	DWORD PTR __imp_??1?$basic_string@GU?$char_traits@G@std@@V?$allocator@G@2@@std@@QAE@XZ
	mov	BYTE PTR __$EHRec$[ebp+8], 0
	lea	ecx, DWORD PTR _scFile$[ebp]
	call	DWORD PTR __imp_??1?$basic_string@DU?$char_traits@D@std@@V?$allocator@D@2@@std@@QAE@XZ
	mov	DWORD PTR __$EHRec$[ebp+8], -1
	lea	ecx, DWORD PTR _wscCharname$[ebp]
	call	DWORD PTR __imp_??1?$basic_string@GU?$char_traits@G@std@@V?$allocator@G@2@@std@@QAE@XZ
	mov	al, BYTE PTR $T144418[ebp]
$LN6@UserCmd_Se:
; Line 392
	mov	ecx, DWORD PTR __$EHRec$[ebp]
	mov	DWORD PTR fs:0, ecx
	pop	ecx
	mov	ecx, DWORD PTR __$ArrayPad$[ebp]
	xor	ecx, ebp
	call	@__security_check_cookie@4
	mov	esp, ebp
	pop	ebp
	ret	0
_TEXT	ENDS
text$x	SEGMENT
__unwindfunclet$?UserCmd_SetCashCode@GiveCash@@YA_NIABV?$basic_string@GU?$char_traits@G@std@@V?$allocator@G@2@@std@@0PBG@Z$0:
	lea	ecx, DWORD PTR _wscCharname$[ebp]
	jmp	DWORD PTR __imp_??1?$basic_string@GU?$char_traits@G@std@@V?$allocator@G@2@@std@@QAE@XZ
__unwindfunclet$?UserCmd_SetCashCode@GiveCash@@YA_NIABV?$basic_string@GU?$char_traits@G@std@@V?$allocator@G@2@@std@@0PBG@Z$1:
	lea	ecx, DWORD PTR _scFile$[ebp]
	jmp	DWORD PTR __imp_??1?$basic_string@DU?$char_traits@D@std@@V?$allocator@D@2@@std@@QAE@XZ
__unwindfunclet$?UserCmd_SetCashCode@GiveCash@@YA_NIABV?$basic_string@GU?$char_traits@G@std@@V?$allocator@G@2@@std@@0PBG@Z$2:
	lea	ecx, DWORD PTR $T144407[ebp]
	jmp	DWORD PTR __imp_??1?$basic_string@DU?$char_traits@D@std@@V?$allocator@D@2@@std@@QAE@XZ
__unwindfunclet$?UserCmd_SetCashCode@GiveCash@@YA_NIABV?$basic_string@GU?$char_traits@G@std@@V?$allocator@G@2@@std@@0PBG@Z$3:
	lea	ecx, DWORD PTR _wscCode$[ebp]
	jmp	DWORD PTR __imp_??1?$basic_string@GU?$char_traits@G@std@@V?$allocator@G@2@@std@@QAE@XZ
__unwindfunclet$?UserCmd_SetCashCode@GiveCash@@YA_NIABV?$basic_string@GU?$char_traits@G@std@@V?$allocator@G@2@@std@@0PBG@Z$4:
	mov	ecx, DWORD PTR $T144409[ebp]
	jmp	DWORD PTR __imp_??1?$basic_string@GU?$char_traits@G@std@@V?$allocator@G@2@@std@@QAE@XZ
__unwindfunclet$?UserCmd_SetCashCode@GiveCash@@YA_NIABV?$basic_string@GU?$char_traits@G@std@@V?$allocator@G@2@@std@@0PBG@Z$5:
	mov	ecx, DWORD PTR $T144410[ebp]
	jmp	DWORD PTR __imp_??1?$basic_string@GU?$char_traits@G@std@@V?$allocator@G@2@@std@@QAE@XZ
__unwindfunclet$?UserCmd_SetCashCode@GiveCash@@YA_NIABV?$basic_string@GU?$char_traits@G@std@@V?$allocator@G@2@@std@@0PBG@Z$6:
	lea	ecx, DWORD PTR $T144411[ebp]
	jmp	DWORD PTR __imp_??1?$basic_string@GU?$char_traits@G@std@@V?$allocator@G@2@@std@@QAE@XZ
__unwindfunclet$?UserCmd_SetCashCode@GiveCash@@YA_NIABV?$basic_string@GU?$char_traits@G@std@@V?$allocator@G@2@@std@@0PBG@Z$7:
	lea	ecx, DWORD PTR $T144412[ebp]
	jmp	DWORD PTR __imp_??1?$basic_string@DU?$char_traits@D@std@@V?$allocator@D@2@@std@@QAE@XZ
__unwindfunclet$?UserCmd_SetCashCode@GiveCash@@YA_NIABV?$basic_string@GU?$char_traits@G@std@@V?$allocator@G@2@@std@@0PBG@Z$8:
	lea	ecx, DWORD PTR $T144413[ebp]
	jmp	DWORD PTR __imp_??1?$basic_string@DU?$char_traits@D@std@@V?$allocator@D@2@@std@@QAE@XZ
__unwindfunclet$?UserCmd_SetCashCode@GiveCash@@YA_NIABV?$basic_string@GU?$char_traits@G@std@@V?$allocator@G@2@@std@@0PBG@Z$9:
	mov	ecx, DWORD PTR $T144414[ebp]
	jmp	DWORD PTR __imp_??1?$basic_string@GU?$char_traits@G@std@@V?$allocator@G@2@@std@@QAE@XZ
__unwindfunclet$?UserCmd_SetCashCode@GiveCash@@YA_NIABV?$basic_string@GU?$char_traits@G@std@@V?$allocator@G@2@@std@@0PBG@Z$10:
	lea	ecx, DWORD PTR $T144415[ebp]
	jmp	DWORD PTR __imp_??1?$basic_string@DU?$char_traits@D@std@@V?$allocator@D@2@@std@@QAE@XZ
__unwindfunclet$?UserCmd_SetCashCode@GiveCash@@YA_NIABV?$basic_string@GU?$char_traits@G@std@@V?$allocator@G@2@@std@@0PBG@Z$11:
	lea	ecx, DWORD PTR $T144416[ebp]
	jmp	DWORD PTR __imp_??1?$basic_string@DU?$char_traits@D@std@@V?$allocator@D@2@@std@@QAE@XZ
__unwindfunclet$?UserCmd_SetCashCode@GiveCash@@YA_NIABV?$basic_string@GU?$char_traits@G@std@@V?$allocator@G@2@@std@@0PBG@Z$12:
	mov	ecx, DWORD PTR $T144417[ebp]
	jmp	DWORD PTR __imp_??1?$basic_string@GU?$char_traits@G@std@@V?$allocator@G@2@@std@@QAE@XZ
__ehhandler$?UserCmd_SetCashCode@GiveCash@@YA_NIABV?$basic_string@GU?$char_traits@G@std@@V?$allocator@G@2@@std@@0PBG@Z:
	mov	edx, DWORD PTR [esp+8]
	lea	eax, DWORD PTR [edx+12]
	mov	ecx, DWORD PTR [edx-320]
	xor	ecx, eax
	call	@__security_check_cookie@4
	mov	ecx, DWORD PTR [edx-4]
	xor	ecx, eax
	call	@__security_check_cookie@4
	mov	eax, OFFSET __ehfuncinfo$?UserCmd_SetCashCode@GiveCash@@YA_NIABV?$basic_string@GU?$char_traits@G@std@@V?$allocator@G@2@@std@@0PBG@Z
	jmp	___CxxFrameHandler3
text$x	ENDS
?UserCmd_SetCashCode@GiveCash@@YA_NIABV?$basic_string@GU?$char_traits@G@std@@V?$allocator@G@2@@std@@0PBG@Z ENDP ; GiveCash::UserCmd_SetCashCode
PUBLIC	__$ArrayPad$
PUBLIC	?UserCmd_ShowCash@GiveCash@@YA_NIABV?$basic_string@GU?$char_traits@G@std@@V?$allocator@G@2@@std@@0PBG@Z ; GiveCash::UserCmd_ShowCash
EXTRN	__imp_??$?9GU?$char_traits@G@std@@V?$allocator@G@1@@std@@YA_NABV?$basic_string@GU?$char_traits@G@std@@V?$allocator@G@2@@0@0@Z:PROC
EXTRN	__imp_?IniGetWS@@YA?AV?$basic_string@GU?$char_traits@G@std@@V?$allocator@G@2@@std@@ABV?$basic_string@DU?$char_traits@D@std@@V?$allocator@D@2@@2@00ABV12@@Z:PROC
xdata$x	SEGMENT
__ehfuncinfo$?UserCmd_ShowCash@GiveCash@@YA_NIABV?$basic_string@GU?$char_traits@G@std@@V?$allocator@G@2@@std@@0PBG@Z DD 019930522H
	DD	017H
	DD	FLAT:__unwindtable$?UserCmd_ShowCash@GiveCash@@YA_NIABV?$basic_string@GU?$char_traits@G@std@@V?$allocator@G@2@@std@@0PBG@Z
	DD	2 DUP(00H)
	DD	2 DUP(00H)
	DD	00H
	DD	00H
__unwindtable$?UserCmd_ShowCash@GiveCash@@YA_NIABV?$basic_string@GU?$char_traits@G@std@@V?$allocator@G@2@@std@@0PBG@Z DD 0ffffffffH
	DD	FLAT:__unwindfunclet$?UserCmd_ShowCash@GiveCash@@YA_NIABV?$basic_string@GU?$char_traits@G@std@@V?$allocator@G@2@@std@@0PBG@Z$0
	DD	00H
	DD	FLAT:__unwindfunclet$?UserCmd_ShowCash@GiveCash@@YA_NIABV?$basic_string@GU?$char_traits@G@std@@V?$allocator@G@2@@std@@0PBG@Z$1
	DD	01H
	DD	FLAT:__unwindfunclet$?UserCmd_ShowCash@GiveCash@@YA_NIABV?$basic_string@GU?$char_traits@G@std@@V?$allocator@G@2@@std@@0PBG@Z$2
	DD	02H
	DD	FLAT:__unwindfunclet$?UserCmd_ShowCash@GiveCash@@YA_NIABV?$basic_string@GU?$char_traits@G@std@@V?$allocator@G@2@@std@@0PBG@Z$3
	DD	02H
	DD	FLAT:__unwindfunclet$?UserCmd_ShowCash@GiveCash@@YA_NIABV?$basic_string@GU?$char_traits@G@std@@V?$allocator@G@2@@std@@0PBG@Z$4
	DD	02H
	DD	FLAT:__unwindfunclet$?UserCmd_ShowCash@GiveCash@@YA_NIABV?$basic_string@GU?$char_traits@G@std@@V?$allocator@G@2@@std@@0PBG@Z$5
	DD	02H
	DD	FLAT:__unwindfunclet$?UserCmd_ShowCash@GiveCash@@YA_NIABV?$basic_string@GU?$char_traits@G@std@@V?$allocator@G@2@@std@@0PBG@Z$6
	DD	06H
	DD	FLAT:__unwindfunclet$?UserCmd_ShowCash@GiveCash@@YA_NIABV?$basic_string@GU?$char_traits@G@std@@V?$allocator@G@2@@std@@0PBG@Z$7
	DD	06H
	DD	FLAT:__unwindfunclet$?UserCmd_ShowCash@GiveCash@@YA_NIABV?$basic_string@GU?$char_traits@G@std@@V?$allocator@G@2@@std@@0PBG@Z$8
	DD	08H
	DD	FLAT:__unwindfunclet$?UserCmd_ShowCash@GiveCash@@YA_NIABV?$basic_string@GU?$char_traits@G@std@@V?$allocator@G@2@@std@@0PBG@Z$9
	DD	09H
	DD	FLAT:__unwindfunclet$?UserCmd_ShowCash@GiveCash@@YA_NIABV?$basic_string@GU?$char_traits@G@std@@V?$allocator@G@2@@std@@0PBG@Z$10
	DD	0aH
	DD	FLAT:__unwindfunclet$?UserCmd_ShowCash@GiveCash@@YA_NIABV?$basic_string@GU?$char_traits@G@std@@V?$allocator@G@2@@std@@0PBG@Z$11
	DD	09H
	DD	FLAT:__unwindfunclet$?UserCmd_ShowCash@GiveCash@@YA_NIABV?$basic_string@GU?$char_traits@G@std@@V?$allocator@G@2@@std@@0PBG@Z$11
	DD	08H
	DD	FLAT:__unwindfunclet$?UserCmd_ShowCash@GiveCash@@YA_NIABV?$basic_string@GU?$char_traits@G@std@@V?$allocator@G@2@@std@@0PBG@Z$11
	DD	06H
	DD	FLAT:__unwindfunclet$?UserCmd_ShowCash@GiveCash@@YA_NIABV?$basic_string@GU?$char_traits@G@std@@V?$allocator@G@2@@std@@0PBG@Z$11
	DD	0eH
	DD	FLAT:__unwindfunclet$?UserCmd_ShowCash@GiveCash@@YA_NIABV?$basic_string@GU?$char_traits@G@std@@V?$allocator@G@2@@std@@0PBG@Z$12
	DD	0eH
	DD	FLAT:__unwindfunclet$?UserCmd_ShowCash@GiveCash@@YA_NIABV?$basic_string@GU?$char_traits@G@std@@V?$allocator@G@2@@std@@0PBG@Z$13
	DD	010H
	DD	FLAT:__unwindfunclet$?UserCmd_ShowCash@GiveCash@@YA_NIABV?$basic_string@GU?$char_traits@G@std@@V?$allocator@G@2@@std@@0PBG@Z$14
	DD	0eH
	DD	FLAT:__unwindfunclet$?UserCmd_ShowCash@GiveCash@@YA_NIABV?$basic_string@GU?$char_traits@G@std@@V?$allocator@G@2@@std@@0PBG@Z$15
	DD	012H
	DD	FLAT:__unwindfunclet$?UserCmd_ShowCash@GiveCash@@YA_NIABV?$basic_string@GU?$char_traits@G@std@@V?$allocator@G@2@@std@@0PBG@Z$16
	DD	013H
	DD	FLAT:__unwindfunclet$?UserCmd_ShowCash@GiveCash@@YA_NIABV?$basic_string@GU?$char_traits@G@std@@V?$allocator@G@2@@std@@0PBG@Z$17
	DD	014H
	DD	FLAT:__unwindfunclet$?UserCmd_ShowCash@GiveCash@@YA_NIABV?$basic_string@GU?$char_traits@G@std@@V?$allocator@G@2@@std@@0PBG@Z$18
	DD	015H
	DD	FLAT:__unwindfunclet$?UserCmd_ShowCash@GiveCash@@YA_NIABV?$basic_string@GU?$char_traits@G@std@@V?$allocator@G@2@@std@@0PBG@Z$19
; Function compile flags: /Odtp
xdata$x	ENDS
_TEXT	SEGMENT
tv374 = -556						; size = 4
tv386 = -552						; size = 4
tv372 = -548						; size = 4
tv385 = -544						; size = 4
tv370 = -540						; size = 4
tv384 = -536						; size = 4
tv368 = -532						; size = 4
tv383 = -528						; size = 4
tv366 = -524						; size = 4
tv170 = -520						; size = 4
tv359 = -516						; size = 4
tv188 = -512						; size = 4
tv357 = -508						; size = 4
tv193 = -504						; size = 4
tv350 = -500						; size = 4
tv186 = -496						; size = 4
tv335 = -492						; size = 4
tv381 = -488						; size = 4
tv330 = -484						; size = 4
tv65 = -480						; size = 4
tv328 = -476						; size = 4
tv77 = -472						; size = 4
$T144459 = -465						; size = 1
$T144458 = -464						; size = 28
$T144457 = -436						; size = 28
$T144456 = -408						; size = 28
$T144455 = -380						; size = 28
$T144454 = -352						; size = 4
$T144453 = -345						; size = 1
$T144452 = -344						; size = 28
$T144451 = -316						; size = 4
$T144450 = -309						; size = 1
$T144449 = -308						; size = 4
$T144448 = -304						; size = 28
$T144447 = -276						; size = 28
$T144446 = -248						; size = 28
$T144445 = -217						; size = 1
$T144444 = -216						; size = 28
$T144443 = -186						; size = 1
$T144442 = -185						; size = 1
$T144441 = -184						; size = 4
$T144440 = -177						; size = 1
$T144439 = -176						; size = 4
$T144438 = -172						; size = 4
_scFile$ = -168						; size = 28
_err$ = -140						; size = 4
_wscCharname$ = -136					; size = 28
_wscTargetCode$ = -108					; size = 28
_acc$ = -80						; size = 4
_wscTargetCharname$ = -76				; size = 28
_wscCode$ = -48						; size = 28
__$ArrayPad$ = -20					; size = 4
_iCash$ = -16						; size = 4
__$EHRec$ = -12						; size = 12
_iClientID$ = 8						; size = 4
_wscCmd$ = 12						; size = 4
_wscParam$ = 16						; size = 4
_usage$ = 20						; size = 4
?UserCmd_ShowCash@GiveCash@@YA_NIABV?$basic_string@GU?$char_traits@G@std@@V?$allocator@G@2@@std@@0PBG@Z PROC ; GiveCash::UserCmd_ShowCash
; Line 396
	push	ebp
	mov	ebp, esp
	push	-1
	push	__ehhandler$?UserCmd_ShowCash@GiveCash@@YA_NIABV?$basic_string@GU?$char_traits@G@std@@V?$allocator@G@2@@std@@0PBG@Z
	mov	eax, DWORD PTR fs:0
	push	eax
	sub	esp, 544				; 00000220H
	mov	eax, DWORD PTR ___security_cookie
	xor	eax, ebp
	mov	DWORD PTR __$ArrayPad$[ebp], eax
	push	esi
	push	eax
	lea	eax, DWORD PTR __$EHRec$[ebp]
	mov	DWORD PTR fs:0, eax
; Line 401
	mov	eax, DWORD PTR _iClientID$[ebp]
	push	eax
	mov	ecx, DWORD PTR __imp_?Players@@3VPlayerDB@@A
	call	DWORD PTR __imp_?GetActiveCharacterName@PlayerDB@@QBEPBGI@Z
	push	eax
	lea	ecx, DWORD PTR _wscCharname$[ebp]
	call	DWORD PTR __imp_??0?$basic_string@GU?$char_traits@G@std@@V?$allocator@G@2@@std@@QAE@PBG@Z
	mov	DWORD PTR __$EHRec$[ebp+8], 0
; Line 404
	push	0
	push	32					; 00000020H
	mov	ecx, DWORD PTR _wscParam$[ebp]
	push	ecx
	lea	edx, DWORD PTR _wscTargetCharname$[ebp]
	push	edx
	call	DWORD PTR __imp_?GetParam@@YA?AV?$basic_string@GU?$char_traits@G@std@@V?$allocator@G@2@@std@@ABV12@GI@Z
	add	esp, 16					; 00000010H
	mov	BYTE PTR __$EHRec$[ebp+8], 1
; Line 405
	push	1
	push	32					; 00000020H
	mov	eax, DWORD PTR _wscParam$[ebp]
	push	eax
	lea	ecx, DWORD PTR _wscCode$[ebp]
	push	ecx
	call	DWORD PTR __imp_?GetParam@@YA?AV?$basic_string@GU?$char_traits@G@std@@V?$allocator@G@2@@std@@ABV12@GI@Z
	add	esp, 16					; 00000010H
	mov	BYTE PTR __$EHRec$[ebp+8], 2
; Line 407
	lea	ecx, DWORD PTR _wscTargetCharname$[ebp]
	call	DWORD PTR __imp_?length@?$basic_string@GU?$char_traits@G@std@@V?$allocator@G@2@@std@@QBEIXZ
	test	eax, eax
	je	SHORT $LN6@UserCmd_Sh
	lea	ecx, DWORD PTR _wscCode$[ebp]
	call	DWORD PTR __imp_?length@?$basic_string@GU?$char_traits@G@std@@V?$allocator@G@2@@std@@QBEIXZ
	test	eax, eax
	jne	$LN7@UserCmd_Sh
$LN6@UserCmd_Sh:
; Line 409
	sub	esp, 28					; 0000001cH
	mov	ecx, esp
	mov	DWORD PTR $T144438[ebp], esp
	push	OFFSET $SG139540
	call	DWORD PTR __imp_??0?$basic_string@GU?$char_traits@G@std@@V?$allocator@G@2@@std@@QAE@PBG@Z
	mov	DWORD PTR tv77[ebp], eax
	mov	edx, DWORD PTR tv77[ebp]
	mov	DWORD PTR tv328[ebp], edx
	mov	BYTE PTR __$EHRec$[ebp+8], 3
	mov	eax, DWORD PTR _iClientID$[ebp]
	push	eax
	mov	BYTE PTR __$EHRec$[ebp+8], 2
	call	DWORD PTR __imp_?PrintUserCmdText@@YAXIV?$basic_string@GU?$char_traits@G@std@@V?$allocator@G@2@@std@@ZZ
	add	esp, 32					; 00000020H
; Line 410
	sub	esp, 28					; 0000001cH
	mov	ecx, esp
	mov	DWORD PTR $T144439[ebp], esp
	mov	edx, DWORD PTR _usage$[ebp]
	push	edx
	call	DWORD PTR __imp_??0?$basic_string@GU?$char_traits@G@std@@V?$allocator@G@2@@std@@QAE@PBG@Z
	mov	DWORD PTR tv65[ebp], eax
	mov	eax, DWORD PTR tv65[ebp]
	mov	DWORD PTR tv330[ebp], eax
	mov	BYTE PTR __$EHRec$[ebp+8], 4
	mov	ecx, DWORD PTR _iClientID$[ebp]
	push	ecx
	mov	BYTE PTR __$EHRec$[ebp+8], 2
	call	DWORD PTR __imp_?PrintUserCmdText@@YAXIV?$basic_string@GU?$char_traits@G@std@@V?$allocator@G@2@@std@@ZZ
	add	esp, 32					; 00000020H
; Line 411
	mov	BYTE PTR $T144440[ebp], 1
	mov	BYTE PTR __$EHRec$[ebp+8], 1
	lea	ecx, DWORD PTR _wscCode$[ebp]
	call	DWORD PTR __imp_??1?$basic_string@GU?$char_traits@G@std@@V?$allocator@G@2@@std@@QAE@XZ
	mov	BYTE PTR __$EHRec$[ebp+8], 0
	lea	ecx, DWORD PTR _wscTargetCharname$[ebp]
	call	DWORD PTR __imp_??1?$basic_string@GU?$char_traits@G@std@@V?$allocator@G@2@@std@@QAE@XZ
	mov	DWORD PTR __$EHRec$[ebp+8], -1
	lea	ecx, DWORD PTR _wscCharname$[ebp]
	call	DWORD PTR __imp_??1?$basic_string@GU?$char_traits@G@std@@V?$allocator@G@2@@std@@QAE@XZ
	mov	al, BYTE PTR $T144440[ebp]
	jmp	$LN8@UserCmd_Sh
$LN7@UserCmd_Sh:
; Line 414
	lea	edx, DWORD PTR _wscTargetCharname$[ebp]
	push	edx
	call	DWORD PTR __imp_?HkGetAccountByCharname@@YAPAVCAccount@@ABV?$basic_string@GU?$char_traits@G@std@@V?$allocator@G@2@@std@@@Z
	add	esp, 4
	mov	DWORD PTR _acc$[ebp], eax
; Line 415
	cmp	DWORD PTR _acc$[ebp], 0
	jne	SHORT $LN5@UserCmd_Sh
; Line 417
	sub	esp, 28					; 0000001cH
	mov	ecx, esp
	mov	DWORD PTR $T144441[ebp], esp
	push	OFFSET $SG139546
	call	DWORD PTR __imp_??0?$basic_string@GU?$char_traits@G@std@@V?$allocator@G@2@@std@@QAE@PBG@Z
	mov	DWORD PTR tv381[ebp], eax
	mov	eax, DWORD PTR tv381[ebp]
	mov	DWORD PTR tv335[ebp], eax
	mov	BYTE PTR __$EHRec$[ebp+8], 5
	mov	ecx, DWORD PTR _iClientID$[ebp]
	push	ecx
	mov	BYTE PTR __$EHRec$[ebp+8], 2
	call	DWORD PTR __imp_?PrintUserCmdText@@YAXIV?$basic_string@GU?$char_traits@G@std@@V?$allocator@G@2@@std@@ZZ
	add	esp, 32					; 00000020H
; Line 418
	mov	BYTE PTR $T144442[ebp], 1
	mov	BYTE PTR __$EHRec$[ebp+8], 1
	lea	ecx, DWORD PTR _wscCode$[ebp]
	call	DWORD PTR __imp_??1?$basic_string@GU?$char_traits@G@std@@V?$allocator@G@2@@std@@QAE@XZ
	mov	BYTE PTR __$EHRec$[ebp+8], 0
	lea	ecx, DWORD PTR _wscTargetCharname$[ebp]
	call	DWORD PTR __imp_??1?$basic_string@GU?$char_traits@G@std@@V?$allocator@G@2@@std@@QAE@XZ
	mov	DWORD PTR __$EHRec$[ebp+8], -1
	lea	ecx, DWORD PTR _wscCharname$[ebp]
	call	DWORD PTR __imp_??1?$basic_string@GU?$char_traits@G@std@@V?$allocator@G@2@@std@@QAE@XZ
	mov	al, BYTE PTR $T144442[ebp]
	jmp	$LN8@UserCmd_Sh
$LN5@UserCmd_Sh:
; Line 421
	lea	ecx, DWORD PTR _scFile$[ebp]
	call	DWORD PTR __imp_??0?$basic_string@DU?$char_traits@D@std@@V?$allocator@D@2@@std@@QAE@XZ
	mov	BYTE PTR __$EHRec$[ebp+8], 6
; Line 422
	push	OFFSET $SG139552
	lea	ecx, DWORD PTR $T144444[ebp]
	call	DWORD PTR __imp_??0?$basic_string@DU?$char_traits@D@std@@V?$allocator@D@2@@std@@QAE@PBD@Z
	mov	BYTE PTR __$EHRec$[ebp+8], 7
	lea	edx, DWORD PTR $T144444[ebp]
	push	edx
	lea	eax, DWORD PTR _wscTargetCharname$[ebp]
	push	eax
	lea	ecx, DWORD PTR _scFile$[ebp]
	push	ecx
	call	?GetUserFilePath@@YA_NAAV?$basic_string@DU?$char_traits@D@std@@V?$allocator@D@2@@std@@ABV?$basic_string@GU?$char_traits@G@std@@V?$allocator@G@2@@2@ABV12@@Z ; GetUserFilePath
	add	esp, 12					; 0000000cH
	movzx	edx, al
	neg	edx
	sbb	edx, edx
	add	edx, 1
	mov	BYTE PTR $T144443[ebp], dl
	mov	BYTE PTR __$EHRec$[ebp+8], 6
	lea	ecx, DWORD PTR $T144444[ebp]
	call	DWORD PTR __imp_??1?$basic_string@DU?$char_traits@D@std@@V?$allocator@D@2@@std@@QAE@XZ
	movzx	eax, BYTE PTR $T144443[ebp]
	test	eax, eax
	je	SHORT $LN4@UserCmd_Sh
; Line 423
	mov	BYTE PTR $T144445[ebp], 1
	mov	BYTE PTR __$EHRec$[ebp+8], 2
	lea	ecx, DWORD PTR _scFile$[ebp]
