; Listing generated by Microsoft (R) Optimizing Compiler Version 15.00.30729.01 

	TITLE	g:\Max\Bastelstube\FL\FLHook Source\flhookplugin_MoD\plugins\playercntl_plugin\src\Mail.cpp
	.686P
	.XMM
	include listing.inc
	.model	flat

INCLUDELIB MSVCRT
INCLUDELIB OLDNAMES

PUBLIC	?_Value@?$_Is_swap_move@U_Swap_move_tag@std@@@std@@2_NB ; std::_Is_swap_move<std::_Swap_move_tag>::_Value
PUBLIC	?collate@?$_Locbase@H@std@@2HB			; std::_Locbase<int>::collate
PUBLIC	?ctype@?$_Locbase@H@std@@2HB			; std::_Locbase<int>::ctype
PUBLIC	?monetary@?$_Locbase@H@std@@2HB			; std::_Locbase<int>::monetary
PUBLIC	?numeric@?$_Locbase@H@std@@2HB			; std::_Locbase<int>::numeric
PUBLIC	?time@?$_Locbase@H@std@@2HB			; std::_Locbase<int>::time
PUBLIC	?messages@?$_Locbase@H@std@@2HB			; std::_Locbase<int>::messages
PUBLIC	?all@?$_Locbase@H@std@@2HB			; std::_Locbase<int>::all
PUBLIC	?none@?$_Locbase@H@std@@2HB			; std::_Locbase<int>::none
PUBLIC	?skipws@?$_Iosb@H@std@@2W4_Fmtflags@12@B	; std::_Iosb<int>::skipws
PUBLIC	?unitbuf@?$_Iosb@H@std@@2W4_Fmtflags@12@B	; std::_Iosb<int>::unitbuf
PUBLIC	?uppercase@?$_Iosb@H@std@@2W4_Fmtflags@12@B	; std::_Iosb<int>::uppercase
PUBLIC	?showbase@?$_Iosb@H@std@@2W4_Fmtflags@12@B	; std::_Iosb<int>::showbase
PUBLIC	?showpoint@?$_Iosb@H@std@@2W4_Fmtflags@12@B	; std::_Iosb<int>::showpoint
PUBLIC	?showpos@?$_Iosb@H@std@@2W4_Fmtflags@12@B	; std::_Iosb<int>::showpos
PUBLIC	?left@?$_Iosb@H@std@@2W4_Fmtflags@12@B		; std::_Iosb<int>::left
PUBLIC	?right@?$_Iosb@H@std@@2W4_Fmtflags@12@B		; std::_Iosb<int>::right
PUBLIC	?internal@?$_Iosb@H@std@@2W4_Fmtflags@12@B	; std::_Iosb<int>::internal
PUBLIC	?dec@?$_Iosb@H@std@@2W4_Fmtflags@12@B		; std::_Iosb<int>::dec
PUBLIC	?oct@?$_Iosb@H@std@@2W4_Fmtflags@12@B		; std::_Iosb<int>::oct
PUBLIC	?hex@?$_Iosb@H@std@@2W4_Fmtflags@12@B		; std::_Iosb<int>::hex
PUBLIC	?scientific@?$_Iosb@H@std@@2W4_Fmtflags@12@B	; std::_Iosb<int>::scientific
PUBLIC	?fixed@?$_Iosb@H@std@@2W4_Fmtflags@12@B		; std::_Iosb<int>::fixed
PUBLIC	?hexfloat@?$_Iosb@H@std@@2W4_Fmtflags@12@B	; std::_Iosb<int>::hexfloat
PUBLIC	?boolalpha@?$_Iosb@H@std@@2W4_Fmtflags@12@B	; std::_Iosb<int>::boolalpha
PUBLIC	?_Stdio@?$_Iosb@H@std@@2W4_Fmtflags@12@B	; std::_Iosb<int>::_Stdio
PUBLIC	?adjustfield@?$_Iosb@H@std@@2W4_Fmtflags@12@B	; std::_Iosb<int>::adjustfield
PUBLIC	?basefield@?$_Iosb@H@std@@2W4_Fmtflags@12@B	; std::_Iosb<int>::basefield
PUBLIC	?floatfield@?$_Iosb@H@std@@2W4_Fmtflags@12@B	; std::_Iosb<int>::floatfield
PUBLIC	?goodbit@?$_Iosb@H@std@@2W4_Iostate@12@B	; std::_Iosb<int>::goodbit
PUBLIC	?eofbit@?$_Iosb@H@std@@2W4_Iostate@12@B		; std::_Iosb<int>::eofbit
PUBLIC	?failbit@?$_Iosb@H@std@@2W4_Iostate@12@B	; std::_Iosb<int>::failbit
PUBLIC	?badbit@?$_Iosb@H@std@@2W4_Iostate@12@B		; std::_Iosb<int>::badbit
PUBLIC	?_Hardfail@?$_Iosb@H@std@@2W4_Iostate@12@B	; std::_Iosb<int>::_Hardfail
PUBLIC	?in@?$_Iosb@H@std@@2W4_Openmode@12@B		; std::_Iosb<int>::in
PUBLIC	?out@?$_Iosb@H@std@@2W4_Openmode@12@B		; std::_Iosb<int>::out
PUBLIC	?ate@?$_Iosb@H@std@@2W4_Openmode@12@B		; std::_Iosb<int>::ate
PUBLIC	?app@?$_Iosb@H@std@@2W4_Openmode@12@B		; std::_Iosb<int>::app
PUBLIC	?trunc@?$_Iosb@H@std@@2W4_Openmode@12@B		; std::_Iosb<int>::trunc
PUBLIC	?_Nocreate@?$_Iosb@H@std@@2W4_Openmode@12@B	; std::_Iosb<int>::_Nocreate
PUBLIC	?_Noreplace@?$_Iosb@H@std@@2W4_Openmode@12@B	; std::_Iosb<int>::_Noreplace
PUBLIC	?binary@?$_Iosb@H@std@@2W4_Openmode@12@B	; std::_Iosb<int>::binary
PUBLIC	?beg@?$_Iosb@H@std@@2W4_Seekdir@12@B		; std::_Iosb<int>::beg
PUBLIC	?cur@?$_Iosb@H@std@@2W4_Seekdir@12@B		; std::_Iosb<int>::cur
PUBLIC	?end@?$_Iosb@H@std@@2W4_Seekdir@12@B		; std::_Iosb<int>::end
PUBLIC	?value@?$integral_constant@_N$0A@@tr1@std@@2_NB	; std::tr1::integral_constant<bool,0>::value
PUBLIC	?value@?$integral_constant@_N$00@tr1@std@@2_NB	; std::tr1::integral_constant<bool,1>::value
;	COMDAT ?value@?$integral_constant@_N$00@tr1@std@@2_NB
CONST	SEGMENT
?value@?$integral_constant@_N$00@tr1@std@@2_NB DB 01H	; std::tr1::integral_constant<bool,1>::value
CONST	ENDS
;	COMDAT ?value@?$integral_constant@_N$0A@@tr1@std@@2_NB
CONST	SEGMENT
?value@?$integral_constant@_N$0A@@tr1@std@@2_NB DB 00H	; std::tr1::integral_constant<bool,0>::value
CONST	ENDS
;	COMDAT ?end@?$_Iosb@H@std@@2W4_Seekdir@12@B
CONST	SEGMENT
?end@?$_Iosb@H@std@@2W4_Seekdir@12@B DD 02H		; std::_Iosb<int>::end
CONST	ENDS
;	COMDAT ?cur@?$_Iosb@H@std@@2W4_Seekdir@12@B
CONST	SEGMENT
?cur@?$_Iosb@H@std@@2W4_Seekdir@12@B DD 01H		; std::_Iosb<int>::cur
CONST	ENDS
;	COMDAT ?beg@?$_Iosb@H@std@@2W4_Seekdir@12@B
CONST	SEGMENT
?beg@?$_Iosb@H@std@@2W4_Seekdir@12@B DD 00H		; std::_Iosb<int>::beg
CONST	ENDS
;	COMDAT ?binary@?$_Iosb@H@std@@2W4_Openmode@12@B
CONST	SEGMENT
?binary@?$_Iosb@H@std@@2W4_Openmode@12@B DD 020H	; std::_Iosb<int>::binary
CONST	ENDS
;	COMDAT ?_Noreplace@?$_Iosb@H@std@@2W4_Openmode@12@B
CONST	SEGMENT
?_Noreplace@?$_Iosb@H@std@@2W4_Openmode@12@B DD 080H	; std::_Iosb<int>::_Noreplace
CONST	ENDS
;	COMDAT ?_Nocreate@?$_Iosb@H@std@@2W4_Openmode@12@B
CONST	SEGMENT
?_Nocreate@?$_Iosb@H@std@@2W4_Openmode@12@B DD 040H	; std::_Iosb<int>::_Nocreate
CONST	ENDS
;	COMDAT ?trunc@?$_Iosb@H@std@@2W4_Openmode@12@B
CONST	SEGMENT
?trunc@?$_Iosb@H@std@@2W4_Openmode@12@B DD 010H		; std::_Iosb<int>::trunc
CONST	ENDS
;	COMDAT ?app@?$_Iosb@H@std@@2W4_Openmode@12@B
CONST	SEGMENT
?app@?$_Iosb@H@std@@2W4_Openmode@12@B DD 08H		; std::_Iosb<int>::app
CONST	ENDS
;	COMDAT ?ate@?$_Iosb@H@std@@2W4_Openmode@12@B
CONST	SEGMENT
?ate@?$_Iosb@H@std@@2W4_Openmode@12@B DD 04H		; std::_Iosb<int>::ate
CONST	ENDS
;	COMDAT ?out@?$_Iosb@H@std@@2W4_Openmode@12@B
CONST	SEGMENT
?out@?$_Iosb@H@std@@2W4_Openmode@12@B DD 02H		; std::_Iosb<int>::out
CONST	ENDS
;	COMDAT ?in@?$_Iosb@H@std@@2W4_Openmode@12@B
CONST	SEGMENT
?in@?$_Iosb@H@std@@2W4_Openmode@12@B DD 01H		; std::_Iosb<int>::in
CONST	ENDS
;	COMDAT ?_Hardfail@?$_Iosb@H@std@@2W4_Iostate@12@B
CONST	SEGMENT
?_Hardfail@?$_Iosb@H@std@@2W4_Iostate@12@B DD 010H	; std::_Iosb<int>::_Hardfail
CONST	ENDS
;	COMDAT ?badbit@?$_Iosb@H@std@@2W4_Iostate@12@B
CONST	SEGMENT
?badbit@?$_Iosb@H@std@@2W4_Iostate@12@B DD 04H		; std::_Iosb<int>::badbit
CONST	ENDS
;	COMDAT ?failbit@?$_Iosb@H@std@@2W4_Iostate@12@B
CONST	SEGMENT
?failbit@?$_Iosb@H@std@@2W4_Iostate@12@B DD 02H		; std::_Iosb<int>::failbit
CONST	ENDS
;	COMDAT ?eofbit@?$_Iosb@H@std@@2W4_Iostate@12@B
CONST	SEGMENT
?eofbit@?$_Iosb@H@std@@2W4_Iostate@12@B DD 01H		; std::_Iosb<int>::eofbit
CONST	ENDS
;	COMDAT ?goodbit@?$_Iosb@H@std@@2W4_Iostate@12@B
CONST	SEGMENT
?goodbit@?$_Iosb@H@std@@2W4_Iostate@12@B DD 00H		; std::_Iosb<int>::goodbit
CONST	ENDS
;	COMDAT ?floatfield@?$_Iosb@H@std@@2W4_Fmtflags@12@B
CONST	SEGMENT
?floatfield@?$_Iosb@H@std@@2W4_Fmtflags@12@B DD 03000H	; std::_Iosb<int>::floatfield
CONST	ENDS
;	COMDAT ?basefield@?$_Iosb@H@std@@2W4_Fmtflags@12@B
CONST	SEGMENT
?basefield@?$_Iosb@H@std@@2W4_Fmtflags@12@B DD 0e00H	; std::_Iosb<int>::basefield
CONST	ENDS
;	COMDAT ?adjustfield@?$_Iosb@H@std@@2W4_Fmtflags@12@B
CONST	SEGMENT
?adjustfield@?$_Iosb@H@std@@2W4_Fmtflags@12@B DD 01c0H	; std::_Iosb<int>::adjustfield
CONST	ENDS
;	COMDAT ?_Stdio@?$_Iosb@H@std@@2W4_Fmtflags@12@B
CONST	SEGMENT
?_Stdio@?$_Iosb@H@std@@2W4_Fmtflags@12@B DD 08000H	; std::_Iosb<int>::_Stdio
CONST	ENDS
;	COMDAT ?boolalpha@?$_Iosb@H@std@@2W4_Fmtflags@12@B
CONST	SEGMENT
?boolalpha@?$_Iosb@H@std@@2W4_Fmtflags@12@B DD 04000H	; std::_Iosb<int>::boolalpha
CONST	ENDS
;	COMDAT ?hexfloat@?$_Iosb@H@std@@2W4_Fmtflags@12@B
CONST	SEGMENT
?hexfloat@?$_Iosb@H@std@@2W4_Fmtflags@12@B DD 03000H	; std::_Iosb<int>::hexfloat
CONST	ENDS
;	COMDAT ?fixed@?$_Iosb@H@std@@2W4_Fmtflags@12@B
CONST	SEGMENT
?fixed@?$_Iosb@H@std@@2W4_Fmtflags@12@B DD 02000H	; std::_Iosb<int>::fixed
CONST	ENDS
;	COMDAT ?scientific@?$_Iosb@H@std@@2W4_Fmtflags@12@B
CONST	SEGMENT
?scientific@?$_Iosb@H@std@@2W4_Fmtflags@12@B DD 01000H	; std::_Iosb<int>::scientific
CONST	ENDS
;	COMDAT ?hex@?$_Iosb@H@std@@2W4_Fmtflags@12@B
CONST	SEGMENT
?hex@?$_Iosb@H@std@@2W4_Fmtflags@12@B DD 0800H		; std::_Iosb<int>::hex
CONST	ENDS
;	COMDAT ?oct@?$_Iosb@H@std@@2W4_Fmtflags@12@B
CONST	SEGMENT
?oct@?$_Iosb@H@std@@2W4_Fmtflags@12@B DD 0400H		; std::_Iosb<int>::oct
CONST	ENDS
;	COMDAT ?dec@?$_Iosb@H@std@@2W4_Fmtflags@12@B
CONST	SEGMENT
?dec@?$_Iosb@H@std@@2W4_Fmtflags@12@B DD 0200H		; std::_Iosb<int>::dec
CONST	ENDS
;	COMDAT ?internal@?$_Iosb@H@std@@2W4_Fmtflags@12@B
CONST	SEGMENT
?internal@?$_Iosb@H@std@@2W4_Fmtflags@12@B DD 0100H	; std::_Iosb<int>::internal
CONST	ENDS
;	COMDAT ?right@?$_Iosb@H@std@@2W4_Fmtflags@12@B
CONST	SEGMENT
?right@?$_Iosb@H@std@@2W4_Fmtflags@12@B DD 080H		; std::_Iosb<int>::right
CONST	ENDS
;	COMDAT ?left@?$_Iosb@H@std@@2W4_Fmtflags@12@B
CONST	SEGMENT
?left@?$_Iosb@H@std@@2W4_Fmtflags@12@B DD 040H		; std::_Iosb<int>::left
CONST	ENDS
;	COMDAT ?showpos@?$_Iosb@H@std@@2W4_Fmtflags@12@B
CONST	SEGMENT
?showpos@?$_Iosb@H@std@@2W4_Fmtflags@12@B DD 020H	; std::_Iosb<int>::showpos
CONST	ENDS
;	COMDAT ?showpoint@?$_Iosb@H@std@@2W4_Fmtflags@12@B
CONST	SEGMENT
?showpoint@?$_Iosb@H@std@@2W4_Fmtflags@12@B DD 010H	; std::_Iosb<int>::showpoint
CONST	ENDS
;	COMDAT ?showbase@?$_Iosb@H@std@@2W4_Fmtflags@12@B
CONST	SEGMENT
?showbase@?$_Iosb@H@std@@2W4_Fmtflags@12@B DD 08H	; std::_Iosb<int>::showbase
CONST	ENDS
;	COMDAT ?uppercase@?$_Iosb@H@std@@2W4_Fmtflags@12@B
CONST	SEGMENT
?uppercase@?$_Iosb@H@std@@2W4_Fmtflags@12@B DD 04H	; std::_Iosb<int>::uppercase
CONST	ENDS
;	COMDAT ?unitbuf@?$_Iosb@H@std@@2W4_Fmtflags@12@B
CONST	SEGMENT
?unitbuf@?$_Iosb@H@std@@2W4_Fmtflags@12@B DD 02H	; std::_Iosb<int>::unitbuf
CONST	ENDS
;	COMDAT ?skipws@?$_Iosb@H@std@@2W4_Fmtflags@12@B
CONST	SEGMENT
?skipws@?$_Iosb@H@std@@2W4_Fmtflags@12@B DD 01H		; std::_Iosb<int>::skipws
CONST	ENDS
;	COMDAT ?none@?$_Locbase@H@std@@2HB
CONST	SEGMENT
?none@?$_Locbase@H@std@@2HB DD 00H			; std::_Locbase<int>::none
CONST	ENDS
;	COMDAT ?all@?$_Locbase@H@std@@2HB
CONST	SEGMENT
?all@?$_Locbase@H@std@@2HB DD 03fH			; std::_Locbase<int>::all
CONST	ENDS
;	COMDAT ?messages@?$_Locbase@H@std@@2HB
CONST	SEGMENT
?messages@?$_Locbase@H@std@@2HB DD 020H			; std::_Locbase<int>::messages
CONST	ENDS
;	COMDAT ?time@?$_Locbase@H@std@@2HB
CONST	SEGMENT
?time@?$_Locbase@H@std@@2HB DD 010H			; std::_Locbase<int>::time
CONST	ENDS
;	COMDAT ?numeric@?$_Locbase@H@std@@2HB
CONST	SEGMENT
?numeric@?$_Locbase@H@std@@2HB DD 08H			; std::_Locbase<int>::numeric
CONST	ENDS
;	COMDAT ?monetary@?$_Locbase@H@std@@2HB
CONST	SEGMENT
?monetary@?$_Locbase@H@std@@2HB DD 04H			; std::_Locbase<int>::monetary
CONST	ENDS
;	COMDAT ?ctype@?$_Locbase@H@std@@2HB
CONST	SEGMENT
?ctype@?$_Locbase@H@std@@2HB DD 02H			; std::_Locbase<int>::ctype
CONST	ENDS
;	COMDAT ?collate@?$_Locbase@H@std@@2HB
CONST	SEGMENT
?collate@?$_Locbase@H@std@@2HB DD 01H			; std::_Locbase<int>::collate
CONST	ENDS
;	COMDAT ?_Value@?$_Is_swap_move@U_Swap_move_tag@std@@@std@@2_NB
CONST	SEGMENT
?_Value@?$_Is_swap_move@U_Swap_move_tag@std@@@std@@2_NB DB 01H ; std::_Is_swap_move<std::_Swap_move_tag>::_Value
CONST	ENDS
_DATA	SEGMENT
__bad_alloc_Message DD FLAT:$SG63979
_DATA	ENDS
CONST	SEGMENT
$SG63979 DB	'bad allocation', 00H
$SG138397 DB	00H
$SG138366 DB	00H, 00H
$SG138424 DB	00H
	ORG $+1
$SG138367 DB	'Msgs', 00H
	ORG $+3
$SG138370 DB	'#', 00H, '%', 00H, '0', 00H, '2', 00H, 'd', 00H, ' ', 00H
	DB	'%', 00H, 's', 00H, 00H, 00H
	ORG $+2
$SG138374 DB	'yes', 00H
$SG138375 DB	'MsgsRead', 00H
	ORG $+3
$SG138377 DB	'V', 00H, 'i', 00H, 'e', 00H, 'w', 00H, 'i', 00H, 'n', 00H
	DB	'g', 00H, ' ', 00H, '#', 00H, '%', 00H, '0', 00H, '2', 00H, 'd'
	DB	00H, '-', 00H, '#', 00H, '%', 00H, '0', 00H, '2', 00H, 'd', 00H
	DB	' ', 00H, 'o', 00H, 'f', 00H, ' ', 00H, '%', 00H, '0', 00H, '2'
	DB	00H, 'd', 00H, ' ', 00H, 'm', 00H, 'e', 00H, 's', 00H, 's', 00H
	DB	'a', 00H, 'g', 00H, 'e', 00H, 's', 00H, 00H, 00H
	ORG $+2
$SG138398 DB	'Msgs', 00H
	ORG $+3
$SG138403 DB	'MsgsRead', 00H
	ORG $+3
$SG138425 DB	'Msgs', 00H
	ORG $+3
$SG138439 DB	'Y', 00H, 'o', 00H, 'u', 00H, ' ', 00H, 'h', 00H, 'a', 00H
	DB	'v', 00H, 'e', 00H, ' ', 00H, '%', 00H, 'd', 00H, ' ', 00H, 'u'
	DB	00H, 'n', 00H, 'r', 00H, 'e', 00H, 'a', 00H, 'd', 00H, ' ', 00H
	DB	'm', 00H, 'e', 00H, 's', 00H, 's', 00H, 'a', 00H, 'g', 00H, 'e'
	DB	00H, 's', 00H, '.', 00H, ' ', 00H, 'T', 00H, 'y', 00H, 'p', 00H
	DB	'e', 00H, ' ', 00H, '/', 00H, 'm', 00H, 'a', 00H, 'i', 00H, 'l'
	DB	00H, ' ', 00H, 't', 00H, 'o', 00H, ' ', 00H, 's', 00H, 'e', 00H
	DB	'e', 00H, ' ', 00H, 'y', 00H, 'o', 00H, 'u', 00H, 'r', 00H, ' '
	DB	00H, 'm', 00H, 'e', 00H, 's', 00H, 's', 00H, 'a', 00H, 'g', 00H
	DB	'e', 00H, 's', 00H, 00H, 00H
	ORG $+2
$SG138458 DB	00H, 00H
	ORG $+2
$SG138459 DB	'Msgs', 00H
	ORG $+3
$SG138462 DB	'Msgs', 00H
	ORG $+3
$SG138466 DB	'MsgsRead', 00H
	ORG $+3
$SG138470 DB	'yes', 00H
$SG138471 DB	'no', 00H
	ORG $+1
$SG138472 DB	'MsgsRead', 00H
	ORG $+3
$SG138478 DB	' ', 00H, 00H, 00H
$SG138479 DB	'1', 00H
	ORG $+2
$SG138480 DB	'Msgs', 00H
	ORG $+3
$SG138484 DB	'no', 00H
	ORG $+1
$SG138485 DB	'1', 00H
	ORG $+2
$SG138486 DB	'MsgsRead', 00H
	ORG $+3
$SG138506 DB	00H, 00H
	ORG $+2
$SG138507 DB	'Msgs', 00H
	ORG $+3
$SG138510 DB	'Msgs', 00H
	ORG $+3
$SG138514 DB	'MsgsRead', 00H
	ORG $+3
$SG138518 DB	'yes', 00H
$SG138519 DB	'no', 00H
	ORG $+1
$SG138520 DB	'MsgsRead', 00H
CONST	ENDS
PUBLIC	?MailCount@Mail@@YAHABV?$basic_string@GU?$char_traits@G@std@@V?$allocator@G@2@@std@@ABV?$basic_string@DU?$char_traits@D@std@@V?$allocator@D@2@@3@@Z ; Mail::MailCount
PUBLIC	__$ArrayPad$
PUBLIC	?MailShow@Mail@@YAXABV?$basic_string@GU?$char_traits@G@std@@V?$allocator@G@2@@std@@ABV?$basic_string@DU?$char_traits@D@std@@V?$allocator@D@2@@3@H@Z ; Mail::MailShow
EXTRN	__imp_?IniWrite@@YAXABV?$basic_string@DU?$char_traits@D@std@@V?$allocator@D@2@@std@@000@Z:PROC
EXTRN	__imp_?PrintUserCmdText@@YAXIV?$basic_string@GU?$char_traits@G@std@@V?$allocator@G@2@@std@@ZZ:PROC
EXTRN	__imp_?c_str@?$basic_string@GU?$char_traits@G@std@@V?$allocator@G@2@@std@@QBEPBGXZ:PROC
EXTRN	__imp_?length@?$basic_string@GU?$char_traits@G@std@@V?$allocator@G@2@@std@@QBEIXZ:PROC
EXTRN	__imp_??1?$basic_string@GU?$char_traits@G@std@@V?$allocator@G@2@@std@@QAE@XZ:PROC
EXTRN	__imp_?IniGetWS@@YA?AV?$basic_string@GU?$char_traits@G@std@@V?$allocator@G@2@@std@@ABV?$basic_string@DU?$char_traits@D@std@@V?$allocator@D@2@@2@00ABV12@@Z:PROC
EXTRN	__imp_?itos@@YA?AV?$basic_string@DU?$char_traits@D@std@@V?$allocator@D@2@@std@@H@Z:PROC
EXTRN	__imp_??0?$basic_string@DU?$char_traits@D@std@@V?$allocator@D@2@@std@@QAE@PBD@Z:PROC
EXTRN	__imp_??0?$basic_string@GU?$char_traits@G@std@@V?$allocator@G@2@@std@@QAE@PBG@Z:PROC
EXTRN	__imp_??1?$basic_string@DU?$char_traits@D@std@@V?$allocator@D@2@@std@@QAE@XZ:PROC
EXTRN	__imp_?length@?$basic_string@DU?$char_traits@D@std@@V?$allocator@D@2@@std@@QBEIXZ:PROC
EXTRN	?GetUserFilePath@@YA?AV?$basic_string@DU?$char_traits@D@std@@V?$allocator@D@2@@std@@ABV?$basic_string@GU?$char_traits@G@std@@V?$allocator@G@2@@2@ABV12@@Z:PROC ; GetUserFilePath
EXTRN	__imp_?HkGetClientIdFromCharname@@YAIABV?$basic_string@GU?$char_traits@G@std@@V?$allocator@G@2@@std@@@Z:PROC
EXTRN	___security_cookie:DWORD
EXTRN	___CxxFrameHandler3:PROC
EXTRN	@__security_check_cookie@4:PROC
xdata$x	SEGMENT
__ehfuncinfo$?MailShow@Mail@@YAXABV?$basic_string@GU?$char_traits@G@std@@V?$allocator@G@2@@std@@ABV?$basic_string@DU?$char_traits@D@std@@V?$allocator@D@2@@3@H@Z DD 019930522H
	DD	0dH
	DD	FLAT:__unwindtable$?MailShow@Mail@@YAXABV?$basic_string@GU?$char_traits@G@std@@V?$allocator@G@2@@std@@ABV?$basic_string@DU?$char_traits@D@std@@V?$allocator@D@2@@3@H@Z
	DD	2 DUP(00H)
	DD	2 DUP(00H)
	DD	00H
	DD	00H
__unwindtable$?MailShow@Mail@@YAXABV?$basic_string@GU?$char_traits@G@std@@V?$allocator@G@2@@std@@ABV?$basic_string@DU?$char_traits@D@std@@V?$allocator@D@2@@3@H@Z DD 0ffffffffH
	DD	FLAT:__unwindfunclet$?MailShow@Mail@@YAXABV?$basic_string@GU?$char_traits@G@std@@V?$allocator@G@2@@std@@ABV?$basic_string@DU?$char_traits@D@std@@V?$allocator@D@2@@3@H@Z$0
	DD	00H
	DD	FLAT:__unwindfunclet$?MailShow@Mail@@YAXABV?$basic_string@GU?$char_traits@G@std@@V?$allocator@G@2@@std@@ABV?$basic_string@DU?$char_traits@D@std@@V?$allocator@D@2@@3@H@Z$1
	DD	01H
	DD	FLAT:__unwindfunclet$?MailShow@Mail@@YAXABV?$basic_string@GU?$char_traits@G@std@@V?$allocator@G@2@@std@@ABV?$basic_string@DU?$char_traits@D@std@@V?$allocator@D@2@@3@H@Z$2
	DD	02H
	DD	FLAT:__unwindfunclet$?MailShow@Mail@@YAXABV?$basic_string@GU?$char_traits@G@std@@V?$allocator@G@2@@std@@ABV?$basic_string@DU?$char_traits@D@std@@V?$allocator@D@2@@3@H@Z$3
	DD	03H
	DD	FLAT:__unwindfunclet$?MailShow@Mail@@YAXABV?$basic_string@GU?$char_traits@G@std@@V?$allocator@G@2@@std@@ABV?$basic_string@DU?$char_traits@D@std@@V?$allocator@D@2@@3@H@Z$4
	DD	02H
	DD	FLAT:__unwindfunclet$?MailShow@Mail@@YAXABV?$basic_string@GU?$char_traits@G@std@@V?$allocator@G@2@@std@@ABV?$basic_string@DU?$char_traits@D@std@@V?$allocator@D@2@@3@H@Z$4
	DD	01H
	DD	FLAT:__unwindfunclet$?MailShow@Mail@@YAXABV?$basic_string@GU?$char_traits@G@std@@V?$allocator@G@2@@std@@ABV?$basic_string@DU?$char_traits@D@std@@V?$allocator@D@2@@3@H@Z$4
	DD	00H
	DD	FLAT:__unwindfunclet$?MailShow@Mail@@YAXABV?$basic_string@GU?$char_traits@G@std@@V?$allocator@G@2@@std@@ABV?$basic_string@DU?$char_traits@D@std@@V?$allocator@D@2@@3@H@Z$4
	DD	07H
	DD	FLAT:__unwindfunclet$?MailShow@Mail@@YAXABV?$basic_string@GU?$char_traits@G@std@@V?$allocator@G@2@@std@@ABV?$basic_string@DU?$char_traits@D@std@@V?$allocator@D@2@@3@H@Z$5
	DD	07H
	DD	FLAT:__unwindfunclet$?MailShow@Mail@@YAXABV?$basic_string@GU?$char_traits@G@std@@V?$allocator@G@2@@std@@ABV?$basic_string@DU?$char_traits@D@std@@V?$allocator@D@2@@3@H@Z$6
	DD	09H
	DD	FLAT:__unwindfunclet$?MailShow@Mail@@YAXABV?$basic_string@GU?$char_traits@G@std@@V?$allocator@G@2@@std@@ABV?$basic_string@DU?$char_traits@D@std@@V?$allocator@D@2@@3@H@Z$7
	DD	0aH
	DD	FLAT:__unwindfunclet$?MailShow@Mail@@YAXABV?$basic_string@GU?$char_traits@G@std@@V?$allocator@G@2@@std@@ABV?$basic_string@DU?$char_traits@D@std@@V?$allocator@D@2@@3@H@Z$8
	DD	00H
	DD	FLAT:__unwindfunclet$?MailShow@Mail@@YAXABV?$basic_string@GU?$char_traits@G@std@@V?$allocator@G@2@@std@@ABV?$basic_string@DU?$char_traits@D@std@@V?$allocator@D@2@@3@H@Z$9
; Function compile flags: /Odtp
xdata$x	ENDS
_TEXT	SEGMENT
tv211 = -296						; size = 4
tv154 = -292						; size = 4
tv206 = -288						; size = 4
tv165 = -284						; size = 4
tv202 = -280						; size = 4
tv79 = -276						; size = 4
tv196 = -272						; size = 4
tv92 = -268						; size = 4
$T142793 = -264						; size = 4
$T142792 = -260						; size = 28
$T142791 = -232						; size = 28
$T142790 = -204						; size = 28
$T142789 = -176						; size = 4
$T142788 = -172						; size = 28
$T142787 = -144						; size = 28
$T142786 = -116						; size = 28
_wscTmpMsg$138361 = -88					; size = 28
_iMsgSlot$138356 = -60					; size = 4
_iMsgCount$138357 = -56					; size = 4
_iClientID$ = -52					; size = 4
_scFilePath$ = -48					; size = 28
__$ArrayPad$ = -20					; size = 4
_iLastMsg$ = -16					; size = 4
__$EHRec$ = -12						; size = 12
_wscCharname$ = 8					; size = 4
_scExtension$ = 12					; size = 4
_iFirstMsg$ = 16					; size = 4
?MailShow@Mail@@YAXABV?$basic_string@GU?$char_traits@G@std@@V?$allocator@G@2@@std@@ABV?$basic_string@DU?$char_traits@D@std@@V?$allocator@D@2@@3@H@Z PROC ; Mail::MailShow
; File g:\max\bastelstube\fl\flhook source\flhookplugin_mod\plugins\playercntl_plugin\src\mail.cpp
; Line 29
	push	ebp
	mov	ebp, esp
	push	-1
	push	__ehhandler$?MailShow@Mail@@YAXABV?$basic_string@GU?$char_traits@G@std@@V?$allocator@G@2@@std@@ABV?$basic_string@DU?$char_traits@D@std@@V?$allocator@D@2@@3@H@Z
	mov	eax, DWORD PTR fs:0
	push	eax
	sub	esp, 284				; 0000011cH
	mov	eax, DWORD PTR ___security_cookie
	xor	eax, ebp
	mov	DWORD PTR __$ArrayPad$[ebp], eax
	push	eax
	lea	eax, DWORD PTR __$EHRec$[ebp]
	mov	DWORD PTR fs:0, eax
; Line 31
	mov	eax, DWORD PTR _wscCharname$[ebp]
	push	eax
	call	DWORD PTR __imp_?HkGetClientIdFromCharname@@YAIABV?$basic_string@GU?$char_traits@G@std@@V?$allocator@G@2@@std@@@Z
	add	esp, 4
	mov	DWORD PTR _iClientID$[ebp], eax
; Line 32
	cmp	DWORD PTR _iClientID$[ebp], -1
	jne	SHORT $LN6@MailShow
; Line 33
	jmp	$LN7@MailShow
$LN6@MailShow:
; Line 36
	mov	ecx, DWORD PTR _scExtension$[ebp]
	push	ecx
	mov	edx, DWORD PTR _wscCharname$[ebp]
	push	edx
	lea	eax, DWORD PTR _scFilePath$[ebp]
	push	eax
	call	?GetUserFilePath@@YA?AV?$basic_string@DU?$char_traits@D@std@@V?$allocator@D@2@@std@@ABV?$basic_string@GU?$char_traits@G@std@@V?$allocator@G@2@@2@ABV12@@Z ; GetUserFilePath
	add	esp, 12					; 0000000cH
	mov	DWORD PTR __$EHRec$[ebp+8], 0
; Line 37
	lea	ecx, DWORD PTR _scFilePath$[ebp]
	call	DWORD PTR __imp_?length@?$basic_string@DU?$char_traits@D@std@@V?$allocator@D@2@@std@@QBEIXZ
	test	eax, eax
	jne	SHORT $LN5@MailShow
; Line 38
	mov	DWORD PTR __$EHRec$[ebp+8], -1
	lea	ecx, DWORD PTR _scFilePath$[ebp]
	call	DWORD PTR __imp_??1?$basic_string@DU?$char_traits@D@std@@V?$allocator@D@2@@std@@QAE@XZ
	jmp	$LN7@MailShow
$LN5@MailShow:
; Line 40
	mov	ecx, DWORD PTR _iFirstMsg$[ebp]
	mov	DWORD PTR _iLastMsg$[ebp], ecx
; Line 41
	mov	edx, DWORD PTR _iFirstMsg$[ebp]
	mov	DWORD PTR _iMsgSlot$138356[ebp], edx
	mov	DWORD PTR _iMsgCount$138357[ebp], 0
	jmp	SHORT $LN4@MailShow
$LN3@MailShow:
	mov	eax, DWORD PTR _iMsgSlot$138356[ebp]
	add	eax, 1
	mov	DWORD PTR _iMsgSlot$138356[ebp], eax
	mov	ecx, DWORD PTR _iMsgCount$138357[ebp]
	add	ecx, 1
	mov	DWORD PTR _iMsgCount$138357[ebp], ecx
$LN4@MailShow:
	cmp	DWORD PTR _iMsgSlot$138356[ebp], 40	; 00000028H
	jge	$LN2@MailShow
	cmp	DWORD PTR _iMsgCount$138357[ebp], 5
	jge	$LN2@MailShow
; Line 43
	push	OFFSET $SG138366
	lea	ecx, DWORD PTR $T142786[ebp]
	call	DWORD PTR __imp_??0?$basic_string@GU?$char_traits@G@std@@V?$allocator@G@2@@std@@QAE@PBG@Z
	mov	BYTE PTR __$EHRec$[ebp+8], 1
	push	OFFSET $SG138367
	lea	ecx, DWORD PTR $T142788[ebp]
	call	DWORD PTR __imp_??0?$basic_string@DU?$char_traits@D@std@@V?$allocator@D@2@@std@@QAE@PBD@Z
	mov	BYTE PTR __$EHRec$[ebp+8], 2
	lea	edx, DWORD PTR $T142786[ebp]
	push	edx
	mov	eax, DWORD PTR _iMsgSlot$138356[ebp]
	push	eax
	lea	ecx, DWORD PTR $T142787[ebp]
	push	ecx
	call	DWORD PTR __imp_?itos@@YA?AV?$basic_string@DU?$char_traits@D@std@@V?$allocator@D@2@@std@@H@Z
	add	esp, 8
	mov	DWORD PTR tv92[ebp], eax
	mov	edx, DWORD PTR tv92[ebp]
	mov	DWORD PTR tv196[ebp], edx
	mov	BYTE PTR __$EHRec$[ebp+8], 3
	mov	eax, DWORD PTR tv196[ebp]
	push	eax
	lea	ecx, DWORD PTR $T142788[ebp]
	push	ecx
	lea	edx, DWORD PTR _scFilePath$[ebp]
	push	edx
	lea	eax, DWORD PTR _wscTmpMsg$138361[ebp]
	push	eax
	call	DWORD PTR __imp_?IniGetWS@@YA?AV?$basic_string@GU?$char_traits@G@std@@V?$allocator@G@2@@std@@ABV?$basic_string@DU?$char_traits@D@std@@V?$allocator@D@2@@2@00ABV12@@Z
	add	esp, 20					; 00000014H
	mov	BYTE PTR __$EHRec$[ebp+8], 5
	lea	ecx, DWORD PTR $T142787[ebp]
	call	DWORD PTR __imp_??1?$basic_string@DU?$char_traits@D@std@@V?$allocator@D@2@@std@@QAE@XZ
	mov	BYTE PTR __$EHRec$[ebp+8], 6
	lea	ecx, DWORD PTR $T142788[ebp]
	call	DWORD PTR __imp_??1?$basic_string@DU?$char_traits@D@std@@V?$allocator@D@2@@std@@QAE@XZ
	mov	BYTE PTR __$EHRec$[ebp+8], 7
	lea	ecx, DWORD PTR $T142786[ebp]
	call	DWORD PTR __imp_??1?$basic_string@GU?$char_traits@G@std@@V?$allocator@G@2@@std@@QAE@XZ
; Line 44
	lea	ecx, DWORD PTR _wscTmpMsg$138361[ebp]
	call	DWORD PTR __imp_?length@?$basic_string@GU?$char_traits@G@std@@V?$allocator@G@2@@std@@QBEIXZ
	test	eax, eax
	jne	SHORT $LN1@MailShow
; Line 45
	mov	BYTE PTR __$EHRec$[ebp+8], 0
	lea	ecx, DWORD PTR _wscTmpMsg$138361[ebp]
	call	DWORD PTR __imp_??1?$basic_string@GU?$char_traits@G@std@@V?$allocator@G@2@@std@@QAE@XZ
	jmp	$LN2@MailShow
$LN1@MailShow:
; Line 46
	lea	ecx, DWORD PTR _wscTmpMsg$138361[ebp]
	call	DWORD PTR __imp_?c_str@?$basic_string@GU?$char_traits@G@std@@V?$allocator@G@2@@std@@QBEPBGXZ
	push	eax
	mov	ecx, DWORD PTR _iMsgSlot$138356[ebp]
	push	ecx
	sub	esp, 28					; 0000001cH
	mov	ecx, esp
	mov	DWORD PTR $T142789[ebp], esp
	push	OFFSET $SG138370
	call	DWORD PTR __imp_??0?$basic_string@GU?$char_traits@G@std@@V?$allocator@G@2@@std@@QAE@PBG@Z
	mov	DWORD PTR tv79[ebp], eax
	mov	edx, DWORD PTR tv79[ebp]
	mov	DWORD PTR tv202[ebp], edx
	mov	BYTE PTR __$EHRec$[ebp+8], 8
	mov	eax, DWORD PTR _iClientID$[ebp]
	push	eax
	mov	BYTE PTR __$EHRec$[ebp+8], 7
	call	DWORD PTR __imp_?PrintUserCmdText@@YAXIV?$basic_string@GU?$char_traits@G@std@@V?$allocator@G@2@@std@@ZZ
	add	esp, 40					; 00000028H
; Line 47
	push	OFFSET $SG138374
	lea	ecx, DWORD PTR $T142790[ebp]
	call	DWORD PTR __imp_??0?$basic_string@DU?$char_traits@D@std@@V?$allocator@D@2@@std@@QAE@PBD@Z
	mov	BYTE PTR __$EHRec$[ebp+8], 9
	push	OFFSET $SG138375
	lea	ecx, DWORD PTR $T142792[ebp]
	call	DWORD PTR __imp_??0?$basic_string@DU?$char_traits@D@std@@V?$allocator@D@2@@std@@QAE@PBD@Z
	mov	BYTE PTR __$EHRec$[ebp+8], 10		; 0000000aH
	lea	ecx, DWORD PTR $T142790[ebp]
	push	ecx
	mov	edx, DWORD PTR _iMsgSlot$138356[ebp]
	push	edx
	lea	eax, DWORD PTR $T142791[ebp]
	push	eax
	call	DWORD PTR __imp_?itos@@YA?AV?$basic_string@DU?$char_traits@D@std@@V?$allocator@D@2@@std@@H@Z
	add	esp, 8
	mov	DWORD PTR tv165[ebp], eax
	mov	ecx, DWORD PTR tv165[ebp]
	mov	DWORD PTR tv206[ebp], ecx
	mov	BYTE PTR __$EHRec$[ebp+8], 11		; 0000000bH
	mov	edx, DWORD PTR tv206[ebp]
	push	edx
	lea	eax, DWORD PTR $T142792[ebp]
	push	eax
	lea	ecx, DWORD PTR _scFilePath$[ebp]
	push	ecx
	call	DWORD PTR __imp_?IniWrite@@YAXABV?$basic_string@DU?$char_traits@D@std@@V?$allocator@D@2@@std@@000@Z
	add	esp, 16					; 00000010H
	mov	BYTE PTR __$EHRec$[ebp+8], 10		; 0000000aH
	lea	ecx, DWORD PTR $T142791[ebp]
	call	DWORD PTR __imp_??1?$basic_string@DU?$char_traits@D@std@@V?$allocator@D@2@@std@@QAE@XZ
	mov	BYTE PTR __$EHRec$[ebp+8], 9
	lea	ecx, DWORD PTR $T142792[ebp]
	call	DWORD PTR __imp_??1?$basic_string@DU?$char_traits@D@std@@V?$allocator@D@2@@std@@QAE@XZ
	mov	BYTE PTR __$EHRec$[ebp+8], 7
	lea	ecx, DWORD PTR $T142790[ebp]
	call	DWORD PTR __imp_??1?$basic_string@DU?$char_traits@D@std@@V?$allocator@D@2@@std@@QAE@XZ
; Line 48
	mov	edx, DWORD PTR _iMsgSlot$138356[ebp]
	mov	DWORD PTR _iLastMsg$[ebp], edx
; Line 49
	mov	BYTE PTR __$EHRec$[ebp+8], 0
	lea	ecx, DWORD PTR _wscTmpMsg$138361[ebp]
	call	DWORD PTR __imp_??1?$basic_string@GU?$char_traits@G@std@@V?$allocator@G@2@@std@@QAE@XZ
	jmp	$LN3@MailShow
$LN2@MailShow:
; Line 50
	mov	eax, DWORD PTR _scExtension$[ebp]
	push	eax
	mov	ecx, DWORD PTR _wscCharname$[ebp]
	push	ecx
	call	?MailCount@Mail@@YAHABV?$basic_string@GU?$char_traits@G@std@@V?$allocator@G@2@@std@@ABV?$basic_string@DU?$char_traits@D@std@@V?$allocator@D@2@@3@@Z ; Mail::MailCount
	add	esp, 8
	push	eax
	mov	edx, DWORD PTR _iLastMsg$[ebp]
	push	edx
	mov	eax, DWORD PTR _iFirstMsg$[ebp]
	push	eax
	sub	esp, 28					; 0000001cH
	mov	ecx, esp
	mov	DWORD PTR $T142793[ebp], esp
	push	OFFSET $SG138377
	call	DWORD PTR __imp_??0?$basic_string@GU?$char_traits@G@std@@V?$allocator@G@2@@std@@QAE@PBG@Z
	mov	DWORD PTR tv154[ebp], eax
	mov	ecx, DWORD PTR tv154[ebp]
	mov	DWORD PTR tv211[ebp], ecx
	mov	BYTE PTR __$EHRec$[ebp+8], 12		; 0000000cH
	mov	edx, DWORD PTR _iClientID$[ebp]
	push	edx
	mov	BYTE PTR __$EHRec$[ebp+8], 0
	call	DWORD PTR __imp_?PrintUserCmdText@@YAXIV?$basic_string@GU?$char_traits@G@std@@V?$allocator@G@2@@std@@ZZ
	add	esp, 44					; 0000002cH
; Line 51
	mov	DWORD PTR __$EHRec$[ebp+8], -1
	lea	ecx, DWORD PTR _scFilePath$[ebp]
	call	DWORD PTR __imp_??1?$basic_string@DU?$char_traits@D@std@@V?$allocator@D@2@@std@@QAE@XZ
$LN7@MailShow:
	mov	ecx, DWORD PTR __$EHRec$[ebp]
	mov	DWORD PTR fs:0, ecx
	pop	ecx
	mov	ecx, DWORD PTR __$ArrayPad$[ebp]
	xor	ecx, ebp
	call	@__security_check_cookie@4
	mov	esp, ebp
	pop	ebp
	ret	0
_TEXT	ENDS
text$x	SEGMENT
__unwindfunclet$?MailShow@Mail@@YAXABV?$basic_string@GU?$char_traits@G@std@@V?$allocator@G@2@@std@@ABV?$basic_string@DU?$char_traits@D@std@@V?$allocator@D@2@@3@H@Z$0:
	lea	ecx, DWORD PTR _scFilePath$[ebp]
	jmp	DWORD PTR __imp_??1?$basic_string@DU?$char_traits@D@std@@V?$allocator@D@2@@std@@QAE@XZ
__unwindfunclet$?MailShow@Mail@@YAXABV?$basic_string@GU?$char_traits@G@std@@V?$allocator@G@2@@std@@ABV?$basic_string@DU?$char_traits@D@std@@V?$allocator@D@2@@3@H@Z$1:
	lea	ecx, DWORD PTR $T142786[ebp]
	jmp	DWORD PTR __imp_??1?$basic_string@GU?$char_traits@G@std@@V?$allocator@G@2@@std@@QAE@XZ
__unwindfunclet$?MailShow@Mail@@YAXABV?$basic_string@GU?$char_traits@G@std@@V?$allocator@G@2@@std@@ABV?$basic_string@DU?$char_traits@D@std@@V?$allocator@D@2@@3@H@Z$2:
	lea	ecx, DWORD PTR $T142788[ebp]
	jmp	DWORD PTR __imp_??1?$basic_string@DU?$char_traits@D@std@@V?$allocator@D@2@@std@@QAE@XZ
__unwindfunclet$?MailShow@Mail@@YAXABV?$basic_string@GU?$char_traits@G@std@@V?$allocator@G@2@@std@@ABV?$basic_string@DU?$char_traits@D@std@@V?$allocator@D@2@@3@H@Z$3:
	lea	ecx, DWORD PTR $T142787[ebp]
	jmp	DWORD PTR __imp_??1?$basic_string@DU?$char_traits@D@std@@V?$allocator@D@2@@std@@QAE@XZ
__unwindfunclet$?MailShow@Mail@@YAXABV?$basic_string@GU?$char_traits@G@std@@V?$allocator@G@2@@std@@ABV?$basic_string@DU?$char_traits@D@std@@V?$allocator@D@2@@3@H@Z$4:
	lea	ecx, DWORD PTR _wscTmpMsg$138361[ebp]
	jmp	DWORD PTR __imp_??1?$basic_string@GU?$char_traits@G@std@@V?$allocator@G@2@@std@@QAE@XZ
__unwindfunclet$?MailShow@Mail@@YAXABV?$basic_string@GU?$char_traits@G@std@@V?$allocator@G@2@@std@@ABV?$basic_string@DU?$char_traits@D@std@@V?$allocator@D@2@@3@H@Z$5:
	mov	ecx, DWORD PTR $T142789[ebp]
	jmp	DWORD PTR __imp_??1?$basic_string@GU?$char_traits@G@std@@V?$allocator@G@2@@std@@QAE@XZ
__unwindfunclet$?MailShow@Mail@@YAXABV?$basic_string@GU?$char_traits@G@std@@V?$allocator@G@2@@std@@ABV?$basic_string@DU?$char_traits@D@std@@V?$allocator@D@2@@3@H@Z$6:
	lea	ecx, DWORD PTR $T142790[ebp]
	jmp	DWORD PTR __imp_??1?$basic_string@DU?$char_traits@D@std@@V?$allocator@D@2@@std@@QAE@XZ
__unwindfunclet$?MailShow@Mail@@YAXABV?$basic_string@GU?$char_traits@G@std@@V?$allocator@G@2@@std@@ABV?$basic_string@DU?$char_traits@D@std@@V?$allocator@D@2@@3@H@Z$7:
	lea	ecx, DWORD PTR $T142792[ebp]
	jmp	DWORD PTR __imp_??1?$basic_string@DU?$char_traits@D@std@@V?$allocator@D@2@@std@@QAE@XZ
__unwindfunclet$?MailShow@Mail@@YAXABV?$basic_string@GU?$char_traits@G@std@@V?$allocator@G@2@@std@@ABV?$basic_string@DU?$char_traits@D@std@@V?$allocator@D@2@@3@H@Z$8:
	lea	ecx, DWORD PTR $T142791[ebp]
	jmp	DWORD PTR __imp_??1?$basic_string@DU?$char_traits@D@std@@V?$allocator@D@2@@std@@QAE@XZ
__unwindfunclet$?MailShow@Mail@@YAXABV?$basic_string@GU?$char_traits@G@std@@V?$allocator@G@2@@std@@ABV?$basic_string@DU?$char_traits@D@std@@V?$allocator@D@2@@3@H@Z$9:
	mov	ecx, DWORD PTR $T142793[ebp]
	jmp	DWORD PTR __imp_??1?$basic_string@GU?$char_traits@G@std@@V?$allocator@G@2@@std@@QAE@XZ
__ehhandler$?MailShow@Mail@@YAXABV?$basic_string@GU?$char_traits@G@std@@V?$allocator@G@2@@std@@ABV?$basic_string@DU?$char_traits@D@std@@V?$allocator@D@2@@3@H@Z:
	mov	edx, DWORD PTR [esp+8]
	lea	eax, DWORD PTR [edx+12]
	mov	ecx, DWORD PTR [edx-288]
	xor	ecx, eax
	call	@__security_check_cookie@4
	mov	ecx, DWORD PTR [edx-8]
	xor	ecx, eax
	call	@__security_check_cookie@4
	mov	eax, OFFSET __ehfuncinfo$?MailShow@Mail@@YAXABV?$basic_string@GU?$char_traits@G@std@@V?$allocator@G@2@@std@@ABV?$basic_string@DU?$char_traits@D@std@@V?$allocator@D@2@@3@H@Z
	jmp	___CxxFrameHandler3
text$x	ENDS
?MailShow@Mail@@YAXABV?$basic_string@GU?$char_traits@G@std@@V?$allocator@G@2@@std@@ABV?$basic_string@DU?$char_traits@D@std@@V?$allocator@D@2@@3@H@Z ENDP ; Mail::MailShow
PUBLIC	__$ArrayPad$
PUBLIC	?MailCountUnread@Mail@@YAHABV?$basic_string@GU?$char_traits@G@std@@V?$allocator@G@2@@std@@ABV?$basic_string@DU?$char_traits@D@std@@V?$allocator@D@2@@3@@Z ; Mail::MailCountUnread
EXTRN	__imp_?IniGetB@@YA_NABV?$basic_string@DU?$char_traits@D@std@@V?$allocator@D@2@@std@@00_N@Z:PROC
EXTRN	__imp_?IniGetS@@YA?AV?$basic_string@DU?$char_traits@D@std@@V?$allocator@D@2@@std@@ABV12@000@Z:PROC
xdata$x	SEGMENT
__ehfuncinfo$?MailCountUnread@Mail@@YAHABV?$basic_string@GU?$char_traits@G@std@@V?$allocator@G@2@@std@@ABV?$basic_string@DU?$char_traits@D@std@@V?$allocator@D@2@@3@@Z DD 019930522H
	DD	07H
	DD	FLAT:__unwindtable$?MailCountUnread@Mail@@YAHABV?$basic_string@GU?$char_traits@G@std@@V?$allocator@G@2@@std@@ABV?$basic_string@DU?$char_traits@D@std@@V?$allocator@D@2@@3@@Z
	DD	2 DUP(00H)
	DD	2 DUP(00H)
	DD	00H
	DD	00H
__unwindtable$?MailCountUnread@Mail@@YAHABV?$basic_string@GU?$char_traits@G@std@@V?$allocator@G@2@@std@@ABV?$basic_string@DU?$char_traits@D@std@@V?$allocator@D@2@@3@@Z DD 0ffffffffH
	DD	FLAT:__unwindfunclet$?MailCountUnread@Mail@@YAHABV?$basic_string@GU?$char_traits@G@std@@V?$allocator@G@2@@std@@ABV?$basic_string@DU?$char_traits@D@std@@V?$allocator@D@2@@3@@Z$0
	DD	00H
	DD	FLAT:__unwindfunclet$?MailCountUnread@Mail@@YAHABV?$basic_string@GU?$char_traits@G@std@@V?$allocator@G@2@@std@@ABV?$basic_string@DU?$char_traits@D@std@@V?$allocator@D@2@@3@@Z$1
	DD	01H
	DD	FLAT:__unwindfunclet$?MailCountUnread@Mail@@YAHABV?$basic_string@GU?$char_traits@G@std@@V?$allocator@G@2@@std@@ABV?$basic_string@DU?$char_traits@D@std@@V?$allocator@D@2@@3@@Z$2
	DD	02H
	DD	FLAT:__unwindfunclet$?MailCountUnread@Mail@@YAHABV?$basic_string@GU?$char_traits@G@std@@V?$allocator@G@2@@std@@ABV?$basic_string@DU?$char_traits@D@std@@V?$allocator@D@2@@3@@Z$3
	DD	03H
	DD	FLAT:__unwindfunclet$?MailCountUnread@Mail@@YAHABV?$basic_string@GU?$char_traits@G@std@@V?$allocator@G@2@@std@@ABV?$basic_string@DU?$char_traits@D@std@@V?$allocator@D@2@@3@@Z$4
	DD	00H
	DD	FLAT:__unwindfunclet$?MailCountUnread@Mail@@YAHABV?$basic_string@GU?$char_traits@G@std@@V?$allocator@G@2@@std@@ABV?$basic_string@DU?$char_traits@D@std@@V?$allocator@D@2@@3@@Z$5
	DD	05H
	DD	FLAT:__unwindfunclet$?MailCountUnread@Mail@@YAHABV?$basic_string@GU?$char_traits@G@std@@V?$allocator@G@2@@std@@ABV?$basic_string@DU?$char_traits@D@std@@V?$allocator@D@2@@3@@Z$6
; Function compile flags: /Odtp
xdata$x	ENDS
_TEXT	SEGMENT
tv165 = -260						; size = 4
tv143 = -256						; size = 4
tv162 = -252						; size = 4
tv76 = -248						; size = 4
tv160 = -244						; size = 4
tv87 = -240						; size = 4
$T142824 = -236						; size = 4
$T142823 = -232						; size = 28
$T142822 = -204						; size = 28
$T142821 = -173						; size = 1
$T142820 = -172						; size = 28
$T142819 = -144						; size = 28
$T142818 = -116						; size = 28
$T142817 = -88						; size = 28
$T142816 = -57						; size = 1
$T142815 = -56						; size = 4
_iMsgSlot$138387 = -52					; size = 4
_iUnreadMsgs$ = -48					; size = 4
_scFilePath$ = -44					; size = 28
__$ArrayPad$ = -16					; size = 4
__$EHRec$ = -12						; size = 12
_wscCharname$ = 8					; size = 4
_scExtension$ = 12					; size = 4
?MailCountUnread@Mail@@YAHABV?$basic_string@GU?$char_traits@G@std@@V?$allocator@G@2@@std@@ABV?$basic_string@DU?$char_traits@D@std@@V?$allocator@D@2@@3@@Z PROC ; Mail::MailCountUnread
; Line 55
	push	ebp
	mov	ebp, esp
	push	-1
	push	__ehhandler$?MailCountUnread@Mail@@YAHABV?$basic_string@GU?$char_traits@G@std@@V?$allocator@G@2@@std@@ABV?$basic_string@DU?$char_traits@D@std@@V?$allocator@D@2@@3@@Z
	mov	eax, DWORD PTR fs:0
	push	eax
	sub	esp, 248				; 000000f8H
	mov	eax, DWORD PTR ___security_cookie
	xor	eax, ebp
	mov	DWORD PTR __$ArrayPad$[ebp], eax
	push	eax
	lea	eax, DWORD PTR __$EHRec$[ebp]
	mov	DWORD PTR fs:0, eax
; Line 57
	mov	eax, DWORD PTR _scExtension$[ebp]
	push	eax
	mov	ecx, DWORD PTR _wscCharname$[ebp]
	push	ecx
	lea	edx, DWORD PTR _scFilePath$[ebp]
	push	edx
	call	?GetUserFilePath@@YA?AV?$basic_string@DU?$char_traits@D@std@@V?$allocator@D@2@@std@@ABV?$basic_string@GU?$char_traits@G@std@@V?$allocator@G@2@@2@ABV12@@Z ; GetUserFilePath
	add	esp, 12					; 0000000cH
	mov	DWORD PTR __$EHRec$[ebp+8], 0
; Line 58
	lea	ecx, DWORD PTR _scFilePath$[ebp]
	call	DWORD PTR __imp_?length@?$basic_string@DU?$char_traits@D@std@@V?$allocator@D@2@@std@@QBEIXZ
	test	eax, eax
	jne	SHORT $LN6@MailCountU
; Line 59
	mov	DWORD PTR $T142815[ebp], 0
	mov	DWORD PTR __$EHRec$[ebp+8], -1
	lea	ecx, DWORD PTR _scFilePath$[ebp]
	call	DWORD PTR __imp_??1?$basic_string@DU?$char_traits@D@std@@V?$allocator@D@2@@std@@QAE@XZ
	mov	eax, DWORD PTR $T142815[ebp]
	jmp	$LN7@MailCountU
$LN6@MailCountU:
; Line 61
	mov	DWORD PTR _iUnreadMsgs$[ebp], 0
; Line 62
	mov	DWORD PTR _iMsgSlot$138387[ebp], 1
	jmp	SHORT $LN5@MailCountU
$LN4@MailCountU:
	mov	eax, DWORD PTR _iMsgSlot$138387[ebp]
	add	eax, 1
	mov	DWORD PTR _iMsgSlot$138387[ebp], eax
$LN5@MailCountU:
	cmp	DWORD PTR _iMsgSlot$138387[ebp], 40	; 00000028H
	jge	$LN3@MailCountU
; Line 64
	push	OFFSET $SG138397
	lea	ecx, DWORD PTR $T142817[ebp]
	call	DWORD PTR __imp_??0?$basic_string@DU?$char_traits@D@std@@V?$allocator@D@2@@std@@QAE@PBD@Z
	mov	BYTE PTR __$EHRec$[ebp+8], 1
	push	OFFSET $SG138398
	lea	ecx, DWORD PTR $T142819[ebp]
	call	DWORD PTR __imp_??0?$basic_string@DU?$char_traits@D@std@@V?$allocator@D@2@@std@@QAE@PBD@Z
	mov	BYTE PTR __$EHRec$[ebp+8], 2
	lea	ecx, DWORD PTR $T142817[ebp]
	push	ecx
	mov	edx, DWORD PTR _iMsgSlot$138387[ebp]
	push	edx
	lea	eax, DWORD PTR $T142818[ebp]
	push	eax
	call	DWORD PTR __imp_?itos@@YA?AV?$basic_string@DU?$char_traits@D@std@@V?$allocator@D@2@@std@@H@Z
	add	esp, 8
	mov	DWORD PTR tv87[ebp], eax
	mov	ecx, DWORD PTR tv87[ebp]
	mov	DWORD PTR tv160[ebp], ecx
	mov	BYTE PTR __$EHRec$[ebp+8], 3
	mov	edx, DWORD PTR tv160[ebp]
	push	edx
	lea	eax, DWORD PTR $T142819[ebp]
	push	eax
	lea	ecx, DWORD PTR _scFilePath$[ebp]
	push	ecx
	lea	edx, DWORD PTR $T142820[ebp]
	push	edx
	call	DWORD PTR __imp_?IniGetS@@YA?AV?$basic_string@DU?$char_traits@D@std@@V?$allocator@D@2@@std@@ABV12@000@Z
	add	esp, 20					; 00000014H
	mov	DWORD PTR tv76[ebp], eax
	mov	eax, DWORD PTR tv76[ebp]
	mov	DWORD PTR tv162[ebp], eax
	mov	BYTE PTR __$EHRec$[ebp+8], 4
	mov	ecx, DWORD PTR tv162[ebp]
	call	DWORD PTR __imp_?length@?$basic_string@DU?$char_traits@D@std@@V?$allocator@D@2@@std@@QBEIXZ
	neg	eax
	sbb	eax, eax
	add	eax, 1
	mov	BYTE PTR $T142816[ebp], al
	mov	BYTE PTR __$EHRec$[ebp+8], 3
	lea	ecx, DWORD PTR $T142820[ebp]
	call	DWORD PTR __imp_??1?$basic_string@DU?$char_traits@D@std@@V?$allocator@D@2@@std@@QAE@XZ
	mov	BYTE PTR __$EHRec$[ebp+8], 2
	lea	ecx, DWORD PTR $T142818[ebp]
	call	DWORD PTR __imp_??1?$basic_string@DU?$char_traits@D@std@@V?$allocator@D@2@@std@@QAE@XZ
	mov	BYTE PTR __$EHRec$[ebp+8], 1
	lea	ecx, DWORD PTR $T142819[ebp]
	call	DWORD PTR __imp_??1?$basic_string@DU?$char_traits@D@std@@V?$allocator@D@2@@std@@QAE@XZ
	mov	BYTE PTR __$EHRec$[ebp+8], 0
	lea	ecx, DWORD PTR $T142817[ebp]
	call	DWORD PTR __imp_??1?$basic_string@DU?$char_traits@D@std@@V?$allocator@D@2@@std@@QAE@XZ
	movzx	ecx, BYTE PTR $T142816[ebp]
	test	ecx, ecx
	je	SHORT $LN2@MailCountU
; Line 65
	jmp	$LN3@MailCountU
$LN2@MailCountU:
; Line 66
	push	OFFSET $SG138403
	lea	ecx, DWORD PTR $T142823[ebp]
	call	DWORD PTR __imp_??0?$basic_string@DU?$char_traits@D@std@@V?$allocator@D@2@@std@@QAE@PBD@Z
	mov	BYTE PTR __$EHRec$[ebp+8], 5
	push	0
	mov	edx, DWORD PTR _iMsgSlot$138387[ebp]
	push	edx
	lea	eax, DWORD PTR $T142822[ebp]
	push	eax
	call	DWORD PTR __imp_?itos@@YA?AV?$basic_string@DU?$char_traits@D@std@@V?$allocator@D@2@@std@@H@Z
	add	esp, 8
	mov	DWORD PTR tv143[ebp], eax
	mov	ecx, DWORD PTR tv143[ebp]
	mov	DWORD PTR tv165[ebp], ecx
	mov	BYTE PTR __$EHRec$[ebp+8], 6
	mov	edx, DWORD PTR tv165[ebp]
	push	edx
	lea	eax, DWORD PTR $T142823[ebp]
	push	eax
	lea	ecx, DWORD PTR _scFilePath$[ebp]
	push	ecx
	call	DWORD PTR __imp_?IniGetB@@YA_NABV?$basic_string@DU?$char_traits@D@std@@V?$allocator@D@2@@std@@00_N@Z
	add	esp, 16					; 00000010H
	movzx	edx, al
	neg	edx
	sbb	edx, edx
	add	edx, 1
	mov	BYTE PTR $T142821[ebp], dl
	mov	BYTE PTR __$EHRec$[ebp+8], 5
	lea	ecx, DWORD PTR $T142822[ebp]
	call	DWORD PTR __imp_??1?$basic_string@DU?$char_traits@D@std@@V?$allocator@D@2@@std@@QAE@XZ
	mov	BYTE PTR __$EHRec$[ebp+8], 0
	lea	ecx, DWORD PTR $T142823[ebp]
	call	DWORD PTR __imp_??1?$basic_string@DU?$char_traits@D@std@@V?$allocator@D@2@@std@@QAE@XZ
	movzx	eax, BYTE PTR $T142821[ebp]
	test	eax, eax
	je	SHORT $LN1@MailCountU
; Line 67
	mov	ecx, DWORD PTR _iUnreadMsgs$[ebp]
	add	ecx, 1
	mov	DWORD PTR _iUnreadMsgs$[ebp], ecx
$LN1@MailCountU:
; Line 68
	jmp	$LN4@MailCountU
$LN3@MailCountU:
; Line 69
	mov	edx, DWORD PTR _iUnreadMsgs$[ebp]
	mov	DWORD PTR $T142824[ebp], edx
	mov	DWORD PTR __$EHRec$[ebp+8], -1
	lea	ecx, DWORD PTR _scFilePath$[ebp]
	call	DWORD PTR __imp_??1?$basic_string@DU?$char_traits@D@std@@V?$allocator@D@2@@std@@QAE@XZ
	mov	eax, DWORD PTR $T142824[ebp]
$LN7@MailCountU:
; Line 70
	mov	ecx, DWORD PTR __$EHRec$[ebp]
	mov	DWORD PTR fs:0, ecx
	pop	ecx
	mov	ecx, DWORD PTR __$ArrayPad$[ebp]
	xor	ecx, ebp
	call	@__security_check_cookie@4
	mov	esp, ebp
	pop	ebp
	ret	0
_TEXT	ENDS
text$x	SEGMENT
__unwindfunclet$?MailCountUnread@Mail@@YAHABV?$basic_string@GU?$char_traits@G@std@@V?$allocator@G@2@@std@@ABV?$basic_string@DU?$char_traits@D@std@@V?$allocator@D@2@@3@@Z$0:
	lea	ecx, DWORD PTR _scFilePath$[ebp]
	jmp	DWORD PTR __imp_??1?$basic_string@DU?$char_traits@D@std@@V?$allocator@D@2@@std@@QAE@XZ
__unwindfunclet$?MailCountUnread@Mail@@YAHABV?$basic_string@GU?$char_traits@G@std@@V?$allocator@G@2@@std@@ABV?$basic_string@DU?$char_traits@D@std@@V?$allocator@D@2@@3@@Z$1:
	lea	ecx, DWORD PTR $T142817[ebp]
	jmp	DWORD PTR __imp_??1?$basic_string@DU?$char_traits@D@std@@V?$allocator@D@2@@std@@QAE@XZ
__unwindfunclet$?MailCountUnread@Mail@@YAHABV?$basic_string@GU?$char_traits@G@std@@V?$allocator@G@2@@std@@ABV?$basic_string@DU?$char_traits@D@std@@V?$allocator@D@2@@3@@Z$2:
	lea	ecx, DWORD PTR $T142819[ebp]
	jmp	DWORD PTR __imp_??1?$basic_string@DU?$char_traits@D@std@@V?$allocator@D@2@@std@@QAE@XZ
__unwindfunclet$?MailCountUnread@Mail@@YAHABV?$basic_string@GU?$char_traits@G@std@@V?$allocator@G@2@@std@@ABV?$basic_string@DU?$char_traits@D@std@@V?$allocator@D@2@@3@@Z$3:
	lea	ecx, DWORD PTR $T142818[ebp]
	jmp	DWORD PTR __imp_??1?$basic_string@DU?$char_traits@D@std@@V?$allocator@D@2@@std@@QAE@XZ
__unwindfunclet$?MailCountUnread@Mail@@YAHABV?$basic_string@GU?$char_traits@G@std@@V?$allocator@G@2@@std@@ABV?$basic_string@DU?$char_traits@D@std@@V?$allocator@D@2@@3@@Z$4:
	lea	ecx, DWORD PTR $T142820[ebp]
	jmp	DWORD PTR __imp_??1?$basic_string@DU?$char_traits@D@std@@V?$allocator@D@2@@std@@QAE@XZ
__unwindfunclet$?MailCountUnread@Mail@@YAHABV?$basic_string@GU?$char_traits@G@std@@V?$allocator@G@2@@std@@ABV?$basic_string@DU?$char_traits@D@std@@V?$allocator@D@2@@3@@Z$5:
	lea	ecx, DWORD PTR $T142823[ebp]
	jmp	DWORD PTR __imp_??1?$basic_string@DU?$char_traits@D@std@@V?$allocator@D@2@@std@@QAE@XZ
__unwindfunclet$?MailCountUnread@Mail@@YAHABV?$basic_string@GU?$char_traits@G@std@@V?$allocator@G@2@@std@@ABV?$basic_string@DU?$char_traits@D@std@@V?$allocator@D@2@@3@@Z$6:
	lea	ecx, DWORD PTR $T142822[ebp]
	jmp	DWORD PTR __imp_??1?$basic_string@DU?$char_traits@D@std@@V?$allocator@D@2@@std@@QAE@XZ
__ehhandler$?MailCountUnread@Mail@@YAHABV?$basic_string@GU?$char_traits@G@std@@V?$allocator@G@2@@std@@ABV?$basic_string@DU?$char_traits@D@std@@V?$allocator@D@2@@3@@Z:
	mov	edx, DWORD PTR [esp+8]
	lea	eax, DWORD PTR [edx+12]
	mov	ecx, DWORD PTR [edx-252]
	xor	ecx, eax
	call	@__security_check_cookie@4
	mov	ecx, DWORD PTR [edx-4]
	xor	ecx, eax
	call	@__security_check_cookie@4
	mov	eax, OFFSET __ehfuncinfo$?MailCountUnread@Mail@@YAHABV?$basic_string@GU?$char_traits@G@std@@V?$allocator@G@2@@std@@ABV?$basic_string@DU?$char_traits@D@std@@V?$allocator@D@2@@3@@Z
	jmp	___CxxFrameHandler3
text$x	ENDS
?MailCountUnread@Mail@@YAHABV?$basic_string@GU?$char_traits@G@std@@V?$allocator@G@2@@std@@ABV?$basic_string@DU?$char_traits@D@std@@V?$allocator@D@2@@3@@Z ENDP ; Mail::MailCountUnread
PUBLIC	__$ArrayPad$
xdata$x	SEGMENT
__ehfuncinfo$?MailCount@Mail@@YAHABV?$basic_string@GU?$char_traits@G@std@@V?$allocator@G@2@@std@@ABV?$basic_string@DU?$char_traits@D@std@@V?$allocator@D@2@@3@@Z DD 019930522H
	DD	05H
	DD	FLAT:__unwindtable$?MailCount@Mail@@YAHABV?$basic_string@GU?$char_traits@G@std@@V?$allocator@G@2@@std@@ABV?$basic_string@DU?$char_traits@D@std@@V?$allocator@D@2@@3@@Z
	DD	2 DUP(00H)
	DD	2 DUP(00H)
	DD	00H
	DD	00H
__unwindtable$?MailCount@Mail@@YAHABV?$basic_string@GU?$char_traits@G@std@@V?$allocator@G@2@@std@@ABV?$basic_string@DU?$char_traits@D@std@@V?$allocator@D@2@@3@@Z DD 0ffffffffH
	DD	FLAT:__unwindfunclet$?MailCount@Mail@@YAHABV?$basic_string@GU?$char_traits@G@std@@V?$allocator@G@2@@std@@ABV?$basic_string@DU?$char_traits@D@std@@V?$allocator@D@2@@3@@Z$0
	DD	00H
	DD	FLAT:__unwindfunclet$?MailCount@Mail@@YAHABV?$basic_string@GU?$char_traits@G@std@@V?$allocator@G@2@@std@@ABV?$basic_string@DU?$char_traits@D@std@@V?$allocator@D@2@@3@@Z$1
	DD	01H
	DD	FLAT:__unwindfunclet$?MailCount@Mail@@YAHABV?$basic_string@GU?$char_traits@G@std@@V?$allocator@G@2@@std@@ABV?$basic_string@DU?$char_traits@D@std@@V?$allocator@D@2@@3@@Z$2
	DD	02H
	DD	FLAT:__unwindfunclet$?MailCount@Mail@@YAHABV?$basic_string@GU?$char_traits@G@std@@V?$allocator@G@2@@std@@ABV?$basic_string@DU?$char_traits@D@std@@V?$allocator@D@2@@3@@Z$3
	DD	03H
	DD	FLAT:__unwindfunclet$?MailCount@Mail@@YAHABV?$basic_string@GU?$char_traits@G@std@@V?$allocator@G@2@@std@@ABV?$basic_string@DU?$char_traits@D@std@@V?$allocator@D@2@@3@@Z$4
; Function compile flags: /Odtp
xdata$x	ENDS
_TEXT	SEGMENT
tv142 = -192						; size = 4
tv76 = -188						; size = 4
tv140 = -184						; size = 4
tv87 = -180						; size = 4
$T142844 = -176						; size = 4
$T142843 = -172						; size = 28
$T142842 = -144						; size = 28
$T142841 = -116						; size = 28
$T142840 = -88						; size = 28
$T142839 = -57						; size = 1
$T142838 = -56						; size = 4
_iMsgSlot$138414 = -52					; size = 4
_iMsgs$ = -48						; size = 4
_scFilePath$ = -44					; size = 28
__$ArrayPad$ = -16					; size = 4
__$EHRec$ = -12						; size = 12
_wscCharname$ = 8					; size = 4
_scExtension$ = 12					; size = 4
?MailCount@Mail@@YAHABV?$basic_string@GU?$char_traits@G@std@@V?$allocator@G@2@@std@@ABV?$basic_string@DU?$char_traits@D@std@@V?$allocator@D@2@@3@@Z PROC ; Mail::MailCount
; Line 74
	push	ebp
	mov	ebp, esp
	push	-1
	push	__ehhandler$?MailCount@Mail@@YAHABV?$basic_string@GU?$char_traits@G@std@@V?$allocator@G@2@@std@@ABV?$basic_string@DU?$char_traits@D@std@@V?$allocator@D@2@@3@@Z
	mov	eax, DWORD PTR fs:0
	push	eax
	sub	esp, 180				; 000000b4H
	mov	eax, DWORD PTR ___security_cookie
	xor	eax, ebp
	mov	DWORD PTR __$ArrayPad$[ebp], eax
	push	eax
	lea	eax, DWORD PTR __$EHRec$[ebp]
	mov	DWORD PTR fs:0, eax
; Line 76
	mov	eax, DWORD PTR _scExtension$[ebp]
	push	eax
	mov	ecx, DWORD PTR _wscCharname$[ebp]
	push	ecx
	lea	edx, DWORD PTR _scFilePath$[ebp]
	push	edx
	call	?GetUserFilePath@@YA?AV?$basic_string@DU?$char_traits@D@std@@V?$allocator@D@2@@std@@ABV?$basic_string@GU?$char_traits@G@std@@V?$allocator@G@2@@2@ABV12@@Z ; GetUserFilePath
	add	esp, 12					; 0000000cH
	mov	DWORD PTR __$EHRec$[ebp+8], 0
; Line 77
	lea	ecx, DWORD PTR _scFilePath$[ebp]
	call	DWORD PTR __imp_?length@?$basic_string@DU?$char_traits@D@std@@V?$allocator@D@2@@std@@QBEIXZ
	test	eax, eax
	jne	SHORT $LN5@MailCount
; Line 78
	mov	DWORD PTR $T142838[ebp], 0
	mov	DWORD PTR __$EHRec$[ebp+8], -1
	lea	ecx, DWORD PTR _scFilePath$[ebp]
	call	DWORD PTR __imp_??1?$basic_string@DU?$char_traits@D@std@@V?$allocator@D@2@@std@@QAE@XZ
	mov	eax, DWORD PTR $T142838[ebp]
	jmp	$LN6@MailCount
$LN5@MailCount:
; Line 80
	mov	DWORD PTR _iMsgs$[ebp], 0
; Line 81
	mov	DWORD PTR _iMsgSlot$138414[ebp], 1
	jmp	SHORT $LN4@MailCount
$LN3@MailCount:
	mov	eax, DWORD PTR _iMsgSlot$138414[ebp]
	add	eax, 1
	mov	DWORD PTR _iMsgSlot$138414[ebp], eax
$LN4@MailCount:
	cmp	DWORD PTR _iMsgSlot$138414[ebp], 40	; 00000028H
	jge	$LN2@MailCount
; Line 83
	push	OFFSET $SG138424
	lea	ecx, DWORD PTR $T142840[ebp]
	call	DWORD PTR __imp_??0?$basic_string@DU?$char_traits@D@std@@V?$allocator@D@2@@std@@QAE@PBD@Z
	mov	BYTE PTR __$EHRec$[ebp+8], 1
	push	OFFSET $SG138425
	lea	ecx, DWORD PTR $T142842[ebp]
	call	DWORD PTR __imp_??0?$basic_string@DU?$char_traits@D@std@@V?$allocator@D@2@@std@@QAE@PBD@Z
	mov	BYTE PTR __$EHRec$[ebp+8], 2
	lea	ecx, DWORD PTR $T142840[ebp]
	push	ecx
	mov	edx, DWORD PTR _iMsgSlot$138414[ebp]
	push	edx
	lea	eax, DWORD PTR $T142841[ebp]
	push	eax
	call	DWORD PTR __imp_?itos@@YA?AV?$basic_string@DU?$char_traits@D@std@@V?$allocator@D@2@@std@@H@Z
	add	esp, 8
	mov	DWORD PTR tv87[ebp], eax
	mov	ecx, DWORD PTR tv87[ebp]
	mov	DWORD PTR tv140[ebp], ecx
	mov	BYTE PTR __$EHRec$[ebp+8], 3
	mov	edx, DWORD PTR tv140[ebp]
	push	edx
	lea	eax, DWORD PTR $T142842[ebp]
	push	eax
	lea	ecx, DWORD PTR _scFilePath$[ebp]
	push	ecx
	lea	edx, DWORD PTR $T142843[ebp]
	push	edx
	call	DWORD PTR __imp_?IniGetS@@YA?AV?$basic_string@DU?$char_traits@D@std@@V?$allocator@D@2@@std@@ABV12@000@Z
	add	esp, 20					; 00000014H
	mov	DWORD PTR tv76[ebp], eax
	mov	eax, DWORD PTR tv76[ebp]
	mov	DWORD PTR tv142[ebp], eax
	mov	BYTE PTR __$EHRec$[ebp+8], 4
	mov	ecx, DWORD PTR tv142[ebp]
	call	DWORD PTR __imp_?length@?$basic_string@DU?$char_traits@D@std@@V?$allocator@D@2@@std@@QBEIXZ
	neg	eax
	sbb	eax, eax
	add	eax, 1
	mov	BYTE PTR $T142839[ebp], al
	mov	BYTE PTR __$EHRec$[ebp+8], 3
	lea	ecx, DWORD PTR $T142843[ebp]
	call	DWORD PTR __imp_??1?$basic_string@DU?$char_traits@D@std@@V?$allocator@D@2@@std@@QAE@XZ
	mov	BYTE PTR __$EHRec$[ebp+8], 2
	lea	ecx, DWORD PTR $T142841[ebp]
	call	DWORD PTR __imp_??1?$basic_string@DU?$char_traits@D@std@@V?$allocator@D@2@@std@@QAE@XZ
	mov	BYTE PTR __$EHRec$[ebp+8], 1
	lea	ecx, DWORD PTR $T142842[ebp]
	call	DWORD PTR __imp_??1?$basic_string@DU?$char_traits@D@std@@V?$allocator@D@2@@std@@QAE@XZ
	mov	BYTE PTR __$EHRec$[ebp+8], 0
	lea	ecx, DWORD PTR $T142840[ebp]
	call	DWORD PTR __imp_??1?$basic_string@DU?$char_traits@D@std@@V?$allocator@D@2@@std@@QAE@XZ
	movzx	ecx, BYTE PTR $T142839[ebp]
	test	ecx, ecx
	je	SHORT $LN1@MailCount
; Line 84
	jmp	SHORT $LN2@MailCount
$LN1@MailCount:
; Line 85
	mov	edx, DWORD PTR _iMsgs$[ebp]
	add	edx, 1
	mov	DWORD PTR _iMsgs$[ebp], edx
; Line 86
	jmp	$LN3@MailCount
$LN2@MailCount:
; Line 87
	mov	eax, DWORD PTR _iMsgs$[ebp]
	mov	DWORD PTR $T142844[ebp], eax
	mov	DWORD PTR __$EHRec$[ebp+8], -1
	lea	ecx, DWORD PTR _scFilePath$[ebp]
	call	DWORD PTR __imp_??1?$basic_string@DU?$char_traits@D@std@@V?$allocator@D@2@@std@@QAE@XZ
	mov	eax, DWORD PTR $T142844[ebp]
$LN6@MailCount:
; Line 88
	mov	ecx, DWORD PTR __$EHRec$[ebp]
	mov	DWORD PTR fs:0, ecx
	pop	ecx
	mov	ecx, DWORD PTR __$ArrayPad$[ebp]
	xor	ecx, ebp
	call	@__security_check_cookie@4
	mov	esp, ebp
	pop	ebp
	ret	0
_TEXT	ENDS
text$x	SEGMENT
__unwindfunclet$?MailCount@Mail@@YAHABV?$basic_string@GU?$char_traits@G@std@@V?$allocator@G@2@@std@@ABV?$basic_string@DU?$char_traits@D@std@@V?$allocator@D@2@@3@@Z$0:
	lea	ecx, DWORD PTR _scFilePath$[ebp]
	jmp	DWORD PTR __imp_??1?$basic_string@DU?$char_traits@D@std@@V?$allocator@D@2@@std@@QAE@XZ
__unwindfunclet$?MailCount@Mail@@YAHABV?$basic_string@GU?$char_traits@G@std@@V?$allocator@G@2@@std@@ABV?$basic_string@DU?$char_traits@D@std@@V?$allocator@D@2@@3@@Z$1:
	lea	ecx, DWORD PTR $T142840[ebp]
	jmp	DWORD PTR __imp_??1?$basic_string@DU?$char_traits@D@std@@V?$allocator@D@2@@std@@QAE@XZ
__unwindfunclet$?MailCount@Mail@@YAHABV?$basic_string@GU?$char_traits@G@std@@V?$allocator@G@2@@std@@ABV?$basic_string@DU?$char_traits@D@std@@V?$allocator@D@2@@3@@Z$2:
	lea	ecx, DWORD PTR $T142842[ebp]
	jmp	DWORD PTR __imp_??1?$basic_string@DU?$char_traits@D@std@@V?$allocator@D@2@@std@@QAE@XZ
__unwindfunclet$?MailCount@Mail@@YAHABV?$basic_string@GU?$char_traits@G@std@@V?$allocator@G@2@@std@@ABV?$basic_string@DU?$char_traits@D@std@@V?$allocator@D@2@@3@@Z$3:
	lea	ecx, DWORD PTR $T142841[ebp]
	jmp	DWORD PTR __imp_??1?$basic_string@DU?$char_traits@D@std@@V?$allocator@D@2@@std@@QAE@XZ
__unwindfunclet$?MailCount@Mail@@YAHABV?$basic_string@GU?$char_traits@G@std@@V?$allocator@G@2@@std@@ABV?$basic_string@DU?$char_traits@D@std@@V?$allocator@D@2@@3@@Z$4:
	lea	ecx, DWORD PTR $T142843[ebp]
	jmp	DWORD PTR __imp_??1?$basic_string@DU?$char_traits@D@std@@V?$allocator@D@2@@std@@QAE@XZ
__ehhandler$?MailCount@Mail@@YAHABV?$basic_string@GU?$char_traits@G@std@@V?$allocator@G@2@@std@@ABV?$basic_string@DU?$char_traits@D@std@@V?$allocator@D@2@@3@@Z:
	mov	edx, DWORD PTR [esp+8]
	lea	eax, DWORD PTR [edx+12]
	mov	ecx, DWORD PTR [edx-184]
	xor	ecx, eax
	call	@__security_check_cookie@4
	mov	ecx, DWORD PTR [edx-4]
	xor	ecx, eax
	call	@__security_check_cookie@4
	mov	eax, OFFSET __ehfuncinfo$?MailCount@Mail@@YAHABV?$basic_string@GU?$char_traits@G@std@@V?$allocator@G@2@@std@@ABV?$basic_string@DU?$char_traits@D@std@@V?$allocator@D@2@@3@@Z
	jmp	___CxxFrameHandler3
text$x	ENDS
?MailCount@Mail@@YAHABV?$basic_string@GU?$char_traits@G@std@@V?$allocator@G@2@@std@@ABV?$basic_string@DU?$char_traits@D@std@@V?$allocator@D@2@@3@@Z ENDP ; Mail::MailCount
PUBLIC	__$ArrayPad$
PUBLIC	?MailCheckLog@Mail@@YAXABV?$basic_string@GU?$char_traits@G@std@@V?$allocator@G@2@@std@@ABV?$basic_string@DU?$char_traits@D@std@@V?$allocator@D@2@@3@@Z ; Mail::MailCheckLog
xdata$x	SEGMENT
__unwindtable$?MailCheckLog@Mail@@YAXABV?$basic_string@GU?$char_traits@G@std@@V?$allocator@G@2@@std@@ABV?$basic_string@DU?$char_traits@D@std@@V?$allocator@D@2@@3@@Z DD 0ffffffffH
	DD	FLAT:__unwindfunclet$?MailCheckLog@Mail@@YAXABV?$basic_string@GU?$char_traits@G@std@@V?$allocator@G@2@@std@@ABV?$basic_string@DU?$char_traits@D@std@@V?$allocator@D@2@@3@@Z$0
	DD	00H
	DD	FLAT:__unwindfunclet$?MailCheckLog@Mail@@YAXABV?$basic_string@GU?$char_traits@G@std@@V?$allocator@G@2@@std@@ABV?$basic_string@DU?$char_traits@D@std@@V?$allocator@D@2@@3@@Z$1
__ehfuncinfo$?MailCheckLog@Mail@@YAXABV?$basic_string@GU?$char_traits@G@std@@V?$allocator@G@2@@std@@ABV?$basic_string@DU?$char_traits@D@std@@V?$allocator@D@2@@3@@Z DD 019930522H
	DD	02H
	DD	FLAT:__unwindtable$?MailCheckLog@Mail@@YAXABV?$basic_string@GU?$char_traits@G@std@@V?$allocator@G@2@@std@@ABV?$basic_string@DU?$char_traits@D@std@@V?$allocator@D@2@@3@@Z
	DD	2 DUP(00H)
	DD	2 DUP(00H)
	DD	00H
	DD	00H
; Function compile flags: /Odtp
xdata$x	ENDS
_TEXT	SEGMENT
tv131 = -64						; size = 4
tv67 = -60						; size = 4
$T142856 = -56						; size = 4
_iUnreadMsgs$ = -52					; size = 4
_iClientID$ = -48					; size = 4
_scFilePath$ = -44					; size = 28
__$ArrayPad$ = -16					; size = 4
__$EHRec$ = -12						; size = 12
_wscCharname$ = 8					; size = 4
_scExtension$ = 12					; size = 4
?MailCheckLog@Mail@@YAXABV?$basic_string@GU?$char_traits@G@std@@V?$allocator@G@2@@std@@ABV?$basic_string@DU?$char_traits@D@std@@V?$allocator@D@2@@3@@Z PROC ; Mail::MailCheckLog
; Line 93
	push	ebp
	mov	ebp, esp
	push	-1
	push	__ehhandler$?MailCheckLog@Mail@@YAXABV?$basic_string@GU?$char_traits@G@std@@V?$allocator@G@2@@std@@ABV?$basic_string@DU?$char_traits@D@std@@V?$allocator@D@2@@3@@Z
	mov	eax, DWORD PTR fs:0
	push	eax
	sub	esp, 52					; 00000034H
	mov	eax, DWORD PTR ___security_cookie
	xor	eax, ebp
	mov	DWORD PTR __$ArrayPad$[ebp], eax
	push	eax
	lea	eax, DWORD PTR __$EHRec$[ebp]
	mov	DWORD PTR fs:0, eax
; Line 95
	mov	eax, DWORD PTR _wscCharname$[ebp]
	push	eax
	call	DWORD PTR __imp_?HkGetClientIdFromCharname@@YAIABV?$basic_string@GU?$char_traits@G@std@@V?$allocator@G@2@@std@@@Z
	add	esp, 4
	mov	DWORD PTR _iClientID$[ebp], eax
; Line 96
	cmp	DWORD PTR _iClientID$[ebp], -1
	jne	SHORT $LN3@MailCheckL
; Line 97
	jmp	$LN4@MailCheckL
$LN3@MailCheckL:
; Line 100
	mov	ecx, DWORD PTR _scExtension$[ebp]
	push	ecx
	mov	edx, DWORD PTR _wscCharname$[ebp]
	push	edx
	lea	eax, DWORD PTR _scFilePath$[ebp]
	push	eax
	call	?GetUserFilePath@@YA?AV?$basic_string@DU?$char_traits@D@std@@V?$allocator@D@2@@std@@ABV?$basic_string@GU?$char_traits@G@std@@V?$allocator@G@2@@2@ABV12@@Z ; GetUserFilePath
	add	esp, 12					; 0000000cH
	mov	DWORD PTR __$EHRec$[ebp+8], 0
; Line 101
	lea	ecx, DWORD PTR _scFilePath$[ebp]
	call	DWORD PTR __imp_?length@?$basic_string@DU?$char_traits@D@std@@V?$allocator@D@2@@std@@QBEIXZ
	test	eax, eax
	jne	SHORT $LN2@MailCheckL
; Line 102
	mov	DWORD PTR __$EHRec$[ebp+8], -1
	lea	ecx, DWORD PTR _scFilePath$[ebp]
	call	DWORD PTR __imp_??1?$basic_string@DU?$char_traits@D@std@@V?$allocator@D@2@@std@@QAE@XZ
	jmp	SHORT $LN4@MailCheckL
$LN2@MailCheckL:
; Line 105
	mov	ecx, DWORD PTR _scExtension$[ebp]
	push	ecx
	mov	edx, DWORD PTR _wscCharname$[ebp]
	push	edx
	call	?MailCountUnread@Mail@@YAHABV?$basic_string@GU?$char_traits@G@std@@V?$allocator@G@2@@std@@ABV?$basic_string@DU?$char_traits@D@std@@V?$allocator@D@2@@3@@Z ; Mail::MailCountUnread
	add	esp, 8
	mov	DWORD PTR _iUnreadMsgs$[ebp], eax
; Line 106
	cmp	DWORD PTR _iUnreadMsgs$[ebp], 0
	jle	SHORT $LN1@MailCheckL
; Line 108
	mov	eax, DWORD PTR _iUnreadMsgs$[ebp]
	push	eax
	sub	esp, 28					; 0000001cH
	mov	ecx, esp
	mov	DWORD PTR $T142856[ebp], esp
	push	OFFSET $SG138439
	call	DWORD PTR __imp_??0?$basic_string@GU?$char_traits@G@std@@V?$allocator@G@2@@std@@QAE@PBG@Z
	mov	DWORD PTR tv67[ebp], eax
	mov	ecx, DWORD PTR tv67[ebp]
	mov	DWORD PTR tv131[ebp], ecx
	mov	BYTE PTR __$EHRec$[ebp+8], 1
	mov	edx, DWORD PTR _iClientID$[ebp]
	push	edx
	mov	BYTE PTR __$EHRec$[ebp+8], 0
	call	DWORD PTR __imp_?PrintUserCmdText@@YAXIV?$basic_string@GU?$char_traits@G@std@@V?$allocator@G@2@@std@@ZZ
	add	esp, 36					; 00000024H
$LN1@MailCheckL:
; Line 110
	mov	DWORD PTR __$EHRec$[ebp+8], -1
	lea	ecx, DWORD PTR _scFilePath$[ebp]
	call	DWORD PTR __imp_??1?$basic_string@DU?$char_traits@D@std@@V?$allocator@D@2@@std@@QAE@XZ
$LN4@MailCheckL:
	mov	ecx, DWORD PTR __$EHRec$[ebp]
	mov	DWORD PTR fs:0, ecx
	pop	ecx
	mov	ecx, DWORD PTR __$ArrayPad$[ebp]
	xor	ecx, ebp
	call	@__security_check_cookie@4
	mov	esp, ebp
	pop	ebp
	ret	0
_TEXT	ENDS
text$x	SEGMENT
__unwindfunclet$?MailCheckLog@Mail@@YAXABV?$basic_string@GU?$char_traits@G@std@@V?$allocator@G@2@@std@@ABV?$basic_string@DU?$char_traits@D@std@@V?$allocator@D@2@@3@@Z$0:
	lea	ecx, DWORD PTR _scFilePath$[ebp]
	jmp	DWORD PTR __imp_??1?$basic_string@DU?$char_traits@D@std@@V?$allocator@D@2@@std@@QAE@XZ
__unwindfunclet$?MailCheckLog@Mail@@YAXABV?$basic_string@GU?$char_traits@G@std@@V?$allocator@G@2@@std@@ABV?$basic_string@DU?$char_traits@D@std@@V?$allocator@D@2@@3@@Z$1:
	mov	ecx, DWORD PTR $T142856[ebp]
	jmp	DWORD PTR __imp_??1?$basic_string@GU?$char_traits@G@std@@V?$allocator@G@2@@std@@QAE@XZ
__ehhandler$?MailCheckLog@Mail@@YAXABV?$basic_string@GU?$char_traits@G@std@@V?$allocator@G@2@@std@@ABV?$basic_string@DU?$char_traits@D@std@@V?$allocator@D@2@@3@@Z:
	mov	edx, DWORD PTR [esp+8]
	lea	eax, DWORD PTR [edx+12]
	mov	ecx, DWORD PTR [edx-56]
	xor	ecx, eax
	call	@__security_check_cookie@4
	mov	ecx, DWORD PTR [edx-4]
	xor	ecx, eax
	call	@__security_check_cookie@4
	mov	eax, OFFSET __ehfuncinfo$?MailCheckLog@Mail@@YAXABV?$basic_string@GU?$char_traits@G@std@@V?$allocator@G@2@@std@@ABV?$basic_string@DU?$char_traits@D@std@@V?$allocator@D@2@@3@@Z
	jmp	___CxxFrameHandler3
text$x	ENDS
?MailCheckLog@Mail@@YAXABV?$basic_string@GU?$char_traits@G@std@@V?$allocator@G@2@@std@@ABV?$basic_string@DU?$char_traits@D@std@@V?$allocator@D@2@@3@@Z ENDP ; Mail::MailCheckLog
PUBLIC	__$ArrayPad$
PUBLIC	?MailSend@Mail@@YA_NABV?$basic_string@GU?$char_traits@G@std@@V?$allocator@G@2@@std@@ABV?$basic_string@DU?$char_traits@D@std@@V?$allocator@D@2@@3@0@Z ; Mail::MailSend
EXTRN	__imp_??$?HGU?$char_traits@G@std@@V?$allocator@G@1@@std@@YA?AV?$basic_string@GU?$char_traits@G@std@@V?$allocator@G@2@@0@ABV10@0@Z:PROC
EXTRN	__imp_??$?HGU?$char_traits@G@std@@V?$allocator@G@1@@std@@YA?AV?$basic_string@GU?$char_traits@G@std@@V?$allocator@G@2@@0@ABV10@PBG@Z:PROC
EXTRN	?GetTimeString@@YA?AV?$basic_string@GU?$char_traits@G@std@@V?$allocator@G@2@@std@@_N@Z:PROC ; GetTimeString
EXTRN	?set_bLocalTime@@3_NA:BYTE			; set_bLocalTime
EXTRN	__imp_?IniWriteW@@YAXABV?$basic_string@DU?$char_traits@D@std@@V?$allocator@D@2@@std@@00ABV?$basic_string@GU?$char_traits@G@std@@V?$allocator@G@2@@2@@Z:PROC
xdata$x	SEGMENT
__ehfuncinfo$?MailSend@Mail@@YA_NABV?$basic_string@GU?$char_traits@G@std@@V?$allocator@G@2@@std@@ABV?$basic_string@DU?$char_traits@D@std@@V?$allocator@D@2@@3@0@Z DD 019930522H
	DD	017H
	DD	FLAT:__unwindtable$?MailSend@Mail@@YA_NABV?$basic_string@GU?$char_traits@G@std@@V?$allocator@G@2@@std@@ABV?$basic_string@DU?$char_traits@D@std@@V?$allocator@D@2@@3@0@Z
	DD	2 DUP(00H)
	DD	2 DUP(00H)
	DD	00H
	DD	00H
__unwindtable$?MailSend@Mail@@YA_NABV?$basic_string@GU?$char_traits@G@std@@V?$allocator@G@2@@std@@ABV?$basic_string@DU?$char_traits@D@std@@V?$allocator@D@2@@3@0@Z DD 0ffffffffH
	DD	FLAT:__unwindfunclet$?MailSend@Mail@@YA_NABV?$basic_string@GU?$char_traits@G@std@@V?$allocator@G@2@@std@@ABV?$basic_string@DU?$char_traits@D@std@@V?$allocator@D@2@@3@0@Z$0
	DD	00H
	DD	FLAT:__unwindfunclet$?MailSend@Mail@@YA_NABV?$basic_string@GU?$char_traits@G@std@@V?$allocator@G@2@@std@@ABV?$basic_string@DU?$char_traits@D@std@@V?$allocator@D@2@@3@0@Z$1
	DD	01H
	DD	FLAT:__unwindfunclet$?MailSend@Mail@@YA_NABV?$basic_string@GU?$char_traits@G@std@@V?$allocator@G@2@@std@@ABV?$basic_string@DU?$char_traits@D@std@@V?$allocator@D@2@@3@0@Z$2
	DD	02H
	DD	FLAT:__unwindfunclet$?MailSend@Mail@@YA_NABV?$basic_string@GU?$char_traits@G@std@@V?$allocator@G@2@@std@@ABV?$basic_string@DU?$char_traits@D@std@@V?$allocator@D@2@@3@0@Z$3
	DD	03H
	DD	FLAT:__unwindfunclet$?MailSend@Mail@@YA_NABV?$basic_string@GU?$char_traits@G@std@@V?$allocator@G@2@@std@@ABV?$basic_string@DU?$char_traits@D@std@@V?$allocator@D@2@@3@0@Z$4
	DD	02H
	DD	FLAT:__unwindfunclet$?MailSend@Mail@@YA_NABV?$basic_string@GU?$char_traits@G@std@@V?$allocator@G@2@@std@@ABV?$basic_string@DU?$char_traits@D@std@@V?$allocator@D@2@@3@0@Z$4
	DD	01H
	DD	FLAT:__unwindfunclet$?MailSend@Mail@@YA_NABV?$basic_string@GU?$char_traits@G@std@@V?$allocator@G@2@@std@@ABV?$basic_string@DU?$char_traits@D@std@@V?$allocator@D@2@@3@0@Z$4
	DD	00H
	DD	FLAT:__unwindfunclet$?MailSend@Mail@@YA_NABV?$basic_string@GU?$char_traits@G@std@@V?$allocator@G@2@@std@@ABV?$basic_string@DU?$char_traits@D@std@@V?$allocator@D@2@@3@0@Z$4
	DD	07H
	DD	FLAT:__unwindfunclet$?MailSend@Mail@@YA_NABV?$basic_string@GU?$char_traits@G@std@@V?$allocator@G@2@@std@@ABV?$basic_string@DU?$char_traits@D@std@@V?$allocator@D@2@@3@0@Z$5
	DD	08H
	DD	FLAT:__unwindfunclet$?MailSend@Mail@@YA_NABV?$basic_string@GU?$char_traits@G@std@@V?$allocator@G@2@@std@@ABV?$basic_string@DU?$char_traits@D@std@@V?$allocator@D@2@@3@0@Z$6
	DD	07H
	DD	FLAT:__unwindfunclet$?MailSend@Mail@@YA_NABV?$basic_string@GU?$char_traits@G@std@@V?$allocator@G@2@@std@@ABV?$basic_string@DU?$char_traits@D@std@@V?$allocator@D@2@@3@0@Z$7
	DD	0aH
	DD	FLAT:__unwindfunclet$?MailSend@Mail@@YA_NABV?$basic_string@GU?$char_traits@G@std@@V?$allocator@G@2@@std@@ABV?$basic_string@DU?$char_traits@D@std@@V?$allocator@D@2@@3@0@Z$8
	DD	07H
	DD	FLAT:__unwindfunclet$?MailSend@Mail@@YA_NABV?$basic_string@GU?$char_traits@G@std@@V?$allocator@G@2@@std@@ABV?$basic_string@DU?$char_traits@D@std@@V?$allocator@D@2@@3@0@Z$9
	DD	0cH
	DD	FLAT:__unwindfunclet$?MailSend@Mail@@YA_NABV?$basic_string@GU?$char_traits@G@std@@V?$allocator@G@2@@std@@ABV?$basic_string@DU?$char_traits@D@std@@V?$allocator@D@2@@3@0@Z$10
	DD	0dH
	DD	FLAT:__unwindfunclet$?MailSend@Mail@@YA_NABV?$basic_string@GU?$char_traits@G@std@@V?$allocator@G@2@@std@@ABV?$basic_string@DU?$char_traits@D@std@@V?$allocator@D@2@@3@0@Z$11
	DD	00H
	DD	FLAT:__unwindfunclet$?MailSend@Mail@@YA_NABV?$basic_string@GU?$char_traits@G@std@@V?$allocator@G@2@@std@@ABV?$basic_string@DU?$char_traits@D@std@@V?$allocator@D@2@@3@0@Z$12
	DD	0fH
	DD	FLAT:__unwindfunclet$?MailSend@Mail@@YA_NABV?$basic_string@GU?$char_traits@G@std@@V?$allocator@G@2@@std@@ABV?$basic_string@DU?$char_traits@D@std@@V?$allocator@D@2@@3@0@Z$13
	DD	010H
	DD	FLAT:__unwindfunclet$?MailSend@Mail@@YA_NABV?$basic_string@GU?$char_traits@G@std@@V?$allocator@G@2@@std@@ABV?$basic_string@DU?$char_traits@D@std@@V?$allocator@D@2@@3@0@Z$14
	DD	011H
	DD	FLAT:__unwindfunclet$?MailSend@Mail@@YA_NABV?$basic_string@GU?$char_traits@G@std@@V?$allocator@G@2@@std@@ABV?$basic_string@DU?$char_traits@D@std@@V?$allocator@D@2@@3@0@Z$15
	DD	012H
	DD	FLAT:__unwindfunclet$?MailSend@Mail@@YA_NABV?$basic_string@GU?$char_traits@G@std@@V?$allocator@G@2@@std@@ABV?$basic_string@DU?$char_traits@D@std@@V?$allocator@D@2@@3@0@Z$16
	DD	00H
	DD	FLAT:__unwindfunclet$?MailSend@Mail@@YA_NABV?$basic_string@GU?$char_traits@G@std@@V?$allocator@G@2@@std@@ABV?$basic_string@DU?$char_traits@D@std@@V?$allocator@D@2@@3@0@Z$17
	DD	014H
	DD	FLAT:__unwindfunclet$?MailSend@Mail@@YA_NABV?$basic_string@GU?$char_traits@G@std@@V?$allocator@G@2@@std@@ABV?$basic_string@DU?$char_traits@D@std@@V?$allocator@D@2@@3@0@Z$18
	DD	015H
	DD	FLAT:__unwindfunclet$?MailSend@Mail@@YA_NABV?$basic_string@GU?$char_traits@G@std@@V?$allocator@G@2@@std@@ABV?$basic_string@DU?$char_traits@D@std@@V?$allocator@D@2@@3@0@Z$19
; Function compile flags: /Odtp
xdata$x	ENDS
_TEXT	SEGMENT
tv244 = -648						; size = 4
tv155 = -644						; size = 4
tv242 = -640						; size = 4
tv194 = -636						; size = 4
tv240 = -632						; size = 4
tv199 = -628						; size = 4
tv236 = -624						; size = 4
tv170 = -620						; size = 4
tv158 = -616						; size = 4
tv232 = -612						; size = 4
tv149 = -608						; size = 4
tv229 = -604						; size = 4
tv135 = -600						; size = 4
tv225 = -596						; size = 4
tv87 = -592						; size = 4
$T142886 = -585						; size = 1
$T142885 = -584						; size = 28
$T142884 = -556						; size = 28
$T142883 = -528						; size = 28
$T142882 = -500						; size = 28
$T142881 = -472						; size = 28
$T142880 = -444						; size = 28
$T142879 = -416						; size = 28
$T142878 = -388						; size = 28
$T142877 = -360						; size = 28
$T142876 = -332						; size = 28
$T142873 = -304						; size = 28
$T142872 = -276						; size = 28
$T142871 = -248						; size = 28
$T142870 = -220						; size = 28
$T142869 = -192						; size = 28
$T142868 = -164						; size = 28
$T142867 = -136						; size = 28
$T142866 = -108						; size = 28
$T142865 = -78						; size = 1
_bTmpRead$138463 = -77					; size = 1
_wscTmpMsg$138453 = -76					; size = 28
_iMsgSlot$138449 = -48					; size = 4
_scFilePath$ = -44					; size = 28
__$ArrayPad$ = -16					; size = 4
__$EHRec$ = -12						; size = 12
_wscCharname$ = 8					; size = 4
_scExtension$ = 12					; size = 4
_wscMsg$ = 16						; size = 4
?MailSend@Mail@@YA_NABV?$basic_string@GU?$char_traits@G@std@@V?$allocator@G@2@@std@@ABV?$basic_string@DU?$char_traits@D@std@@V?$allocator@D@2@@3@0@Z PROC ; Mail::MailSend
; Line 117
	push	ebp
	mov	ebp, esp
	push	-1
	push	__ehhandler$?MailSend@Mail@@YA_NABV?$basic_string@GU?$char_traits@G@std@@V?$allocator@G@2@@std@@ABV?$basic_string@DU?$char_traits@D@std@@V?$allocator@D@2@@3@0@Z
	mov	eax, DWORD PTR fs:0
	push	eax
	sub	esp, 636				; 0000027cH
	mov	eax, DWORD PTR ___security_cookie
	xor	eax, ebp
	mov	DWORD PTR __$ArrayPad$[ebp], eax
	push	eax
	lea	eax, DWORD PTR __$EHRec$[ebp]
	mov	DWORD PTR fs:0, eax
; Line 119
	mov	eax, DWORD PTR _scExtension$[ebp]
	push	eax
	mov	ecx, DWORD PTR _wscCharname$[ebp]
	push	ecx
	lea	edx, DWORD PTR _scFilePath$[ebp]
	push	edx
	call	?GetUserFilePath@@YA?AV?$basic_string@DU?$char_traits@D@std@@V?$allocator@D@2@@std@@ABV?$basic_string@GU?$char_traits@G@std@@V?$allocator@G@2@@2@ABV12@@Z ; GetUserFilePath
	add	esp, 12					; 0000000cH
	mov	DWORD PTR __$EHRec$[ebp+8], 0
; Line 120
	lea	ecx, DWORD PTR _scFilePath$[ebp]
	call	DWORD PTR __imp_?length@?$basic_string@DU?$char_traits@D@std@@V?$allocator@D@2@@std@@QBEIXZ
	test	eax, eax
	jne	SHORT $LN4@MailSend
; Line 121
	mov	BYTE PTR $T142865[ebp], 0
	mov	DWORD PTR __$EHRec$[ebp+8], -1
	lea	ecx, DWORD PTR _scFilePath$[ebp]
	call	DWORD PTR __imp_??1?$basic_string@DU?$char_traits@D@std@@V?$allocator@D@2@@std@@QAE@XZ
	mov	al, BYTE PTR $T142865[ebp]
	jmp	$LN5@MailSend
$LN4@MailSend:
; Line 125
	mov	DWORD PTR _iMsgSlot$138449[ebp], 39	; 00000027H
	jmp	SHORT $LN3@MailSend
$LN2@MailSend:
	mov	eax, DWORD PTR _iMsgSlot$138449[ebp]
	sub	eax, 1
	mov	DWORD PTR _iMsgSlot$138449[ebp], eax
$LN3@MailSend:
	cmp	DWORD PTR _iMsgSlot$138449[ebp], 0
	jle	$LN1@MailSend
; Line 127
	push	OFFSET $SG138458
	lea	ecx, DWORD PTR $T142866[ebp]
	call	DWORD PTR __imp_??0?$basic_string@GU?$char_traits@G@std@@V?$allocator@G@2@@std@@QAE@PBG@Z
	mov	BYTE PTR __$EHRec$[ebp+8], 1
	push	OFFSET $SG138459
	lea	ecx, DWORD PTR $T142868[ebp]
	call	DWORD PTR __imp_??0?$basic_string@DU?$char_traits@D@std@@V?$allocator@D@2@@std@@QAE@PBD@Z
	mov	BYTE PTR __$EHRec$[ebp+8], 2
	lea	ecx, DWORD PTR $T142866[ebp]
	push	ecx
	mov	edx, DWORD PTR _iMsgSlot$138449[ebp]
	push	edx
	lea	eax, DWORD PTR $T142867[ebp]
	push	eax
	call	DWORD PTR __imp_?itos@@YA?AV?$basic_string@DU?$char_traits@D@std@@V?$allocator@D@2@@std@@H@Z
	add	esp, 8
	mov	DWORD PTR tv87[ebp], eax
	mov	ecx, DWORD PTR tv87[ebp]
	mov	DWORD PTR tv225[ebp], ecx
	mov	BYTE PTR __$EHRec$[ebp+8], 3
	mov	edx, DWORD PTR tv225[ebp]
	push	edx
	lea	eax, DWORD PTR $T142868[ebp]
	push	eax
	lea	ecx, DWORD PTR _scFilePath$[ebp]
	push	ecx
	lea	edx, DWORD PTR _wscTmpMsg$138453[ebp]
	push	edx
	call	DWORD PTR __imp_?IniGetWS@@YA?AV?$basic_string@GU?$char_traits@G@std@@V?$allocator@G@2@@std@@ABV?$basic_string@DU?$char_traits@D@std@@V?$allocator@D@2@@2@00ABV12@@Z
	add	esp, 20					; 00000014H
	mov	BYTE PTR __$EHRec$[ebp+8], 5
	lea	ecx, DWORD PTR $T142867[ebp]
	call	DWORD PTR __imp_??1?$basic_string@DU?$char_traits@D@std@@V?$allocator@D@2@@std@@QAE@XZ
	mov	BYTE PTR __$EHRec$[ebp+8], 6
	lea	ecx, DWORD PTR $T142868[ebp]
	call	DWORD PTR __imp_??1?$basic_string@DU?$char_traits@D@std@@V?$allocator@D@2@@std@@QAE@XZ
	mov	BYTE PTR __$EHRec$[ebp+8], 7
	lea	ecx, DWORD PTR $T142866[ebp]
	call	DWORD PTR __imp_??1?$basic_string@GU?$char_traits@G@std@@V?$allocator@G@2@@std@@QAE@XZ
; Line 128
	push	OFFSET $SG138462
	lea	ecx, DWORD PTR $T142870[ebp]
	call	DWORD PTR __imp_??0?$basic_string@DU?$char_traits@D@std@@V?$allocator@D@2@@std@@QAE@PBD@Z
	mov	BYTE PTR __$EHRec$[ebp+8], 8
	lea	eax, DWORD PTR _wscTmpMsg$138453[ebp]
	push	eax
	mov	ecx, DWORD PTR _iMsgSlot$138449[ebp]
	add	ecx, 1
	push	ecx
	lea	edx, DWORD PTR $T142869[ebp]
	push	edx
	call	DWORD PTR __imp_?itos@@YA?AV?$basic_string@DU?$char_traits@D@std@@V?$allocator@D@2@@std@@H@Z
	add	esp, 8
	mov	DWORD PTR tv135[ebp], eax
	mov	eax, DWORD PTR tv135[ebp]
	mov	DWORD PTR tv229[ebp], eax
	mov	BYTE PTR __$EHRec$[ebp+8], 9
	mov	ecx, DWORD PTR tv229[ebp]
	push	ecx
	lea	edx, DWORD PTR $T142870[ebp]
	push	edx
	lea	eax, DWORD PTR _scFilePath$[ebp]
	push	eax
	call	DWORD PTR __imp_?IniWriteW@@YAXABV?$basic_string@DU?$char_traits@D@std@@V?$allocator@D@2@@std@@00ABV?$basic_string@GU?$char_traits@G@std@@V?$allocator@G@2@@2@@Z
	add	esp, 16					; 00000010H
	mov	BYTE PTR __$EHRec$[ebp+8], 8
	lea	ecx, DWORD PTR $T142869[ebp]
	call	DWORD PTR __imp_??1?$basic_string@DU?$char_traits@D@std@@V?$allocator@D@2@@std@@QAE@XZ
	mov	BYTE PTR __$EHRec$[ebp+8], 7
	lea	ecx, DWORD PTR $T142870[ebp]
	call	DWORD PTR __imp_??1?$basic_string@DU?$char_traits@D@std@@V?$allocator@D@2@@std@@QAE@XZ
; Line 130
	push	OFFSET $SG138466
	lea	ecx, DWORD PTR $T142872[ebp]
	call	DWORD PTR __imp_??0?$basic_string@DU?$char_traits@D@std@@V?$allocator@D@2@@std@@QAE@PBD@Z
	mov	BYTE PTR __$EHRec$[ebp+8], 10		; 0000000aH
	push	0
	mov	ecx, DWORD PTR _iMsgSlot$138449[ebp]
	push	ecx
	lea	edx, DWORD PTR $T142871[ebp]
	push	edx
	call	DWORD PTR __imp_?itos@@YA?AV?$basic_string@DU?$char_traits@D@std@@V?$allocator@D@2@@std@@H@Z
	add	esp, 8
	mov	DWORD PTR tv149[ebp], eax
	mov	eax, DWORD PTR tv149[ebp]
	mov	DWORD PTR tv232[ebp], eax
	mov	BYTE PTR __$EHRec$[ebp+8], 11		; 0000000bH
	mov	ecx, DWORD PTR tv232[ebp]
	push	ecx
	lea	edx, DWORD PTR $T142872[ebp]
	push	edx
	lea	eax, DWORD PTR _scFilePath$[ebp]
	push	eax
	call	DWORD PTR __imp_?IniGetB@@YA_NABV?$basic_string@DU?$char_traits@D@std@@V?$allocator@D@2@@std@@00_N@Z
	add	esp, 16					; 00000010H
	mov	BYTE PTR _bTmpRead$138463[ebp], al
	mov	BYTE PTR __$EHRec$[ebp+8], 10		; 0000000aH
	lea	ecx, DWORD PTR $T142871[ebp]
	call	DWORD PTR __imp_??1?$basic_string@DU?$char_traits@D@std@@V?$allocator@D@2@@std@@QAE@XZ
	mov	BYTE PTR __$EHRec$[ebp+8], 7
	lea	ecx, DWORD PTR $T142872[ebp]
	call	DWORD PTR __imp_??1?$basic_string@DU?$char_traits@D@std@@V?$allocator@D@2@@std@@QAE@XZ
; Line 131
	movzx	ecx, BYTE PTR _bTmpRead$138463[ebp]
	test	ecx, ecx
	je	SHORT $LN7@MailSend
	mov	DWORD PTR tv158[ebp], OFFSET $SG138470
	jmp	SHORT $LN8@MailSend
$LN7@MailSend:
	mov	DWORD PTR tv158[ebp], OFFSET $SG138471
$LN8@MailSend:
	mov	edx, DWORD PTR tv158[ebp]
	push	edx
	lea	ecx, DWORD PTR $T142873[ebp]
	call	DWORD PTR __imp_??0?$basic_string@DU?$char_traits@D@std@@V?$allocator@D@2@@std@@QAE@PBD@Z
	mov	BYTE PTR __$EHRec$[ebp+8], 12		; 0000000cH
	push	OFFSET $SG138472
	lea	ecx, DWORD PTR $T142877[ebp]
	call	DWORD PTR __imp_??0?$basic_string@DU?$char_traits@D@std@@V?$allocator@D@2@@std@@QAE@PBD@Z
	mov	BYTE PTR __$EHRec$[ebp+8], 13		; 0000000dH
	lea	eax, DWORD PTR $T142873[ebp]
	push	eax
	mov	ecx, DWORD PTR _iMsgSlot$138449[ebp]
	add	ecx, 1
	push	ecx
	lea	edx, DWORD PTR $T142876[ebp]
	push	edx
	call	DWORD PTR __imp_?itos@@YA?AV?$basic_string@DU?$char_traits@D@std@@V?$allocator@D@2@@std@@H@Z
	add	esp, 8
	mov	DWORD PTR tv170[ebp], eax
	mov	eax, DWORD PTR tv170[ebp]
	mov	DWORD PTR tv236[ebp], eax
	mov	BYTE PTR __$EHRec$[ebp+8], 14		; 0000000eH
	mov	ecx, DWORD PTR tv236[ebp]
	push	ecx
	lea	edx, DWORD PTR $T142877[ebp]
	push	edx
	lea	eax, DWORD PTR _scFilePath$[ebp]
	push	eax
	call	DWORD PTR __imp_?IniWrite@@YAXABV?$basic_string@DU?$char_traits@D@std@@V?$allocator@D@2@@std@@000@Z
	add	esp, 16					; 00000010H
	mov	BYTE PTR __$EHRec$[ebp+8], 13		; 0000000dH
	lea	ecx, DWORD PTR $T142876[ebp]
	call	DWORD PTR __imp_??1?$basic_string@DU?$char_traits@D@std@@V?$allocator@D@2@@std@@QAE@XZ
	mov	BYTE PTR __$EHRec$[ebp+8], 12		; 0000000cH
	lea	ecx, DWORD PTR $T142877[ebp]
	call	DWORD PTR __imp_??1?$basic_string@DU?$char_traits@D@std@@V?$allocator@D@2@@std@@QAE@XZ
	mov	BYTE PTR __$EHRec$[ebp+8], 7
	lea	ecx, DWORD PTR $T142873[ebp]
	call	DWORD PTR __imp_??1?$basic_string@DU?$char_traits@D@std@@V?$allocator@D@2@@std@@QAE@XZ
; Line 132
	mov	BYTE PTR __$EHRec$[ebp+8], 0
	lea	ecx, DWORD PTR _wscTmpMsg$138453[ebp]
	call	DWORD PTR __imp_??1?$basic_string@GU?$char_traits@G@std@@V?$allocator@G@2@@std@@QAE@XZ
	jmp	$LN2@MailSend
$LN1@MailSend:
; Line 135
	push	OFFSET $SG138479
	lea	ecx, DWORD PTR $T142881[ebp]
	call	DWORD PTR __imp_??0?$basic_string@DU?$char_traits@D@std@@V?$allocator@D@2@@std@@QAE@PBD@Z
	mov	BYTE PTR __$EHRec$[ebp+8], 15		; 0000000fH
	push	OFFSET $SG138480
	lea	ecx, DWORD PTR $T142882[ebp]
	call	DWORD PTR __imp_??0?$basic_string@DU?$char_traits@D@std@@V?$allocator@D@2@@std@@QAE@PBD@Z
	mov	BYTE PTR __$EHRec$[ebp+8], 16		; 00000010H
	mov	ecx, DWORD PTR _wscMsg$[ebp]
	push	ecx
	push	OFFSET $SG138478
	movzx	edx, BYTE PTR ?set_bLocalTime@@3_NA	; set_bLocalTime
	push	edx
	lea	eax, DWORD PTR $T142878[ebp]
	push	eax
	call	?GetTimeString@@YA?AV?$basic_string@GU?$char_traits@G@std@@V?$allocator@G@2@@std@@_N@Z ; GetTimeString
	add	esp, 8
	mov	DWORD PTR tv199[ebp], eax
	mov	ecx, DWORD PTR tv199[ebp]
	mov	DWORD PTR tv240[ebp], ecx
	mov	BYTE PTR __$EHRec$[ebp+8], 17		; 00000011H
	mov	edx, DWORD PTR tv240[ebp]
	push	edx
	lea	eax, DWORD PTR $T142879[ebp]
	push	eax
	call	DWORD PTR __imp_??$?HGU?$char_traits@G@std@@V?$allocator@G@1@@std@@YA?AV?$basic_string@GU?$char_traits@G@std@@V?$allocator@G@2@@0@ABV10@PBG@Z
	add	esp, 12					; 0000000cH
	mov	DWORD PTR tv194[ebp], eax
	mov	ecx, DWORD PTR tv194[ebp]
	mov	DWORD PTR tv242[ebp], ecx
	mov	BYTE PTR __$EHRec$[ebp+8], 18		; 00000012H
	mov	edx, DWORD PTR tv242[ebp]
	push	edx
	lea	eax, DWORD PTR $T142880[ebp]
	push	eax
	call	DWORD PTR __imp_??$?HGU?$char_traits@G@std@@V?$allocator@G@1@@std@@YA?AV?$basic_string@GU?$char_traits@G@std@@V?$allocator@G@2@@0@ABV10@0@Z
	add	esp, 12					; 0000000cH
	mov	DWORD PTR tv155[ebp], eax
	mov	ecx, DWORD PTR tv155[ebp]
	mov	DWORD PTR tv244[ebp], ecx
	mov	BYTE PTR __$EHRec$[ebp+8], 19		; 00000013H
	mov	edx, DWORD PTR tv244[ebp]
	push	edx
	lea	eax, DWORD PTR $T142881[ebp]
	push	eax
	lea	ecx, DWORD PTR $T142882[ebp]
	push	ecx
	lea	edx, DWORD PTR _scFilePath$[ebp]
	push	edx
	call	DWORD PTR __imp_?IniWriteW@@YAXABV?$basic_string@DU?$char_traits@D@std@@V?$allocator@D@2@@std@@00ABV?$basic_string@GU?$char_traits@G@std@@V?$allocator@G@2@@2@@Z
	add	esp, 16					; 00000010H
	mov	BYTE PTR __$EHRec$[ebp+8], 18		; 00000012H
	lea	ecx, DWORD PTR $T142880[ebp]
	call	DWORD PTR __imp_??1?$basic_string@GU?$char_traits@G@std@@V?$allocator@G@2@@std@@QAE@XZ
	mov	BYTE PTR __$EHRec$[ebp+8], 17		; 00000011H
	lea	ecx, DWORD PTR $T142879[ebp]
	call	DWORD PTR __imp_??1?$basic_string@GU?$char_traits@G@std@@V?$allocator@G@2@@std@@QAE@XZ
	mov	BYTE PTR __$EHRec$[ebp+8], 16		; 00000010H
	lea	ecx, DWORD PTR $T142878[ebp]
	call	DWORD PTR __imp_??1?$basic_string@GU?$char_traits@G@std@@V?$allocator@G@2@@std@@QAE@XZ
	mov	BYTE PTR __$EHRec$[ebp+8], 15		; 0000000fH
	lea	ecx, DWORD PTR $T142882[ebp]
	call	DWORD PTR __imp_??1?$basic_string@DU?$char_traits@D@std@@V?$allocator@D@2@@std@@QAE@XZ
	mov	BYTE PTR __$EHRec$[ebp+8], 0
	lea	ecx, DWORD PTR $T142881[ebp]
	call	DWORD PTR __imp_??1?$basic_string@DU?$char_traits@D@std@@V?$allocator@D@2@@std@@QAE@XZ
; Line 136
	push	OFFSET $SG138484
	lea	ecx, DWORD PTR $T142883[ebp]
	call	DWORD PTR __imp_??0?$basic_string@DU?$char_traits@D@std@@V?$allocator@D@2@@std@@QAE@PBD@Z
	mov	BYTE PTR __$EHRec$[ebp+8], 20		; 00000014H
	push	OFFSET $SG138485
	lea	ecx, DWORD PTR $T142884[ebp]
	call	DWORD PTR __imp_??0?$basic_string@DU?$char_traits@D@std@@V?$allocator@D@2@@std@@QAE@PBD@Z
	mov	BYTE PTR __$EHRec$[ebp+8], 21		; 00000015H
	push	OFFSET $SG138486
	lea	ecx, DWORD PTR $T142885[ebp]
	call	DWORD PTR __imp_??0?$basic_string@DU?$char_traits@D@std@@V?$allocator@D@2@@std@@QAE@PBD@Z
	mov	BYTE PTR __$EHRec$[ebp+8], 22		; 00000016H
	lea	eax, DWORD PTR $T142883[ebp]
	push	eax
	lea	ecx, DWORD PTR $T142884[ebp]
	push	ecx
	lea	edx, DWORD PTR $T142885[ebp]
	push	edx
	lea	eax, DWORD PTR _scFilePath$[ebp]
	push	eax
	call	DWORD PTR __imp_?IniWrite@@YAXABV?$basic_string@DU?$char_traits@D@std@@V?$allocator@D@2@@std@@000@Z
	add	esp, 16					; 00000010H
	mov	BYTE PTR __$EHRec$[ebp+8], 21		; 00000015H
	lea	ecx, DWORD PTR $T142885[ebp]
	call	DWORD PTR __imp_??1?$basic_string@DU?$char_traits@D@std@@V?$allocator@D@2@@std@@QAE@XZ
	mov	BYTE PTR __$EHRec$[ebp+8], 20		; 00000014H
	lea	ecx, DWORD PTR $T142884[ebp]
	call	DWORD PTR __imp_??1?$basic_string@DU?$char_traits@D@std@@V?$allocator@D@2@@std@@QAE@XZ
	mov	BYTE PTR __$EHRec$[ebp+8], 0
	lea	ecx, DWORD PTR $T142883[ebp]
	call	DWORD PTR __imp_??1?$basic_string@DU?$char_traits@D@std@@V?$allocator@D@2@@std@@QAE@XZ
; Line 137
	mov	BYTE PTR $T142886[ebp], 1
	mov	DWORD PTR __$EHRec$[ebp+8], -1
	lea	ecx, DWORD PTR _scFilePath$[ebp]
	call	DWORD PTR __imp_??1?$basic_string@DU?$char_traits@D@std@@V?$allocator@D@2@@std@@QAE@XZ
	mov	al, BYTE PTR $T142886[ebp]
$LN5@MailSend:
; Line 138
	mov	ecx, DWORD PTR __$EHRec$[ebp]
	mov	DWORD PTR fs:0, ecx
	pop	ecx
	mov	ecx, DWORD PTR __$ArrayPad$[ebp]
	xor	ecx, ebp
	call	@__security_check_cookie@4
	mov	esp, ebp
	pop	ebp
	ret	0
_TEXT	ENDS
text$x	SEGMENT
__unwindfunclet$?MailSend@Mail@@YA_NABV?$basic_string@GU?$char_traits@G@std@@V?$allocator@G@2@@std@@ABV?$basic_string@DU?$char_traits@D@std@@V?$allocator@D@2@@3@0@Z$0:
	lea	ecx, DWORD PTR _scFilePath$[ebp]
	jmp	DWORD PTR __imp_??1?$basic_string@DU?$char_traits@D@std@@V?$allocator@D@2@@std@@QAE@XZ
__unwindfunclet$?MailSend@Mail@@YA_NABV?$basic_string@GU?$char_traits@G@std@@V?$allocator@G@2@@std@@ABV?$basic_string@DU?$char_traits@D@std@@V?$allocator@D@2@@3@0@Z$1:
	lea	ecx, DWORD PTR $T142866[ebp]
	jmp	DWORD PTR __imp_??1?$basic_string@GU?$char_traits@G@std@@V?$allocator@G@2@@std@@QAE@XZ
__unwindfunclet$?MailSend@Mail@@YA_NABV?$basic_string@GU?$char_traits@G@std@@V?$allocator@G@2@@std@@ABV?$basic_string@DU?$char_traits@D@std@@V?$allocator@D@2@@3@0@Z$2:
	lea	ecx, DWORD PTR $T142868[ebp]
	jmp	DWORD PTR __imp_??1?$basic_string@DU?$char_traits@D@std@@V?$allocator@D@2@@std@@QAE@XZ
__unwindfunclet$?MailSend@Mail@@YA_NABV?$basic_string@GU?$char_traits@G@std@@V?$allocator@G@2@@std@@ABV?$basic_string@DU?$char_traits@D@std@@V?$allocator@D@2@@3@0@Z$3:
	lea	ecx, DWORD PTR $T142867[ebp]
	jmp	DWORD PTR __imp_??1?$basic_string@DU?$char_traits@D@std@@V?$allocator@D@2@@std@@QAE@XZ
__unwindfunclet$?MailSend@Mail@@YA_NABV?$basic_string@GU?$char_traits@G@std@@V?$allocator@G@2@@std@@ABV?$basic_string@DU?$char_traits@D@std@@V?$allocator@D@2@@3@0@Z$4:
	lea	ecx, DWORD PTR _wscTmpMsg$138453[ebp]
	jmp	DWORD PTR __imp_??1?$basic_string@GU?$char_traits@G@std@@V?$allocator@G@2@@std@@QAE@XZ
__unwindfunclet$?MailSend@Mail@@YA_NABV?$basic_string@GU?$char_traits@G@std@@V?$allocator@G@2@@std@@ABV?$basic_string@DU?$char_traits@D@std@@V?$allocator@D@2@@3@0@Z$5:
	lea	ecx, DWORD PTR $T142870[ebp]
	jmp	DWORD PTR __imp_??1?$basic_string@DU?$char_traits@D@std@@V?$allocator@D@2@@std@@QAE@XZ
__unwindfunclet$?MailSend@Mail@@YA_NABV?$basic_string@GU?$char_traits@G@std@@V?$allocator@G@2@@std@@ABV?$basic_string@DU?$char_traits@D@std@@V?$allocator@D@2@@3@0@Z$6:
	lea	ecx, DWORD PTR $T142869[ebp]
	jmp	DWORD PTR __imp_??1?$basic_string@DU?$char_traits@D@std@@V?$allocator@D@2@@std@@QAE@XZ
__unwindfunclet$?MailSend@Mail@@YA_NABV?$basic_string@GU?$char_traits@G@std@@V?$allocator@G@2@@std@@ABV?$basic_string@DU?$char_traits@D@std@@V?$allocator@D@2@@3@0@Z$7:
	lea	ecx, DWORD PTR $T142872[ebp]
	jmp	DWORD PTR __imp_??1?$basic_string@DU?$char_traits@D@std@@V?$allocator@D@2@@std@@QAE@XZ
__unwindfunclet$?MailSend@Mail@@YA_NABV?$basic_string@GU?$char_traits@G@std@@V?$allocator@G@2@@std@@ABV?$basic_string@DU?$char_traits@D@std@@V?$allocator@D@2@@3@0@Z$8:
	lea	ecx, DWORD PTR $T142871[ebp]
	jmp	DWORD PTR __imp_??1?$basic_string@DU?$char_traits@D@std@@V?$allocator@D@2@@std@@QAE@XZ
__unwindfunclet$?MailSend@Mail@@YA_NABV?$basic_string@GU?$char_traits@G@std@@V?$allocator@G@2@@std@@ABV?$basic_string@DU?$char_traits@D@std@@V?$allocator@D@2@@3@0@Z$9:
	lea	ecx, DWORD PTR $T142873[ebp]
	jmp	DWORD PTR __imp_??1?$basic_string@DU?$char_traits@D@std@@V?$allocator@D@2@@std@@QAE@XZ
__unwindfunclet$?MailSend@Mail@@YA_NABV?$basic_string@GU?$char_traits@G@std@@V?$allocator@G@2@@std@@ABV?$basic_string@DU?$char_traits@D@std@@V?$allocator@D@2@@3@0@Z$10:
	lea	ecx, DWORD PTR $T142877[ebp]
	jmp	DWORD PTR __imp_??1?$basic_string@DU?$char_traits@D@std@@V?$allocator@D@2@@std@@QAE@XZ
__unwindfunclet$?MailSend@Mail@@YA_NABV?$basic_string@GU?$char_traits@G@std@@V?$allocator@G@2@@std@@ABV?$basic_string@DU?$char_traits@D@std@@V?$allocator@D@2@@3@0@Z$11:
	lea	ecx, DWORD PTR $T142876[ebp]
	jmp	DWORD PTR __imp_??1?$basic_string@DU?$char_traits@D@std@@V?$allocator@D@2@@std@@QAE@XZ
__unwindfunclet$?MailSend@Mail@@YA_NABV?$basic_string@GU?$char_traits@G@std@@V?$allocator@G@2@@std@@ABV?$basic_string@DU?$char_traits@D@std@@V?$allocator@D@2@@3@0@Z$12:
	lea	ecx, DWORD PTR $T142881[ebp]
	jmp	DWORD PTR __imp_??1?$basic_string@DU?$char_traits@D@std@@V?$allocator@D@2@@std@@QAE@XZ
__unwindfunclet$?MailSend@Mail@@YA_NABV?$basic_string@GU?$char_traits@G@std@@V?$allocator@G@2@@std@@ABV?$basic_string@DU?$char_traits@D@std@@V?$allocator@D@2@@3@0@Z$13:
	lea	ecx, DWORD PTR $T142882[ebp]
	jmp	DWORD PTR __imp_??1?$basic_string@DU?$char_traits@D@std@@V?$allocator@D@2@@std@@QAE@XZ
__unwindfunclet$?MailSend@Mail@@YA_NABV?$basic_string@GU?$char_traits@G@std@@V?$allocator@G@2@@std@@ABV?$basic_string@DU?$char_traits@D@std@@V?$allocator@D@2@@3@0@Z$14:
	lea	ecx, DWORD PTR $T142878[ebp]
	jmp	DWORD PTR __imp_??1?$basic_string@GU?$char_traits@G@std@@V?$allocator@G@2@@std@@QAE@XZ
__unwindfunclet$?MailSend@Mail@@YA_NABV?$basic_string@GU?$char_traits@G@std@@V?$allocator@G@2@@std@@ABV?$basic_string@DU?$char_traits@D@std@@V?$allocator@D@2@@3@0@Z$15:
	lea	ecx, DWORD PTR $T142879[ebp]
	jmp	DWORD PTR __imp_??1?$basic_string@GU?$char_traits@G@std@@V?$allocator@G@2@@std@@QAE@XZ
__unwindfunclet$?MailSend@Mail@@YA_NABV?$basic_string@GU?$char_traits@G@std@@V?$allocator@G@2@@std@@ABV?$basic_string@DU?$char_traits@D@std@@V?$allocator@D@2@@3@0@Z$16:
	lea	ecx, DWORD PTR $T142880[ebp]
	jmp	DWORD PTR __imp_??1?$basic_string@GU?$char_traits@G@std@@V?$allocator@G@2@@std@@QAE@XZ
__unwindfunclet$?MailSend@Mail@@YA_NABV?$basic_string@GU?$char_traits@G@std@@V?$allocator@G@2@@std@@ABV?$basic_string@DU?$char_traits@D@std@@V?$allocator@D@2@@3@0@Z$17:
	lea	ecx, DWORD PTR $T142883[ebp]
	jmp	DWORD PTR __imp_??1?$basic_string@DU?$char_traits@D@std@@V?$allocator@D@2@@std@@QAE@XZ
__unwindfunclet$?MailSend@Mail@@YA_NABV?$basic_string@GU?$char_traits@G@std@@V?$allocator@G@2@@std@@ABV?$basic_string@DU?$char_traits@D@std@@V?$allocator@D@2@@3@0@Z$18:
	lea	ecx, DWORD PTR $T142884[ebp]
	jmp	DWORD PTR __imp_??1?$basic_string@DU?$char_traits@D@std@@V?$allocator@D@2@@std@@QAE@XZ
__unwindfunclet$?MailSend@Mail@@YA_NABV?$basic_string@GU?$char_traits@G@std@@V?$allocator@G@2@@std@@ABV?$basic_string@DU?$char_traits@D@std@@V?$allocator@D@2@@3@0@Z$19:
	lea	ecx, DWORD PTR $T142885[ebp]
	jmp	DWORD PTR __imp_??1?$basic_string@DU?$char_traits@D@std@@V?$allocator@D@2@@std@@QAE@XZ
__ehhandler$?MailSend@Mail@@YA_NABV?$basic_string@GU?$char_traits@G@std@@V?$allocator@G@2@@std@@ABV?$basic_string@DU?$char_traits@D@std@@V?$allocator@D@2@@3@0@Z:
	mov	edx, DWORD PTR [esp+8]
	lea	eax, DWORD PTR [edx+12]
	mov	ecx, DWORD PTR [edx-640]
	xor	ecx, eax
	call	@__security_check_cookie@4
	mov	ecx, DWORD PTR [edx-4]
	xor	ecx, eax
	call	@__security_check_cookie@4
	mov	eax, OFFSET __ehfuncinfo$?MailSend@Mail@@YA_NABV?$basic_string@GU?$char_traits@G@std@@V?$allocator@G@2@@std@@ABV?$basic_string@DU?$char_traits@D@std@@V?$allocator@D@2@@3@0@Z
	jmp	___CxxFrameHandler3
text$x	ENDS
?MailSend@Mail@@YA_NABV?$basic_string@GU?$char_traits@G@std@@V?$allocator@G@2@@std@@ABV?$basic_string@DU?$char_traits@D@std@@V?$allocator@D@2@@3@0@Z ENDP ; Mail::MailSend
PUBLIC	__$ArrayPad$
PUBLIC	?MailDel@Mail@@YA_NABV?$basic_string@GU?$char_traits@G@std@@V?$allocator@G@2@@std@@ABV?$basic_string@DU?$char_traits@D@std@@V?$allocator@D@2@@3@H@Z ; Mail::MailDel
xdata$x	SEGMENT
__ehfuncinfo$?MailDel@Mail@@YA_NABV?$basic_string@GU?$char_traits@G@std@@V?$allocator@G@2@@std@@ABV?$basic_string@DU?$char_traits@D@std@@V?$allocator@D@2@@3@H@Z DD 019930522H
	DD	0fH
	DD	FLAT:__unwindtable$?MailDel@Mail@@YA_NABV?$basic_string@GU?$char_traits@G@std@@V?$allocator@G@2@@std@@ABV?$basic_string@DU?$char_traits@D@std@@V?$allocator@D@2@@3@H@Z
	DD	2 DUP(00H)
	DD	2 DUP(00H)
	DD	00H
	DD	00H
__unwindtable$?MailDel@Mail@@YA_NABV?$basic_string@GU?$char_traits@G@std@@V?$allocator@G@2@@std@@ABV?$basic_string@DU?$char_traits@D@std@@V?$allocator@D@2@@3@H@Z DD 0ffffffffH
	DD	FLAT:__unwindfunclet$?MailDel@Mail@@YA_NABV?$basic_string@GU?$char_traits@G@std@@V?$allocator@G@2@@std@@ABV?$basic_string@DU?$char_traits@D@std@@V?$allocator@D@2@@3@H@Z$0
	DD	00H
	DD	FLAT:__unwindfunclet$?MailDel@Mail@@YA_NABV?$basic_string@GU?$char_traits@G@std@@V?$allocator@G@2@@std@@ABV?$basic_string@DU?$char_traits@D@std@@V?$allocator@D@2@@3@H@Z$1
	DD	01H
	DD	FLAT:__unwindfunclet$?MailDel@Mail@@YA_NABV?$basic_string@GU?$char_traits@G@std@@V?$allocator@G@2@@std@@ABV?$basic_string@DU?$char_traits@D@std@@V?$allocator@D@2@@3@H@Z$2
	DD	02H
	DD	FLAT:__unwindfunclet$?MailDel@Mail@@YA_NABV?$basic_string@GU?$char_traits@G@std@@V?$allocator@G@2@@std@@ABV?$basic_string@DU?$char_traits@D@std@@V?$allocator@D@2@@3@H@Z$3
	DD	03H
	DD	FLAT:__unwindfunclet$?MailDel@Mail@@YA_NABV?$basic_string@GU?$char_traits@G@std@@V?$allocator@G@2@@std@@ABV?$basic_string@DU?$char_traits@D@std@@V?$allocator@D@2@@3@H@Z$4
	DD	02H
	DD	FLAT:__unwindfunclet$?MailDel@Mail@@YA_NABV?$basic_string@GU?$char_traits@G@std@@V?$allocator@G@2@@std@@ABV?$basic_string@DU?$char_traits@D@std@@V?$allocator@D@2@@3@H@Z$4
	DD	01H
	DD	FLAT:__unwindfunclet$?MailDel@Mail@@YA_NABV?$basic_string@GU?$char_traits@G@std@@V?$allocator@G@2@@std@@ABV?$basic_string@DU?$char_traits@D@std@@V?$allocator@D@2@@3@H@Z$4
	DD	00H
	DD	FLAT:__unwindfunclet$?MailDel@Mail@@YA_NABV?$basic_string@GU?$char_traits@G@std@@V?$allocator@G@2@@std@@ABV?$basic_string@DU?$char_traits@D@std@@V?$allocator@D@2@@3@H@Z$4
	DD	07H
	DD	FLAT:__unwindfunclet$?MailDel@Mail@@YA_NABV?$basic_string@GU?$char_traits@G@std@@V?$allocator@G@2@@std@@ABV?$basic_string@DU?$char_traits@D@std@@V?$allocator@D@2@@3@H@Z$5
	DD	08H
	DD	FLAT:__unwindfunclet$?MailDel@Mail@@YA_NABV?$basic_string@GU?$char_traits@G@std@@V?$allocator@G@2@@std@@ABV?$basic_string@DU?$char_traits@D@std@@V?$allocator@D@2@@3@H@Z$6
	DD	07H
	DD	FLAT:__unwindfunclet$?MailDel@Mail@@YA_NABV?$basic_string@GU?$char_traits@G@std@@V?$allocator@G@2@@std@@ABV?$basic_string@DU?$char_traits@D@std@@V?$allocator@D@2@@3@H@Z$7
	DD	0aH
	DD	FLAT:__unwindfunclet$?MailDel@Mail@@YA_NABV?$basic_string@GU?$char_traits@G@std@@V?$allocator@G@2@@std@@ABV?$basic_string@DU?$char_traits@D@std@@V?$allocator@D@2@@3@H@Z$8
	DD	07H
	DD	FLAT:__unwindfunclet$?MailDel@Mail@@YA_NABV?$basic_string@GU?$char_traits@G@std@@V?$allocator@G@2@@std@@ABV?$basic_string@DU?$char_traits@D@std@@V?$allocator@D@2@@3@H@Z$9
	DD	0cH
	DD	FLAT:__unwindfunclet$?MailDel@Mail@@YA_NABV?$basic_string@GU?$char_traits@G@std@@V?$allocator@G@2@@std@@ABV?$basic_string@DU?$char_traits@D@std@@V?$allocator@D@2@@3@H@Z$10
	DD	0dH
	DD	FLAT:__unwindfunclet$?MailDel@Mail@@YA_NABV?$basic_string@GU?$char_traits@G@std@@V?$allocator@G@2@@std@@ABV?$basic_string@DU?$char_traits@D@std@@V?$allocator@D@2@@3@H@Z$11
; Function compile flags: /Odtp
xdata$x	ENDS
_TEXT	SEGMENT
tv191 = -400						; size = 4
tv170 = -396						; size = 4
tv159 = -392						; size = 4
tv187 = -388						; size = 4
tv150 = -384						; size = 4
tv184 = -380						; size = 4
tv135 = -376						; size = 4
tv180 = -372						; size = 4
tv88 = -368						; size = 4
$T142926 = -361						; size = 1
$T142925 = -360						; size = 28
$T142924 = -332						; size = 28
$T142921 = -304						; size = 28
$T142920 = -276						; size = 28
$T142919 = -248						; size = 28
$T142918 = -220						; size = 28
$T142917 = -192						; size = 28
$T142916 = -164						; size = 28
$T142915 = -136						; size = 28
$T142914 = -108						; size = 28
$T142913 = -78						; size = 1
_bTmpRead$138511 = -77					; size = 1
_wscTmpMsg$138501 = -76					; size = 28
_iMsgSlot$138497 = -48					; size = 4
_scFilePath$ = -44					; size = 28
__$ArrayPad$ = -16					; size = 4
__$EHRec$ = -12						; size = 12
_wscCharname$ = 8					; size = 4
_scExtension$ = 12					; size = 4
_iMsg$ = 16						; size = 4
?MailDel@Mail@@YA_NABV?$basic_string@GU?$char_traits@G@std@@V?$allocator@G@2@@std@@ABV?$basic_string@DU?$char_traits@D@std@@V?$allocator@D@2@@3@H@Z PROC ; Mail::MailDel
; Line 144
	push	ebp
	mov	ebp, esp
	push	-1
	push	__ehhandler$?MailDel@Mail@@YA_NABV?$basic_string@GU?$char_traits@G@std@@V?$allocator@G@2@@std@@ABV?$basic_string@DU?$char_traits@D@std@@V?$allocator@D@2@@3@H@Z
	mov	eax, DWORD PTR fs:0
	push	eax
	sub	esp, 388				; 00000184H
	mov	eax, DWORD PTR ___security_cookie
	xor	eax, ebp
	mov	DWORD PTR __$ArrayPad$[ebp], eax
	push	eax
	lea	eax, DWORD PTR __$EHRec$[ebp]
	mov	DWORD PTR fs:0, eax
; Line 146
	mov	eax, DWORD PTR _scExtension$[ebp]
	push	eax
	mov	ecx, DWORD PTR _wscCharname$[ebp]
	push	ecx
	lea	edx, DWORD PTR _scFilePath$[ebp]
	push	edx
	call	?GetUserFilePath@@YA?AV?$basic_string@DU?$char_traits@D@std@@V?$allocator@D@2@@std@@ABV?$basic_string@GU?$char_traits@G@std@@V?$allocator@G@2@@2@ABV12@@Z ; GetUserFilePath
	add	esp, 12					; 0000000cH
	mov	DWORD PTR __$EHRec$[ebp+8], 0
; Line 147
	lea	ecx, DWORD PTR _scFilePath$[ebp]
	call	DWORD PTR __imp_?length@?$basic_string@DU?$char_traits@D@std@@V?$allocator@D@2@@std@@QBEIXZ
	test	eax, eax
	jne	SHORT $LN4@MailDel
; Line 148
	mov	BYTE PTR $T142913[ebp], 0
	mov	DWORD PTR __$EHRec$[ebp+8], -1
	lea	ecx, DWORD PTR _scFilePath$[ebp]
	call	DWORD PTR __imp_??1?$basic_string@DU?$char_traits@D@std@@V?$allocator@D@2@@std@@QAE@XZ
	mov	al, BYTE PTR $T142913[ebp]
	jmp	$LN5@MailDel
$LN4@MailDel:
; Line 151
	mov	eax, DWORD PTR _iMsg$[ebp]
	mov	DWORD PTR _iMsgSlot$138497[ebp], eax
	jmp	SHORT $LN3@MailDel
$LN2@MailDel:
	mov	ecx, DWORD PTR _iMsgSlot$138497[ebp]
	add	ecx, 1
	mov	DWORD PTR _iMsgSlot$138497[ebp], ecx
$LN3@MailDel:
	cmp	DWORD PTR _iMsgSlot$138497[ebp], 40	; 00000028H
	jge	$LN1@MailDel
; Line 153
	push	OFFSET $SG138506
	lea	ecx, DWORD PTR $T142914[ebp]
	call	DWORD PTR __imp_??0?$basic_string@GU?$char_traits@G@std@@V?$allocator@G@2@@std@@QAE@PBG@Z
	mov	BYTE PTR __$EHRec$[ebp+8], 1
	push	OFFSET $SG138507
	lea	ecx, DWORD PTR $T142916[ebp]
	call	DWORD PTR __imp_??0?$basic_string@DU?$char_traits@D@std@@V?$allocator@D@2@@std@@QAE@PBD@Z
	mov	BYTE PTR __$EHRec$[ebp+8], 2
	lea	edx, DWORD PTR $T142914[ebp]
	push	edx
	mov	eax, DWORD PTR _iMsgSlot$138497[ebp]
	add	eax, 1
	push	eax
	lea	ecx, DWORD PTR $T142915[ebp]
	push	ecx
	call	DWORD PTR __imp_?itos@@YA?AV?$basic_string@DU?$char_traits@D@std@@V?$allocator@D@2@@std@@H@Z
	add	esp, 8
	mov	DWORD PTR tv88[ebp], eax
	mov	edx, DWORD PTR tv88[ebp]
	mov	DWORD PTR tv180[ebp], edx
	mov	BYTE PTR __$EHRec$[ebp+8], 3
	mov	eax, DWORD PTR tv180[ebp]
	push	eax
	lea	ecx, DWORD PTR $T142916[ebp]
	push	ecx
	lea	edx, DWORD PTR _scFilePath$[ebp]
	push	edx
	lea	eax, DWORD PTR _wscTmpMsg$138501[ebp]
	push	eax
	call	DWORD PTR __imp_?IniGetWS@@YA?AV?$basic_string@GU?$char_traits@G@std@@V?$allocator@G@2@@std@@ABV?$basic_string@DU?$char_traits@D@std@@V?$allocator@D@2@@2@00ABV12@@Z
	add	esp, 20					; 00000014H
	mov	BYTE PTR __$EHRec$[ebp+8], 5
	lea	ecx, DWORD PTR $T142915[ebp]
	call	DWORD PTR __imp_??1?$basic_string@DU?$char_traits@D@std@@V?$allocator@D@2@@std@@QAE@XZ
	mov	BYTE PTR __$EHRec$[ebp+8], 6
	lea	ecx, DWORD PTR $T142916[ebp]
	call	DWORD PTR __imp_??1?$basic_string@DU?$char_traits@D@std@@V?$allocator@D@2@@std@@QAE@XZ
	mov	BYTE PTR __$EHRec$[ebp+8], 7
	lea	ecx, DWORD PTR $T142914[ebp]
	call	DWORD PTR __imp_??1?$basic_string@GU?$char_traits@G@std@@V?$allocator@G@2@@std@@QAE@XZ
; Line 154
	push	OFFSET $SG138510
	lea	ecx, DWORD PTR $T142918[ebp]
	call	DWORD PTR __imp_??0?$basic_string@DU?$char_traits@D@std@@V?$allocator@D@2@@std@@QAE@PBD@Z
	mov	BYTE PTR __$EHRec$[ebp+8], 8
	lea	ecx, DWORD PTR _wscTmpMsg$138501[ebp]
	push	ecx
	mov	edx, DWORD PTR _iMsgSlot$138497[ebp]
	push	edx
	lea	eax, DWORD PTR $T142917[ebp]
	push	eax
	call	DWORD PTR __imp_?itos@@YA?AV?$basic_string@DU?$char_traits@D@std@@V?$allocator@D@2@@std@@H@Z
	add	esp, 8
	mov	DWORD PTR tv135[ebp], eax
	mov	ecx, DWORD PTR tv135[ebp]
	mov	DWORD PTR tv184[ebp], ecx
	mov	BYTE PTR __$EHRec$[ebp+8], 9
	mov	edx, DWORD PTR tv184[ebp]
	push	edx
	lea	eax, DWORD PTR $T142918[ebp]
	push	eax
	lea	ecx, DWORD PTR _scFilePath$[ebp]
	push	ecx
	call	DWORD PTR __imp_?IniWriteW@@YAXABV?$basic_string@DU?$char_traits@D@std@@V?$allocator@D@2@@std@@00ABV?$basic_string@GU?$char_traits@G@std@@V?$allocator@G@2@@2@@Z
	add	esp, 16					; 00000010H
	mov	BYTE PTR __$EHRec$[ebp+8], 8
	lea	ecx, DWORD PTR $T142917[ebp]
	call	DWORD PTR __imp_??1?$basic_string@DU?$char_traits@D@std@@V?$allocator@D@2@@std@@QAE@XZ
	mov	BYTE PTR __$EHRec$[ebp+8], 7
	lea	ecx, DWORD PTR $T142918[ebp]
	call	DWORD PTR __imp_??1?$basic_string@DU?$char_traits@D@std@@V?$allocator@D@2@@std@@QAE@XZ
; Line 156
	push	OFFSET $SG138514
	lea	ecx, DWORD PTR $T142920[ebp]
	call	DWORD PTR __imp_??0?$basic_string@DU?$char_traits@D@std@@V?$allocator@D@2@@std@@QAE@PBD@Z
	mov	BYTE PTR __$EHRec$[ebp+8], 10		; 0000000aH
	push	0
	mov	edx, DWORD PTR _iMsgSlot$138497[ebp]
	add	edx, 1
	push	edx
	lea	eax, DWORD PTR $T142919[ebp]
	push	eax
	call	DWORD PTR __imp_?itos@@YA?AV?$basic_string@DU?$char_traits@D@std@@V?$allocator@D@2@@std@@H@Z
	add	esp, 8
	mov	DWORD PTR tv150[ebp], eax
	mov	ecx, DWORD PTR tv150[ebp]
	mov	DWORD PTR tv187[ebp], ecx
	mov	BYTE PTR __$EHRec$[ebp+8], 11		; 0000000bH
	mov	edx, DWORD PTR tv187[ebp]
	push	edx
	lea	eax, DWORD PTR $T142920[ebp]
	push	eax
	lea	ecx, DWORD PTR _scFilePath$[ebp]
	push	ecx
	call	DWORD PTR __imp_?IniGetB@@YA_NABV?$basic_string@DU?$char_traits@D@std@@V?$allocator@D@2@@std@@00_N@Z
	add	esp, 16					; 00000010H
	mov	BYTE PTR _bTmpRead$138511[ebp], al
	mov	BYTE PTR __$EHRec$[ebp+8], 10		; 0000000aH
	lea	ecx, DWORD PTR $T142919[ebp]
	call	DWORD PTR __imp_??1?$basic_string@DU?$char_traits@D@std@@V?$allocator@D@2@@std@@QAE@XZ
	mov	BYTE PTR __$EHRec$[ebp+8], 7
	lea	ecx, DWORD PTR $T142920[ebp]
	call	DWORD PTR __imp_??1?$basic_string@DU?$char_traits@D@std@@V?$allocator@D@2@@std@@QAE@XZ
; Line 157
	movzx	edx, BYTE PTR _bTmpRead$138511[ebp]
	test	edx, edx
	je	SHORT $LN7@MailDel
	mov	DWORD PTR tv159[ebp], OFFSET $SG138518
	jmp	SHORT $LN8@MailDel
$LN7@MailDel:
	mov	DWORD PTR tv159[ebp], OFFSET $SG138519
$LN8@MailDel:
	mov	eax, DWORD PTR tv159[ebp]
	push	eax
	lea	ecx, DWORD PTR $T142921[ebp]
	call	DWORD PTR __imp_??0?$basic_string@DU?$char_traits@D@std@@V?$allocator@D@2@@std@@QAE@PBD@Z
	mov	BYTE PTR __$EHRec$[ebp+8], 12		; 0000000cH
	push	OFFSET $SG138520
	lea	ecx, DWORD PTR $T142925[ebp]
	call	DWORD PTR __imp_??0?$basic_string@DU?$char_traits@D@std@@V?$allocator@D@2@@std@@QAE@PBD@Z
	mov	BYTE PTR __$EHRec$[ebp+8], 13		; 0000000dH
	lea	ecx, DWORD PTR $T142921[ebp]
	push	ecx
	mov	edx, DWORD PTR _iMsgSlot$138497[ebp]
	push	edx
	lea	eax, DWORD PTR $T142924[ebp]
	push	eax
	call	DWORD PTR __imp_?itos@@YA?AV?$basic_string@DU?$char_traits@D@std@@V?$allocator@D@2@@std@@H@Z
	add	esp, 8
	mov	DWORD PTR tv170[ebp], eax
	mov	ecx, DWORD PTR tv170[ebp]
	mov	DWORD PTR tv191[ebp], ecx
	mov	BYTE PTR __$EHRec$[ebp+8], 14		; 0000000eH
	mov	edx, DWORD PTR tv191[ebp]
	push	edx
	lea	eax, DWORD PTR $T142925[ebp]
	push	eax
	lea	ecx, DWORD PTR _scFilePath$[ebp]
	push	ecx
	call	DWORD PTR __imp_?IniWrite@@YAXABV?$basic_string@DU?$char_traits@D@std@@V?$allocator@D@2@@std@@000@Z
	add	esp, 16					; 00000010H
	mov	BYTE PTR __$EHRec$[ebp+8], 13		; 0000000dH
	lea	ecx, DWORD PTR $T142924[ebp]
	call	DWORD PTR __imp_??1?$basic_string@DU?$char_traits@D@std@@V?$allocator@D@2@@std@@QAE@XZ
	mov	BYTE PTR __$EHRec$[ebp+8], 12		; 0000000cH
	lea	ecx, DWORD PTR $T142925[ebp]
	call	DWORD PTR __imp_??1?$basic_string@DU?$char_traits@D@std@@V?$allocator@D@2@@std@@QAE@XZ
	mov	BYTE PTR __$EHRec$[ebp+8], 7
	lea	ecx, DWORD PTR $T142921[ebp]
	call	DWORD PTR __imp_??1?$basic_string@DU?$char_traits@D@std@@V?$allocator@D@2@@std@@QAE@XZ
; Line 158
	mov	BYTE PTR __$EHRec$[ebp+8], 0
	lea	ecx, DWORD PTR _wscTmpMsg$138501[ebp]
	call	DWORD PTR __imp_??1?$basic_string@GU?$char_traits@G@std@@V?$allocator@G@2@@std@@QAE@XZ
	jmp	$LN2@MailDel
$LN1@MailDel:
; Line 159
	mov	BYTE PTR $T142926[ebp], 1
	mov	DWORD PTR __$EHRec$[ebp+8], -1
	lea	ecx, DWORD PTR _scFilePath$[ebp]
	call	DWORD PTR __imp_??1?$basic_string@DU?$char_traits@D@std@@V?$allocator@D@2@@std@@QAE@XZ
	mov	al, BYTE PTR $T142926[ebp]
$LN5@MailDel:
; Line 160
	mov	ecx, DWORD PTR __$EHRec$[ebp]
	mov	DWORD PTR fs:0, ecx
	pop	ecx
	mov	ecx, DWORD PTR __$ArrayPad$[ebp]
	xor	ecx, ebp
	call	@__security_check_cookie@4
	mov	esp, ebp
	pop	ebp
	ret	0
_TEXT	ENDS
text$x	SEGMENT
__unwindfunclet$?MailDel@Mail@@YA_NABV?$basic_string@GU?$char_traits@G@std@@V?$allocator@G@2@@std@@ABV?$basic_string@DU?$char_traits@D@std@@V?$allocator@D@2@@3@H@Z$0:
	lea	ecx, DWORD PTR _scFilePath$[ebp]
	jmp	DWORD PTR __imp_??1?$basic_string@DU?$char_traits@D@std@@V?$allocator@D@2@@std@@QAE@XZ
__unwindfunclet$?MailDel@Mail@@YA_NABV?$basic_string@GU?$char_traits@G@std@@V?$allocator@G@2@@std@@ABV?$basic_string@DU?$char_traits@D@std@@V?$allocator@D@2@@3@H@Z$1:
	lea	ecx, DWORD PTR $T142914[ebp]
	jmp	DWORD PTR __imp_??1?$basic_string@GU?$char_traits@G@std@@V?$allocator@G@2@@std@@QAE@XZ
__unwindfunclet$?MailDel@Mail@@YA_NABV?$basic_string@GU?$char_traits@G@std@@V?$allocator@G@2@@std@@ABV?$basic_string@DU?$char_traits@D@std@@V?$allocator@D@2@@3@H@Z$2:
	lea	ecx, DWORD PTR $T142916[ebp]
	jmp	DWORD PTR __imp_??1?$basic_string@DU?$char_traits@D@std@@V?$allocator@D@2@@std@@QAE@XZ
__unwindfunclet$?MailDel@Mail@@YA_NABV?$basic_string@GU?$char_traits@G@std@@V?$allocator@G@2@@std@@ABV?$basic_string@DU?$char_traits@D@std@@V?$allocator@D@2@@3@H@Z$3:
	lea	ecx, DWORD PTR $T142915[ebp]
	jmp	DWORD PTR __imp_??1?$basic_string@DU?$char_traits@D@std@@V?$allocator@D@2@@std@@QAE@XZ
__unwindfunclet$?MailDel@Mail@@YA_NABV?$basic_string@GU?$char_traits@G@std@@V?$allocator@G@2@@std@@ABV?$basic_string@DU?$char_traits@D@std@@V?$allocator@D@2@@3@H@Z$4:
	lea	ecx, DWORD PTR _wscTmpMsg$138501[ebp]
	jmp	DWORD PTR __imp_??1?$basic_string@GU?$char_traits@G@std@@V?$allocator@G@2@@std@@QAE@XZ
__unwindfunclet$?MailDel@Mail@@YA_NABV?$basic_string@GU?$char_traits@G@std@@V?$allocator@G@2@@std@@ABV?$basic_string@DU?$char_traits@D@std@@V?$allocator@D@2@@3@H@Z$5:
	lea	ecx, DWORD PTR $T142918[ebp]
	jmp	DWORD PTR __imp_??1?$basic_string@DU?$char_traits@D@std@@V?$allocator@D@2@@std@@QAE@XZ
__unwindfunclet$?MailDel@Mail@@YA_NABV?$basic_string@GU?$char_traits@G@std@@V?$allocator@G@2@@std@@ABV?$basic_string@DU?$char_traits@D@std@@V?$allocator@D@2@@3@H@Z$6:
	lea	ecx, DWORD PTR $T142917[ebp]
	jmp	DWORD PTR __imp_??1?$basic_string@DU?$char_traits@D@std@@V?$allocator@D@2@@std@@QAE@XZ
__unwindfunclet$?MailDel@Mail@@YA_NABV?$basic_string@GU?$char_traits@G@std@@V?$allocator@G@2@@std@@ABV?$basic_string@DU?$char_traits@D@std@@V?$allocator@D@2@@3@H@Z$7:
	lea	ecx, DWORD PTR $T142920[ebp]
	jmp	DWORD PTR __imp_??1?$basic_string@DU?$char_traits@D@std@@V?$allocator@D@2@@std@@QAE@XZ
__unwindfunclet$?MailDel@Mail@@YA_NABV?$basic_string@GU?$char_traits@G@std@@V?$allocator@G@2@@std@@ABV?$basic_string@DU?$char_traits@D@std@@V?$allocator@D@2@@3@H@Z$8:
	lea	ecx, DWORD PTR $T142919[ebp]
	jmp	DWORD PTR __imp_??1?$basic_string@DU?$char_traits@D@std@@V?$allocator@D@2@@std@@QAE@XZ
__unwindfunclet$?MailDel@Mail@@YA_NABV?$basic_string@GU?$char_traits@G@std@@V?$allocator@G@2@@std@@ABV?$basic_string@DU?$char_traits@D@std@@V?$allocator@D@2@@3@H@Z$9:
	lea	ecx, DWORD PTR $T142921[ebp]
	jmp	DWORD PTR __imp_??1?$basic_string@DU?$char_traits@D@std@@V?$allocator@D@2@@std@@QAE@XZ
__unwindfunclet$?MailDel@Mail@@YA_NABV?$basic_string@GU?$char_traits@G@std@@V?$allocator@G@2@@std@@ABV?$basic_string@DU?$char_traits@D@std@@V?$allocator@D@2@@3@H@Z$10:
	lea	ecx, DWORD PTR $T142925[ebp]
	jmp	DWORD PTR __imp_??1?$basic_string@DU?$char_traits@D@std@@V?$allocator@D@2@@std@@QAE@XZ
__unwindfunclet$?MailDel@Mail@@YA_NABV?$basic_string@GU?$char_traits@G@std@@V?$allocator@G@2@@std@@ABV?$basic_string@DU?$char_traits@D@std@@V?$allocator@D@2@@3@H@Z$11:
	lea	ecx, DWORD PTR $T142924[ebp]
	jmp	DWORD PTR __imp_??1?$basic_string@DU?$char_traits@D@std@@V?$allocator@D@2@@std@@QAE@XZ
__ehhandler$?MailDel@Mail@@YA_NABV?$basic_string@GU?$char_traits@G@std@@V?$allocator@G@2@@std@@ABV?$basic_string@DU?$char_traits@D@std@@V?$allocator@D@2@@3@H@Z:
	mov	edx, DWORD PTR [esp+8]
	lea	eax, DWORD PTR [edx+12]
	mov	ecx, DWORD PTR [edx-392]
	xor	ecx, eax
	call	@__security_check_cookie@4
	mov	ecx, DWORD PTR [edx-4]
	xor	ecx, eax
	call	@__security_check_cookie@4
	mov	eax, OFFSET __ehfuncinfo$?MailDel@Mail@@YA_NABV?$basic_string@GU?$char_traits@G@std@@V?$allocator@G@2@@std@@ABV?$basic_string@DU?$char_traits@D@std@@V?$allocator@D@2@@3@H@Z
	jmp	___CxxFrameHandler3
text$x	ENDS
?MailDel@Mail@@YA_NABV?$basic_string@GU?$char_traits@G@std@@V?$allocator@G@2@@std@@ABV?$basic_string@DU?$char_traits@D@std@@V?$allocator@D@2@@3@H@Z ENDP ; Mail::MailDel
END
