; Listing generated by Microsoft (R) Optimizing Compiler Version 15.00.30729.01 

	TITLE	g:\Max\Bastelstube\FL\FLHook Source\flhookplugin_MoD\plugins\playercntl_plugin\src\Message.cpp
	.686P
	.XMM
	include listing.inc
	.model	flat

INCLUDELIB MSVCRT
INCLUDELIB OLDNAMES

PUBLIC	?_Value@?$_Is_swap_move@U_Swap_move_tag@std@@@std@@2_NB ; std::_Is_swap_move<std::_Swap_move_tag>::_Value
PUBLIC	?collate@?$_Locbase@H@std@@2HB			; std::_Locbase<int>::collate
PUBLIC	?ctype@?$_Locbase@H@std@@2HB			; std::_Locbase<int>::ctype
PUBLIC	?monetary@?$_Locbase@H@std@@2HB			; std::_Locbase<int>::monetary
PUBLIC	?numeric@?$_Locbase@H@std@@2HB			; std::_Locbase<int>::numeric
PUBLIC	?time@?$_Locbase@H@std@@2HB			; std::_Locbase<int>::time
PUBLIC	?messages@?$_Locbase@H@std@@2HB			; std::_Locbase<int>::messages
PUBLIC	?all@?$_Locbase@H@std@@2HB			; std::_Locbase<int>::all
PUBLIC	?none@?$_Locbase@H@std@@2HB			; std::_Locbase<int>::none
PUBLIC	?skipws@?$_Iosb@H@std@@2W4_Fmtflags@12@B	; std::_Iosb<int>::skipws
PUBLIC	?unitbuf@?$_Iosb@H@std@@2W4_Fmtflags@12@B	; std::_Iosb<int>::unitbuf
PUBLIC	?uppercase@?$_Iosb@H@std@@2W4_Fmtflags@12@B	; std::_Iosb<int>::uppercase
PUBLIC	?showbase@?$_Iosb@H@std@@2W4_Fmtflags@12@B	; std::_Iosb<int>::showbase
PUBLIC	?showpoint@?$_Iosb@H@std@@2W4_Fmtflags@12@B	; std::_Iosb<int>::showpoint
PUBLIC	?showpos@?$_Iosb@H@std@@2W4_Fmtflags@12@B	; std::_Iosb<int>::showpos
PUBLIC	?left@?$_Iosb@H@std@@2W4_Fmtflags@12@B		; std::_Iosb<int>::left
PUBLIC	?right@?$_Iosb@H@std@@2W4_Fmtflags@12@B		; std::_Iosb<int>::right
PUBLIC	?internal@?$_Iosb@H@std@@2W4_Fmtflags@12@B	; std::_Iosb<int>::internal
PUBLIC	?dec@?$_Iosb@H@std@@2W4_Fmtflags@12@B		; std::_Iosb<int>::dec
PUBLIC	?oct@?$_Iosb@H@std@@2W4_Fmtflags@12@B		; std::_Iosb<int>::oct
PUBLIC	?hex@?$_Iosb@H@std@@2W4_Fmtflags@12@B		; std::_Iosb<int>::hex
PUBLIC	?scientific@?$_Iosb@H@std@@2W4_Fmtflags@12@B	; std::_Iosb<int>::scientific
PUBLIC	?fixed@?$_Iosb@H@std@@2W4_Fmtflags@12@B		; std::_Iosb<int>::fixed
PUBLIC	?hexfloat@?$_Iosb@H@std@@2W4_Fmtflags@12@B	; std::_Iosb<int>::hexfloat
PUBLIC	?boolalpha@?$_Iosb@H@std@@2W4_Fmtflags@12@B	; std::_Iosb<int>::boolalpha
PUBLIC	?_Stdio@?$_Iosb@H@std@@2W4_Fmtflags@12@B	; std::_Iosb<int>::_Stdio
PUBLIC	?adjustfield@?$_Iosb@H@std@@2W4_Fmtflags@12@B	; std::_Iosb<int>::adjustfield
PUBLIC	?basefield@?$_Iosb@H@std@@2W4_Fmtflags@12@B	; std::_Iosb<int>::basefield
PUBLIC	?floatfield@?$_Iosb@H@std@@2W4_Fmtflags@12@B	; std::_Iosb<int>::floatfield
PUBLIC	?goodbit@?$_Iosb@H@std@@2W4_Iostate@12@B	; std::_Iosb<int>::goodbit
PUBLIC	?eofbit@?$_Iosb@H@std@@2W4_Iostate@12@B		; std::_Iosb<int>::eofbit
PUBLIC	?failbit@?$_Iosb@H@std@@2W4_Iostate@12@B	; std::_Iosb<int>::failbit
PUBLIC	?badbit@?$_Iosb@H@std@@2W4_Iostate@12@B		; std::_Iosb<int>::badbit
PUBLIC	?_Hardfail@?$_Iosb@H@std@@2W4_Iostate@12@B	; std::_Iosb<int>::_Hardfail
PUBLIC	?in@?$_Iosb@H@std@@2W4_Openmode@12@B		; std::_Iosb<int>::in
PUBLIC	?out@?$_Iosb@H@std@@2W4_Openmode@12@B		; std::_Iosb<int>::out
PUBLIC	?ate@?$_Iosb@H@std@@2W4_Openmode@12@B		; std::_Iosb<int>::ate
PUBLIC	?app@?$_Iosb@H@std@@2W4_Openmode@12@B		; std::_Iosb<int>::app
PUBLIC	?trunc@?$_Iosb@H@std@@2W4_Openmode@12@B		; std::_Iosb<int>::trunc
PUBLIC	?_Nocreate@?$_Iosb@H@std@@2W4_Openmode@12@B	; std::_Iosb<int>::_Nocreate
PUBLIC	?_Noreplace@?$_Iosb@H@std@@2W4_Openmode@12@B	; std::_Iosb<int>::_Noreplace
PUBLIC	?binary@?$_Iosb@H@std@@2W4_Openmode@12@B	; std::_Iosb<int>::binary
PUBLIC	?beg@?$_Iosb@H@std@@2W4_Seekdir@12@B		; std::_Iosb<int>::beg
PUBLIC	?cur@?$_Iosb@H@std@@2W4_Seekdir@12@B		; std::_Iosb<int>::cur
PUBLIC	?end@?$_Iosb@H@std@@2W4_Seekdir@12@B		; std::_Iosb<int>::end
PUBLIC	?value@?$integral_constant@_N$0A@@tr1@std@@2_NB	; std::tr1::integral_constant<bool,0>::value
PUBLIC	?value@?$integral_constant@_N$00@tr1@std@@2_NB	; std::tr1::integral_constant<bool,1>::value
PUBLIC	?NUMBER_OF_SLOTS@INFO@Message@@2HB		; Message::INFO::NUMBER_OF_SLOTS
_BSS	SEGMENT
_bSendingTime DB 01H DUP (?)
_BSS	ENDS
;	COMDAT ?NUMBER_OF_SLOTS@INFO@Message@@2HB
CONST	SEGMENT
?NUMBER_OF_SLOTS@INFO@Message@@2HB DD 0aH		; Message::INFO::NUMBER_OF_SLOTS
CONST	ENDS
;	COMDAT ?value@?$integral_constant@_N$00@tr1@std@@2_NB
CONST	SEGMENT
?value@?$integral_constant@_N$00@tr1@std@@2_NB DB 01H	; std::tr1::integral_constant<bool,1>::value
CONST	ENDS
;	COMDAT ?value@?$integral_constant@_N$0A@@tr1@std@@2_NB
CONST	SEGMENT
?value@?$integral_constant@_N$0A@@tr1@std@@2_NB DB 00H	; std::tr1::integral_constant<bool,0>::value
CONST	ENDS
;	COMDAT ?end@?$_Iosb@H@std@@2W4_Seekdir@12@B
CONST	SEGMENT
?end@?$_Iosb@H@std@@2W4_Seekdir@12@B DD 02H		; std::_Iosb<int>::end
CONST	ENDS
;	COMDAT ?cur@?$_Iosb@H@std@@2W4_Seekdir@12@B
CONST	SEGMENT
?cur@?$_Iosb@H@std@@2W4_Seekdir@12@B DD 01H		; std::_Iosb<int>::cur
CONST	ENDS
;	COMDAT ?beg@?$_Iosb@H@std@@2W4_Seekdir@12@B
CONST	SEGMENT
?beg@?$_Iosb@H@std@@2W4_Seekdir@12@B DD 00H		; std::_Iosb<int>::beg
CONST	ENDS
;	COMDAT ?binary@?$_Iosb@H@std@@2W4_Openmode@12@B
CONST	SEGMENT
?binary@?$_Iosb@H@std@@2W4_Openmode@12@B DD 020H	; std::_Iosb<int>::binary
CONST	ENDS
;	COMDAT ?_Noreplace@?$_Iosb@H@std@@2W4_Openmode@12@B
CONST	SEGMENT
?_Noreplace@?$_Iosb@H@std@@2W4_Openmode@12@B DD 080H	; std::_Iosb<int>::_Noreplace
CONST	ENDS
;	COMDAT ?_Nocreate@?$_Iosb@H@std@@2W4_Openmode@12@B
CONST	SEGMENT
?_Nocreate@?$_Iosb@H@std@@2W4_Openmode@12@B DD 040H	; std::_Iosb<int>::_Nocreate
CONST	ENDS
;	COMDAT ?trunc@?$_Iosb@H@std@@2W4_Openmode@12@B
CONST	SEGMENT
?trunc@?$_Iosb@H@std@@2W4_Openmode@12@B DD 010H		; std::_Iosb<int>::trunc
CONST	ENDS
;	COMDAT ?app@?$_Iosb@H@std@@2W4_Openmode@12@B
CONST	SEGMENT
?app@?$_Iosb@H@std@@2W4_Openmode@12@B DD 08H		; std::_Iosb<int>::app
CONST	ENDS
;	COMDAT ?ate@?$_Iosb@H@std@@2W4_Openmode@12@B
CONST	SEGMENT
?ate@?$_Iosb@H@std@@2W4_Openmode@12@B DD 04H		; std::_Iosb<int>::ate
CONST	ENDS
;	COMDAT ?out@?$_Iosb@H@std@@2W4_Openmode@12@B
CONST	SEGMENT
?out@?$_Iosb@H@std@@2W4_Openmode@12@B DD 02H		; std::_Iosb<int>::out
CONST	ENDS
;	COMDAT ?in@?$_Iosb@H@std@@2W4_Openmode@12@B
CONST	SEGMENT
?in@?$_Iosb@H@std@@2W4_Openmode@12@B DD 01H		; std::_Iosb<int>::in
CONST	ENDS
;	COMDAT ?_Hardfail@?$_Iosb@H@std@@2W4_Iostate@12@B
CONST	SEGMENT
?_Hardfail@?$_Iosb@H@std@@2W4_Iostate@12@B DD 010H	; std::_Iosb<int>::_Hardfail
CONST	ENDS
;	COMDAT ?badbit@?$_Iosb@H@std@@2W4_Iostate@12@B
CONST	SEGMENT
?badbit@?$_Iosb@H@std@@2W4_Iostate@12@B DD 04H		; std::_Iosb<int>::badbit
CONST	ENDS
;	COMDAT ?failbit@?$_Iosb@H@std@@2W4_Iostate@12@B
CONST	SEGMENT
?failbit@?$_Iosb@H@std@@2W4_Iostate@12@B DD 02H		; std::_Iosb<int>::failbit
CONST	ENDS
;	COMDAT ?eofbit@?$_Iosb@H@std@@2W4_Iostate@12@B
CONST	SEGMENT
?eofbit@?$_Iosb@H@std@@2W4_Iostate@12@B DD 01H		; std::_Iosb<int>::eofbit
CONST	ENDS
;	COMDAT ?goodbit@?$_Iosb@H@std@@2W4_Iostate@12@B
CONST	SEGMENT
?goodbit@?$_Iosb@H@std@@2W4_Iostate@12@B DD 00H		; std::_Iosb<int>::goodbit
CONST	ENDS
;	COMDAT ?floatfield@?$_Iosb@H@std@@2W4_Fmtflags@12@B
CONST	SEGMENT
?floatfield@?$_Iosb@H@std@@2W4_Fmtflags@12@B DD 03000H	; std::_Iosb<int>::floatfield
CONST	ENDS
;	COMDAT ?basefield@?$_Iosb@H@std@@2W4_Fmtflags@12@B
CONST	SEGMENT
?basefield@?$_Iosb@H@std@@2W4_Fmtflags@12@B DD 0e00H	; std::_Iosb<int>::basefield
CONST	ENDS
;	COMDAT ?adjustfield@?$_Iosb@H@std@@2W4_Fmtflags@12@B
CONST	SEGMENT
?adjustfield@?$_Iosb@H@std@@2W4_Fmtflags@12@B DD 01c0H	; std::_Iosb<int>::adjustfield
CONST	ENDS
;	COMDAT ?_Stdio@?$_Iosb@H@std@@2W4_Fmtflags@12@B
CONST	SEGMENT
?_Stdio@?$_Iosb@H@std@@2W4_Fmtflags@12@B DD 08000H	; std::_Iosb<int>::_Stdio
CONST	ENDS
;	COMDAT ?boolalpha@?$_Iosb@H@std@@2W4_Fmtflags@12@B
CONST	SEGMENT
?boolalpha@?$_Iosb@H@std@@2W4_Fmtflags@12@B DD 04000H	; std::_Iosb<int>::boolalpha
CONST	ENDS
;	COMDAT ?hexfloat@?$_Iosb@H@std@@2W4_Fmtflags@12@B
CONST	SEGMENT
?hexfloat@?$_Iosb@H@std@@2W4_Fmtflags@12@B DD 03000H	; std::_Iosb<int>::hexfloat
CONST	ENDS
;	COMDAT ?fixed@?$_Iosb@H@std@@2W4_Fmtflags@12@B
CONST	SEGMENT
?fixed@?$_Iosb@H@std@@2W4_Fmtflags@12@B DD 02000H	; std::_Iosb<int>::fixed
CONST	ENDS
;	COMDAT ?scientific@?$_Iosb@H@std@@2W4_Fmtflags@12@B
CONST	SEGMENT
?scientific@?$_Iosb@H@std@@2W4_Fmtflags@12@B DD 01000H	; std::_Iosb<int>::scientific
CONST	ENDS
;	COMDAT ?hex@?$_Iosb@H@std@@2W4_Fmtflags@12@B
CONST	SEGMENT
?hex@?$_Iosb@H@std@@2W4_Fmtflags@12@B DD 0800H		; std::_Iosb<int>::hex
CONST	ENDS
;	COMDAT ?oct@?$_Iosb@H@std@@2W4_Fmtflags@12@B
CONST	SEGMENT
?oct@?$_Iosb@H@std@@2W4_Fmtflags@12@B DD 0400H		; std::_Iosb<int>::oct
CONST	ENDS
;	COMDAT ?dec@?$_Iosb@H@std@@2W4_Fmtflags@12@B
CONST	SEGMENT
?dec@?$_Iosb@H@std@@2W4_Fmtflags@12@B DD 0200H		; std::_Iosb<int>::dec
CONST	ENDS
;	COMDAT ?internal@?$_Iosb@H@std@@2W4_Fmtflags@12@B
CONST	SEGMENT
?internal@?$_Iosb@H@std@@2W4_Fmtflags@12@B DD 0100H	; std::_Iosb<int>::internal
CONST	ENDS
;	COMDAT ?right@?$_Iosb@H@std@@2W4_Fmtflags@12@B
CONST	SEGMENT
?right@?$_Iosb@H@std@@2W4_Fmtflags@12@B DD 080H		; std::_Iosb<int>::right
CONST	ENDS
;	COMDAT ?left@?$_Iosb@H@std@@2W4_Fmtflags@12@B
CONST	SEGMENT
?left@?$_Iosb@H@std@@2W4_Fmtflags@12@B DD 040H		; std::_Iosb<int>::left
CONST	ENDS
;	COMDAT ?showpos@?$_Iosb@H@std@@2W4_Fmtflags@12@B
CONST	SEGMENT
?showpos@?$_Iosb@H@std@@2W4_Fmtflags@12@B DD 020H	; std::_Iosb<int>::showpos
CONST	ENDS
;	COMDAT ?showpoint@?$_Iosb@H@std@@2W4_Fmtflags@12@B
CONST	SEGMENT
?showpoint@?$_Iosb@H@std@@2W4_Fmtflags@12@B DD 010H	; std::_Iosb<int>::showpoint
CONST	ENDS
;	COMDAT ?showbase@?$_Iosb@H@std@@2W4_Fmtflags@12@B
CONST	SEGMENT
?showbase@?$_Iosb@H@std@@2W4_Fmtflags@12@B DD 08H	; std::_Iosb<int>::showbase
CONST	ENDS
;	COMDAT ?uppercase@?$_Iosb@H@std@@2W4_Fmtflags@12@B
CONST	SEGMENT
?uppercase@?$_Iosb@H@std@@2W4_Fmtflags@12@B DD 04H	; std::_Iosb<int>::uppercase
CONST	ENDS
;	COMDAT ?unitbuf@?$_Iosb@H@std@@2W4_Fmtflags@12@B
CONST	SEGMENT
?unitbuf@?$_Iosb@H@std@@2W4_Fmtflags@12@B DD 02H	; std::_Iosb<int>::unitbuf
CONST	ENDS
;	COMDAT ?skipws@?$_Iosb@H@std@@2W4_Fmtflags@12@B
CONST	SEGMENT
?skipws@?$_Iosb@H@std@@2W4_Fmtflags@12@B DD 01H		; std::_Iosb<int>::skipws
CONST	ENDS
;	COMDAT ?none@?$_Locbase@H@std@@2HB
CONST	SEGMENT
?none@?$_Locbase@H@std@@2HB DD 00H			; std::_Locbase<int>::none
CONST	ENDS
;	COMDAT ?all@?$_Locbase@H@std@@2HB
CONST	SEGMENT
?all@?$_Locbase@H@std@@2HB DD 03fH			; std::_Locbase<int>::all
CONST	ENDS
;	COMDAT ?messages@?$_Locbase@H@std@@2HB
CONST	SEGMENT
?messages@?$_Locbase@H@std@@2HB DD 020H			; std::_Locbase<int>::messages
CONST	ENDS
;	COMDAT ?time@?$_Locbase@H@std@@2HB
CONST	SEGMENT
?time@?$_Locbase@H@std@@2HB DD 010H			; std::_Locbase<int>::time
CONST	ENDS
;	COMDAT ?numeric@?$_Locbase@H@std@@2HB
CONST	SEGMENT
?numeric@?$_Locbase@H@std@@2HB DD 08H			; std::_Locbase<int>::numeric
CONST	ENDS
;	COMDAT ?monetary@?$_Locbase@H@std@@2HB
CONST	SEGMENT
?monetary@?$_Locbase@H@std@@2HB DD 04H			; std::_Locbase<int>::monetary
CONST	ENDS
;	COMDAT ?ctype@?$_Locbase@H@std@@2HB
CONST	SEGMENT
?ctype@?$_Locbase@H@std@@2HB DD 02H			; std::_Locbase<int>::ctype
CONST	ENDS
;	COMDAT ?collate@?$_Locbase@H@std@@2HB
CONST	SEGMENT
?collate@?$_Locbase@H@std@@2HB DD 01H			; std::_Locbase<int>::collate
CONST	ENDS
;	COMDAT ?_Value@?$_Is_swap_move@U_Swap_move_tag@std@@@std@@2_NB
CONST	SEGMENT
?_Value@?$_Is_swap_move@U_Swap_move_tag@std@@@std@@2_NB DB 01H ; std::_Is_swap_move<std::_Swap_move_tag>::_Value
CONST	ENDS
_DATA	SEGMENT
__bad_alloc_Message DD FLAT:$SG64490
_DATA	ENDS
CONST	SEGMENT
$SG64490 DB	'bad allocation', 00H
	ORG $+1
$SG141119 DB	'-mail.ini', 00H
	ORG $+2
$SG142661 DB	'msg.', 00H
	ORG $+3
$SG142663 DB	'msg.chat_time', 00H
	ORG $+2
$SG142817 DB	'<', 00H, 'T', 00H, 'R', 00H, 'A', 00H, 00H, 00H
	ORG $+2
$SG142820 DB	'%', 00H, 's', 00H, 00H, 00H
	ORG $+2
$SG142840 DB	'<', 00H, 'T', 00H, 'R', 00H, 'A', 00H, 00H, 00H
	ORG $+2
$SG142843 DB	'%', 00H, 's', 00H, 00H, 00H
	ORG $+2
$SG142872 DB	'<', 00H, 'T', 00H, 'R', 00H, 'A', 00H, 00H, 00H
	ORG $+2
$SG142875 DB	'%', 00H, 's', 00H, 00H, 00H
	ORG $+2
$SG142882 DB	'%', 00H, '0', 00H, '2', 00H, 'X', 00H, 00H, 00H
	ORG $+2
$SG142889 DB	'#', 00H, 't', 00H, 00H, 00H
	ORG $+2
$SG142892 DB	'E', 00H, 'R', 00H, 'R', 00H, ' ', 00H, 'T', 00H, 'a', 00H
	DB	'r', 00H, 'g', 00H, 'e', 00H, 't', 00H, ' ', 00H, 'n', 00H, 'o'
	DB	00H, 't', 00H, ' ', 00H, 'a', 00H, 'v', 00H, 'a', 00H, 'i', 00H
	DB	'l', 00H, 'a', 00H, 'b', 00H, 'l', 00H, 'e', 00H, 00H, 00H
	ORG $+2
$SG142897 DB	'#', 00H, 't', 00H, 00H, 00H
	ORG $+2
$SG142899 DB	'#', 00H, 'c', 00H, 00H, 00H
	ORG $+2
$SG142905 DB	'#', 00H, 'c', 00H, 00H, 00H
	ORG $+2
$SG143007 DB	'CustomHelp', 00H
	ORG $+1
$SG143008 DB	'Message', 00H
$SG143011 DB	'CmdEcho', 00H
$SG143012 DB	'Message', 00H
$SG143015 DB	'CmdHide', 00H
$SG143016 DB	'Message', 00H
$SG143022 DB	'0x00AA0090', 00H
	ORG $+1
$SG143023 DB	'CmdEchoStyle', 00H
	ORG $+3
$SG143024 DB	'Message', 00H
$SG143027 DB	'StandardBannerDelay', 00H
$SG143028 DB	'Message', 00H
$SG143031 DB	'SpecialBannerDelay', 00H
	ORG $+1
$SG143032 DB	'Message', 00H
$SG143038 DB	'%player has been kicked for swearing', 00H
	ORG $+3
$SG143039 DB	'DisconnectSwearingInSpaceMsg', 00H
	ORG $+3
$SG143040 DB	'Message', 00H
$SG143043 DB	'DisconnectSwearingInSpaceRange', 00H
	ORG $+1
$SG143044 DB	'Message', 00H
$SG143047 DB	'SetMsg', 00H
	ORG $+1
$SG143048 DB	'Message', 00H
$SG143717 DB	'Help', 00H
	ORG $+3
$SG143724 DB	'GreetingBanner', 00H
	ORG $+1
$SG143734 DB	'SpecialBanner', 00H
	ORG $+2
$SG143744 DB	'StandardBanner', 00H
	ORG $+1
$SG143759 DB	'SwearWords', 00H
	ORG $+1
$SG143771 DB	' ', 00H, 00H, 00H
$SG143772 DB	'_', 00H, 00H, 00H
$SG143912 DB	'/', 00H, 'g', 00H, ' ', 00H, 00H, 00H
$SG143913 DB	'/', 00H, 'g', 00H, 'r', 00H, 'o', 00H, 'u', 00H, 'p', 00H
	DB	' ', 00H, 00H, 00H
$SG143928 DB	'T', 00H, 'h', 00H, 'i', 00H, 's', 00H, ' ', 00H, 'i', 00H
	DB	's', 00H, ' ', 00H, 'a', 00H, 'n', 00H, ' ', 00H, 'a', 00H, 'u'
	DB	00H, 't', 00H, 'o', 00H, 'm', 00H, 'a', 00H, 't', 00H, 'e', 00H
	DB	'd', 00H, ' ', 00H, 'm', 00H, 'e', 00H, 's', 00H, 's', 00H, 'a'
	DB	00H, 'g', 00H, 'e', 00H, '.', 00H, 00H, 00H
$SG143930 DB	'P', 00H, 'l', 00H, 'e', 00H, 'a', 00H, 's', 00H, 'e', 00H
	DB	' ', 00H, 'd', 00H, 'o', 00H, ' ', 00H, 'n', 00H, 'o', 00H, 't'
	DB	00H, ' ', 00H, 's', 00H, 'w', 00H, 'e', 00H, 'a', 00H, 'r', 00H
	DB	' ', 00H, 'o', 00H, 'r', 00H, ' ', 00H, 'y', 00H, 'o', 00H, 'u'
	DB	00H, ' ', 00H, 'm', 00H, 'a', 00H, 'y', 00H, ' ', 00H, 'b', 00H
	DB	'e', 00H, ' ', 00H, 's', 00H, 'a', 00H, 'n', 00H, 'c', 00H, 't'
	DB	00H, 'i', 00H, 'o', 00H, 'n', 00H, 'e', 00H, 'd', 00H, '.', 00H
	DB	00H, 00H
$SG143937 DB	'NOTICE: Swearing tempban on %s (%s) reason=''%s''', 00H
$SG143943 DB	'%', 00H, 't', 00H, 'i', 00H, 'm', 00H, 'e', 00H, 00H, 00H
$SG143946 DB	'%', 00H, 'p', 00H, 'l', 00H, 'a', 00H, 'y', 00H, 'e', 00H
	DB	'r', 00H, 00H, 00H
$SG143985 DB	':', 00H, ' ', 00H, 00H, 00H
	ORG $+2
$SG143990 DB	':', 00H, ' ', 00H, '/', 00H, 00H, 00H
$SG143991 DB	':', 00H, ' ', 00H, '/', 00H, '/', 00H, 00H, 00H
	ORG $+2
$SG143992 DB	':', 00H, ' ', 00H, '.', 00H, 00H, 00H
$SG143999 DB	'<', 00H, '/', 00H, 'T', 00H, 'E', 00H, 'X', 00H, 'T', 00H
	DB	'>', 00H, 00H, 00H
$SG144321 DB	' ', 00H, 't', 00H, 'a', 00H, 'r', 00H, 'g', 00H, 'e', 00H
	DB	't', 00H, '=', 00H, 00H, 00H
	ORG $+2
$SG144000 DB	'<', 00H, 'T', 00H, 'R', 00H, 'A', 00H, ' ', 00H, 'd', 00H
	DB	'a', 00H, 't', 00H, 'a', 00H, '=', 00H, '"', 00H, '0', 00H, 'x'
	DB	00H, 'B', 00H, 'E', 00H, 'B', 00H, 'E', 00H, 'B', 00H, 'E', 00H
	DB	'9', 00H, '0', 00H, '"', 00H, ' ', 00H, 'm', 00H, 'a', 00H, 's'
	DB	00H, 'k', 00H, '=', 00H, '"', 00H, '-', 00H, '1', 00H, '"', 00H
	DB	'/', 00H, '>', 00H, '<', 00H, 'T', 00H, 'E', 00H, 'X', 00H, 'T'
	DB	00H, '>', 00H, 00H, 00H
	ORG $+2
$SG144015 DB	'E', 00H, 'R', 00H, 'R', 00H, ' ', 00H, 'I', 00H, 'n', 00H
	DB	'v', 00H, 'a', 00H, 'l', 00H, 'i', 00H, 'd', 00H, ' ', 00H, 'p'
	DB	00H, 'a', 00H, 'r', 00H, 'a', 00H, 'm', 00H, 'e', 00H, 't', 00H
	DB	'e', 00H, 'r', 00H, 's', 00H, 00H, 00H
	ORG $+2
$SG144020 DB	'msg.', 00H
	ORG $+3
$SG144022 DB	'O', 00H, 'K', 00H, 00H, 00H
	ORG $+2
$SG144049 DB	'E', 00H, 'R', 00H, 'R', 00H, ' ', 00H, 'N', 00H, 'o', 00H
	DB	' ', 00H, 'm', 00H, 'e', 00H, 's', 00H, 's', 00H, 'a', 00H, 'g'
	DB	00H, 'e', 00H, 's', 00H, 00H, 00H
$SG144055 DB	'%', 00H, 'd', 00H, ':', 00H, ' ', 00H, '%', 00H, 's', 00H
	DB	00H, 00H
	ORG $+2
$SG144057 DB	'O', 00H, 'K', 00H, 00H, 00H
	ORG $+2
$SG144070 DB	'E', 00H, 'R', 00H, 'R', 00H, ' ', 00H, 'I', 00H, 'n', 00H
	DB	'v', 00H, 'a', 00H, 'l', 00H, 'i', 00H, 'd', 00H, ' ', 00H, 'p'
	DB	00H, 'a', 00H, 'r', 00H, 'a', 00H, 'm', 00H, 'e', 00H, 't', 00H
	DB	'e', 00H, 'r', 00H, 's', 00H, 00H, 00H
	ORG $+2
$SG144091 DB	'E', 00H, 'R', 00H, 'R', 00H, ' ', 00H, 'N', 00H, 'o', 00H
	DB	' ', 00H, 'm', 00H, 'e', 00H, 's', 00H, 's', 00H, 'a', 00H, 'g'
	DB	00H, 'e', 00H, ' ', 00H, 'd', 00H, 'e', 00H, 'f', 00H, 'i', 00H
	DB	'n', 00H, 'e', 00H, 'd', 00H, 00H, 00H
	ORG $+2
$SG144108 DB	'E', 00H, 'R', 00H, 'R', 00H, ' ', 00H, 'I', 00H, 'n', 00H
	DB	'v', 00H, 'a', 00H, 'l', 00H, 'i', 00H, 'd', 00H, ' ', 00H, 'p'
	DB	00H, 'a', 00H, 'r', 00H, 'a', 00H, 'm', 00H, 'e', 00H, 't', 00H
	DB	'e', 00H, 'r', 00H, 's', 00H, 00H, 00H
	ORG $+2
$SG144129 DB	'E', 00H, 'R', 00H, 'R', 00H, ' ', 00H, 'N', 00H, 'o', 00H
	DB	' ', 00H, 'm', 00H, 'e', 00H, 's', 00H, 's', 00H, 'a', 00H, 'g'
	DB	00H, 'e', 00H, ' ', 00H, 'd', 00H, 'e', 00H, 'f', 00H, 'i', 00H
	DB	'n', 00H, 'e', 00H, 'd', 00H, 00H, 00H
	ORG $+2
$SG144146 DB	'E', 00H, 'R', 00H, 'R', 00H, ' ', 00H, 'I', 00H, 'n', 00H
	DB	'v', 00H, 'a', 00H, 'l', 00H, 'i', 00H, 'd', 00H, ' ', 00H, 'p'
	DB	00H, 'a', 00H, 'r', 00H, 'a', 00H, 'm', 00H, 'e', 00H, 't', 00H
	DB	'e', 00H, 'r', 00H, 's', 00H, 00H, 00H
	ORG $+2
$SG144167 DB	'E', 00H, 'R', 00H, 'R', 00H, ' ', 00H, 'N', 00H, 'o', 00H
	DB	' ', 00H, 'm', 00H, 'e', 00H, 's', 00H, 's', 00H, 'a', 00H, 'g'
	DB	00H, 'e', 00H, ' ', 00H, 'd', 00H, 'e', 00H, 'f', 00H, 'i', 00H
	DB	'n', 00H, 'e', 00H, 'd', 00H, 00H, 00H
	ORG $+2
$SG144196 DB	'E', 00H, 'R', 00H, 'R', 00H, ' ', 00H, 'N', 00H, 'o', 00H
	DB	' ', 00H, 'm', 00H, 'e', 00H, 's', 00H, 's', 00H, 'a', 00H, 'g'
	DB	00H, 'e', 00H, ' ', 00H, 'd', 00H, 'e', 00H, 'f', 00H, 'i', 00H
	DB	'n', 00H, 'e', 00H, 'd', 00H, 00H, 00H
	ORG $+2
$SG144205 DB	'E', 00H, 'R', 00H, 'R', 00H, ' ', 00H, 'I', 00H, 'n', 00H
	DB	'v', 00H, 'a', 00H, 'l', 00H, 'i', 00H, 'd', 00H, ' ', 00H, 'p'
	DB	00H, 'a', 00H, 'r', 00H, 'a', 00H, 'm', 00H, 'e', 00H, 't', 00H
	DB	'e', 00H, 'r', 00H, 's', 00H, 00H, 00H
	ORG $+2
$SG144210 DB	'E', 00H, 'R', 00H, 'R', 00H, ' ', 00H, 'N', 00H, 'o', 00H
	DB	' ', 00H, 'm', 00H, 'e', 00H, 's', 00H, 's', 00H, 'a', 00H, 'g'
	DB	00H, 'e', 00H, ' ', 00H, 'd', 00H, 'e', 00H, 'f', 00H, 'i', 00H
	DB	'n', 00H, 'e', 00H, 'd', 00H, 00H, 00H
	ORG $+2
$SG144217 DB	'E', 00H, 'R', 00H, 'R', 00H, ' ', 00H, 'I', 00H, 'n', 00H
	DB	'v', 00H, 'a', 00H, 'l', 00H, 'i', 00H, 'd', 00H, ' ', 00H, 'p'
	DB	00H, 'a', 00H, 'r', 00H, 'a', 00H, 'm', 00H, 'e', 00H, 't', 00H
	DB	'e', 00H, 'r', 00H, 's', 00H, 00H, 00H
	ORG $+2
$SG144222 DB	'E', 00H, 'R', 00H, 'R', 00H, ' ', 00H, 'P', 00H, 'M', 00H
	DB	' ', 00H, 's', 00H, 'e', 00H, 'n', 00H, 'd', 00H, 'e', 00H, 'r'
	DB	00H, ' ', 00H, 'n', 00H, 'o', 00H, 't', 00H, ' ', 00H, 'a', 00H
	DB	'v', 00H, 'a', 00H, 'i', 00H, 'l', 00H, 'a', 00H, 'b', 00H, 'l'
	DB	00H, 'e', 00H, 00H, 00H
$SG144249 DB	'E', 00H, 'R', 00H, 'R', 00H, ' ', 00H, 'N', 00H, 'o', 00H
	DB	' ', 00H, 'm', 00H, 'e', 00H, 's', 00H, 's', 00H, 'a', 00H, 'g'
	DB	00H, 'e', 00H, ' ', 00H, 'd', 00H, 'e', 00H, 'f', 00H, 'i', 00H
	DB	'n', 00H, 'e', 00H, 'd', 00H, 00H, 00H
	ORG $+2
$SG144258 DB	'E', 00H, 'R', 00H, 'R', 00H, ' ', 00H, 'I', 00H, 'n', 00H
	DB	'v', 00H, 'a', 00H, 'l', 00H, 'i', 00H, 'd', 00H, ' ', 00H, 'p'
	DB	00H, 'a', 00H, 'r', 00H, 'a', 00H, 'm', 00H, 'e', 00H, 't', 00H
	DB	'e', 00H, 'r', 00H, 's', 00H, 00H, 00H
	ORG $+2
$SG144263 DB	'E', 00H, 'R', 00H, 'R', 00H, ' ', 00H, 'N', 00H, 'o', 00H
	DB	' ', 00H, 'm', 00H, 'e', 00H, 's', 00H, 's', 00H, 'a', 00H, 'g'
	DB	00H, 'e', 00H, ' ', 00H, 'd', 00H, 'e', 00H, 'f', 00H, 'i', 00H
	DB	'n', 00H, 'e', 00H, 'd', 00H, 00H, 00H
	ORG $+2
$SG144270 DB	'E', 00H, 'R', 00H, 'R', 00H, ' ', 00H, 'I', 00H, 'n', 00H
	DB	'v', 00H, 'a', 00H, 'l', 00H, 'i', 00H, 'd', 00H, ' ', 00H, 'p'
	DB	00H, 'a', 00H, 'r', 00H, 'a', 00H, 'm', 00H, 'e', 00H, 't', 00H
	DB	'e', 00H, 'r', 00H, 's', 00H, 00H, 00H
	ORG $+2
$SG144275 DB	'E', 00H, 'R', 00H, 'R', 00H, ' ', 00H, 'P', 00H, 'M', 00H
	DB	' ', 00H, 't', 00H, 'a', 00H, 'r', 00H, 'g', 00H, 'e', 00H, 't'
	DB	00H, ' ', 00H, 'n', 00H, 'o', 00H, 't', 00H, ' ', 00H, 'a', 00H
	DB	'v', 00H, 'a', 00H, 'i', 00H, 'l', 00H, 'a', 00H, 'b', 00H, 'l'
	DB	00H, 'e', 00H, 00H, 00H
$SG144302 DB	'E', 00H, 'R', 00H, 'R', 00H, ' ', 00H, 'N', 00H, 'o', 00H
	DB	' ', 00H, 'm', 00H, 'e', 00H, 's', 00H, 's', 00H, 'a', 00H, 'g'
	DB	00H, 'e', 00H, ' ', 00H, 'd', 00H, 'e', 00H, 'f', 00H, 'i', 00H
	DB	'n', 00H, 'e', 00H, 'd', 00H, 00H, 00H
	ORG $+2
$SG144307 DB	'<', 00H, 'n', 00H, 'o', 00H, 't', 00H, ' ', 00H, 'a', 00H
	DB	'v', 00H, 'a', 00H, 'i', 00H, 'l', 00H, 'a', 00H, 'b', 00H, 'l'
	DB	00H, 'e', 00H, '>', 00H, 00H, 00H
$SG144314 DB	'<', 00H, 'n', 00H, 'o', 00H, 't', 00H, ' ', 00H, 'a', 00H
	DB	'v', 00H, 'a', 00H, 'i', 00H, 'l', 00H, 'a', 00H, 'b', 00H, 'l'
	DB	00H, 'e', 00H, '>', 00H, 00H, 00H
$SG144322 DB	'O', 00H, 'K', 00H, ' ', 00H, 's', 00H, 'e', 00H, 'n', 00H
	DB	'd', 00H, 'e', 00H, 'r', 00H, '=', 00H, 00H, 00H
	ORG $+2
$SG144341 DB	'E', 00H, 'R', 00H, 'R', 00H, ' ', 00H, 'I', 00H, 'n', 00H
	DB	'v', 00H, 'a', 00H, 'l', 00H, 'i', 00H, 'd', 00H, ' ', 00H, 'p'
	DB	00H, 'a', 00H, 'r', 00H, 'a', 00H, 'm', 00H, 'e', 00H, 't', 00H
	DB	'e', 00H, 'r', 00H, 's', 00H, 00H, 00H
	ORG $+2
$SG144346 DB	'E', 00H, 'R', 00H, 'R', 00H, ' ', 00H, 'c', 00H, 'h', 00H
	DB	'a', 00H, 'r', 00H, 'n', 00H, 'a', 00H, 'm', 00H, 'e', 00H, ' '
	DB	00H, 'd', 00H, 'o', 00H, 'e', 00H, 's', 00H, ' ', 00H, 'n', 00H
	DB	'o', 00H, 't', 00H, ' ', 00H, 'e', 00H, 'x', 00H, 'i', 00H, 's'
	DB	00H, 't', 00H, 00H, 00H
$SG144352 DB	':', 00H, ' ', 00H, 00H, 00H
	ORG $+2
$SG144354 DB	'O', 00H, 'K', 00H, ' ', 00H, 'm', 00H, 'e', 00H, 's', 00H
	DB	's', 00H, 'a', 00H, 'g', 00H, 'e', 00H, ' ', 00H, 's', 00H, 'a'
	DB	00H, 'v', 00H, 'e', 00H, 'd', 00H, ' ', 00H, 't', 00H, 'o', 00H
	DB	' ', 00H, 'm', 00H, 'a', 00H, 'i', 00H, 'l', 00H, 'b', 00H, 'o'
	DB	00H, 'x', 00H, 00H, 00H
$SG144375 DB	'E', 00H, 'R', 00H, 'R', 00H, ' ', 00H, 'I', 00H, 'n', 00H
	DB	'v', 00H, 'a', 00H, 'l', 00H, 'i', 00H, 'd', 00H, ' ', 00H, 'c'
	DB	00H, 'l', 00H, 'i', 00H, 'e', 00H, 'n', 00H, 't', 00H, '-', 00H
	DB	'i', 00H, 'd', 00H, 00H, 00H
$SG144395 DB	'E', 00H, 'R', 00H, 'R', 00H, ' ', 00H, 'I', 00H, 'n', 00H
	DB	'v', 00H, 'a', 00H, 'l', 00H, 'i', 00H, 'd', 00H, ' ', 00H, 'p'
	DB	00H, 'a', 00H, 'r', 00H, 'a', 00H, 'm', 00H, 'e', 00H, 't', 00H
	DB	'e', 00H, 'r', 00H, 's', 00H, 00H, 00H
	ORG $+2
$SG144423 DB	'F', 00H, 'F', 00H, '7', 00H, 'B', 00H, 'F', 00H, 'F', 00H
	DB	00H, 00H
	ORG $+2
$SG144426 DB	'F', 00H, 'F', 00H, '7', 00H, 'B', 00H, 'F', 00H, 'F', 00H
	DB	00H, 00H
	ORG $+2
$SG144429 DB	'E', 00H, 'R', 00H, 'R', 00H, ' ', 00H, 'N', 00H, 'o', 00H
	DB	' ', 00H, 'c', 00H, 'h', 00H, 'a', 00H, 'r', 00H, 's', 00H, ' '
	DB	00H, 'f', 00H, 'o', 00H, 'u', 00H, 'n', 00H, 'd', 00H, 00H, 00H
	ORG $+2
$SG144443 DB	'E', 00H, 'R', 00H, 'R', 00H, ' ', 00H, 'I', 00H, 'n', 00H
	DB	'v', 00H, 'a', 00H, 'l', 00H, 'i', 00H, 'd', 00H, ' ', 00H, 'p'
	DB	00H, 'a', 00H, 'r', 00H, 'a', 00H, 'm', 00H, 'e', 00H, 't', 00H
	DB	'e', 00H, 'r', 00H, 's', 00H, 00H, 00H
	ORG $+2
$SG144470 DB	'/', 00H, 'i', 00H, ' ', 00H, 00H, 00H
$SG144478 DB	'E', 00H, 'R', 00H, 'R', 00H, ' ', 00H, 00H, 00H
	ORG $+2
$SG144484 DB	'E', 00H, 'R', 00H, 'R', 00H, ' ', 00H, 'N', 00H, 'o', 00H
	DB	' ', 00H, 'c', 00H, 'h', 00H, 'a', 00H, 'r', 00H, 's', 00H, ' '
	DB	00H, 'f', 00H, 'o', 00H, 'u', 00H, 'n', 00H, 'd', 00H, 00H, 00H
	ORG $+2
$SG144497 DB	'o', 00H, 'n', 00H, 00H, 00H
	ORG $+2
$SG144500 DB	'o', 00H, 'f', 00H, 'f', 00H, 00H, 00H
$SG144503 DB	'E', 00H, 'R', 00H, 'R', 00H, ' ', 00H, 'I', 00H, 'n', 00H
	DB	'v', 00H, 'a', 00H, 'l', 00H, 'i', 00H, 'd', 00H, ' ', 00H, 'p'
	DB	00H, 'a', 00H, 'r', 00H, 'a', 00H, 'm', 00H, 'e', 00H, 't', 00H
	DB	'e', 00H, 'r', 00H, 's', 00H, 00H, 00H
	ORG $+2
$SG144508 DB	'msg.chat_time', 00H
	ORG $+2
$SG144527 DB	'O', 00H, 'K', 00H, 00H, 00H
	ORG $+2
$SG144692 DB	'=', 00H
	ORG $+2
$SG144703 DB	'E', 00H, 'R', 00H, 'R', 00H, ' ', 00H, 'I', 00H, 'n', 00H
	DB	'v', 00H, 'a', 00H, 'l', 00H, 'i', 00H, 'd', 00H, ' ', 00H, 'p'
	DB	00H, 'a', 00H, 'r', 00H, 'a', 00H, 'm', 00H, 'e', 00H, 't', 00H
	DB	'e', 00H, 'r', 00H, 's', 00H, 00H, 00H
	ORG $+2
$SG144719 DB	'O', 00H, 'K', 00H, ' ', 00H, 'Y', 00H, 'o', 00H, 'u', 00H
	DB	' ', 00H, 'h', 00H, 'a', 00H, 'v', 00H, 'e', 00H, ' ', 00H, 'n'
	DB	00H, 'o', 00H, ' ', 00H, 'm', 00H, 'e', 00H, 's', 00H, 's', 00H
	DB	'a', 00H, 'g', 00H, 'e', 00H, 's', 00H, 00H, 00H
$SG144726 DB	'O', 00H, 'K', 00H, ' ', 00H, 'Y', 00H, 'o', 00H, 'u', 00H
	DB	' ', 00H, 'h', 00H, 'a', 00H, 'v', 00H, 'e', 00H, ' ', 00H, '%'
	DB	00H, 'd', 00H, ' ', 00H, 'u', 00H, 'n', 00H, 'r', 00H, 'e', 00H
	DB	'a', 00H, 'd', 00H, ' ', 00H, 'm', 00H, 'e', 00H, 's', 00H, 's'
	DB	00H, 'a', 00H, 'g', 00H, 'e', 00H, 's', 00H, 00H, 00H
	ORG $+2
$SG144729 DB	'O', 00H, 'K', 00H, ' ', 00H, 'Y', 00H, 'o', 00H, 'u', 00H
	DB	' ', 00H, 'h', 00H, 'a', 00H, 'v', 00H, 'e', 00H, ' ', 00H, '%'
	DB	00H, 'd', 00H, ' ', 00H, 'm', 00H, 'e', 00H, 's', 00H, 's', 00H
	DB	'a', 00H, 'g', 00H, 'e', 00H, 's', 00H, 00H, 00H
$SG144731 DB	'T', 00H, 'y', 00H, 'p', 00H, 'e', 00H, ' ', 00H, '/', 00H
	DB	'm', 00H, 'a', 00H, 'i', 00H, 'l', 00H, ' ', 00H, '1', 00H, ' '
	DB	00H, 't', 00H, 'o', 00H, ' ', 00H, 's', 00H, 'e', 00H, 'e', 00H
	DB	' ', 00H, 'f', 00H, 'i', 00H, 'r', 00H, 's', 00H, 't', 00H, ' '
	DB	00H, 'm', 00H, 'e', 00H, 's', 00H, 's', 00H, 'a', 00H, 'g', 00H
	DB	'e', 00H, ' ', 00H, 'o', 00H, 'r', 00H, ' ', 00H, '/', 00H, 'm'
	DB	00H, 'a', 00H, 'i', 00H, 'l', 00H, ' ', 00H, '<', 00H, 'n', 00H
	DB	'u', 00H, 'm', 00H, '>', 00H, ' ', 00H, 't', 00H, 'o', 00H, ' '
	DB	00H, 's', 00H, 'e', 00H, 'e', 00H, ' ', 00H, 's', 00H, 'p', 00H
	DB	'e', 00H, 'c', 00H, 'i', 00H, 'f', 00H, 'i', 00H, 'e', 00H, 'd'
	DB	00H, ' ', 00H, 'm', 00H, 'e', 00H, 's', 00H, 's', 00H, 'a', 00H
	DB	'g', 00H, 'e', 00H, 00H, 00H
$SG144734 DB	'E', 00H, 'R', 00H, 'R', 00H, ' ', 00H, 'M', 00H, 'e', 00H
	DB	's', 00H, 's', 00H, 'a', 00H, 'g', 00H, 'e', 00H, ' ', 00H, 'd'
	DB	00H, 'o', 00H, 'e', 00H, 's', 00H, ' ', 00H, 'n', 00H, 'o', 00H
	DB	't', 00H, ' ', 00H, 'e', 00H, 'x', 00H, 'i', 00H, 's', 00H, 't'
	DB	00H, 00H, 00H
	ORG $+2
$SG144745 DB	'E', 00H, 'R', 00H, 'R', 00H, ' ', 00H, 'I', 00H, 'n', 00H
	DB	'v', 00H, 'a', 00H, 'l', 00H, 'i', 00H, 'd', 00H, ' ', 00H, 'p'
	DB	00H, 'a', 00H, 'r', 00H, 'a', 00H, 'm', 00H, 'e', 00H, 't', 00H
	DB	'e', 00H, 'r', 00H, 's', 00H, 00H, 00H
	ORG $+2
$SG144756 DB	'E', 00H, 'R', 00H, 'R', 00H, ' ', 00H, 'M', 00H, 'e', 00H
	DB	's', 00H, 's', 00H, 'a', 00H, 'g', 00H, 'e', 00H, ' ', 00H, 'd'
	DB	00H, 'o', 00H, 'e', 00H, 's', 00H, ' ', 00H, 'n', 00H, 'o', 00H
	DB	't', 00H, ' ', 00H, 'e', 00H, 'x', 00H, 'i', 00H, 's', 00H, 't'
	DB	00H, 00H, 00H
	ORG $+2
$SG144762 DB	'O', 00H, 'K', 00H, 00H, 00H
	ORG $+2
$SG144765 DB	'E', 00H, 'R', 00H, 'R', 00H, 00H, 00H
$SG144777 DB	'/', 00H, 00H, 00H
$SG144778 DB	'.', 00H, 00H, 00H
$SG144780 DB	'/', 00H, 'l', 00H, 00H, 00H
	ORG $+2
$SG144781 DB	'/', 00H, 'l', 00H, 'o', 00H, 'c', 00H, 'a', 00H, 'l', 00H
	DB	00H, 00H
	ORG $+2
$SG144782 DB	'/', 00H, 's', 00H, 00H, 00H
	ORG $+2
$SG144783 DB	'/', 00H, 's', 00H, 'y', 00H, 's', 00H, 't', 00H, 'e', 00H
	DB	'm', 00H, 00H, 00H
$SG144784 DB	'/', 00H, 'g', 00H, 00H, 00H
	ORG $+2
$SG144785 DB	'/', 00H, 'g', 00H, 'r', 00H, 'o', 00H, 'u', 00H, 'p', 00H
	DB	00H, 00H
	ORG $+2
$SG144786 DB	'/', 00H, 't', 00H, 00H, 00H
	ORG $+2
$SG144787 DB	'/', 00H, 't', 00H, 'a', 00H, 'r', 00H, 'g', 00H, 'e', 00H
	DB	't', 00H, 00H, 00H
$SG144788 DB	'/', 00H, 'r', 00H, 00H, 00H
	ORG $+2
$SG144789 DB	'/', 00H, 'r', 00H, 'e', 00H, 'p', 00H, 'l', 00H, 'y', 00H
	DB	00H, 00H
	ORG $+2
$SG144790 DB	'/', 00H, '/', 00H, 00H, 00H
	ORG $+2
$SG144791 DB	'*', 00H, 00H, 00H
$SG144798 DB	'<', 00H, '/', 00H, 'T', 00H, 'E', 00H, 'X', 00H, 'T', 00H
	DB	'>', 00H, 00H, 00H
$SG144799 DB	'"', 00H, ' ', 00H, 'm', 00H, 'a', 00H, 's', 00H, 'k', 00H
	DB	'=', 00H, '"', 00H, '-', 00H, '1', 00H, '"', 00H, '/', 00H, '>'
	DB	00H, '<', 00H, 'T', 00H, 'E', 00H, 'X', 00H, 'T', 00H, '>', 00H
	DB	00H, 00H
$SG144800 DB	'<', 00H, 'T', 00H, 'R', 00H, 'A', 00H, ' ', 00H, 'd', 00H
	DB	'a', 00H, 't', 00H, 'a', 00H, '=', 00H, '"', 00H, 00H, 00H
$SG144809 DB	':', 00H, ' ', 00H, 00H, 00H
	ORG $+2
$SG144811 DB	'O', 00H, 'K', 00H, ' ', 00H, 'm', 00H, 'e', 00H, 's', 00H
	DB	's', 00H, 'a', 00H, 'g', 00H, 'e', 00H, ' ', 00H, 's', 00H, 'a'
	DB	00H, 'v', 00H, 'e', 00H, 'd', 00H, ' ', 00H, 't', 00H, 'o', 00H
	DB	' ', 00H, 'm', 00H, 'a', 00H, 'i', 00H, 'l', 00H, 'b', 00H, 'o'
	DB	00H, 'x', 00H, 0aH, 00H, 00H, 00H
	ORG $+2
$SG144821 DB	'"', 00H, ' ', 00H, 'm', 00H, 'a', 00H, 's', 00H, 'k', 00H
	DB	'=', 00H, '"', 00H, '-', 00H, '1', 00H, '"', 00H, '/', 00H, '>'
	DB	00H, ' ', 00H, '<', 00H, 'T', 00H, 'E', 00H, 'X', 00H, 'T', 00H
	DB	'>', 00H, 00H, 00H
	ORG $+2
$SG144822 DB	'<', 00H, 'T', 00H, 'R', 00H, 'A', 00H, ' ', 00H, 'd', 00H
	DB	'a', 00H, 't', 00H, 'a', 00H, '=', 00H, '"', 00H, 00H, 00H
$SG144824 DB	'<', 00H, '/', 00H, 'T', 00H, 'E', 00H, 'X', 00H, 'T', 00H
	DB	'>', 00H, 00H, 00H
$SG144834 DB	'"', 00H, ' ', 00H, 'm', 00H, 'a', 00H, 's', 00H, 'k', 00H
	DB	'=', 00H, '"', 00H, '-', 00H, '1', 00H, '"', 00H, '/', 00H, '>'
	DB	00H, ' ', 00H, '<', 00H, 'T', 00H, 'E', 00H, 'X', 00H, 'T', 00H
	DB	'>', 00H, 00H, 00H
	ORG $+2
$SG144835 DB	'<', 00H, 'T', 00H, 'R', 00H, 'A', 00H, ' ', 00H, 'd', 00H
	DB	'a', 00H, 't', 00H, 'a', 00H, '=', 00H, '"', 00H, 00H, 00H
$SG144837 DB	'<', 00H, '/', 00H, 'T', 00H, 'E', 00H, 'X', 00H, 'T', 00H
	DB	'>', 00H, 00H, 00H
$SG144844 DB	'"', 00H, ' ', 00H, 'm', 00H, 'a', 00H, 's', 00H, 'k', 00H
	DB	'=', 00H, '"', 00H, '-', 00H, '1', 00H, '"', 00H, '/', 00H, '>'
	DB	00H, ' ', 00H, '<', 00H, 'T', 00H, 'E', 00H, 'X', 00H, 'T', 00H
	DB	'>', 00H, 00H, 00H
	ORG $+2
$SG144845 DB	'<', 00H, 'T', 00H, 'R', 00H, 'A', 00H, ' ', 00H, 'd', 00H
	DB	'a', 00H, 't', 00H, 'a', 00H, '=', 00H, '"', 00H, 00H, 00H
$SG144847 DB	'<', 00H, '/', 00H, 'T', 00H, 'E', 00H, 'X', 00H, 'T', 00H
	DB	'>', 00H, 00H, 00H
$SG144856 DB	'"', 00H, ' ', 00H, 'm', 00H, 'a', 00H, 's', 00H, 'k', 00H
	DB	'=', 00H, '"', 00H, '-', 00H, '1', 00H, '"', 00H, '/', 00H, '>'
	DB	00H, ' ', 00H, '<', 00H, 'T', 00H, 'E', 00H, 'X', 00H, 'T', 00H
	DB	'>', 00H, 00H, 00H
	ORG $+2
$SG144857 DB	'<', 00H, 'T', 00H, 'R', 00H, 'A', 00H, ' ', 00H, 'd', 00H
	DB	'a', 00H, 't', 00H, 'a', 00H, '=', 00H, '"', 00H, 00H, 00H
$SG144859 DB	'<', 00H, '/', 00H, 'T', 00H, 'E', 00H, 'X', 00H, 'T', 00H
	DB	'>', 00H, 00H, 00H
$SG144874 DB	'<', 00H, '/', 00H, 'T', 00H, 'E', 00H, 'X', 00H, 'T', 00H
	DB	'>', 00H, 00H, 00H
	ORG $+4
$SG144875 DB	'<', 00H, 'T', 00H, 'R', 00H, 'A', 00H, ' ', 00H, 'd', 00H
	DB	'a', 00H, 't', 00H, 'a', 00H, '=', 00H, '"', 00H, '0', 00H, 'x'
	DB	00H, 'B', 00H, 'E', 00H, 'B', 00H, 'E', 00H, 'B', 00H, 'E', 00H
	DB	'9', 00H, '0', 00H, '"', 00H, ' ', 00H, 'm', 00H, 'a', 00H, 's'
	DB	00H, 'k', 00H, '=', 00H, '"', 00H, '-', 00H, '1', 00H, '"', 00H
	DB	'/', 00H, '>', 00H, '<', 00H, 'T', 00H, 'E', 00H, 'X', 00H, 'T'
	DB	00H, '>', 00H, 00H, 00H
CONST	ENDS
PUBLIC	?erase@?$_Tree@V?$_Tmap_traits@IVINFO@Message@@U?$less@I@std@@V?$allocator@U?$pair@$$CBIVINFO@Message@@@std@@@4@$0A@@std@@@std@@QAEIABI@Z ; std::_Tree<std::_Tmap_traits<unsigned int,Message::INFO,std::less<unsigned int>,std::allocator<std::pair<unsigned int const ,Message::INFO> >,0> >::erase
PUBLIC	?ClearClientInfo@Message@@YAXI@Z		; Message::ClearClientInfo
; Function compile flags: /Odtp
_TEXT	SEGMENT
_iClientID$ = 8						; size = 4
?ClearClientInfo@Message@@YAXI@Z PROC			; Message::ClearClientInfo
; File g:\max\bastelstube\fl\flhook source\flhookplugin_mod\plugins\playercntl_plugin\src\message.cpp
; Line 227
	push	ebp
	mov	ebp, esp
; Line 228
	lea	eax, DWORD PTR _iClientID$[ebp]
	push	eax
	mov	ecx, OFFSET _mapInfo
	call	?erase@?$_Tree@V?$_Tmap_traits@IVINFO@Message@@U?$less@I@std@@V?$allocator@U?$pair@$$CBIVINFO@Message@@@std@@@4@$0A@@std@@@std@@QAEIABI@Z ; std::_Tree<std::_Tmap_traits<unsigned int,Message::INFO,std::less<unsigned int>,std::allocator<std::pair<unsigned int const ,Message::INFO> >,0> >::erase
; Line 229
	pop	ebp
	ret	0
?ClearClientInfo@Message@@YAXI@Z ENDP			; Message::ClearClientInfo
_TEXT	ENDS
PUBLIC	??1?$list@UHKPLAYERINFO@@V?$allocator@UHKPLAYERINFO@@@std@@@std@@QAE@XZ ; std::list<HKPLAYERINFO,std::allocator<HKPLAYERINFO> >::~list<HKPLAYERINFO,std::allocator<HKPLAYERINFO> >
PUBLIC	??1?$list@V?$basic_string@GU?$char_traits@G@std@@V?$allocator@G@2@@std@@V?$allocator@V?$basic_string@GU?$char_traits@G@std@@V?$allocator@G@2@@std@@@2@@std@@QAE@XZ ; std::list<std::basic_string<unsigned short,std::char_traits<unsigned short>,std::allocator<unsigned short> >,std::allocator<std::basic_string<unsigned short,std::char_traits<unsigned short>,std::allocator<unsigned short> > > >::~list<std::basic_string<unsigned short,std::char_traits<unsigned short>,std::allocator<unsigned short> >,std::allocator<std::basic_string<unsigned short,std::char_traits<unsigned short>,std::allocator<unsigned short> > > >
PUBLIC	?push_back@?$vector@V?$list@V?$basic_string@GU?$char_traits@G@std@@V?$allocator@G@2@@std@@V?$allocator@V?$basic_string@GU?$char_traits@G@std@@V?$allocator@G@2@@std@@@2@@std@@V?$allocator@V?$list@V?$basic_string@GU?$char_traits@G@std@@V?$allocator@G@2@@std@@V?$allocator@V?$basic_string@GU?$char_traits@G@std@@V?$allocator@G@2@@std@@@2@@std@@@2@@std@@QAEXABV?$list@V?$basic_string@GU?$char_traits@G@std@@V?$allocator@G@2@@std@@V?$allocator@V?$basic_string@GU?$char_traits@G@std@@V?$allocator@G@2@@std@@@2@@2@@Z ; std::vector<std::list<std::basic_string<unsigned short,std::char_traits<unsigned short>,std::allocator<unsigned short> >,std::allocator<std::basic_string<unsigned short,std::char_traits<unsigned short>,std::allocator<unsigned short> > > >,std::allocator<std::list<std::basic_string<unsigned short,std::char_traits<unsigned short>,std::allocator<unsigned short> >,std::allocator<std::basic_string<unsigned short,std::char_traits<unsigned short>,std::allocator<unsigned short> > > > > >::push_back
PUBLIC	??0?$list@V?$basic_string@GU?$char_traits@G@std@@V?$allocator@G@2@@std@@V?$allocator@V?$basic_string@GU?$char_traits@G@std@@V?$allocator@G@2@@std@@@2@@std@@QAE@XZ ; std::list<std::basic_string<unsigned short,std::char_traits<unsigned short>,std::allocator<unsigned short> >,std::allocator<std::basic_string<unsigned short,std::char_traits<unsigned short>,std::allocator<unsigned short> > > >::list<std::basic_string<unsigned short,std::char_traits<unsigned short>,std::allocator<unsigned short> >,std::allocator<std::basic_string<unsigned short,std::char_traits<unsigned short>,std::allocator<unsigned short> > > >
PUBLIC	?push_back@?$list@V?$basic_string@GU?$char_traits@G@std@@V?$allocator@G@2@@std@@V?$allocator@V?$basic_string@GU?$char_traits@G@std@@V?$allocator@G@2@@std@@@2@@std@@QAEXABV?$basic_string@GU?$char_traits@G@std@@V?$allocator@G@2@@2@@Z ; std::list<std::basic_string<unsigned short,std::char_traits<unsigned short>,std::allocator<unsigned short> >,std::allocator<std::basic_string<unsigned short,std::char_traits<unsigned short>,std::allocator<unsigned short> > > >::push_back
PUBLIC	?clear@?$vector@V?$list@V?$basic_string@GU?$char_traits@G@std@@V?$allocator@G@2@@std@@V?$allocator@V?$basic_string@GU?$char_traits@G@std@@V?$allocator@G@2@@std@@@2@@std@@V?$allocator@V?$list@V?$basic_string@GU?$char_traits@G@std@@V?$allocator@G@2@@std@@V?$allocator@V?$basic_string@GU?$char_traits@G@std@@V?$allocator@G@2@@std@@@2@@std@@@2@@std@@QAEXXZ ; std::vector<std::list<std::basic_string<unsigned short,std::char_traits<unsigned short>,std::allocator<unsigned short> >,std::allocator<std::basic_string<unsigned short,std::char_traits<unsigned short>,std::allocator<unsigned short> > > >,std::allocator<std::list<std::basic_string<unsigned short,std::char_traits<unsigned short>,std::allocator<unsigned short> >,std::allocator<std::basic_string<unsigned short,std::char_traits<unsigned short>,std::allocator<unsigned short> > > > > >::clear
PUBLIC	?clear@?$list@V?$basic_string@GU?$char_traits@G@std@@V?$allocator@G@2@@std@@V?$allocator@V?$basic_string@GU?$char_traits@G@std@@V?$allocator@G@2@@std@@@2@@std@@QAEXXZ ; std::list<std::basic_string<unsigned short,std::char_traits<unsigned short>,std::allocator<unsigned short> >,std::allocator<std::basic_string<unsigned short,std::char_traits<unsigned short>,std::allocator<unsigned short> > > >::clear
PUBLIC	??C?$_Iterator@$00@?$list@UHKPLAYERINFO@@V?$allocator@UHKPLAYERINFO@@@std@@@std@@QBEPAUHKPLAYERINFO@@XZ ; std::list<HKPLAYERINFO,std::allocator<HKPLAYERINFO> >::_Iterator<1>::operator->
PUBLIC	??9?$_Const_iterator@$00@?$list@UHKPLAYERINFO@@V?$allocator@UHKPLAYERINFO@@@std@@@std@@QBE_NABV012@@Z ; std::list<HKPLAYERINFO,std::allocator<HKPLAYERINFO> >::_Const_iterator<1>::operator!=
PUBLIC	?end@?$list@UHKPLAYERINFO@@V?$allocator@UHKPLAYERINFO@@@std@@@std@@QAE?AV?$_Iterator@$00@12@XZ ; std::list<HKPLAYERINFO,std::allocator<HKPLAYERINFO> >::end
PUBLIC	??E?$_Iterator@$00@?$list@UHKPLAYERINFO@@V?$allocator@UHKPLAYERINFO@@@std@@@std@@QAE?AV012@H@Z ; std::list<HKPLAYERINFO,std::allocator<HKPLAYERINFO> >::_Iterator<1>::operator++
PUBLIC	?begin@?$list@UHKPLAYERINFO@@V?$allocator@UHKPLAYERINFO@@@std@@@std@@QAE?AV?$_Iterator@$00@12@XZ ; std::list<HKPLAYERINFO,std::allocator<HKPLAYERINFO> >::begin
PUBLIC	__real@459c4000
PUBLIC	__$ArrayPad$
PUBLIC	?LoadSettings@Message@@YAXABV?$basic_string@DU?$char_traits@D@std@@V?$allocator@D@2@@std@@@Z ; Message::LoadSettings
EXTRN	__imp_??1INI_Reader@@QAE@XZ:PROC
EXTRN	__imp_?close@INI_Reader@@QAEXXZ:PROC
EXTRN	__imp_?ReplaceStr@@YA?AV?$basic_string@GU?$char_traits@G@std@@V?$allocator@G@2@@std@@ABV12@00@Z:PROC
EXTRN	__imp_??0?$basic_string@GU?$char_traits@G@std@@V?$allocator@G@2@@std@@QAE@PBG@Z:PROC
EXTRN	?Trim@@YA?AV?$basic_string@GU?$char_traits@G@std@@V?$allocator@G@2@@std@@V12@@Z:PROC ; Trim
EXTRN	__imp_?get_value_string@INI_Reader@@QAEPBDXZ:PROC
EXTRN	__imp_?read_value@INI_Reader@@QAE_NXZ:PROC
EXTRN	__imp_?is_header@INI_Reader@@QAE_NPBD@Z:PROC
EXTRN	__imp_?read_header@INI_Reader@@QAE_NXZ:PROC
EXTRN	__imp_?open@INI_Reader@@QAE_NPBD_N@Z:PROC
EXTRN	__imp_?c_str@?$basic_string@DU?$char_traits@D@std@@V?$allocator@D@2@@std@@QBEPBDXZ:PROC
EXTRN	__imp_??0INI_Reader@@QAE@XZ:PROC
EXTRN	__imp_?IniGetSection@@YAXABV?$basic_string@DU?$char_traits@D@std@@V?$allocator@D@2@@std@@0AAV?$list@UINISECTIONVALUE@@V?$allocator@UINISECTIONVALUE@@@std@@@2@@Z:PROC
EXTRN	__imp_?HkGetPlayers@@YA?AV?$list@UHKPLAYERINFO@@V?$allocator@UHKPLAYERINFO@@@std@@@std@@XZ:PROC
EXTRN	__imp_?IniGetF@@YAMABV?$basic_string@DU?$char_traits@D@std@@V?$allocator@D@2@@std@@00M@Z:PROC
EXTRN	__imp_?IniGetI@@YAHABV?$basic_string@DU?$char_traits@D@std@@V?$allocator@D@2@@std@@00H@Z:PROC
EXTRN	__imp_??1?$basic_string@GU?$char_traits@G@std@@V?$allocator@G@2@@std@@QAE@XZ:PROC
EXTRN	__imp_??4?$basic_string@GU?$char_traits@G@std@@V?$allocator@G@2@@std@@QAEAAV01@ABV01@@Z:PROC
EXTRN	__imp_?stows@@YA?AV?$basic_string@GU?$char_traits@G@std@@V?$allocator@G@2@@std@@ABV?$basic_string@DU?$char_traits@D@std@@V?$allocator@D@2@@2@@Z:PROC
EXTRN	__imp_?IniGetS@@YA?AV?$basic_string@DU?$char_traits@D@std@@V?$allocator@D@2@@std@@ABV12@000@Z:PROC
EXTRN	__imp_??1?$basic_string@DU?$char_traits@D@std@@V?$allocator@D@2@@std@@QAE@XZ:PROC
EXTRN	__imp_?IniGetB@@YA_NABV?$basic_string@DU?$char_traits@D@std@@V?$allocator@D@2@@std@@00_N@Z:PROC
EXTRN	__imp_??0?$basic_string@DU?$char_traits@D@std@@V?$allocator@D@2@@std@@QAE@PBD@Z:PROC
EXTRN	___security_cookie:DWORD
EXTRN	___CxxFrameHandler3:PROC
EXTRN	__fltused:DWORD
EXTRN	@__security_check_cookie@4:PROC
EXTRN	__chkstk:PROC
_BSS	SEGMENT
	ALIGN	4

_set_bSetMsg DB	01H DUP (?)
	ALIGN	4

_set_fDisconnectSwearingInSpaceRange DD 01H DUP (?)
_set_iSpecialBannerTimeout DD 01H DUP (?)
_set_iStandardBannerTimeout DD 01H DUP (?)
_set_bCmdHide DB 01H DUP (?)
	ALIGN	4

_set_bCmdEcho DB 01H DUP (?)
	ALIGN	4

_set_bCustomHelp DB 01H DUP (?)
_BSS	ENDS
;	COMDAT __real@459c4000
CONST	SEGMENT
__real@459c4000 DD 0459c4000r			; 5000
CONST	ENDS
xdata$x	SEGMENT
__ehfuncinfo$?LoadSettings@Message@@YAXABV?$basic_string@DU?$char_traits@D@std@@V?$allocator@D@2@@std@@@Z DD 019930522H
	DD	02cH
	DD	FLAT:__unwindtable$?LoadSettings@Message@@YAXABV?$basic_string@DU?$char_traits@D@std@@V?$allocator@D@2@@std@@@Z
	DD	2 DUP(00H)
	DD	2 DUP(00H)
	DD	00H
	DD	00H
__unwindtable$?LoadSettings@Message@@YAXABV?$basic_string@DU?$char_traits@D@std@@V?$allocator@D@2@@std@@@Z DD 0ffffffffH
	DD	FLAT:__unwindfunclet$?LoadSettings@Message@@YAXABV?$basic_string@DU?$char_traits@D@std@@V?$allocator@D@2@@std@@@Z$0
	DD	00H
	DD	FLAT:__unwindfunclet$?LoadSettings@Message@@YAXABV?$basic_string@DU?$char_traits@D@std@@V?$allocator@D@2@@std@@@Z$1
	DD	0ffffffffH
	DD	FLAT:__unwindfunclet$?LoadSettings@Message@@YAXABV?$basic_string@DU?$char_traits@D@std@@V?$allocator@D@2@@std@@@Z$2
	DD	02H
	DD	FLAT:__unwindfunclet$?LoadSettings@Message@@YAXABV?$basic_string@DU?$char_traits@D@std@@V?$allocator@D@2@@std@@@Z$3
	DD	0ffffffffH
	DD	FLAT:__unwindfunclet$?LoadSettings@Message@@YAXABV?$basic_string@DU?$char_traits@D@std@@V?$allocator@D@2@@std@@@Z$4
	DD	04H
	DD	FLAT:__unwindfunclet$?LoadSettings@Message@@YAXABV?$basic_string@DU?$char_traits@D@std@@V?$allocator@D@2@@std@@@Z$5
	DD	0ffffffffH
	DD	FLAT:__unwindfunclet$?LoadSettings@Message@@YAXABV?$basic_string@DU?$char_traits@D@std@@V?$allocator@D@2@@std@@@Z$6
	DD	06H
	DD	FLAT:__unwindfunclet$?LoadSettings@Message@@YAXABV?$basic_string@DU?$char_traits@D@std@@V?$allocator@D@2@@std@@@Z$7
	DD	07H
	DD	FLAT:__unwindfunclet$?LoadSettings@Message@@YAXABV?$basic_string@DU?$char_traits@D@std@@V?$allocator@D@2@@std@@@Z$8
	DD	08H
	DD	FLAT:__unwindfunclet$?LoadSettings@Message@@YAXABV?$basic_string@DU?$char_traits@D@std@@V?$allocator@D@2@@std@@@Z$9
	DD	09H
	DD	FLAT:__unwindfunclet$?LoadSettings@Message@@YAXABV?$basic_string@DU?$char_traits@D@std@@V?$allocator@D@2@@std@@@Z$10
	DD	0ffffffffH
	DD	FLAT:__unwindfunclet$?LoadSettings@Message@@YAXABV?$basic_string@DU?$char_traits@D@std@@V?$allocator@D@2@@std@@@Z$11
	DD	0bH
	DD	FLAT:__unwindfunclet$?LoadSettings@Message@@YAXABV?$basic_string@DU?$char_traits@D@std@@V?$allocator@D@2@@std@@@Z$12
	DD	0ffffffffH
	DD	FLAT:__unwindfunclet$?LoadSettings@Message@@YAXABV?$basic_string@DU?$char_traits@D@std@@V?$allocator@D@2@@std@@@Z$13
	DD	0dH
	DD	FLAT:__unwindfunclet$?LoadSettings@Message@@YAXABV?$basic_string@DU?$char_traits@D@std@@V?$allocator@D@2@@std@@@Z$14
	DD	0ffffffffH
	DD	FLAT:__unwindfunclet$?LoadSettings@Message@@YAXABV?$basic_string@DU?$char_traits@D@std@@V?$allocator@D@2@@std@@@Z$15
	DD	0fH
	DD	FLAT:__unwindfunclet$?LoadSettings@Message@@YAXABV?$basic_string@DU?$char_traits@D@std@@V?$allocator@D@2@@std@@@Z$16
	DD	010H
	DD	FLAT:__unwindfunclet$?LoadSettings@Message@@YAXABV?$basic_string@DU?$char_traits@D@std@@V?$allocator@D@2@@std@@@Z$17
	DD	011H
	DD	FLAT:__unwindfunclet$?LoadSettings@Message@@YAXABV?$basic_string@DU?$char_traits@D@std@@V?$allocator@D@2@@std@@@Z$18
	DD	012H
	DD	FLAT:__unwindfunclet$?LoadSettings@Message@@YAXABV?$basic_string@DU?$char_traits@D@std@@V?$allocator@D@2@@std@@@Z$19
	DD	0ffffffffH
	DD	FLAT:__unwindfunclet$?LoadSettings@Message@@YAXABV?$basic_string@DU?$char_traits@D@std@@V?$allocator@D@2@@std@@@Z$20
	DD	014H
	DD	FLAT:__unwindfunclet$?LoadSettings@Message@@YAXABV?$basic_string@DU?$char_traits@D@std@@V?$allocator@D@2@@std@@@Z$21
	DD	0ffffffffH
	DD	FLAT:__unwindfunclet$?LoadSettings@Message@@YAXABV?$basic_string@DU?$char_traits@D@std@@V?$allocator@D@2@@std@@@Z$22
	DD	016H
	DD	FLAT:__unwindfunclet$?LoadSettings@Message@@YAXABV?$basic_string@DU?$char_traits@D@std@@V?$allocator@D@2@@std@@@Z$23
	DD	0ffffffffH
	DD	FLAT:__unwindfunclet$?LoadSettings@Message@@YAXABV?$basic_string@DU?$char_traits@D@std@@V?$allocator@D@2@@std@@@Z$24
	DD	018H
	DD	FLAT:__unwindfunclet$?LoadSettings@Message@@YAXABV?$basic_string@DU?$char_traits@D@std@@V?$allocator@D@2@@std@@@Z$25
	DD	018H
	DD	FLAT:__unwindfunclet$?LoadSettings@Message@@YAXABV?$basic_string@DU?$char_traits@D@std@@V?$allocator@D@2@@std@@@Z$26
	DD	01aH
	DD	FLAT:__unwindfunclet$?LoadSettings@Message@@YAXABV?$basic_string@DU?$char_traits@D@std@@V?$allocator@D@2@@std@@@Z$27
	DD	01bH
	DD	FLAT:__unwindfunclet$?LoadSettings@Message@@YAXABV?$basic_string@DU?$char_traits@D@std@@V?$allocator@D@2@@std@@@Z$28
	DD	01bH
	DD	FLAT:__unwindfunclet$?LoadSettings@Message@@YAXABV?$basic_string@DU?$char_traits@D@std@@V?$allocator@D@2@@std@@@Z$29
	DD	01aH
	DD	FLAT:__unwindfunclet$?LoadSettings@Message@@YAXABV?$basic_string@DU?$char_traits@D@std@@V?$allocator@D@2@@std@@@Z$30
	DD	01eH
	DD	FLAT:__unwindfunclet$?LoadSettings@Message@@YAXABV?$basic_string@DU?$char_traits@D@std@@V?$allocator@D@2@@std@@@Z$31
	DD	01eH
	DD	FLAT:__unwindfunclet$?LoadSettings@Message@@YAXABV?$basic_string@DU?$char_traits@D@std@@V?$allocator@D@2@@std@@@Z$32
	DD	01aH
	DD	FLAT:__unwindfunclet$?LoadSettings@Message@@YAXABV?$basic_string@DU?$char_traits@D@std@@V?$allocator@D@2@@std@@@Z$33
	DD	021H
	DD	FLAT:__unwindfunclet$?LoadSettings@Message@@YAXABV?$basic_string@DU?$char_traits@D@std@@V?$allocator@D@2@@std@@@Z$34
	DD	022H
	DD	FLAT:__unwindfunclet$?LoadSettings@Message@@YAXABV?$basic_string@DU?$char_traits@D@std@@V?$allocator@D@2@@std@@@Z$35
	DD	022H
	DD	FLAT:__unwindfunclet$?LoadSettings@Message@@YAXABV?$basic_string@DU?$char_traits@D@std@@V?$allocator@D@2@@std@@@Z$36
	DD	01aH
	DD	FLAT:__unwindfunclet$?LoadSettings@Message@@YAXABV?$basic_string@DU?$char_traits@D@std@@V?$allocator@D@2@@std@@@Z$37
	DD	025H
	DD	FLAT:__unwindfunclet$?LoadSettings@Message@@YAXABV?$basic_string@DU?$char_traits@D@std@@V?$allocator@D@2@@std@@@Z$38
	DD	025H
	DD	FLAT:__unwindfunclet$?LoadSettings@Message@@YAXABV?$basic_string@DU?$char_traits@D@std@@V?$allocator@D@2@@std@@@Z$39
	DD	01aH
	DD	FLAT:__unwindfunclet$?LoadSettings@Message@@YAXABV?$basic_string@DU?$char_traits@D@std@@V?$allocator@D@2@@std@@@Z$39
	DD	028H
	DD	FLAT:__unwindfunclet$?LoadSettings@Message@@YAXABV?$basic_string@DU?$char_traits@D@std@@V?$allocator@D@2@@std@@@Z$40
	DD	029H
	DD	FLAT:__unwindfunclet$?LoadSettings@Message@@YAXABV?$basic_string@DU?$char_traits@D@std@@V?$allocator@D@2@@std@@@Z$41
	DD	02aH
	DD	FLAT:__unwindfunclet$?LoadSettings@Message@@YAXABV?$basic_string@DU?$char_traits@D@std@@V?$allocator@D@2@@std@@@Z$42
; Function compile flags: /Odtp
xdata$x	ENDS
_TEXT	SEGMENT
tv609 = -6704						; size = 4
tv508 = -6700						; size = 4
tv604 = -6696						; size = 4
tv603 = -6692						; size = 4
tv485 = -6688						; size = 4
tv600 = -6684						; size = 4
tv598 = -6680						; size = 4
tv597 = -6676						; size = 4
tv449 = -6672						; size = 4
tv593 = -6668						; size = 4
tv591 = -6664						; size = 4
tv590 = -6660						; size = 4
tv411 = -6656						; size = 4
tv587 = -6652						; size = 4
tv585 = -6648						; size = 4
tv584 = -6644						; size = 4
tv376 = -6640						; size = 4
tv542 = -6636						; size = 4
tv198 = -6632						; size = 4
tv540 = -6628						; size = 4
tv203 = -6624						; size = 4
tv531 = -6620						; size = 4
tv145 = -6616						; size = 4
tv529 = -6612						; size = 4
tv150 = -6608						; size = 4
$T152181 = -6604					; size = 28
$T152180 = -6576					; size = 28
$T152179 = -6548					; size = 28
$T152178 = -6520					; size = 28
$T152177 = -6492					; size = 4
$T152176 = -6488					; size = 28
$T152175 = -6460					; size = 28
$T152174 = -6432					; size = 4
$T152173 = -6428					; size = 28
$T152172 = -6400					; size = 28
$T152171 = -6372					; size = 4
$T152170 = -6368					; size = 28
$T152169 = -6340					; size = 28
$T152168 = -6312					; size = 4
$T152167 = -6308					; size = 28
$T152166 = -6280					; size = 8
$T152165 = -6272					; size = 8
$T152164 = -6264					; size = 28
$T152163 = -6236					; size = 28
$T152162 = -6208					; size = 28
$T152161 = -6180					; size = 28
$T152160 = -6152					; size = 28
$T152159 = -6124					; size = 28
$T152158 = -6096					; size = 28
$T152157 = -6068					; size = 28
$T152156 = -6040					; size = 28
$T152155 = -6012					; size = 28
$T152154 = -5984					; size = 28
$T152153 = -5956					; size = 28
$T152152 = -5928					; size = 28
$T152151 = -5900					; size = 28
$T152150 = -5872					; size = 28
$T152149 = -5844					; size = 28
$T152148 = -5816					; size = 28
$T152147 = -5788					; size = 28
$T152146 = -5760					; size = 28
$T152145 = -5732					; size = 28
$T152144 = -5704					; size = 28
$T152143 = -5676					; size = 28
$T152142 = -5648					; size = 28
$T152141 = -5620					; size = 28
_word$143763 = -5592					; size = 28
_lstStandardBannerSection$143749 = -5564		; size = 28
_p$143709 = -5536					; size = 8
_players$ = -5528					; size = 28
_ini$ = -5500						; size = 5480
__$ArrayPad$ = -16					; size = 4
__$EHRec$ = -12						; size = 12
_scPluginCfgFile$ = 8					; size = 4
?LoadSettings@Message@@YAXABV?$basic_string@DU?$char_traits@D@std@@V?$allocator@D@2@@std@@@Z PROC ; Message::LoadSettings
; Line 236
	push	ebp
	mov	ebp, esp
	push	-1
	push	__ehhandler$?LoadSettings@Message@@YAXABV?$basic_string@DU?$char_traits@D@std@@V?$allocator@D@2@@std@@@Z
	mov	eax, DWORD PTR fs:0
	push	eax
	mov	eax, 6692				; 00001a24H
	call	__chkstk
	mov	eax, DWORD PTR ___security_cookie
	xor	eax, ebp
	mov	DWORD PTR __$ArrayPad$[ebp], eax
	push	eax
	lea	eax, DWORD PTR __$EHRec$[ebp]
	mov	DWORD PTR fs:0, eax
; Line 237
	push	OFFSET $SG143007
	lea	ecx, DWORD PTR $T152141[ebp]
	call	DWORD PTR __imp_??0?$basic_string@DU?$char_traits@D@std@@V?$allocator@D@2@@std@@QAE@PBD@Z
	mov	DWORD PTR __$EHRec$[ebp+8], 0
	push	OFFSET $SG143008
	lea	ecx, DWORD PTR $T152142[ebp]
	call	DWORD PTR __imp_??0?$basic_string@DU?$char_traits@D@std@@V?$allocator@D@2@@std@@QAE@PBD@Z
	mov	BYTE PTR __$EHRec$[ebp+8], 1
	push	1
	lea	eax, DWORD PTR $T152141[ebp]
	push	eax
	lea	ecx, DWORD PTR $T152142[ebp]
	push	ecx
	mov	edx, DWORD PTR _scPluginCfgFile$[ebp]
	push	edx
	call	DWORD PTR __imp_?IniGetB@@YA_NABV?$basic_string@DU?$char_traits@D@std@@V?$allocator@D@2@@std@@00_N@Z
	add	esp, 16					; 00000010H
	mov	BYTE PTR _set_bCustomHelp, al
	mov	BYTE PTR __$EHRec$[ebp+8], 0
	lea	ecx, DWORD PTR $T152142[ebp]
	call	DWORD PTR __imp_??1?$basic_string@DU?$char_traits@D@std@@V?$allocator@D@2@@std@@QAE@XZ
	mov	DWORD PTR __$EHRec$[ebp+8], -1
	lea	ecx, DWORD PTR $T152141[ebp]
	call	DWORD PTR __imp_??1?$basic_string@DU?$char_traits@D@std@@V?$allocator@D@2@@std@@QAE@XZ
; Line 238
	push	OFFSET $SG143011
	lea	ecx, DWORD PTR $T152143[ebp]
	call	DWORD PTR __imp_??0?$basic_string@DU?$char_traits@D@std@@V?$allocator@D@2@@std@@QAE@PBD@Z
	mov	DWORD PTR __$EHRec$[ebp+8], 2
	push	OFFSET $SG143012
	lea	ecx, DWORD PTR $T152144[ebp]
	call	DWORD PTR __imp_??0?$basic_string@DU?$char_traits@D@std@@V?$allocator@D@2@@std@@QAE@PBD@Z
	mov	BYTE PTR __$EHRec$[ebp+8], 3
	push	1
	lea	eax, DWORD PTR $T152143[ebp]
	push	eax
	lea	ecx, DWORD PTR $T152144[ebp]
	push	ecx
	mov	edx, DWORD PTR _scPluginCfgFile$[ebp]
	push	edx
	call	DWORD PTR __imp_?IniGetB@@YA_NABV?$basic_string@DU?$char_traits@D@std@@V?$allocator@D@2@@std@@00_N@Z
	add	esp, 16					; 00000010H
	mov	BYTE PTR _set_bCmdEcho, al
	mov	BYTE PTR __$EHRec$[ebp+8], 2
	lea	ecx, DWORD PTR $T152144[ebp]
	call	DWORD PTR __imp_??1?$basic_string@DU?$char_traits@D@std@@V?$allocator@D@2@@std@@QAE@XZ
	mov	DWORD PTR __$EHRec$[ebp+8], -1
	lea	ecx, DWORD PTR $T152143[ebp]
	call	DWORD PTR __imp_??1?$basic_string@DU?$char_traits@D@std@@V?$allocator@D@2@@std@@QAE@XZ
; Line 239
	push	OFFSET $SG143015
	lea	ecx, DWORD PTR $T152145[ebp]
	call	DWORD PTR __imp_??0?$basic_string@DU?$char_traits@D@std@@V?$allocator@D@2@@std@@QAE@PBD@Z
	mov	DWORD PTR __$EHRec$[ebp+8], 4
	push	OFFSET $SG143016
	lea	ecx, DWORD PTR $T152146[ebp]
	call	DWORD PTR __imp_??0?$basic_string@DU?$char_traits@D@std@@V?$allocator@D@2@@std@@QAE@PBD@Z
	mov	BYTE PTR __$EHRec$[ebp+8], 5
	push	1
	lea	eax, DWORD PTR $T152145[ebp]
	push	eax
	lea	ecx, DWORD PTR $T152146[ebp]
	push	ecx
	mov	edx, DWORD PTR _scPluginCfgFile$[ebp]
	push	edx
	call	DWORD PTR __imp_?IniGetB@@YA_NABV?$basic_string@DU?$char_traits@D@std@@V?$allocator@D@2@@std@@00_N@Z
	add	esp, 16					; 00000010H
	mov	BYTE PTR _set_bCmdHide, al
	mov	BYTE PTR __$EHRec$[ebp+8], 4
	lea	ecx, DWORD PTR $T152146[ebp]
	call	DWORD PTR __imp_??1?$basic_string@DU?$char_traits@D@std@@V?$allocator@D@2@@std@@QAE@XZ
	mov	DWORD PTR __$EHRec$[ebp+8], -1
	lea	ecx, DWORD PTR $T152145[ebp]
	call	DWORD PTR __imp_??1?$basic_string@DU?$char_traits@D@std@@V?$allocator@D@2@@std@@QAE@XZ
; Line 240
	push	OFFSET $SG143022
	lea	ecx, DWORD PTR $T152147[ebp]
	call	DWORD PTR __imp_??0?$basic_string@DU?$char_traits@D@std@@V?$allocator@D@2@@std@@QAE@PBD@Z
	mov	DWORD PTR __$EHRec$[ebp+8], 6
	push	OFFSET $SG143023
	lea	ecx, DWORD PTR $T152148[ebp]
	call	DWORD PTR __imp_??0?$basic_string@DU?$char_traits@D@std@@V?$allocator@D@2@@std@@QAE@PBD@Z
	mov	BYTE PTR __$EHRec$[ebp+8], 7
	push	OFFSET $SG143024
	lea	ecx, DWORD PTR $T152149[ebp]
	call	DWORD PTR __imp_??0?$basic_string@DU?$char_traits@D@std@@V?$allocator@D@2@@std@@QAE@PBD@Z
	mov	BYTE PTR __$EHRec$[ebp+8], 8
	lea	eax, DWORD PTR $T152147[ebp]
	push	eax
	lea	ecx, DWORD PTR $T152148[ebp]
	push	ecx
	lea	edx, DWORD PTR $T152149[ebp]
	push	edx
	mov	eax, DWORD PTR _scPluginCfgFile$[ebp]
	push	eax
	lea	ecx, DWORD PTR $T152150[ebp]
	push	ecx
	call	DWORD PTR __imp_?IniGetS@@YA?AV?$basic_string@DU?$char_traits@D@std@@V?$allocator@D@2@@std@@ABV12@000@Z
	add	esp, 20					; 00000014H
	mov	DWORD PTR tv150[ebp], eax
	mov	edx, DWORD PTR tv150[ebp]
	mov	DWORD PTR tv529[ebp], edx
	mov	BYTE PTR __$EHRec$[ebp+8], 9
	mov	eax, DWORD PTR tv529[ebp]
	push	eax
	lea	ecx, DWORD PTR $T152151[ebp]
	push	ecx
	call	DWORD PTR __imp_?stows@@YA?AV?$basic_string@GU?$char_traits@G@std@@V?$allocator@G@2@@std@@ABV?$basic_string@DU?$char_traits@D@std@@V?$allocator@D@2@@2@@Z
	add	esp, 8
	mov	DWORD PTR tv145[ebp], eax
	mov	edx, DWORD PTR tv145[ebp]
	mov	DWORD PTR tv531[ebp], edx
	mov	BYTE PTR __$EHRec$[ebp+8], 10		; 0000000aH
	mov	eax, DWORD PTR tv531[ebp]
	push	eax
	mov	ecx, OFFSET _set_wscCmdEchoStyle
	call	DWORD PTR __imp_??4?$basic_string@GU?$char_traits@G@std@@V?$allocator@G@2@@std@@QAEAAV01@ABV01@@Z
	mov	BYTE PTR __$EHRec$[ebp+8], 9
	lea	ecx, DWORD PTR $T152151[ebp]
	call	DWORD PTR __imp_??1?$basic_string@GU?$char_traits@G@std@@V?$allocator@G@2@@std@@QAE@XZ
	mov	BYTE PTR __$EHRec$[ebp+8], 8
	lea	ecx, DWORD PTR $T152150[ebp]
	call	DWORD PTR __imp_??1?$basic_string@DU?$char_traits@D@std@@V?$allocator@D@2@@std@@QAE@XZ
	mov	BYTE PTR __$EHRec$[ebp+8], 7
	lea	ecx, DWORD PTR $T152149[ebp]
	call	DWORD PTR __imp_??1?$basic_string@DU?$char_traits@D@std@@V?$allocator@D@2@@std@@QAE@XZ
	mov	BYTE PTR __$EHRec$[ebp+8], 6
	lea	ecx, DWORD PTR $T152148[ebp]
	call	DWORD PTR __imp_??1?$basic_string@DU?$char_traits@D@std@@V?$allocator@D@2@@std@@QAE@XZ
	mov	DWORD PTR __$EHRec$[ebp+8], -1
	lea	ecx, DWORD PTR $T152147[ebp]
	call	DWORD PTR __imp_??1?$basic_string@DU?$char_traits@D@std@@V?$allocator@D@2@@std@@QAE@XZ
; Line 241
	push	OFFSET $SG143027
	lea	ecx, DWORD PTR $T152152[ebp]
	call	DWORD PTR __imp_??0?$basic_string@DU?$char_traits@D@std@@V?$allocator@D@2@@std@@QAE@PBD@Z
	mov	DWORD PTR __$EHRec$[ebp+8], 11		; 0000000bH
	push	OFFSET $SG143028
	lea	ecx, DWORD PTR $T152153[ebp]
	call	DWORD PTR __imp_??0?$basic_string@DU?$char_traits@D@std@@V?$allocator@D@2@@std@@QAE@PBD@Z
	mov	BYTE PTR __$EHRec$[ebp+8], 12		; 0000000cH
	push	5
	lea	ecx, DWORD PTR $T152152[ebp]
	push	ecx
	lea	edx, DWORD PTR $T152153[ebp]
	push	edx
	mov	eax, DWORD PTR _scPluginCfgFile$[ebp]
	push	eax
	call	DWORD PTR __imp_?IniGetI@@YAHABV?$basic_string@DU?$char_traits@D@std@@V?$allocator@D@2@@std@@00H@Z
	add	esp, 16					; 00000010H
	mov	DWORD PTR _set_iStandardBannerTimeout, eax
	mov	BYTE PTR __$EHRec$[ebp+8], 11		; 0000000bH
	lea	ecx, DWORD PTR $T152153[ebp]
	call	DWORD PTR __imp_??1?$basic_string@DU?$char_traits@D@std@@V?$allocator@D@2@@std@@QAE@XZ
	mov	DWORD PTR __$EHRec$[ebp+8], -1
	lea	ecx, DWORD PTR $T152152[ebp]
	call	DWORD PTR __imp_??1?$basic_string@DU?$char_traits@D@std@@V?$allocator@D@2@@std@@QAE@XZ
; Line 242
	push	OFFSET $SG143031
	lea	ecx, DWORD PTR $T152154[ebp]
	call	DWORD PTR __imp_??0?$basic_string@DU?$char_traits@D@std@@V?$allocator@D@2@@std@@QAE@PBD@Z
	mov	DWORD PTR __$EHRec$[ebp+8], 13		; 0000000dH
	push	OFFSET $SG143032
	lea	ecx, DWORD PTR $T152155[ebp]
	call	DWORD PTR __imp_??0?$basic_string@DU?$char_traits@D@std@@V?$allocator@D@2@@std@@QAE@PBD@Z
	mov	BYTE PTR __$EHRec$[ebp+8], 14		; 0000000eH
	push	60					; 0000003cH
	lea	ecx, DWORD PTR $T152154[ebp]
	push	ecx
	lea	edx, DWORD PTR $T152155[ebp]
	push	edx
	mov	eax, DWORD PTR _scPluginCfgFile$[ebp]
	push	eax
	call	DWORD PTR __imp_?IniGetI@@YAHABV?$basic_string@DU?$char_traits@D@std@@V?$allocator@D@2@@std@@00H@Z
	add	esp, 16					; 00000010H
	mov	DWORD PTR _set_iSpecialBannerTimeout, eax
	mov	BYTE PTR __$EHRec$[ebp+8], 13		; 0000000dH
	lea	ecx, DWORD PTR $T152155[ebp]
	call	DWORD PTR __imp_??1?$basic_string@DU?$char_traits@D@std@@V?$allocator@D@2@@std@@QAE@XZ
	mov	DWORD PTR __$EHRec$[ebp+8], -1
	lea	ecx, DWORD PTR $T152154[ebp]
	call	DWORD PTR __imp_??1?$basic_string@DU?$char_traits@D@std@@V?$allocator@D@2@@std@@QAE@XZ
; Line 243
	push	OFFSET $SG143038
	lea	ecx, DWORD PTR $T152156[ebp]
	call	DWORD PTR __imp_??0?$basic_string@DU?$char_traits@D@std@@V?$allocator@D@2@@std@@QAE@PBD@Z
	mov	DWORD PTR __$EHRec$[ebp+8], 15		; 0000000fH
	push	OFFSET $SG143039
	lea	ecx, DWORD PTR $T152157[ebp]
	call	DWORD PTR __imp_??0?$basic_string@DU?$char_traits@D@std@@V?$allocator@D@2@@std@@QAE@PBD@Z
	mov	BYTE PTR __$EHRec$[ebp+8], 16		; 00000010H
	push	OFFSET $SG143040
	lea	ecx, DWORD PTR $T152158[ebp]
	call	DWORD PTR __imp_??0?$basic_string@DU?$char_traits@D@std@@V?$allocator@D@2@@std@@QAE@PBD@Z
	mov	BYTE PTR __$EHRec$[ebp+8], 17		; 00000011H
	lea	ecx, DWORD PTR $T152156[ebp]
	push	ecx
	lea	edx, DWORD PTR $T152157[ebp]
	push	edx
	lea	eax, DWORD PTR $T152158[ebp]
	push	eax
	mov	ecx, DWORD PTR _scPluginCfgFile$[ebp]
	push	ecx
	lea	edx, DWORD PTR $T152159[ebp]
	push	edx
	call	DWORD PTR __imp_?IniGetS@@YA?AV?$basic_string@DU?$char_traits@D@std@@V?$allocator@D@2@@std@@ABV12@000@Z
	add	esp, 20					; 00000014H
	mov	DWORD PTR tv203[ebp], eax
	mov	eax, DWORD PTR tv203[ebp]
	mov	DWORD PTR tv540[ebp], eax
	mov	BYTE PTR __$EHRec$[ebp+8], 18		; 00000012H
	mov	ecx, DWORD PTR tv540[ebp]
	push	ecx
	lea	edx, DWORD PTR $T152160[ebp]
	push	edx
	call	DWORD PTR __imp_?stows@@YA?AV?$basic_string@GU?$char_traits@G@std@@V?$allocator@G@2@@std@@ABV?$basic_string@DU?$char_traits@D@std@@V?$allocator@D@2@@2@@Z
	add	esp, 8
	mov	DWORD PTR tv198[ebp], eax
	mov	eax, DWORD PTR tv198[ebp]
	mov	DWORD PTR tv542[ebp], eax
	mov	BYTE PTR __$EHRec$[ebp+8], 19		; 00000013H
	mov	ecx, DWORD PTR tv542[ebp]
	push	ecx
	mov	ecx, OFFSET _set_wscDisconnectSwearingInSpaceMsg
	call	DWORD PTR __imp_??4?$basic_string@GU?$char_traits@G@std@@V?$allocator@G@2@@std@@QAEAAV01@ABV01@@Z
	mov	BYTE PTR __$EHRec$[ebp+8], 18		; 00000012H
	lea	ecx, DWORD PTR $T152160[ebp]
	call	DWORD PTR __imp_??1?$basic_string@GU?$char_traits@G@std@@V?$allocator@G@2@@std@@QAE@XZ
	mov	BYTE PTR __$EHRec$[ebp+8], 17		; 00000011H
	lea	ecx, DWORD PTR $T152159[ebp]
	call	DWORD PTR __imp_??1?$basic_string@DU?$char_traits@D@std@@V?$allocator@D@2@@std@@QAE@XZ
	mov	BYTE PTR __$EHRec$[ebp+8], 16		; 00000010H
	lea	ecx, DWORD PTR $T152158[ebp]
	call	DWORD PTR __imp_??1?$basic_string@DU?$char_traits@D@std@@V?$allocator@D@2@@std@@QAE@XZ
	mov	BYTE PTR __$EHRec$[ebp+8], 15		; 0000000fH
	lea	ecx, DWORD PTR $T152157[ebp]
	call	DWORD PTR __imp_??1?$basic_string@DU?$char_traits@D@std@@V?$allocator@D@2@@std@@QAE@XZ
	mov	DWORD PTR __$EHRec$[ebp+8], -1
	lea	ecx, DWORD PTR $T152156[ebp]
	call	DWORD PTR __imp_??1?$basic_string@DU?$char_traits@D@std@@V?$allocator@D@2@@std@@QAE@XZ
; Line 244
	push	OFFSET $SG143043
	lea	ecx, DWORD PTR $T152161[ebp]
	call	DWORD PTR __imp_??0?$basic_string@DU?$char_traits@D@std@@V?$allocator@D@2@@std@@QAE@PBD@Z
	mov	DWORD PTR __$EHRec$[ebp+8], 20		; 00000014H
	push	OFFSET $SG143044
	lea	ecx, DWORD PTR $T152162[ebp]
	call	DWORD PTR __imp_??0?$basic_string@DU?$char_traits@D@std@@V?$allocator@D@2@@std@@QAE@PBD@Z
	mov	BYTE PTR __$EHRec$[ebp+8], 21		; 00000015H
	push	ecx
	fld	DWORD PTR __real@459c4000
	fstp	DWORD PTR [esp]
	lea	edx, DWORD PTR $T152161[ebp]
	push	edx
	lea	eax, DWORD PTR $T152162[ebp]
	push	eax
	mov	ecx, DWORD PTR _scPluginCfgFile$[ebp]
	push	ecx
	call	DWORD PTR __imp_?IniGetF@@YAMABV?$basic_string@DU?$char_traits@D@std@@V?$allocator@D@2@@std@@00M@Z
	add	esp, 16					; 00000010H
	fstp	DWORD PTR _set_fDisconnectSwearingInSpaceRange
	mov	BYTE PTR __$EHRec$[ebp+8], 20		; 00000014H
	lea	ecx, DWORD PTR $T152162[ebp]
	call	DWORD PTR __imp_??1?$basic_string@DU?$char_traits@D@std@@V?$allocator@D@2@@std@@QAE@XZ
	mov	DWORD PTR __$EHRec$[ebp+8], -1
	lea	ecx, DWORD PTR $T152161[ebp]
	call	DWORD PTR __imp_??1?$basic_string@DU?$char_traits@D@std@@V?$allocator@D@2@@std@@QAE@XZ
; Line 245
	push	OFFSET $SG143047
	lea	ecx, DWORD PTR $T152163[ebp]
	call	DWORD PTR __imp_??0?$basic_string@DU?$char_traits@D@std@@V?$allocator@D@2@@std@@QAE@PBD@Z
	mov	DWORD PTR __$EHRec$[ebp+8], 22		; 00000016H
	push	OFFSET $SG143048
	lea	ecx, DWORD PTR $T152164[ebp]
	call	DWORD PTR __imp_??0?$basic_string@DU?$char_traits@D@std@@V?$allocator@D@2@@std@@QAE@PBD@Z
	mov	BYTE PTR __$EHRec$[ebp+8], 23		; 00000017H
	push	0
	lea	edx, DWORD PTR $T152163[ebp]
	push	edx
	lea	eax, DWORD PTR $T152164[ebp]
	push	eax
	mov	ecx, DWORD PTR _scPluginCfgFile$[ebp]
	push	ecx
	call	DWORD PTR __imp_?IniGetB@@YA_NABV?$basic_string@DU?$char_traits@D@std@@V?$allocator@D@2@@std@@00_N@Z
	add	esp, 16					; 00000010H
	mov	BYTE PTR _set_bSetMsg, al
	mov	BYTE PTR __$EHRec$[ebp+8], 22		; 00000016H
	lea	ecx, DWORD PTR $T152164[ebp]
	call	DWORD PTR __imp_??1?$basic_string@DU?$char_traits@D@std@@V?$allocator@D@2@@std@@QAE@XZ
	mov	DWORD PTR __$EHRec$[ebp+8], -1
	lea	ecx, DWORD PTR $T152163[ebp]
	call	DWORD PTR __imp_??1?$basic_string@DU?$char_traits@D@std@@V?$allocator@D@2@@std@@QAE@XZ
; Line 248
	lea	edx, DWORD PTR _players$[ebp]
	push	edx
	call	DWORD PTR __imp_?HkGetPlayers@@YA?AV?$list@UHKPLAYERINFO@@V?$allocator@UHKPLAYERINFO@@@std@@@std@@XZ
	add	esp, 4
	mov	DWORD PTR __$EHRec$[ebp+8], 24		; 00000018H
; Line 249
	lea	eax, DWORD PTR _p$143709[ebp]
	push	eax
	lea	ecx, DWORD PTR _players$[ebp]
	call	?begin@?$list@UHKPLAYERINFO@@V?$allocator@UHKPLAYERINFO@@@std@@@std@@QAE?AV?$_Iterator@$00@12@XZ ; std::list<HKPLAYERINFO,std::allocator<HKPLAYERINFO> >::begin
	jmp	SHORT $LN21@LoadSettin
$LN20@LoadSettin:
	push	0
	lea	ecx, DWORD PTR $T152165[ebp]
	push	ecx
	lea	ecx, DWORD PTR _p$143709[ebp]
	call	??E?$_Iterator@$00@?$list@UHKPLAYERINFO@@V?$allocator@UHKPLAYERINFO@@@std@@@std@@QAE?AV012@H@Z ; std::list<HKPLAYERINFO,std::allocator<HKPLAYERINFO> >::_Iterator<1>::operator++
$LN21@LoadSettin:
	lea	edx, DWORD PTR $T152166[ebp]
	push	edx
	lea	ecx, DWORD PTR _players$[ebp]
	call	?end@?$list@UHKPLAYERINFO@@V?$allocator@UHKPLAYERINFO@@@std@@@std@@QAE?AV?$_Iterator@$00@12@XZ ; std::list<HKPLAYERINFO,std::allocator<HKPLAYERINFO> >::end
	push	eax
	lea	ecx, DWORD PTR _p$143709[ebp]
	call	??9?$_Const_iterator@$00@?$list@UHKPLAYERINFO@@V?$allocator@UHKPLAYERINFO@@@std@@@std@@QBE_NABV012@@Z ; std::list<HKPLAYERINFO,std::allocator<HKPLAYERINFO> >::_Const_iterator<1>::operator!=
	movzx	eax, al
	test	eax, eax
	je	SHORT $LN19@LoadSettin
; Line 250
	lea	ecx, DWORD PTR _p$143709[ebp]
	call	??C?$_Iterator@$00@?$list@UHKPLAYERINFO@@V?$allocator@UHKPLAYERINFO@@@std@@@std@@QBEPAUHKPLAYERINFO@@XZ ; std::list<HKPLAYERINFO,std::allocator<HKPLAYERINFO> >::_Iterator<1>::operator->
	mov	ecx, DWORD PTR [eax]
	push	ecx
	call	?LoadMsgs@Message@@YAXI@Z		; Message::LoadMsgs
	add	esp, 4
	jmp	SHORT $LN20@LoadSettin
$LN19@LoadSettin:
; Line 253
	push	OFFSET $SG143717
	lea	ecx, DWORD PTR $T152167[ebp]
	call	DWORD PTR __imp_??0?$basic_string@DU?$char_traits@D@std@@V?$allocator@D@2@@std@@QAE@PBD@Z
	mov	BYTE PTR __$EHRec$[ebp+8], 25		; 00000019H
	push	OFFSET _set_lstHelpLines
	lea	edx, DWORD PTR $T152167[ebp]
	push	edx
	mov	eax, DWORD PTR _scPluginCfgFile$[ebp]
	push	eax
	call	DWORD PTR __imp_?IniGetSection@@YAXABV?$basic_string@DU?$char_traits@D@std@@V?$allocator@D@2@@std@@0AAV?$list@UINISECTIONVALUE@@V?$allocator@UINISECTIONVALUE@@@std@@@2@@Z
	add	esp, 12					; 0000000cH
	mov	BYTE PTR __$EHRec$[ebp+8], 24		; 00000018H
	lea	ecx, DWORD PTR $T152167[ebp]
	call	DWORD PTR __imp_??1?$basic_string@DU?$char_traits@D@std@@V?$allocator@D@2@@std@@QAE@XZ
; Line 255
	mov	ecx, OFFSET _set_lstGreetingBannerLines
	call	?clear@?$list@V?$basic_string@GU?$char_traits@G@std@@V?$allocator@G@2@@std@@V?$allocator@V?$basic_string@GU?$char_traits@G@std@@V?$allocator@G@2@@std@@@2@@std@@QAEXXZ ; std::list<std::basic_string<unsigned short,std::char_traits<unsigned short>,std::allocator<unsigned short> >,std::allocator<std::basic_string<unsigned short,std::char_traits<unsigned short>,std::allocator<unsigned short> > > >::clear
; Line 256
	mov	ecx, OFFSET _set_lstSpecialBannerLines
	call	?clear@?$list@V?$basic_string@GU?$char_traits@G@std@@V?$allocator@G@2@@std@@V?$allocator@V?$basic_string@GU?$char_traits@G@std@@V?$allocator@G@2@@std@@@2@@std@@QAEXXZ ; std::list<std::basic_string<unsigned short,std::char_traits<unsigned short>,std::allocator<unsigned short> >,std::allocator<std::basic_string<unsigned short,std::char_traits<unsigned short>,std::allocator<unsigned short> > > >::clear
; Line 257
	mov	ecx, OFFSET _set_vctStandardBannerLines
	call	?clear@?$vector@V?$list@V?$basic_string@GU?$char_traits@G@std@@V?$allocator@G@2@@std@@V?$allocator@V?$basic_string@GU?$char_traits@G@std@@V?$allocator@G@2@@std@@@2@@std@@V?$allocator@V?$list@V?$basic_string@GU?$char_traits@G@std@@V?$allocator@G@2@@std@@V?$allocator@V?$basic_string@GU?$char_traits@G@std@@V?$allocator@G@2@@std@@@2@@std@@@2@@std@@QAEXXZ ; std::vector<std::list<std::basic_string<unsigned short,std::char_traits<unsigned short>,std::allocator<unsigned short> >,std::allocator<std::basic_string<unsigned short,std::char_traits<unsigned short>,std::allocator<unsigned short> > > >,std::allocator<std::list<std::basic_string<unsigned short,std::char_traits<unsigned short>,std::allocator<unsigned short> >,std::allocator<std::basic_string<unsigned short,std::char_traits<unsigned short>,std::allocator<unsigned short> > > > > >::clear
; Line 259
	lea	ecx, DWORD PTR _ini$[ebp]
	call	DWORD PTR __imp_??0INI_Reader@@QAE@XZ
	mov	BYTE PTR __$EHRec$[ebp+8], 26		; 0000001aH
; Line 260
	push	0
	mov	ecx, DWORD PTR _scPluginCfgFile$[ebp]
	call	DWORD PTR __imp_?c_str@?$basic_string@DU?$char_traits@D@std@@V?$allocator@D@2@@std@@QBEPBDXZ
	push	eax
	lea	ecx, DWORD PTR _ini$[ebp]
	call	DWORD PTR __imp_?open@INI_Reader@@QAE_NPBD_N@Z
	movzx	ecx, al
	test	ecx, ecx
	je	$LN18@LoadSettin
$LN17@LoadSettin:
; Line 262
	lea	ecx, DWORD PTR _ini$[ebp]
	call	DWORD PTR __imp_?read_header@INI_Reader@@QAE_NXZ
	movzx	edx, al
	test	edx, edx
	je	$LN16@LoadSettin
; Line 264
	push	OFFSET $SG143724
	lea	ecx, DWORD PTR _ini$[ebp]
	call	DWORD PTR __imp_?is_header@INI_Reader@@QAE_NPBD@Z
	movzx	eax, al
	test	eax, eax
	je	$LN15@LoadSettin
$LN14@LoadSettin:
; Line 266
	lea	ecx, DWORD PTR _ini$[ebp]
	call	DWORD PTR __imp_?read_value@INI_Reader@@QAE_NXZ
	movzx	ecx, al
	test	ecx, ecx
	je	$LN13@LoadSettin
; Line 268
	lea	ecx, DWORD PTR _ini$[ebp]
	call	DWORD PTR __imp_?get_value_string@INI_Reader@@QAEPBDXZ
	push	eax
	lea	ecx, DWORD PTR $T152169[ebp]
	call	DWORD PTR __imp_??0?$basic_string@DU?$char_traits@D@std@@V?$allocator@D@2@@std@@QAE@PBD@Z
	mov	BYTE PTR __$EHRec$[ebp+8], 27		; 0000001bH
	sub	esp, 28					; 0000001cH
	mov	edx, esp
	mov	DWORD PTR $T152168[ebp], esp
	lea	eax, DWORD PTR $T152169[ebp]
	push	eax
	push	edx
	call	DWORD PTR __imp_?stows@@YA?AV?$basic_string@GU?$char_traits@G@std@@V?$allocator@G@2@@std@@ABV?$basic_string@DU?$char_traits@D@std@@V?$allocator@D@2@@2@@Z
	add	esp, 8
	mov	DWORD PTR tv376[ebp], eax
	mov	ecx, DWORD PTR tv376[ebp]
	mov	DWORD PTR tv584[ebp], ecx
	mov	BYTE PTR __$EHRec$[ebp+8], 28		; 0000001cH
	lea	edx, DWORD PTR $T152170[ebp]
	push	edx
	mov	BYTE PTR __$EHRec$[ebp+8], 27		; 0000001bH
	call	?Trim@@YA?AV?$basic_string@GU?$char_traits@G@std@@V?$allocator@G@2@@std@@V12@@Z ; Trim
	add	esp, 32					; 00000020H
	mov	DWORD PTR tv585[ebp], eax
	mov	eax, DWORD PTR tv585[ebp]
	mov	DWORD PTR tv587[ebp], eax
	mov	BYTE PTR __$EHRec$[ebp+8], 29		; 0000001dH
	mov	ecx, DWORD PTR tv587[ebp]
	push	ecx
	mov	ecx, OFFSET _set_lstGreetingBannerLines
	call	?push_back@?$list@V?$basic_string@GU?$char_traits@G@std@@V?$allocator@G@2@@std@@V?$allocator@V?$basic_string@GU?$char_traits@G@std@@V?$allocator@G@2@@std@@@2@@std@@QAEXABV?$basic_string@GU?$char_traits@G@std@@V?$allocator@G@2@@2@@Z ; std::list<std::basic_string<unsigned short,std::char_traits<unsigned short>,std::allocator<unsigned short> >,std::allocator<std::basic_string<unsigned short,std::char_traits<unsigned short>,std::allocator<unsigned short> > > >::push_back
	mov	BYTE PTR __$EHRec$[ebp+8], 27		; 0000001bH
	lea	ecx, DWORD PTR $T152170[ebp]
	call	DWORD PTR __imp_??1?$basic_string@GU?$char_traits@G@std@@V?$allocator@G@2@@std@@QAE@XZ
	mov	BYTE PTR __$EHRec$[ebp+8], 26		; 0000001aH
	lea	ecx, DWORD PTR $T152169[ebp]
	call	DWORD PTR __imp_??1?$basic_string@DU?$char_traits@D@std@@V?$allocator@D@2@@std@@QAE@XZ
; Line 269
	jmp	$LN14@LoadSettin
$LN13@LoadSettin:
; Line 271
	jmp	$LN1@LoadSettin
$LN15@LoadSettin:
	push	OFFSET $SG143734
	lea	ecx, DWORD PTR _ini$[ebp]
	call	DWORD PTR __imp_?is_header@INI_Reader@@QAE_NPBD@Z
	movzx	edx, al
	test	edx, edx
	je	$LN11@LoadSettin
$LN10@LoadSettin:
; Line 273
	lea	ecx, DWORD PTR _ini$[ebp]
	call	DWORD PTR __imp_?read_value@INI_Reader@@QAE_NXZ
	movzx	eax, al
	test	eax, eax
	je	$LN9@LoadSettin
; Line 275
	lea	ecx, DWORD PTR _ini$[ebp]
	call	DWORD PTR __imp_?get_value_string@INI_Reader@@QAEPBDXZ
	push	eax
	lea	ecx, DWORD PTR $T152172[ebp]
	call	DWORD PTR __imp_??0?$basic_string@DU?$char_traits@D@std@@V?$allocator@D@2@@std@@QAE@PBD@Z
	mov	BYTE PTR __$EHRec$[ebp+8], 30		; 0000001eH
	sub	esp, 28					; 0000001cH
	mov	ecx, esp
	mov	DWORD PTR $T152171[ebp], esp
	lea	edx, DWORD PTR $T152172[ebp]
	push	edx
	push	ecx
	call	DWORD PTR __imp_?stows@@YA?AV?$basic_string@GU?$char_traits@G@std@@V?$allocator@G@2@@std@@ABV?$basic_string@DU?$char_traits@D@std@@V?$allocator@D@2@@2@@Z
	add	esp, 8
	mov	DWORD PTR tv411[ebp], eax
	mov	eax, DWORD PTR tv411[ebp]
	mov	DWORD PTR tv590[ebp], eax
	mov	BYTE PTR __$EHRec$[ebp+8], 31		; 0000001fH
	lea	ecx, DWORD PTR $T152173[ebp]
	push	ecx
	mov	BYTE PTR __$EHRec$[ebp+8], 30		; 0000001eH
	call	?Trim@@YA?AV?$basic_string@GU?$char_traits@G@std@@V?$allocator@G@2@@std@@V12@@Z ; Trim
	add	esp, 32					; 00000020H
	mov	DWORD PTR tv591[ebp], eax
	mov	edx, DWORD PTR tv591[ebp]
	mov	DWORD PTR tv593[ebp], edx
	mov	BYTE PTR __$EHRec$[ebp+8], 32		; 00000020H
	mov	eax, DWORD PTR tv593[ebp]
	push	eax
	mov	ecx, OFFSET _set_lstSpecialBannerLines
	call	?push_back@?$list@V?$basic_string@GU?$char_traits@G@std@@V?$allocator@G@2@@std@@V?$allocator@V?$basic_string@GU?$char_traits@G@std@@V?$allocator@G@2@@std@@@2@@std@@QAEXABV?$basic_string@GU?$char_traits@G@std@@V?$allocator@G@2@@2@@Z ; std::list<std::basic_string<unsigned short,std::char_traits<unsigned short>,std::allocator<unsigned short> >,std::allocator<std::basic_string<unsigned short,std::char_traits<unsigned short>,std::allocator<unsigned short> > > >::push_back
	mov	BYTE PTR __$EHRec$[ebp+8], 30		; 0000001eH
	lea	ecx, DWORD PTR $T152173[ebp]
	call	DWORD PTR __imp_??1?$basic_string@GU?$char_traits@G@std@@V?$allocator@G@2@@std@@QAE@XZ
	mov	BYTE PTR __$EHRec$[ebp+8], 26		; 0000001aH
	lea	ecx, DWORD PTR $T152172[ebp]
	call	DWORD PTR __imp_??1?$basic_string@DU?$char_traits@D@std@@V?$allocator@D@2@@std@@QAE@XZ
; Line 276
	jmp	$LN10@LoadSettin
$LN9@LoadSettin:
; Line 278
	jmp	$LN1@LoadSettin
$LN11@LoadSettin:
	push	OFFSET $SG143744
	lea	ecx, DWORD PTR _ini$[ebp]
	call	DWORD PTR __imp_?is_header@INI_Reader@@QAE_NPBD@Z
	movzx	ecx, al
	test	ecx, ecx
	je	$LN7@LoadSettin
; Line 280
	lea	ecx, DWORD PTR _lstStandardBannerSection$143749[ebp]
	call	??0?$list@V?$basic_string@GU?$char_traits@G@std@@V?$allocator@G@2@@std@@V?$allocator@V?$basic_string@GU?$char_traits@G@std@@V?$allocator@G@2@@std@@@2@@std@@QAE@XZ ; std::list<std::basic_string<unsigned short,std::char_traits<unsigned short>,std::allocator<unsigned short> >,std::allocator<std::basic_string<unsigned short,std::char_traits<unsigned short>,std::allocator<unsigned short> > > >::list<std::basic_string<unsigned short,std::char_traits<unsigned short>,std::allocator<unsigned short> >,std::allocator<std::basic_string<unsigned short,std::char_traits<unsigned short>,std::allocator<unsigned short> > > >
	mov	BYTE PTR __$EHRec$[ebp+8], 33		; 00000021H
$LN6@LoadSettin:
; Line 281
	lea	ecx, DWORD PTR _ini$[ebp]
	call	DWORD PTR __imp_?read_value@INI_Reader@@QAE_NXZ
	movzx	edx, al
	test	edx, edx
	je	$LN5@LoadSettin
; Line 283
	lea	ecx, DWORD PTR _ini$[ebp]
	call	DWORD PTR __imp_?get_value_string@INI_Reader@@QAEPBDXZ
	push	eax
	lea	ecx, DWORD PTR $T152175[ebp]
	call	DWORD PTR __imp_??0?$basic_string@DU?$char_traits@D@std@@V?$allocator@D@2@@std@@QAE@PBD@Z
	mov	BYTE PTR __$EHRec$[ebp+8], 34		; 00000022H
	sub	esp, 28					; 0000001cH
	mov	eax, esp
	mov	DWORD PTR $T152174[ebp], esp
	lea	ecx, DWORD PTR $T152175[ebp]
	push	ecx
	push	eax
	call	DWORD PTR __imp_?stows@@YA?AV?$basic_string@GU?$char_traits@G@std@@V?$allocator@G@2@@std@@ABV?$basic_string@DU?$char_traits@D@std@@V?$allocator@D@2@@2@@Z
	add	esp, 8
	mov	DWORD PTR tv449[ebp], eax
	mov	edx, DWORD PTR tv449[ebp]
	mov	DWORD PTR tv597[ebp], edx
	mov	BYTE PTR __$EHRec$[ebp+8], 35		; 00000023H
	lea	eax, DWORD PTR $T152176[ebp]
	push	eax
	mov	BYTE PTR __$EHRec$[ebp+8], 34		; 00000022H
	call	?Trim@@YA?AV?$basic_string@GU?$char_traits@G@std@@V?$allocator@G@2@@std@@V12@@Z ; Trim
	add	esp, 32					; 00000020H
	mov	DWORD PTR tv598[ebp], eax
	mov	ecx, DWORD PTR tv598[ebp]
	mov	DWORD PTR tv600[ebp], ecx
	mov	BYTE PTR __$EHRec$[ebp+8], 36		; 00000024H
	mov	edx, DWORD PTR tv600[ebp]
	push	edx
	lea	ecx, DWORD PTR _lstStandardBannerSection$143749[ebp]
	call	?push_back@?$list@V?$basic_string@GU?$char_traits@G@std@@V?$allocator@G@2@@std@@V?$allocator@V?$basic_string@GU?$char_traits@G@std@@V?$allocator@G@2@@std@@@2@@std@@QAEXABV?$basic_string@GU?$char_traits@G@std@@V?$allocator@G@2@@2@@Z ; std::list<std::basic_string<unsigned short,std::char_traits<unsigned short>,std::allocator<unsigned short> >,std::allocator<std::basic_string<unsigned short,std::char_traits<unsigned short>,std::allocator<unsigned short> > > >::push_back
	mov	BYTE PTR __$EHRec$[ebp+8], 34		; 00000022H
	lea	ecx, DWORD PTR $T152176[ebp]
	call	DWORD PTR __imp_??1?$basic_string@GU?$char_traits@G@std@@V?$allocator@G@2@@std@@QAE@XZ
	mov	BYTE PTR __$EHRec$[ebp+8], 33		; 00000021H
	lea	ecx, DWORD PTR $T152175[ebp]
	call	DWORD PTR __imp_??1?$basic_string@DU?$char_traits@D@std@@V?$allocator@D@2@@std@@QAE@XZ
; Line 284
	jmp	$LN6@LoadSettin
$LN5@LoadSettin:
; Line 285
	lea	eax, DWORD PTR _lstStandardBannerSection$143749[ebp]
	push	eax
	mov	ecx, OFFSET _set_vctStandardBannerLines
	call	?push_back@?$vector@V?$list@V?$basic_string@GU?$char_traits@G@std@@V?$allocator@G@2@@std@@V?$allocator@V?$basic_string@GU?$char_traits@G@std@@V?$allocator@G@2@@std@@@2@@std@@V?$allocator@V?$list@V?$basic_string@GU?$char_traits@G@std@@V?$allocator@G@2@@std@@V?$allocator@V?$basic_string@GU?$char_traits@G@std@@V?$allocator@G@2@@std@@@2@@std@@@2@@std@@QAEXABV?$list@V?$basic_string@GU?$char_traits@G@std@@V?$allocator@G@2@@std@@V?$allocator@V?$basic_string@GU?$char_traits@G@std@@V?$allocator@G@2@@std@@@2@@2@@Z ; std::vector<std::list<std::basic_string<unsigned short,std::char_traits<unsigned short>,std::allocator<unsigned short> >,std::allocator<std::basic_string<unsigned short,std::char_traits<unsigned short>,std::allocator<unsigned short> > > >,std::allocator<std::list<std::basic_string<unsigned short,std::char_traits<unsigned short>,std::allocator<unsigned short> >,std::allocator<std::basic_string<unsigned short,std::char_traits<unsigned short>,std::allocator<unsigned short> > > > > >::push_back
; Line 286
	mov	BYTE PTR __$EHRec$[ebp+8], 26		; 0000001aH
	lea	ecx, DWORD PTR _lstStandardBannerSection$143749[ebp]
	call	??1?$list@V?$basic_string@GU?$char_traits@G@std@@V?$allocator@G@2@@std@@V?$allocator@V?$basic_string@GU?$char_traits@G@std@@V?$allocator@G@2@@std@@@2@@std@@QAE@XZ ; std::list<std::basic_string<unsigned short,std::char_traits<unsigned short>,std::allocator<unsigned short> >,std::allocator<std::basic_string<unsigned short,std::char_traits<unsigned short>,std::allocator<unsigned short> > > >::~list<std::basic_string<unsigned short,std::char_traits<unsigned short>,std::allocator<unsigned short> >,std::allocator<std::basic_string<unsigned short,std::char_traits<unsigned short>,std::allocator<unsigned short> > > >
	jmp	$LN1@LoadSettin
$LN7@LoadSettin:
; Line 287
	push	OFFSET $SG143759
	lea	ecx, DWORD PTR _ini$[ebp]
	call	DWORD PTR __imp_?is_header@INI_Reader@@QAE_NPBD@Z
	movzx	ecx, al
	test	ecx, ecx
	je	$LN1@LoadSettin
$LN2@LoadSettin:
; Line 289
	lea	ecx, DWORD PTR _ini$[ebp]
	call	DWORD PTR __imp_?read_value@INI_Reader@@QAE_NXZ
	movzx	edx, al
	test	edx, edx
	je	$LN1@LoadSettin
; Line 291
	lea	ecx, DWORD PTR _ini$[ebp]
	call	DWORD PTR __imp_?get_value_string@INI_Reader@@QAEPBDXZ
	push	eax
	lea	ecx, DWORD PTR $T152178[ebp]
	call	DWORD PTR __imp_??0?$basic_string@DU?$char_traits@D@std@@V?$allocator@D@2@@std@@QAE@PBD@Z
	mov	BYTE PTR __$EHRec$[ebp+8], 37		; 00000025H
	sub	esp, 28					; 0000001cH
	mov	eax, esp
	mov	DWORD PTR $T152177[ebp], esp
	lea	ecx, DWORD PTR $T152178[ebp]
	push	ecx
	push	eax
	call	DWORD PTR __imp_?stows@@YA?AV?$basic_string@GU?$char_traits@G@std@@V?$allocator@G@2@@std@@ABV?$basic_string@DU?$char_traits@D@std@@V?$allocator@D@2@@2@@Z
	add	esp, 8
	mov	DWORD PTR tv485[ebp], eax
	mov	edx, DWORD PTR tv485[ebp]
	mov	DWORD PTR tv603[ebp], edx
	mov	BYTE PTR __$EHRec$[ebp+8], 38		; 00000026H
	lea	eax, DWORD PTR _word$143763[ebp]
	push	eax
	mov	BYTE PTR __$EHRec$[ebp+8], 37		; 00000025H
	call	?Trim@@YA?AV?$basic_string@GU?$char_traits@G@std@@V?$allocator@G@2@@std@@V12@@Z ; Trim
	add	esp, 32					; 00000020H
	mov	DWORD PTR tv604[ebp], eax
	mov	BYTE PTR __$EHRec$[ebp+8], 40		; 00000028H
	lea	ecx, DWORD PTR $T152178[ebp]
	call	DWORD PTR __imp_??1?$basic_string@DU?$char_traits@D@std@@V?$allocator@D@2@@std@@QAE@XZ
; Line 292
	push	OFFSET $SG143771
	lea	ecx, DWORD PTR $T152179[ebp]
	call	DWORD PTR __imp_??0?$basic_string@GU?$char_traits@G@std@@V?$allocator@G@2@@std@@QAE@PBG@Z
	mov	BYTE PTR __$EHRec$[ebp+8], 41		; 00000029H
	push	OFFSET $SG143772
	lea	ecx, DWORD PTR $T152180[ebp]
	call	DWORD PTR __imp_??0?$basic_string@GU?$char_traits@G@std@@V?$allocator@G@2@@std@@QAE@PBG@Z
	mov	BYTE PTR __$EHRec$[ebp+8], 42		; 0000002aH
	lea	ecx, DWORD PTR $T152179[ebp]
	push	ecx
	lea	edx, DWORD PTR $T152180[ebp]
	push	edx
	lea	eax, DWORD PTR _word$143763[ebp]
	push	eax
	lea	ecx, DWORD PTR $T152181[ebp]
	push	ecx
	call	DWORD PTR __imp_?ReplaceStr@@YA?AV?$basic_string@GU?$char_traits@G@std@@V?$allocator@G@2@@std@@ABV12@00@Z
	add	esp, 16					; 00000010H
	mov	DWORD PTR tv508[ebp], eax
	mov	edx, DWORD PTR tv508[ebp]
	mov	DWORD PTR tv609[ebp], edx
	mov	BYTE PTR __$EHRec$[ebp+8], 43		; 0000002bH
	mov	eax, DWORD PTR tv609[ebp]
	push	eax
	lea	ecx, DWORD PTR _word$143763[ebp]
	call	DWORD PTR __imp_??4?$basic_string@GU?$char_traits@G@std@@V?$allocator@G@2@@std@@QAEAAV01@ABV01@@Z
	mov	BYTE PTR __$EHRec$[ebp+8], 42		; 0000002aH
	lea	ecx, DWORD PTR $T152181[ebp]
	call	DWORD PTR __imp_??1?$basic_string@GU?$char_traits@G@std@@V?$allocator@G@2@@std@@QAE@XZ
	mov	BYTE PTR __$EHRec$[ebp+8], 41		; 00000029H
	lea	ecx, DWORD PTR $T152180[ebp]
	call	DWORD PTR __imp_??1?$basic_string@GU?$char_traits@G@std@@V?$allocator@G@2@@std@@QAE@XZ
	mov	BYTE PTR __$EHRec$[ebp+8], 40		; 00000028H
	lea	ecx, DWORD PTR $T152179[ebp]
	call	DWORD PTR __imp_??1?$basic_string@GU?$char_traits@G@std@@V?$allocator@G@2@@std@@QAE@XZ
; Line 293
	lea	ecx, DWORD PTR _word$143763[ebp]
	push	ecx
	mov	ecx, OFFSET _set_lstSwearWords
	call	?push_back@?$list@V?$basic_string@GU?$char_traits@G@std@@V?$allocator@G@2@@std@@V?$allocator@V?$basic_string@GU?$char_traits@G@std@@V?$allocator@G@2@@std@@@2@@std@@QAEXABV?$basic_string@GU?$char_traits@G@std@@V?$allocator@G@2@@2@@Z ; std::list<std::basic_string<unsigned short,std::char_traits<unsigned short>,std::allocator<unsigned short> >,std::allocator<std::basic_string<unsigned short,std::char_traits<unsigned short>,std::allocator<unsigned short> > > >::push_back
; Line 294
	mov	BYTE PTR __$EHRec$[ebp+8], 26		; 0000001aH
	lea	ecx, DWORD PTR _word$143763[ebp]
	call	DWORD PTR __imp_??1?$basic_string@GU?$char_traits@G@std@@V?$allocator@G@2@@std@@QAE@XZ
	jmp	$LN2@LoadSettin
$LN1@LoadSettin:
; Line 296
	jmp	$LN17@LoadSettin
$LN16@LoadSettin:
; Line 297
	lea	ecx, DWORD PTR _ini$[ebp]
	call	DWORD PTR __imp_?close@INI_Reader@@QAEXXZ
$LN18@LoadSettin:
; Line 299
	mov	BYTE PTR __$EHRec$[ebp+8], 24		; 00000018H
	lea	ecx, DWORD PTR _ini$[ebp]
	call	DWORD PTR __imp_??1INI_Reader@@QAE@XZ
	mov	DWORD PTR __$EHRec$[ebp+8], -1
	lea	ecx, DWORD PTR _players$[ebp]
	call	??1?$list@UHKPLAYERINFO@@V?$allocator@UHKPLAYERINFO@@@std@@@std@@QAE@XZ ; std::list<HKPLAYERINFO,std::allocator<HKPLAYERINFO> >::~list<HKPLAYERINFO,std::allocator<HKPLAYERINFO> >
	mov	ecx, DWORD PTR __$EHRec$[ebp]
	mov	DWORD PTR fs:0, ecx
	pop	ecx
	mov	ecx, DWORD PTR __$ArrayPad$[ebp]
	xor	ecx, ebp
	call	@__security_check_cookie@4
	mov	esp, ebp
	pop	ebp
	ret	0
_TEXT	ENDS
text$x	SEGMENT
__unwindfunclet$?LoadSettings@Message@@YAXABV?$basic_string@DU?$char_traits@D@std@@V?$allocator@D@2@@std@@@Z$0:
	lea	ecx, DWORD PTR $T152141[ebp]
	jmp	DWORD PTR __imp_??1?$basic_string@DU?$char_traits@D@std@@V?$allocator@D@2@@std@@QAE@XZ
__unwindfunclet$?LoadSettings@Message@@YAXABV?$basic_string@DU?$char_traits@D@std@@V?$allocator@D@2@@std@@@Z$1:
	lea	ecx, DWORD PTR $T152142[ebp]
	jmp	DWORD PTR __imp_??1?$basic_string@DU?$char_traits@D@std@@V?$allocator@D@2@@std@@QAE@XZ
__unwindfunclet$?LoadSettings@Message@@YAXABV?$basic_string@DU?$char_traits@D@std@@V?$allocator@D@2@@std@@@Z$2:
	lea	ecx, DWORD PTR $T152143[ebp]
	jmp	DWORD PTR __imp_??1?$basic_string@DU?$char_traits@D@std@@V?$allocator@D@2@@std@@QAE@XZ
__unwindfunclet$?LoadSettings@Message@@YAXABV?$basic_string@DU?$char_traits@D@std@@V?$allocator@D@2@@std@@@Z$3:
	lea	ecx, DWORD PTR $T152144[ebp]
	jmp	DWORD PTR __imp_??1?$basic_string@DU?$char_traits@D@std@@V?$allocator@D@2@@std@@QAE@XZ
__unwindfunclet$?LoadSettings@Message@@YAXABV?$basic_string@DU?$char_traits@D@std@@V?$allocator@D@2@@std@@@Z$4:
	lea	ecx, DWORD PTR $T152145[ebp]
	jmp	DWORD PTR __imp_??1?$basic_string@DU?$char_traits@D@std@@V?$allocator@D@2@@std@@QAE@XZ
__unwindfunclet$?LoadSettings@Message@@YAXABV?$basic_string@DU?$char_traits@D@std@@V?$allocator@D@2@@std@@@Z$5:
	lea	ecx, DWORD PTR $T152146[ebp]
	jmp	DWORD PTR __imp_??1?$basic_string@DU?$char_traits@D@std@@V?$allocator@D@2@@std@@QAE@XZ
__unwindfunclet$?LoadSettings@Message@@YAXABV?$basic_string@DU?$char_traits@D@std@@V?$allocator@D@2@@std@@@Z$6:
	lea	ecx, DWORD PTR $T152147[ebp]
	jmp	DWORD PTR __imp_??1?$basic_string@DU?$char_traits@D@std@@V?$allocator@D@2@@std@@QAE@XZ
__unwindfunclet$?LoadSettings@Message@@YAXABV?$basic_string@DU?$char_traits@D@std@@V?$allocator@D@2@@std@@@Z$7:
	lea	ecx, DWORD PTR $T152148[ebp]
	jmp	DWORD PTR __imp_??1?$basic_string@DU?$char_traits@D@std@@V?$allocator@D@2@@std@@QAE@XZ
__unwindfunclet$?LoadSettings@Message@@YAXABV?$basic_string@DU?$char_traits@D@std@@V?$allocator@D@2@@std@@@Z$8:
	lea	ecx, DWORD PTR $T152149[ebp]
	jmp	DWORD PTR __imp_??1?$basic_string@DU?$char_traits@D@std@@V?$allocator@D@2@@std@@QAE@XZ
__unwindfunclet$?LoadSettings@Message@@YAXABV?$basic_string@DU?$char_traits@D@std@@V?$allocator@D@2@@std@@@Z$9:
	lea	ecx, DWORD PTR $T152150[ebp]
	jmp	DWORD PTR __imp_??1?$basic_string@DU?$char_traits@D@std@@V?$allocator@D@2@@std@@QAE@XZ
__unwindfunclet$?LoadSettings@Message@@YAXABV?$basic_string@DU?$char_traits@D@std@@V?$allocator@D@2@@std@@@Z$10:
	lea	ecx, DWORD PTR $T152151[ebp]
	jmp	DWORD PTR __imp_??1?$basic_string@GU?$char_traits@G@std@@V?$allocator@G@2@@std@@QAE@XZ
__unwindfunclet$?LoadSettings@Message@@YAXABV?$basic_string@DU?$char_traits@D@std@@V?$allocator@D@2@@std@@@Z$11:
	lea	ecx, DWORD PTR $T152152[ebp]
	jmp	DWORD PTR __imp_??1?$basic_string@DU?$char_traits@D@std@@V?$allocator@D@2@@std@@QAE@XZ
__unwindfunclet$?LoadSettings@Message@@YAXABV?$basic_string@DU?$char_traits@D@std@@V?$allocator@D@2@@std@@@Z$12:
	lea	ecx, DWORD PTR $T152153[ebp]
	jmp	DWORD PTR __imp_??1?$basic_string@DU?$char_traits@D@std@@V?$allocator@D@2@@std@@QAE@XZ
__unwindfunclet$?LoadSettings@Message@@YAXABV?$basic_string@DU?$char_traits@D@std@@V?$allocator@D@2@@std@@@Z$13:
	lea	ecx, DWORD PTR $T152154[ebp]
	jmp	DWORD PTR __imp_??1?$basic_string@DU?$char_traits@D@std@@V?$allocator@D@2@@std@@QAE@XZ
__unwindfunclet$?LoadSettings@Message@@YAXABV?$basic_string@DU?$char_traits@D@std@@V?$allocator@D@2@@std@@@Z$14:
	lea	ecx, DWORD PTR $T152155[ebp]
	jmp	DWORD PTR __imp_??1?$basic_string@DU?$char_traits@D@std@@V?$allocator@D@2@@std@@QAE@XZ
__unwindfunclet$?LoadSettings@Message@@YAXABV?$basic_string@DU?$char_traits@D@std@@V?$allocator@D@2@@std@@@Z$15:
	lea	ecx, DWORD PTR $T152156[ebp]
	jmp	DWORD PTR __imp_??1?$basic_string@DU?$char_traits@D@std@@V?$allocator@D@2@@std@@QAE@XZ
__unwindfunclet$?LoadSettings@Message@@YAXABV?$basic_string@DU?$char_traits@D@std@@V?$allocator@D@2@@std@@@Z$16:
	lea	ecx, DWORD PTR $T152157[ebp]
	jmp	DWORD PTR __imp_??1?$basic_string@DU?$char_traits@D@std@@V?$allocator@D@2@@std@@QAE@XZ
__unwindfunclet$?LoadSettings@Message@@YAXABV?$basic_string@DU?$char_traits@D@std@@V?$allocator@D@2@@std@@@Z$17:
	lea	ecx, DWORD PTR $T152158[ebp]
	jmp	DWORD PTR __imp_??1?$basic_string@DU?$char_traits@D@std@@V?$allocator@D@2@@std@@QAE@XZ
__unwindfunclet$?LoadSettings@Message@@YAXABV?$basic_string@DU?$char_traits@D@std@@V?$allocator@D@2@@std@@@Z$18:
	lea	ecx, DWORD PTR $T152159[ebp]
	jmp	DWORD PTR __imp_??1?$basic_string@DU?$char_traits@D@std@@V?$allocator@D@2@@std@@QAE@XZ
__unwindfunclet$?LoadSettings@Message@@YAXABV?$basic_string@DU?$char_traits@D@std@@V?$allocator@D@2@@std@@@Z$19:
	lea	ecx, DWORD PTR $T152160[ebp]
	jmp	DWORD PTR __imp_??1?$basic_string@GU?$char_traits@G@std@@V?$allocator@G@2@@std@@QAE@XZ
__unwindfunclet$?LoadSettings@Message@@YAXABV?$basic_string@DU?$char_traits@D@std@@V?$allocator@D@2@@std@@@Z$20:
	lea	ecx, DWORD PTR $T152161[ebp]
	jmp	DWORD PTR __imp_??1?$basic_string@DU?$char_traits@D@std@@V?$allocator@D@2@@std@@QAE@XZ
__unwindfunclet$?LoadSettings@Message@@YAXABV?$basic_string@DU?$char_traits@D@std@@V?$allocator@D@2@@std@@@Z$21:
	lea	ecx, DWORD PTR $T152162[ebp]
	jmp	DWORD PTR __imp_??1?$basic_string@DU?$char_traits@D@std@@V?$allocator@D@2@@std@@QAE@XZ
__unwindfunclet$?LoadSettings@Message@@YAXABV?$basic_string@DU?$char_traits@D@std@@V?$allocator@D@2@@std@@@Z$22:
	lea	ecx, DWORD PTR $T152163[ebp]
	jmp	DWORD PTR __imp_??1?$basic_string@DU?$char_traits@D@std@@V?$allocator@D@2@@std@@QAE@XZ
__unwindfunclet$?LoadSettings@Message@@YAXABV?$basic_string@DU?$char_traits@D@std@@V?$allocator@D@2@@std@@@Z$23:
	lea	ecx, DWORD PTR $T152164[ebp]
	jmp	DWORD PTR __imp_??1?$basic_string@DU?$char_traits@D@std@@V?$allocator@D@2@@std@@QAE@XZ
__unwindfunclet$?LoadSettings@Message@@YAXABV?$basic_string@DU?$char_traits@D@std@@V?$allocator@D@2@@std@@@Z$24:
	lea	ecx, DWORD PTR _players$[ebp]
	jmp	??1?$list@UHKPLAYERINFO@@V?$allocator@UHKPLAYERINFO@@@std@@@std@@QAE@XZ ; std::list<HKPLAYERINFO,std::allocator<HKPLAYERINFO> >::~list<HKPLAYERINFO,std::allocator<HKPLAYERINFO> >
__unwindfunclet$?LoadSettings@Message@@YAXABV?$basic_string@DU?$char_traits@D@std@@V?$allocator@D@2@@std@@@Z$25:
	lea	ecx, DWORD PTR $T152167[ebp]
	jmp	DWORD PTR __imp_??1?$basic_string@DU?$char_traits@D@std@@V?$allocator@D@2@@std@@QAE@XZ
__unwindfunclet$?LoadSettings@Message@@YAXABV?$basic_string@DU?$char_traits@D@std@@V?$allocator@D@2@@std@@@Z$26:
	lea	ecx, DWORD PTR _ini$[ebp]
	jmp	DWORD PTR __imp_??1INI_Reader@@QAE@XZ
__unwindfunclet$?LoadSettings@Message@@YAXABV?$basic_string@DU?$char_traits@D@std@@V?$allocator@D@2@@std@@@Z$27:
	lea	ecx, DWORD PTR $T152169[ebp]
	jmp	DWORD PTR __imp_??1?$basic_string@DU?$char_traits@D@std@@V?$allocator@D@2@@std@@QAE@XZ
__unwindfunclet$?LoadSettings@Message@@YAXABV?$basic_string@DU?$char_traits@D@std@@V?$allocator@D@2@@std@@@Z$28:
	mov	ecx, DWORD PTR $T152168[ebp]
	jmp	DWORD PTR __imp_??1?$basic_string@GU?$char_traits@G@std@@V?$allocator@G@2@@std@@QAE@XZ
__unwindfunclet$?LoadSettings@Message@@YAXABV?$basic_string@DU?$char_traits@D@std@@V?$allocator@D@2@@std@@@Z$29:
	lea	ecx, DWORD PTR $T152170[ebp]
	jmp	DWORD PTR __imp_??1?$basic_string@GU?$char_traits@G@std@@V?$allocator@G@2@@std@@QAE@XZ
__unwindfunclet$?LoadSettings@Message@@YAXABV?$basic_string@DU?$char_traits@D@std@@V?$allocator@D@2@@std@@@Z$30:
	lea	ecx, DWORD PTR $T152172[ebp]
	jmp	DWORD PTR __imp_??1?$basic_string@DU?$char_traits@D@std@@V?$allocator@D@2@@std@@QAE@XZ
__unwindfunclet$?LoadSettings@Message@@YAXABV?$basic_string@DU?$char_traits@D@std@@V?$allocator@D@2@@std@@@Z$31:
	mov	ecx, DWORD PTR $T152171[ebp]
	jmp	DWORD PTR __imp_??1?$basic_string@GU?$char_traits@G@std@@V?$allocator@G@2@@std@@QAE@XZ
__unwindfunclet$?LoadSettings@Message@@YAXABV?$basic_string@DU?$char_traits@D@std@@V?$allocator@D@2@@std@@@Z$32:
	lea	ecx, DWORD PTR $T152173[ebp]
	jmp	DWORD PTR __imp_??1?$basic_string@GU?$char_traits@G@std@@V?$allocator@G@2@@std@@QAE@XZ
__unwindfunclet$?LoadSettings@Message@@YAXABV?$basic_string@DU?$char_traits@D@std@@V?$allocator@D@2@@std@@@Z$33:
	lea	ecx, DWORD PTR _lstStandardBannerSection$143749[ebp]
	jmp	??1?$list@V?$basic_string@GU?$char_traits@G@std@@V?$allocator@G@2@@std@@V?$allocator@V?$basic_string@GU?$char_traits@G@std@@V?$allocator@G@2@@std@@@2@@std@@QAE@XZ ; std::list<std::basic_string<unsigned short,std::char_traits<unsigned short>,std::allocator<unsigned short> >,std::allocator<std::basic_string<unsigned short,std::char_traits<unsigned short>,std::allocator<unsigned short> > > >::~list<std::basic_string<unsigned short,std::char_traits<unsigned short>,std::allocator<unsigned short> >,std::allocator<std::basic_string<unsigned short,std::char_traits<unsigned short>,std::allocator<unsigned short> > > >
__unwindfunclet$?LoadSettings@Message@@YAXABV?$basic_string@DU?$char_traits@D@std@@V?$allocator@D@2@@std@@@Z$34:
	lea	ecx, DWORD PTR $T152175[ebp]
	jmp	DWORD PTR __imp_??1?$basic_string@DU?$char_traits@D@std@@V?$allocator@D@2@@std@@QAE@XZ
__unwindfunclet$?LoadSettings@Message@@YAXABV?$basic_string@DU?$char_traits@D@std@@V?$allocator@D@2@@std@@@Z$35:
	mov	ecx, DWORD PTR $T152174[ebp]
	jmp	DWORD PTR __imp_??1?$basic_string@GU?$char_traits@G@std@@V?$allocator@G@2@@std@@QAE@XZ
__unwindfunclet$?LoadSettings@Message@@YAXABV?$basic_string@DU?$char_traits@D@std@@V?$allocator@D@2@@std@@@Z$36:
	lea	ecx, DWORD PTR $T152176[ebp]
	jmp	DWORD PTR __imp_??1?$basic_string@GU?$char_traits@G@std@@V?$allocator@G@2@@std@@QAE@XZ
__unwindfunclet$?LoadSettings@Message@@YAXABV?$basic_string@DU?$char_traits@D@std@@V?$allocator@D@2@@std@@@Z$37:
	lea	ecx, DWORD PTR $T152178[ebp]
	jmp	DWORD PTR __imp_??1?$basic_string@DU?$char_traits@D@std@@V?$allocator@D@2@@std@@QAE@XZ
__unwindfunclet$?LoadSettings@Message@@YAXABV?$basic_string@DU?$char_traits@D@std@@V?$allocator@D@2@@std@@@Z$38:
	mov	ecx, DWORD PTR $T152177[ebp]
	jmp	DWORD PTR __imp_??1?$basic_string@GU?$char_traits@G@std@@V?$allocator@G@2@@std@@QAE@XZ
__unwindfunclet$?LoadSettings@Message@@YAXABV?$basic_string@DU?$char_traits@D@std@@V?$allocator@D@2@@std@@@Z$39:
	lea	ecx, DWORD PTR _word$143763[ebp]
	jmp	DWORD PTR __imp_??1?$basic_string@GU?$char_traits@G@std@@V?$allocator@G@2@@std@@QAE@XZ
__unwindfunclet$?LoadSettings@Message@@YAXABV?$basic_string@DU?$char_traits@D@std@@V?$allocator@D@2@@std@@@Z$40:
	lea	ecx, DWORD PTR $T152179[ebp]
	jmp	DWORD PTR __imp_??1?$basic_string@GU?$char_traits@G@std@@V?$allocator@G@2@@std@@QAE@XZ
__unwindfunclet$?LoadSettings@Message@@YAXABV?$basic_string@DU?$char_traits@D@std@@V?$allocator@D@2@@std@@@Z$41:
	lea	ecx, DWORD PTR $T152180[ebp]
	jmp	DWORD PTR __imp_??1?$basic_string@GU?$char_traits@G@std@@V?$allocator@G@2@@std@@QAE@XZ
__unwindfunclet$?LoadSettings@Message@@YAXABV?$basic_string@DU?$char_traits@D@std@@V?$allocator@D@2@@std@@@Z$42:
	lea	ecx, DWORD PTR $T152181[ebp]
	jmp	DWORD PTR __imp_??1?$basic_string@GU?$char_traits@G@std@@V?$allocator@G@2@@std@@QAE@XZ
__ehhandler$?LoadSettings@Message@@YAXABV?$basic_string@DU?$char_traits@D@std@@V?$allocator@D@2@@std@@@Z:
	mov	edx, DWORD PTR [esp+8]
	lea	eax, DWORD PTR [edx+12]
	mov	ecx, DWORD PTR [edx-6696]
	xor	ecx, eax
	call	@__security_check_cookie@4
	mov	ecx, DWORD PTR [edx-4]
	xor	ecx, eax
	call	@__security_check_cookie@4
	mov	eax, OFFSET __ehfuncinfo$?LoadSettings@Message@@YAXABV?$basic_string@DU?$char_traits@D@std@@V?$allocator@D@2@@std@@@Z
	jmp	___CxxFrameHandler3
text$x	ENDS
?LoadSettings@Message@@YAXABV?$basic_string@DU?$char_traits@D@std@@V?$allocator@D@2@@std@@@Z ENDP ; Message::LoadSettings
PUBLIC	??A?$map@IVINFO@Message@@U?$less@I@std@@V?$allocator@U?$pair@$$CBIVINFO@Message@@@std@@@4@@std@@QAEAAVINFO@Message@@ABI@Z ; std::map<unsigned int,Message::INFO,std::less<unsigned int>,std::allocator<std::pair<unsigned int const ,Message::INFO> > >::operator[]
EXTRN	__imp_?IniGetB@HookExt@@YA_NIABV?$basic_string@DU?$char_traits@D@std@@V?$allocator@D@2@@std@@@Z:PROC
EXTRN	__imp_?IniGetWS@HookExt@@YA?AV?$basic_string@GU?$char_traits@G@std@@V?$allocator@G@2@@std@@IABV?$basic_string@DU?$char_traits@D@std@@V?$allocator@D@2@@3@@Z:PROC
EXTRN	__imp_??$?HDU?$char_traits@D@std@@V?$allocator@D@1@@std@@YA?AV?$basic_string@DU?$char_traits@D@std@@V?$allocator@D@2@@0@PBDABV10@@Z:PROC
EXTRN	__imp_?itos@@YA?AV?$basic_string@DU?$char_traits@D@std@@V?$allocator@D@2@@std@@H@Z:PROC
xdata$x	SEGMENT
__unwindtable$?LoadMsgs@Message@@YAXI@Z DD 0ffffffffH
	DD	FLAT:__unwindfunclet$?LoadMsgs@Message@@YAXI@Z$0
	DD	00H
	DD	FLAT:__unwindfunclet$?LoadMsgs@Message@@YAXI@Z$1
	DD	01H
	DD	FLAT:__unwindfunclet$?LoadMsgs@Message@@YAXI@Z$2
	DD	0ffffffffH
	DD	FLAT:__unwindfunclet$?LoadMsgs@Message@@YAXI@Z$3
__ehfuncinfo$?LoadMsgs@Message@@YAXI@Z DD 019930522H
	DD	04H
	DD	FLAT:__unwindtable$?LoadMsgs@Message@@YAXI@Z
	DD	2 DUP(00H)
	DD	2 DUP(00H)
	DD	00H
	DD	00H
; Function compile flags: /Odtp
xdata$x	ENDS
_TEXT	SEGMENT
tv140 = -152						; size = 4
tv144 = -148						; size = 4
tv138 = -144						; size = 4
tv143 = -140						; size = 4
tv136 = -136						; size = 4
tv142 = -132						; size = 4
$T152242 = -128						; size = 28
$T152241 = -100						; size = 28
$T152240 = -72						; size = 28
$T152239 = -44						; size = 28
_iMsgSlot$142654 = -16					; size = 4
__$EHRec$ = -12						; size = 12
_iClientID$ = 8						; size = 4
?LoadMsgs@Message@@YAXI@Z PROC				; Message::LoadMsgs
; Line 116
	push	ebp
	mov	ebp, esp
	push	-1
	push	__ehhandler$?LoadMsgs@Message@@YAXI@Z
	mov	eax, DWORD PTR fs:0
	push	eax
	sub	esp, 140				; 0000008cH
	push	ebx
	mov	eax, DWORD PTR ___security_cookie
	xor	eax, ebp
	push	eax
	lea	eax, DWORD PTR __$EHRec$[ebp]
	mov	DWORD PTR fs:0, eax
; Line 117
	movzx	eax, BYTE PTR _set_bSetMsg
	test	eax, eax
	jne	SHORT $LN4@LoadMsgs
; Line 118
	jmp	$LN5@LoadMsgs
$LN4@LoadMsgs:
; Line 121
	mov	DWORD PTR _iMsgSlot$142654[ebp], 0
	jmp	SHORT $LN3@LoadMsgs
$LN2@LoadMsgs:
	mov	ecx, DWORD PTR _iMsgSlot$142654[ebp]
	add	ecx, 1
	mov	DWORD PTR _iMsgSlot$142654[ebp], ecx
$LN3@LoadMsgs:
	cmp	DWORD PTR _iMsgSlot$142654[ebp], 10	; 0000000aH
	jge	$LN1@LoadMsgs
; Line 123
	mov	edx, DWORD PTR _iMsgSlot$142654[ebp]
	push	edx
	lea	eax, DWORD PTR $T152239[ebp]
	push	eax
	call	DWORD PTR __imp_?itos@@YA?AV?$basic_string@DU?$char_traits@D@std@@V?$allocator@D@2@@std@@H@Z
	add	esp, 8
	mov	DWORD PTR tv142[ebp], eax
	mov	ecx, DWORD PTR tv142[ebp]
	mov	DWORD PTR tv136[ebp], ecx
	mov	DWORD PTR __$EHRec$[ebp+8], 0
	mov	edx, DWORD PTR tv136[ebp]
	push	edx
	push	OFFSET $SG142661
	lea	eax, DWORD PTR $T152240[ebp]
	push	eax
	call	DWORD PTR __imp_??$?HDU?$char_traits@D@std@@V?$allocator@D@1@@std@@YA?AV?$basic_string@DU?$char_traits@D@std@@V?$allocator@D@2@@0@PBDABV10@@Z
	add	esp, 12					; 0000000cH
	mov	DWORD PTR tv143[ebp], eax
	mov	ecx, DWORD PTR tv143[ebp]
	mov	DWORD PTR tv138[ebp], ecx
	mov	BYTE PTR __$EHRec$[ebp+8], 1
	mov	edx, DWORD PTR tv138[ebp]
	push	edx
	mov	eax, DWORD PTR _iClientID$[ebp]
	push	eax
	lea	ecx, DWORD PTR $T152241[ebp]
	push	ecx
	call	DWORD PTR __imp_?IniGetWS@HookExt@@YA?AV?$basic_string@GU?$char_traits@G@std@@V?$allocator@G@2@@std@@IABV?$basic_string@DU?$char_traits@D@std@@V?$allocator@D@2@@3@@Z
	add	esp, 12					; 0000000cH
	mov	DWORD PTR tv144[ebp], eax
	mov	edx, DWORD PTR tv144[ebp]
	mov	DWORD PTR tv140[ebp], edx
	mov	BYTE PTR __$EHRec$[ebp+8], 2
	mov	eax, DWORD PTR tv140[ebp]
	push	eax
	lea	ecx, DWORD PTR _iClientID$[ebp]
	push	ecx
	mov	ecx, OFFSET _mapInfo
	call	??A?$map@IVINFO@Message@@U?$less@I@std@@V?$allocator@U?$pair@$$CBIVINFO@Message@@@std@@@4@@std@@QAEAAVINFO@Message@@ABI@Z ; std::map<unsigned int,Message::INFO,std::less<unsigned int>,std::allocator<std::pair<unsigned int const ,Message::INFO> > >::operator[]
	mov	edx, DWORD PTR _iMsgSlot$142654[ebp]
	imul	edx, 28					; 0000001cH
	add	eax, edx
	mov	ecx, eax
	call	DWORD PTR __imp_??4?$basic_string@GU?$char_traits@G@std@@V?$allocator@G@2@@std@@QAEAAV01@ABV01@@Z
	mov	BYTE PTR __$EHRec$[ebp+8], 1
	lea	ecx, DWORD PTR $T152241[ebp]
	call	DWORD PTR __imp_??1?$basic_string@GU?$char_traits@G@std@@V?$allocator@G@2@@std@@QAE@XZ
	mov	BYTE PTR __$EHRec$[ebp+8], 0
	lea	ecx, DWORD PTR $T152240[ebp]
	call	DWORD PTR __imp_??1?$basic_string@DU?$char_traits@D@std@@V?$allocator@D@2@@std@@QAE@XZ
	mov	DWORD PTR __$EHRec$[ebp+8], -1
	lea	ecx, DWORD PTR $T152239[ebp]
	call	DWORD PTR __imp_??1?$basic_string@DU?$char_traits@D@std@@V?$allocator@D@2@@std@@QAE@XZ
; Line 124
	jmp	$LN2@LoadMsgs
$LN1@LoadMsgs:
; Line 127
	push	OFFSET $SG142663
	lea	ecx, DWORD PTR $T152242[ebp]
	call	DWORD PTR __imp_??0?$basic_string@DU?$char_traits@D@std@@V?$allocator@D@2@@std@@QAE@PBD@Z
	mov	DWORD PTR __$EHRec$[ebp+8], 3
	lea	eax, DWORD PTR $T152242[ebp]
	push	eax
	mov	ecx, DWORD PTR _iClientID$[ebp]
	push	ecx
	call	DWORD PTR __imp_?IniGetB@HookExt@@YA_NIABV?$basic_string@DU?$char_traits@D@std@@V?$allocator@D@2@@std@@@Z
	add	esp, 8
	mov	bl, al
	lea	edx, DWORD PTR _iClientID$[ebp]
	push	edx
	mov	ecx, OFFSET _mapInfo
	call	??A?$map@IVINFO@Message@@U?$less@I@std@@V?$allocator@U?$pair@$$CBIVINFO@Message@@@std@@@4@@std@@QAEAAVINFO@Message@@ABI@Z ; std::map<unsigned int,Message::INFO,std::less<unsigned int>,std::allocator<std::pair<unsigned int const ,Message::INFO> > >::operator[]
	mov	BYTE PTR [eax+288], bl
	mov	DWORD PTR __$EHRec$[ebp+8], -1
	lea	ecx, DWORD PTR $T152242[ebp]
	call	DWORD PTR __imp_??1?$basic_string@DU?$char_traits@D@std@@V?$allocator@D@2@@std@@QAE@XZ
$LN5@LoadMsgs:
; Line 128
	mov	ecx, DWORD PTR __$EHRec$[ebp]
	mov	DWORD PTR fs:0, ecx
	pop	ecx
	pop	ebx
	mov	esp, ebp
	pop	ebp
	ret	0
_TEXT	ENDS
text$x	SEGMENT
__unwindfunclet$?LoadMsgs@Message@@YAXI@Z$0:
	lea	ecx, DWORD PTR $T152239[ebp]
	jmp	DWORD PTR __imp_??1?$basic_string@DU?$char_traits@D@std@@V?$allocator@D@2@@std@@QAE@XZ
__unwindfunclet$?LoadMsgs@Message@@YAXI@Z$1:
	lea	ecx, DWORD PTR $T152240[ebp]
	jmp	DWORD PTR __imp_??1?$basic_string@DU?$char_traits@D@std@@V?$allocator@D@2@@std@@QAE@XZ
__unwindfunclet$?LoadMsgs@Message@@YAXI@Z$2:
	lea	ecx, DWORD PTR $T152241[ebp]
	jmp	DWORD PTR __imp_??1?$basic_string@GU?$char_traits@G@std@@V?$allocator@G@2@@std@@QAE@XZ
__unwindfunclet$?LoadMsgs@Message@@YAXI@Z$3:
	lea	ecx, DWORD PTR $T152242[ebp]
	jmp	DWORD PTR __imp_??1?$basic_string@DU?$char_traits@D@std@@V?$allocator@D@2@@std@@QAE@XZ
__ehhandler$?LoadMsgs@Message@@YAXI@Z:
	mov	edx, DWORD PTR [esp+8]
	lea	eax, DWORD PTR [edx+12]
	mov	ecx, DWORD PTR [edx-148]
	xor	ecx, eax
	call	@__security_check_cookie@4
	mov	eax, OFFSET __ehfuncinfo$?LoadMsgs@Message@@YAXI@Z
	jmp	___CxxFrameHandler3
text$x	ENDS
?LoadMsgs@Message@@YAXI@Z ENDP				; Message::LoadMsgs
PUBLIC	?Timer@Message@@YAXXZ				; Message::Timer
;	COMDAT ?iStandardBannerTimer@?1??Timer@Message@@YAXXZ@4HA
_BSS	SEGMENT
?iStandardBannerTimer@?1??Timer@Message@@YAXXZ@4HA DD 01H DUP (?) ; `Message::Timer'::`2'::iStandardBannerTimer
_BSS	ENDS
;	COMDAT ?iSpecialBannerTimer@?1??Timer@Message@@YAXXZ@4HA
_BSS	SEGMENT
?iSpecialBannerTimer@?1??Timer@Message@@YAXXZ@4HA DD 01H DUP (?) ; `Message::Timer'::`2'::iSpecialBannerTimer
; Function compile flags: /Odtp
_BSS	ENDS
_TEXT	SEGMENT
?Timer@Message@@YAXXZ PROC				; Message::Timer
; Line 303
	push	ebp
	mov	ebp, esp
; Line 307
	mov	eax, DWORD PTR ?iSpecialBannerTimer@?1??Timer@Message@@YAXXZ@4HA
	add	eax, 1
	mov	DWORD PTR ?iSpecialBannerTimer@?1??Timer@Message@@YAXXZ@4HA, eax
	mov	ecx, DWORD PTR ?iSpecialBannerTimer@?1??Timer@Message@@YAXXZ@4HA
	cmp	ecx, DWORD PTR _set_iSpecialBannerTimeout
	jle	SHORT $LN2@Timer
; Line 309
	mov	DWORD PTR ?iSpecialBannerTimer@?1??Timer@Message@@YAXXZ@4HA, 0
; Line 310
	call	?ShowSpecialBanner@Message@@YAXXZ	; Message::ShowSpecialBanner
$LN2@Timer:
; Line 313
	mov	edx, DWORD PTR ?iStandardBannerTimer@?1??Timer@Message@@YAXXZ@4HA
	add	edx, 1
	mov	DWORD PTR ?iStandardBannerTimer@?1??Timer@Message@@YAXXZ@4HA, edx
	mov	eax, DWORD PTR ?iStandardBannerTimer@?1??Timer@Message@@YAXXZ@4HA
	cmp	eax, DWORD PTR _set_iStandardBannerTimeout
	jle	SHORT $LN3@Timer
; Line 315
	mov	DWORD PTR ?iStandardBannerTimer@?1??Timer@Message@@YAXXZ@4HA, 0
; Line 316
	call	?ShowStandardBanner@Message@@YAXXZ	; Message::ShowStandardBanner
$LN3@Timer:
; Line 318
	pop	ebp
	ret	0
?Timer@Message@@YAXXZ ENDP				; Message::Timer
_TEXT	ENDS
PUBLIC	??D?$_Iterator@$00@?$list@V?$basic_string@GU?$char_traits@G@std@@V?$allocator@G@2@@std@@V?$allocator@V?$basic_string@GU?$char_traits@G@std@@V?$allocator@G@2@@std@@@2@@std@@QBEAAV?$basic_string@GU?$char_traits@G@std@@V?$allocator@G@2@@2@XZ ; std::list<std::basic_string<unsigned short,std::char_traits<unsigned short>,std::allocator<unsigned short> >,std::allocator<std::basic_string<unsigned short,std::char_traits<unsigned short>,std::allocator<unsigned short> > > >::_Iterator<1>::operator*
PUBLIC	??C?$_Iterator@$00@?$list@V?$basic_string@GU?$char_traits@G@std@@V?$allocator@G@2@@std@@V?$allocator@V?$basic_string@GU?$char_traits@G@std@@V?$allocator@G@2@@std@@@2@@std@@QBEPAV?$basic_string@GU?$char_traits@G@std@@V?$allocator@G@2@@2@XZ ; std::list<std::basic_string<unsigned short,std::char_traits<unsigned short>,std::allocator<unsigned short> >,std::allocator<std::basic_string<unsigned short,std::char_traits<unsigned short>,std::allocator<unsigned short> > > >::_Iterator<1>::operator->
PUBLIC	??9?$_Const_iterator@$00@?$list@V?$basic_string@GU?$char_traits@G@std@@V?$allocator@G@2@@std@@V?$allocator@V?$basic_string@GU?$char_traits@G@std@@V?$allocator@G@2@@std@@@2@@std@@QBE_NABV012@@Z ; std::list<std::basic_string<unsigned short,std::char_traits<unsigned short>,std::allocator<unsigned short> >,std::allocator<std::basic_string<unsigned short,std::char_traits<unsigned short>,std::allocator<unsigned short> > > >::_Const_iterator<1>::operator!=
PUBLIC	?end@?$list@V?$basic_string@GU?$char_traits@G@std@@V?$allocator@G@2@@std@@V?$allocator@V?$basic_string@GU?$char_traits@G@std@@V?$allocator@G@2@@std@@@2@@std@@QAE?AV?$_Iterator@$00@12@XZ ; std::list<std::basic_string<unsigned short,std::char_traits<unsigned short>,std::allocator<unsigned short> >,std::allocator<std::basic_string<unsigned short,std::char_traits<unsigned short>,std::allocator<unsigned short> > > >::end
PUBLIC	??E?$_Iterator@$00@?$list@V?$basic_string@GU?$char_traits@G@std@@V?$allocator@G@2@@std@@V?$allocator@V?$basic_string@GU?$char_traits@G@std@@V?$allocator@G@2@@std@@@2@@std@@QAE?AV012@H@Z ; std::list<std::basic_string<unsigned short,std::char_traits<unsigned short>,std::allocator<unsigned short> >,std::allocator<std::basic_string<unsigned short,std::char_traits<unsigned short>,std::allocator<unsigned short> > > >::_Iterator<1>::operator++
PUBLIC	?begin@?$list@V?$basic_string@GU?$char_traits@G@std@@V?$allocator@G@2@@std@@V?$allocator@V?$basic_string@GU?$char_traits@G@std@@V?$allocator@G@2@@std@@@2@@std@@QAE?AV?$_Iterator@$00@12@XZ ; std::list<std::basic_string<unsigned short,std::char_traits<unsigned short>,std::allocator<unsigned short> >,std::allocator<std::basic_string<unsigned short,std::char_traits<unsigned short>,std::allocator<unsigned short> > > >::begin
EXTRN	__imp_?PrintUserCmdText@@YAXIV?$basic_string@GU?$char_traits@G@std@@V?$allocator@G@2@@std@@ZZ:PROC
EXTRN	__imp_?c_str@?$basic_string@GU?$char_traits@G@std@@V?$allocator@G@2@@std@@QBEPBGXZ:PROC
EXTRN	__imp_?HkFMsg@@YA?AW4HK_ERROR@@IABV?$basic_string@GU?$char_traits@G@std@@V?$allocator@G@2@@std@@@Z:PROC
EXTRN	__imp_?find@?$basic_string@GU?$char_traits@G@std@@V?$allocator@G@2@@std@@QBEIPBGI@Z:PROC
EXTRN	__imp_?HkGetClientIdFromPD@@YAIPAUPlayerData@@@Z:PROC
EXTRN	__imp_?traverse_active@PlayerDB@@QBEPAUPlayerData@@PAU2@@Z:PROC
EXTRN	__imp_?Players@@3VPlayerDB@@A:BYTE
xdata$x	SEGMENT
__unwindtable$?ShowSpecialBanner@Message@@YAXXZ DD 0ffffffffH
	DD	FLAT:__unwindfunclet$?ShowSpecialBanner@Message@@YAXXZ$0
__ehfuncinfo$?ShowSpecialBanner@Message@@YAXXZ DD 019930522H
	DD	01H
	DD	FLAT:__unwindtable$?ShowSpecialBanner@Message@@YAXXZ
	DD	2 DUP(00H)
	DD	2 DUP(00H)
	DD	00H
	DD	00H
; Function compile flags: /Odtp
xdata$x	ENDS
_TEXT	SEGMENT
tv156 = -56						; size = 4
tv157 = -52						; size = 4
$T152257 = -48						; size = 4
$T152256 = -44						; size = 8
$T152255 = -36						; size = 8
_iter$142832 = -28					; size = 8
_iClientID$142827 = -20					; size = 4
_pPD$ = -16						; size = 4
__$EHRec$ = -12						; size = 12
?ShowSpecialBanner@Message@@YAXXZ PROC			; Message::ShowSpecialBanner
; Line 148
	push	ebp
	mov	ebp, esp
	push	-1
	push	__ehhandler$?ShowSpecialBanner@Message@@YAXXZ
	mov	eax, DWORD PTR fs:0
	push	eax
	sub	esp, 44					; 0000002cH
	mov	eax, DWORD PTR ___security_cookie
	xor	eax, ebp
	push	eax
	lea	eax, DWORD PTR __$EHRec$[ebp]
	mov	DWORD PTR fs:0, eax
; Line 149
	mov	DWORD PTR _pPD$[ebp], 0
$LN7@ShowSpecia:
; Line 150
	mov	eax, DWORD PTR _pPD$[ebp]
	push	eax
	mov	ecx, DWORD PTR __imp_?Players@@3VPlayerDB@@A
	call	DWORD PTR __imp_?traverse_active@PlayerDB@@QBEPAUPlayerData@@PAU2@@Z
	mov	DWORD PTR _pPD$[ebp], eax
	cmp	DWORD PTR _pPD$[ebp], 0
	je	$LN8@ShowSpecia
; Line 152
	mov	ecx, DWORD PTR _pPD$[ebp]
	push	ecx
	call	DWORD PTR __imp_?HkGetClientIdFromPD@@YAIPAUPlayerData@@@Z
	add	esp, 4
	mov	DWORD PTR _iClientID$142827[ebp], eax
; Line 153
	lea	edx, DWORD PTR _iter$142832[ebp]
	push	edx
	mov	ecx, OFFSET _set_lstSpecialBannerLines
	call	?begin@?$list@V?$basic_string@GU?$char_traits@G@std@@V?$allocator@G@2@@std@@V?$allocator@V?$basic_string@GU?$char_traits@G@std@@V?$allocator@G@2@@std@@@2@@std@@QAE?AV?$_Iterator@$00@12@XZ ; std::list<std::basic_string<unsigned short,std::char_traits<unsigned short>,std::allocator<unsigned short> >,std::allocator<std::basic_string<unsigned short,std::char_traits<unsigned short>,std::allocator<unsigned short> > > >::begin
	jmp	SHORT $LN5@ShowSpecia
$LN4@ShowSpecia:
	push	0
	lea	eax, DWORD PTR $T152255[ebp]
	push	eax
	lea	ecx, DWORD PTR _iter$142832[ebp]
	call	??E?$_Iterator@$00@?$list@V?$basic_string@GU?$char_traits@G@std@@V?$allocator@G@2@@std@@V?$allocator@V?$basic_string@GU?$char_traits@G@std@@V?$allocator@G@2@@std@@@2@@std@@QAE?AV012@H@Z ; std::list<std::basic_string<unsigned short,std::char_traits<unsigned short>,std::allocator<unsigned short> >,std::allocator<std::basic_string<unsigned short,std::char_traits<unsigned short>,std::allocator<unsigned short> > > >::_Iterator<1>::operator++
$LN5@ShowSpecia:
	lea	ecx, DWORD PTR $T152256[ebp]
	push	ecx
	mov	ecx, OFFSET _set_lstSpecialBannerLines
	call	?end@?$list@V?$basic_string@GU?$char_traits@G@std@@V?$allocator@G@2@@std@@V?$allocator@V?$basic_string@GU?$char_traits@G@std@@V?$allocator@G@2@@std@@@2@@std@@QAE?AV?$_Iterator@$00@12@XZ ; std::list<std::basic_string<unsigned short,std::char_traits<unsigned short>,std::allocator<unsigned short> >,std::allocator<std::basic_string<unsigned short,std::char_traits<unsigned short>,std::allocator<unsigned short> > > >::end
	push	eax
	lea	ecx, DWORD PTR _iter$142832[ebp]
	call	??9?$_Const_iterator@$00@?$list@V?$basic_string@GU?$char_traits@G@std@@V?$allocator@G@2@@std@@V?$allocator@V?$basic_string@GU?$char_traits@G@std@@V?$allocator@G@2@@std@@@2@@std@@QBE_NABV012@@Z ; std::list<std::basic_string<unsigned short,std::char_traits<unsigned short>,std::allocator<unsigned short> >,std::allocator<std::basic_string<unsigned short,std::char_traits<unsigned short>,std::allocator<unsigned short> > > >::_Const_iterator<1>::operator!=
	movzx	edx, al
	test	edx, edx
	je	$LN3@ShowSpecia
; Line 155
	push	0
	push	OFFSET $SG142840
	lea	ecx, DWORD PTR _iter$142832[ebp]
	call	??C?$_Iterator@$00@?$list@V?$basic_string@GU?$char_traits@G@std@@V?$allocator@G@2@@std@@V?$allocator@V?$basic_string@GU?$char_traits@G@std@@V?$allocator@G@2@@std@@@2@@std@@QBEPAV?$basic_string@GU?$char_traits@G@std@@V?$allocator@G@2@@2@XZ ; std::list<std::basic_string<unsigned short,std::char_traits<unsigned short>,std::allocator<unsigned short> >,std::allocator<std::basic_string<unsigned short,std::char_traits<unsigned short>,std::allocator<unsigned short> > > >::_Iterator<1>::operator->
	mov	ecx, eax
	call	DWORD PTR __imp_?find@?$basic_string@GU?$char_traits@G@std@@V?$allocator@G@2@@std@@QBEIPBGI@Z
	test	eax, eax
	jne	SHORT $LN2@ShowSpecia
; Line 156
	lea	ecx, DWORD PTR _iter$142832[ebp]
	call	??D?$_Iterator@$00@?$list@V?$basic_string@GU?$char_traits@G@std@@V?$allocator@G@2@@std@@V?$allocator@V?$basic_string@GU?$char_traits@G@std@@V?$allocator@G@2@@std@@@2@@std@@QBEAAV?$basic_string@GU?$char_traits@G@std@@V?$allocator@G@2@@2@XZ ; std::list<std::basic_string<unsigned short,std::char_traits<unsigned short>,std::allocator<unsigned short> >,std::allocator<std::basic_string<unsigned short,std::char_traits<unsigned short>,std::allocator<unsigned short> > > >::_Iterator<1>::operator*
	push	eax
	mov	eax, DWORD PTR _iClientID$142827[ebp]
	push	eax
	call	DWORD PTR __imp_?HkFMsg@@YA?AW4HK_ERROR@@IABV?$basic_string@GU?$char_traits@G@std@@V?$allocator@G@2@@std@@@Z
	add	esp, 8
; Line 157
	jmp	SHORT $LN1@ShowSpecia
$LN2@ShowSpecia:
; Line 158
	lea	ecx, DWORD PTR _iter$142832[ebp]
	call	??C?$_Iterator@$00@?$list@V?$basic_string@GU?$char_traits@G@std@@V?$allocator@G@2@@std@@V?$allocator@V?$basic_string@GU?$char_traits@G@std@@V?$allocator@G@2@@std@@@2@@std@@QBEPAV?$basic_string@GU?$char_traits@G@std@@V?$allocator@G@2@@2@XZ ; std::list<std::basic_string<unsigned short,std::char_traits<unsigned short>,std::allocator<unsigned short> >,std::allocator<std::basic_string<unsigned short,std::char_traits<unsigned short>,std::allocator<unsigned short> > > >::_Iterator<1>::operator->
	mov	ecx, eax
	call	DWORD PTR __imp_?c_str@?$basic_string@GU?$char_traits@G@std@@V?$allocator@G@2@@std@@QBEPBGXZ
	push	eax
	sub	esp, 28					; 0000001cH
	mov	ecx, esp
	mov	DWORD PTR $T152257[ebp], esp
	push	OFFSET $SG142843
	call	DWORD PTR __imp_??0?$basic_string@GU?$char_traits@G@std@@V?$allocator@G@2@@std@@QAE@PBG@Z
	mov	DWORD PTR tv157[ebp], eax
	mov	ecx, DWORD PTR tv157[ebp]
	mov	DWORD PTR tv156[ebp], ecx
	mov	DWORD PTR __$EHRec$[ebp+8], 0
	mov	edx, DWORD PTR _iClientID$142827[ebp]
	push	edx
	mov	DWORD PTR __$EHRec$[ebp+8], -1
	call	DWORD PTR __imp_?PrintUserCmdText@@YAXIV?$basic_string@GU?$char_traits@G@std@@V?$allocator@G@2@@std@@ZZ
	add	esp, 36					; 00000024H
$LN1@ShowSpecia:
; Line 159
	jmp	$LN4@ShowSpecia
$LN3@ShowSpecia:
; Line 160
	jmp	$LN7@ShowSpecia
$LN8@ShowSpecia:
; Line 161
	mov	ecx, DWORD PTR __$EHRec$[ebp]
	mov	DWORD PTR fs:0, ecx
	pop	ecx
	mov	esp, ebp
	pop	ebp
	ret	0
_TEXT	ENDS
text$x	SEGMENT
__unwindfunclet$?ShowSpecialBanner@Message@@YAXXZ$0:
	mov	ecx, DWORD PTR $T152257[ebp]
	jmp	DWORD PTR __imp_??1?$basic_string@GU?$char_traits@G@std@@V?$allocator@G@2@@std@@QAE@XZ
__ehhandler$?ShowSpecialBanner@Message@@YAXXZ:
	mov	edx, DWORD PTR [esp+8]
	lea	eax, DWORD PTR [edx+12]
	mov	ecx, DWORD PTR [edx-48]
	xor	ecx, eax
	call	@__security_check_cookie@4
	mov	eax, OFFSET __ehfuncinfo$?ShowSpecialBanner@Message@@YAXXZ
	jmp	___CxxFrameHandler3
text$x	ENDS
?ShowSpecialBanner@Message@@YAXXZ ENDP			; Message::ShowSpecialBanner
PUBLIC	??A?$vector@V?$list@V?$basic_string@GU?$char_traits@G@std@@V?$allocator@G@2@@std@@V?$allocator@V?$basic_string@GU?$char_traits@G@std@@V?$allocator@G@2@@std@@@2@@std@@V?$allocator@V?$list@V?$basic_string@GU?$char_traits@G@std@@V?$allocator@G@2@@std@@V?$allocator@V?$basic_string@GU?$char_traits@G@std@@V?$allocator@G@2@@std@@@2@@std@@@2@@std@@QAEAAV?$list@V?$basic_string@GU?$char_traits@G@std@@V?$allocator@G@2@@std@@V?$allocator@V?$basic_string@GU?$char_traits@G@std@@V?$allocator@G@2@@std@@@2@@1@I@Z ; std::vector<std::list<std::basic_string<unsigned short,std::char_traits<unsigned short>,std::allocator<unsigned short> >,std::allocator<std::basic_string<unsigned short,std::char_traits<unsigned short>,std::allocator<unsigned short> > > >,std::allocator<std::list<std::basic_string<unsigned short,std::char_traits<unsigned short>,std::allocator<unsigned short> >,std::allocator<std::basic_string<unsigned short,std::char_traits<unsigned short>,std::allocator<unsigned short> > > > > >::operator[]
PUBLIC	?size@?$vector@V?$list@V?$basic_string@GU?$char_traits@G@std@@V?$allocator@G@2@@std@@V?$allocator@V?$basic_string@GU?$char_traits@G@std@@V?$allocator@G@2@@std@@@2@@std@@V?$allocator@V?$list@V?$basic_string@GU?$char_traits@G@std@@V?$allocator@G@2@@std@@V?$allocator@V?$basic_string@GU?$char_traits@G@std@@V?$allocator@G@2@@std@@@2@@std@@@2@@std@@QBEIXZ ; std::vector<std::list<std::basic_string<unsigned short,std::char_traits<unsigned short>,std::allocator<unsigned short> >,std::allocator<std::basic_string<unsigned short,std::char_traits<unsigned short>,std::allocator<unsigned short> > > >,std::allocator<std::list<std::basic_string<unsigned short,std::char_traits<unsigned short>,std::allocator<unsigned short> >,std::allocator<std::basic_string<unsigned short,std::char_traits<unsigned short>,std::allocator<unsigned short> > > > > >::size
;	COMDAT ?iCurStandardBanner@?3??ShowStandardBanner@Message@@YAXXZ@4IA
_BSS	SEGMENT
?iCurStandardBanner@?3??ShowStandardBanner@Message@@YAXXZ@4IA DD 01H DUP (?) ; `Message::ShowStandardBanner'::`4'::iCurStandardBanner
_BSS	ENDS
xdata$x	SEGMENT
__unwindtable$?ShowStandardBanner@Message@@YAXXZ DD 0ffffffffH
	DD	FLAT:__unwindfunclet$?ShowStandardBanner@Message@@YAXXZ$0
__ehfuncinfo$?ShowStandardBanner@Message@@YAXXZ DD 019930522H
	DD	01H
	DD	FLAT:__unwindtable$?ShowStandardBanner@Message@@YAXXZ
	DD	2 DUP(00H)
	DD	2 DUP(00H)
	DD	00H
	DD	00H
; Function compile flags: /Odtp
xdata$x	ENDS
_TEXT	SEGMENT
tv166 = -60						; size = 4
tv167 = -56						; size = 4
$T152266 = -52						; size = 4
$T152265 = -48						; size = 8
$T152264 = -40						; size = 8
_iter$142864 = -32					; size = 8
_iClientID$142859 = -24					; size = 4
_pPD$ = -20						; size = 4
_lstStandardBannerSection$ = -16			; size = 4
__$EHRec$ = -12						; size = 12
?ShowStandardBanner@Message@@YAXXZ PROC			; Message::ShowStandardBanner
; Line 165
	push	ebp
	mov	ebp, esp
	push	-1
	push	__ehhandler$?ShowStandardBanner@Message@@YAXXZ
	mov	eax, DWORD PTR fs:0
	push	eax
	sub	esp, 48					; 00000030H
	mov	eax, DWORD PTR ___security_cookie
	xor	eax, ebp
	push	eax
	lea	eax, DWORD PTR __$EHRec$[ebp]
	mov	DWORD PTR fs:0, eax
; Line 166
	mov	ecx, OFFSET _set_vctStandardBannerLines
	call	?size@?$vector@V?$list@V?$basic_string@GU?$char_traits@G@std@@V?$allocator@G@2@@std@@V?$allocator@V?$basic_string@GU?$char_traits@G@std@@V?$allocator@G@2@@std@@@2@@std@@V?$allocator@V?$list@V?$basic_string@GU?$char_traits@G@std@@V?$allocator@G@2@@std@@V?$allocator@V?$basic_string@GU?$char_traits@G@std@@V?$allocator@G@2@@std@@@2@@std@@@2@@std@@QBEIXZ ; std::vector<std::list<std::basic_string<unsigned short,std::char_traits<unsigned short>,std::allocator<unsigned short> >,std::allocator<std::basic_string<unsigned short,std::char_traits<unsigned short>,std::allocator<unsigned short> > > >,std::allocator<std::list<std::basic_string<unsigned short,std::char_traits<unsigned short>,std::allocator<unsigned short> >,std::allocator<std::basic_string<unsigned short,std::char_traits<unsigned short>,std::allocator<unsigned short> > > > > >::size
	test	eax, eax
	jne	SHORT $LN9@ShowStanda
; Line 167
	jmp	$LN10@ShowStanda
$LN9@ShowStanda:
; Line 170
	mov	eax, DWORD PTR ?iCurStandardBanner@?3??ShowStandardBanner@Message@@YAXXZ@4IA
	add	eax, 1
	mov	DWORD PTR ?iCurStandardBanner@?3??ShowStandardBanner@Message@@YAXXZ@4IA, eax
	mov	ecx, OFFSET _set_vctStandardBannerLines
	call	?size@?$vector@V?$list@V?$basic_string@GU?$char_traits@G@std@@V?$allocator@G@2@@std@@V?$allocator@V?$basic_string@GU?$char_traits@G@std@@V?$allocator@G@2@@std@@@2@@std@@V?$allocator@V?$list@V?$basic_string@GU?$char_traits@G@std@@V?$allocator@G@2@@std@@V?$allocator@V?$basic_string@GU?$char_traits@G@std@@V?$allocator@G@2@@std@@@2@@std@@@2@@std@@QBEIXZ ; std::vector<std::list<std::basic_string<unsigned short,std::char_traits<unsigned short>,std::allocator<unsigned short> >,std::allocator<std::basic_string<unsigned short,std::char_traits<unsigned short>,std::allocator<unsigned short> > > >,std::allocator<std::list<std::basic_string<unsigned short,std::char_traits<unsigned short>,std::allocator<unsigned short> >,std::allocator<std::basic_string<unsigned short,std::char_traits<unsigned short>,std::allocator<unsigned short> > > > > >::size
	cmp	DWORD PTR ?iCurStandardBanner@?3??ShowStandardBanner@Message@@YAXXZ@4IA, eax
	jb	SHORT $LN8@ShowStanda
; Line 171
	mov	DWORD PTR ?iCurStandardBanner@?3??ShowStandardBanner@Message@@YAXXZ@4IA, 0
$LN8@ShowStanda:
; Line 173
	mov	ecx, DWORD PTR ?iCurStandardBanner@?3??ShowStandardBanner@Message@@YAXXZ@4IA
	push	ecx
	mov	ecx, OFFSET _set_vctStandardBannerLines
	call	??A?$vector@V?$list@V?$basic_string@GU?$char_traits@G@std@@V?$allocator@G@2@@std@@V?$allocator@V?$basic_string@GU?$char_traits@G@std@@V?$allocator@G@2@@std@@@2@@std@@V?$allocator@V?$list@V?$basic_string@GU?$char_traits@G@std@@V?$allocator@G@2@@std@@V?$allocator@V?$basic_string@GU?$char_traits@G@std@@V?$allocator@G@2@@std@@@2@@std@@@2@@std@@QAEAAV?$list@V?$basic_string@GU?$char_traits@G@std@@V?$allocator@G@2@@std@@V?$allocator@V?$basic_string@GU?$char_traits@G@std@@V?$allocator@G@2@@std@@@2@@1@I@Z ; std::vector<std::list<std::basic_string<unsigned short,std::char_traits<unsigned short>,std::allocator<unsigned short> >,std::allocator<std::basic_string<unsigned short,std::char_traits<unsigned short>,std::allocator<unsigned short> > > >,std::allocator<std::list<std::basic_string<unsigned short,std::char_traits<unsigned short>,std::allocator<unsigned short> >,std::allocator<std::basic_string<unsigned short,std::char_traits<unsigned short>,std::allocator<unsigned short> > > > > >::operator[]
	mov	DWORD PTR _lstStandardBannerSection$[ebp], eax
; Line 175
	mov	DWORD PTR _pPD$[ebp], 0
$LN7@ShowStanda:
; Line 176
	mov	edx, DWORD PTR _pPD$[ebp]
	push	edx
	mov	ecx, DWORD PTR __imp_?Players@@3VPlayerDB@@A
	call	DWORD PTR __imp_?traverse_active@PlayerDB@@QBEPAUPlayerData@@PAU2@@Z
	mov	DWORD PTR _pPD$[ebp], eax
	cmp	DWORD PTR _pPD$[ebp], 0
	je	$LN10@ShowStanda
; Line 178
	mov	eax, DWORD PTR _pPD$[ebp]
	push	eax
	call	DWORD PTR __imp_?HkGetClientIdFromPD@@YAIPAUPlayerData@@@Z
	add	esp, 4
	mov	DWORD PTR _iClientID$142859[ebp], eax
; Line 180
	lea	ecx, DWORD PTR _iter$142864[ebp]
	push	ecx
	mov	ecx, DWORD PTR _lstStandardBannerSection$[ebp]
	call	?begin@?$list@V?$basic_string@GU?$char_traits@G@std@@V?$allocator@G@2@@std@@V?$allocator@V?$basic_string@GU?$char_traits@G@std@@V?$allocator@G@2@@std@@@2@@std@@QAE?AV?$_Iterator@$00@12@XZ ; std::list<std::basic_string<unsigned short,std::char_traits<unsigned short>,std::allocator<unsigned short> >,std::allocator<std::basic_string<unsigned short,std::char_traits<unsigned short>,std::allocator<unsigned short> > > >::begin
	jmp	SHORT $LN5@ShowStanda
$LN4@ShowStanda:
	push	0
	lea	edx, DWORD PTR $T152264[ebp]
	push	edx
	lea	ecx, DWORD PTR _iter$142864[ebp]
	call	??E?$_Iterator@$00@?$list@V?$basic_string@GU?$char_traits@G@std@@V?$allocator@G@2@@std@@V?$allocator@V?$basic_string@GU?$char_traits@G@std@@V?$allocator@G@2@@std@@@2@@std@@QAE?AV012@H@Z ; std::list<std::basic_string<unsigned short,std::char_traits<unsigned short>,std::allocator<unsigned short> >,std::allocator<std::basic_string<unsigned short,std::char_traits<unsigned short>,std::allocator<unsigned short> > > >::_Iterator<1>::operator++
$LN5@ShowStanda:
	lea	eax, DWORD PTR $T152265[ebp]
	push	eax
	mov	ecx, DWORD PTR _lstStandardBannerSection$[ebp]
	call	?end@?$list@V?$basic_string@GU?$char_traits@G@std@@V?$allocator@G@2@@std@@V?$allocator@V?$basic_string@GU?$char_traits@G@std@@V?$allocator@G@2@@std@@@2@@std@@QAE?AV?$_Iterator@$00@12@XZ ; std::list<std::basic_string<unsigned short,std::char_traits<unsigned short>,std::allocator<unsigned short> >,std::allocator<std::basic_string<unsigned short,std::char_traits<unsigned short>,std::allocator<unsigned short> > > >::end
	push	eax
	lea	ecx, DWORD PTR _iter$142864[ebp]
	call	??9?$_Const_iterator@$00@?$list@V?$basic_string@GU?$char_traits@G@std@@V?$allocator@G@2@@std@@V?$allocator@V?$basic_string@GU?$char_traits@G@std@@V?$allocator@G@2@@std@@@2@@std@@QBE_NABV012@@Z ; std::list<std::basic_string<unsigned short,std::char_traits<unsigned short>,std::allocator<unsigned short> >,std::allocator<std::basic_string<unsigned short,std::char_traits<unsigned short>,std::allocator<unsigned short> > > >::_Const_iterator<1>::operator!=
	movzx	ecx, al
	test	ecx, ecx
	je	$LN3@ShowStanda
; Line 182
	push	0
	push	OFFSET $SG142872
	lea	ecx, DWORD PTR _iter$142864[ebp]
	call	??C?$_Iterator@$00@?$list@V?$basic_string@GU?$char_traits@G@std@@V?$allocator@G@2@@std@@V?$allocator@V?$basic_string@GU?$char_traits@G@std@@V?$allocator@G@2@@std@@@2@@std@@QBEPAV?$basic_string@GU?$char_traits@G@std@@V?$allocator@G@2@@2@XZ ; std::list<std::basic_string<unsigned short,std::char_traits<unsigned short>,std::allocator<unsigned short> >,std::allocator<std::basic_string<unsigned short,std::char_traits<unsigned short>,std::allocator<unsigned short> > > >::_Iterator<1>::operator->
	mov	ecx, eax
	call	DWORD PTR __imp_?find@?$basic_string@GU?$char_traits@G@std@@V?$allocator@G@2@@std@@QBEIPBGI@Z
	test	eax, eax
	jne	SHORT $LN2@ShowStanda
; Line 183
	lea	ecx, DWORD PTR _iter$142864[ebp]
	call	??D?$_Iterator@$00@?$list@V?$basic_string@GU?$char_traits@G@std@@V?$allocator@G@2@@std@@V?$allocator@V?$basic_string@GU?$char_traits@G@std@@V?$allocator@G@2@@std@@@2@@std@@QBEAAV?$basic_string@GU?$char_traits@G@std@@V?$allocator@G@2@@2@XZ ; std::list<std::basic_string<unsigned short,std::char_traits<unsigned short>,std::allocator<unsigned short> >,std::allocator<std::basic_string<unsigned short,std::char_traits<unsigned short>,std::allocator<unsigned short> > > >::_Iterator<1>::operator*
	push	eax
	mov	edx, DWORD PTR _iClientID$142859[ebp]
	push	edx
	call	DWORD PTR __imp_?HkFMsg@@YA?AW4HK_ERROR@@IABV?$basic_string@GU?$char_traits@G@std@@V?$allocator@G@2@@std@@@Z
	add	esp, 8
; Line 184
	jmp	SHORT $LN1@ShowStanda
$LN2@ShowStanda:
; Line 185
	lea	ecx, DWORD PTR _iter$142864[ebp]
	call	??C?$_Iterator@$00@?$list@V?$basic_string@GU?$char_traits@G@std@@V?$allocator@G@2@@std@@V?$allocator@V?$basic_string@GU?$char_traits@G@std@@V?$allocator@G@2@@std@@@2@@std@@QBEPAV?$basic_string@GU?$char_traits@G@std@@V?$allocator@G@2@@2@XZ ; std::list<std::basic_string<unsigned short,std::char_traits<unsigned short>,std::allocator<unsigned short> >,std::allocator<std::basic_string<unsigned short,std::char_traits<unsigned short>,std::allocator<unsigned short> > > >::_Iterator<1>::operator->
	mov	ecx, eax
	call	DWORD PTR __imp_?c_str@?$basic_string@GU?$char_traits@G@std@@V?$allocator@G@2@@std@@QBEPBGXZ
	push	eax
	sub	esp, 28					; 0000001cH
	mov	ecx, esp
	mov	DWORD PTR $T152266[ebp], esp
	push	OFFSET $SG142875
	call	DWORD PTR __imp_??0?$basic_string@GU?$char_traits@G@std@@V?$allocator@G@2@@std@@QAE@PBG@Z
	mov	DWORD PTR tv167[ebp], eax
	mov	eax, DWORD PTR tv167[ebp]
	mov	DWORD PTR tv166[ebp], eax
	mov	DWORD PTR __$EHRec$[ebp+8], 0
	mov	ecx, DWORD PTR _iClientID$142859[ebp]
	push	ecx
	mov	DWORD PTR __$EHRec$[ebp+8], -1
	call	DWORD PTR __imp_?PrintUserCmdText@@YAXIV?$basic_string@GU?$char_traits@G@std@@V?$allocator@G@2@@std@@ZZ
	add	esp, 36					; 00000024H
$LN1@ShowStanda:
; Line 186
	jmp	$LN4@ShowStanda
$LN3@ShowStanda:
; Line 187
	jmp	$LN7@ShowStanda
$LN10@ShowStanda:
; Line 188
	mov	ecx, DWORD PTR __$EHRec$[ebp]
	mov	DWORD PTR fs:0, ecx
	pop	ecx
	mov	esp, ebp
	pop	ebp
	ret	0
_TEXT	ENDS
text$x	SEGMENT
__unwindfunclet$?ShowStandardBanner@Message@@YAXXZ$0:
	mov	ecx, DWORD PTR $T152266[ebp]
	jmp	DWORD PTR __imp_??1?$basic_string@GU?$char_traits@G@std@@V?$allocator@G@2@@std@@QAE@XZ
__ehhandler$?ShowStandardBanner@Message@@YAXXZ:
	mov	edx, DWORD PTR [esp+8]
	lea	eax, DWORD PTR [edx+12]
	mov	ecx, DWORD PTR [edx-52]
	xor	ecx, eax
	call	@__security_check_cookie@4
	mov	eax, OFFSET __ehfuncinfo$?ShowStandardBanner@Message@@YAXXZ
	jmp	___CxxFrameHandler3
text$x	ENDS
?ShowStandardBanner@Message@@YAXXZ ENDP			; Message::ShowStandardBanner
PUBLIC	??Eiterator@?$_Tree@V?$_Tmap_traits@IVINFO@Message@@U?$less@I@std@@V?$allocator@U?$pair@$$CBIVINFO@Message@@@std@@@4@$0A@@std@@@std@@QAEAAV012@XZ ; std::_Tree<std::_Tmap_traits<unsigned int,Message::INFO,std::less<unsigned int>,std::allocator<std::pair<unsigned int const ,Message::INFO> >,0> >::iterator::operator++
PUBLIC	??Citerator@?$_Tree@V?$_Tmap_traits@IVINFO@Message@@U?$less@I@std@@V?$allocator@U?$pair@$$CBIVINFO@Message@@@std@@@4@$0A@@std@@@std@@QBEPAU?$pair@$$CBIVINFO@Message@@@2@XZ ; std::_Tree<std::_Tmap_traits<unsigned int,Message::INFO,std::less<unsigned int>,std::allocator<std::pair<unsigned int const ,Message::INFO> >,0> >::iterator::operator->
PUBLIC	??9const_iterator@?$_Tree@V?$_Tmap_traits@IVINFO@Message@@U?$less@I@std@@V?$allocator@U?$pair@$$CBIVINFO@Message@@@std@@@4@$0A@@std@@@std@@QBE_NABV012@@Z ; std::_Tree<std::_Tmap_traits<unsigned int,Message::INFO,std::less<unsigned int>,std::allocator<std::pair<unsigned int const ,Message::INFO> >,0> >::const_iterator::operator!=
PUBLIC	?end@?$_Tree@V?$_Tmap_traits@IVINFO@Message@@U?$less@I@std@@V?$allocator@U?$pair@$$CBIVINFO@Message@@@std@@@4@$0A@@std@@@std@@QAE?AViterator@12@XZ ; std::_Tree<std::_Tmap_traits<unsigned int,Message::INFO,std::less<unsigned int>,std::allocator<std::pair<unsigned int const ,Message::INFO> >,0> >::end
PUBLIC	?begin@?$_Tree@V?$_Tmap_traits@IVINFO@Message@@U?$less@I@std@@V?$allocator@U?$pair@$$CBIVINFO@Message@@@std@@@4@$0A@@std@@@std@@QAE?AViterator@12@XZ ; std::_Tree<std::_Tmap_traits<unsigned int,Message::INFO,std::less<unsigned int>,std::allocator<std::pair<unsigned int const ,Message::INFO> >,0> >::begin
PUBLIC	?DisConnect@Message@@YAXIW4EFLConnection@@@Z	; Message::DisConnect
; Function compile flags: /Odtp
_TEXT	SEGMENT
$T152274 = -16						; size = 8
_iter$ = -8						; size = 8
_iClientID$ = 8						; size = 4
_p2$ = 12						; size = 4
?DisConnect@Message@@YAXIW4EFLConnection@@@Z PROC	; Message::DisConnect
; Line 322
	push	ebp
	mov	ebp, esp
	sub	esp, 16					; 00000010H
; Line 323
	lea	eax, DWORD PTR _iter$[ebp]
	push	eax
	mov	ecx, OFFSET _mapInfo
	call	?begin@?$_Tree@V?$_Tmap_traits@IVINFO@Message@@U?$less@I@std@@V?$allocator@U?$pair@$$CBIVINFO@Message@@@std@@@4@$0A@@std@@@std@@QAE?AViterator@12@XZ ; std::_Tree<std::_Tmap_traits<unsigned int,Message::INFO,std::less<unsigned int>,std::allocator<std::pair<unsigned int const ,Message::INFO> >,0> >::begin
$LN4@DisConnect:
; Line 324
	lea	ecx, DWORD PTR $T152274[ebp]
	push	ecx
	mov	ecx, OFFSET _mapInfo
	call	?end@?$_Tree@V?$_Tmap_traits@IVINFO@Message@@U?$less@I@std@@V?$allocator@U?$pair@$$CBIVINFO@Message@@@std@@@4@$0A@@std@@@std@@QAE?AViterator@12@XZ ; std::_Tree<std::_Tmap_traits<unsigned int,Message::INFO,std::less<unsigned int>,std::allocator<std::pair<unsigned int const ,Message::INFO> >,0> >::end
	push	eax
	lea	ecx, DWORD PTR _iter$[ebp]
	call	??9const_iterator@?$_Tree@V?$_Tmap_traits@IVINFO@Message@@U?$less@I@std@@V?$allocator@U?$pair@$$CBIVINFO@Message@@@std@@@4@$0A@@std@@@std@@QBE_NABV012@@Z ; std::_Tree<std::_Tmap_traits<unsigned int,Message::INFO,std::less<unsigned int>,std::allocator<std::pair<unsigned int const ,Message::INFO> >,0> >::const_iterator::operator!=
	movzx	edx, al
	test	edx, edx
	je	SHORT $LN5@DisConnect
; Line 326
	lea	ecx, DWORD PTR _iter$[ebp]
	call	??Citerator@?$_Tree@V?$_Tmap_traits@IVINFO@Message@@U?$less@I@std@@V?$allocator@U?$pair@$$CBIVINFO@Message@@@std@@@4@$0A@@std@@@std@@QBEPAU?$pair@$$CBIVINFO@Message@@@2@XZ ; std::_Tree<std::_Tmap_traits<unsigned int,Message::INFO,std::less<unsigned int>,std::allocator<std::pair<unsigned int const ,Message::INFO> >,0> >::iterator::operator->
	mov	eax, DWORD PTR [eax+284]
	cmp	eax, DWORD PTR _iClientID$[ebp]
	jne	SHORT $LN2@DisConnect
; Line 327
	lea	ecx, DWORD PTR _iter$[ebp]
	call	??Citerator@?$_Tree@V?$_Tmap_traits@IVINFO@Message@@U?$less@I@std@@V?$allocator@U?$pair@$$CBIVINFO@Message@@@std@@@4@$0A@@std@@@std@@QBEPAU?$pair@$$CBIVINFO@Message@@@2@XZ ; std::_Tree<std::_Tmap_traits<unsigned int,Message::INFO,std::less<unsigned int>,std::allocator<std::pair<unsigned int const ,Message::INFO> >,0> >::iterator::operator->
	mov	DWORD PTR [eax+284], -1
$LN2@DisConnect:
; Line 328
	lea	ecx, DWORD PTR _iter$[ebp]
	call	??Citerator@?$_Tree@V?$_Tmap_traits@IVINFO@Message@@U?$less@I@std@@V?$allocator@U?$pair@$$CBIVINFO@Message@@@std@@@4@$0A@@std@@@std@@QBEPAU?$pair@$$CBIVINFO@Message@@@2@XZ ; std::_Tree<std::_Tmap_traits<unsigned int,Message::INFO,std::less<unsigned int>,std::allocator<std::pair<unsigned int const ,Message::INFO> >,0> >::iterator::operator->
	mov	ecx, DWORD PTR [eax+288]
	cmp	ecx, DWORD PTR _iClientID$[ebp]
	jne	SHORT $LN1@DisConnect
; Line 329
	lea	ecx, DWORD PTR _iter$[ebp]
	call	??Citerator@?$_Tree@V?$_Tmap_traits@IVINFO@Message@@U?$less@I@std@@V?$allocator@U?$pair@$$CBIVINFO@Message@@@std@@@4@$0A@@std@@@std@@QBEPAU?$pair@$$CBIVINFO@Message@@@2@XZ ; std::_Tree<std::_Tmap_traits<unsigned int,Message::INFO,std::less<unsigned int>,std::allocator<std::pair<unsigned int const ,Message::INFO> >,0> >::iterator::operator->
	mov	DWORD PTR [eax+288], -1
$LN1@DisConnect:
; Line 330
	lea	ecx, DWORD PTR _iter$[ebp]
	call	??Eiterator@?$_Tree@V?$_Tmap_traits@IVINFO@Message@@U?$less@I@std@@V?$allocator@U?$pair@$$CBIVINFO@Message@@@std@@@4@$0A@@std@@@std@@QAEAAV012@XZ ; std::_Tree<std::_Tmap_traits<unsigned int,Message::INFO,std::less<unsigned int>,std::allocator<std::pair<unsigned int const ,Message::INFO> >,0> >::iterator::operator++
; Line 331
	jmp	SHORT $LN4@DisConnect
$LN5@DisConnect:
; Line 332
	mov	esp, ebp
	pop	ebp
	ret	0
?DisConnect@Message@@YAXIW4EFLConnection@@@Z ENDP	; Message::DisConnect
_TEXT	ENDS
PUBLIC	?CharacterInfoReq@Message@@YAXI_N@Z		; Message::CharacterInfoReq
; Function compile flags: /Odtp
_TEXT	SEGMENT
$T152276 = -16						; size = 8
_iter$ = -8						; size = 8
_iClientID$ = 8						; size = 4
_p2$ = 12						; size = 1
?CharacterInfoReq@Message@@YAXI_N@Z PROC		; Message::CharacterInfoReq
; Line 336
	push	ebp
	mov	ebp, esp
	sub	esp, 16					; 00000010H
; Line 337
	lea	eax, DWORD PTR _iter$[ebp]
	push	eax
	mov	ecx, OFFSET _mapInfo
	call	?begin@?$_Tree@V?$_Tmap_traits@IVINFO@Message@@U?$less@I@std@@V?$allocator@U?$pair@$$CBIVINFO@Message@@@std@@@4@$0A@@std@@@std@@QAE?AViterator@12@XZ ; std::_Tree<std::_Tmap_traits<unsigned int,Message::INFO,std::less<unsigned int>,std::allocator<std::pair<unsigned int const ,Message::INFO> >,0> >::begin
$LN4@CharacterI:
; Line 338
	lea	ecx, DWORD PTR $T152276[ebp]
	push	ecx
	mov	ecx, OFFSET _mapInfo
	call	?end@?$_Tree@V?$_Tmap_traits@IVINFO@Message@@U?$less@I@std@@V?$allocator@U?$pair@$$CBIVINFO@Message@@@std@@@4@$0A@@std@@@std@@QAE?AViterator@12@XZ ; std::_Tree<std::_Tmap_traits<unsigned int,Message::INFO,std::less<unsigned int>,std::allocator<std::pair<unsigned int const ,Message::INFO> >,0> >::end
	push	eax
	lea	ecx, DWORD PTR _iter$[ebp]
	call	??9const_iterator@?$_Tree@V?$_Tmap_traits@IVINFO@Message@@U?$less@I@std@@V?$allocator@U?$pair@$$CBIVINFO@Message@@@std@@@4@$0A@@std@@@std@@QBE_NABV012@@Z ; std::_Tree<std::_Tmap_traits<unsigned int,Message::INFO,std::less<unsigned int>,std::allocator<std::pair<unsigned int const ,Message::INFO> >,0> >::const_iterator::operator!=
	movzx	edx, al
	test	edx, edx
	je	SHORT $LN5@CharacterI
; Line 340
	lea	ecx, DWORD PTR _iter$[ebp]
	call	??Citerator@?$_Tree@V?$_Tmap_traits@IVINFO@Message@@U?$less@I@std@@V?$allocator@U?$pair@$$CBIVINFO@Message@@@std@@@4@$0A@@std@@@std@@QBEPAU?$pair@$$CBIVINFO@Message@@@2@XZ ; std::_Tree<std::_Tmap_traits<unsigned int,Message::INFO,std::less<unsigned int>,std::allocator<std::pair<unsigned int const ,Message::INFO> >,0> >::iterator::operator->
	mov	eax, DWORD PTR [eax+284]
	cmp	eax, DWORD PTR _iClientID$[ebp]
	jne	SHORT $LN2@CharacterI
; Line 341
	lea	ecx, DWORD PTR _iter$[ebp]
	call	??Citerator@?$_Tree@V?$_Tmap_traits@IVINFO@Message@@U?$less@I@std@@V?$allocator@U?$pair@$$CBIVINFO@Message@@@std@@@4@$0A@@std@@@std@@QBEPAU?$pair@$$CBIVINFO@Message@@@2@XZ ; std::_Tree<std::_Tmap_traits<unsigned int,Message::INFO,std::less<unsigned int>,std::allocator<std::pair<unsigned int const ,Message::INFO> >,0> >::iterator::operator->
	mov	DWORD PTR [eax+284], -1
$LN2@CharacterI:
; Line 342
	lea	ecx, DWORD PTR _iter$[ebp]
	call	??Citerator@?$_Tree@V?$_Tmap_traits@IVINFO@Message@@U?$less@I@std@@V?$allocator@U?$pair@$$CBIVINFO@Message@@@std@@@4@$0A@@std@@@std@@QBEPAU?$pair@$$CBIVINFO@Message@@@2@XZ ; std::_Tree<std::_Tmap_traits<unsigned int,Message::INFO,std::less<unsigned int>,std::allocator<std::pair<unsigned int const ,Message::INFO> >,0> >::iterator::operator->
	mov	ecx, DWORD PTR [eax+288]
	cmp	ecx, DWORD PTR _iClientID$[ebp]
	jne	SHORT $LN1@CharacterI
; Line 343
	lea	ecx, DWORD PTR _iter$[ebp]
	call	??Citerator@?$_Tree@V?$_Tmap_traits@IVINFO@Message@@U?$less@I@std@@V?$allocator@U?$pair@$$CBIVINFO@Message@@@std@@@4@$0A@@std@@@std@@QBEPAU?$pair@$$CBIVINFO@Message@@@2@XZ ; std::_Tree<std::_Tmap_traits<unsigned int,Message::INFO,std::less<unsigned int>,std::allocator<std::pair<unsigned int const ,Message::INFO> >,0> >::iterator::operator->
	mov	DWORD PTR [eax+288], -1
$LN1@CharacterI:
; Line 344
	lea	ecx, DWORD PTR _iter$[ebp]
	call	??Eiterator@?$_Tree@V?$_Tmap_traits@IVINFO@Message@@U?$less@I@std@@V?$allocator@U?$pair@$$CBIVINFO@Message@@@std@@@4@$0A@@std@@@std@@QAEAAV012@XZ ; std::_Tree<std::_Tmap_traits<unsigned int,Message::INFO,std::less<unsigned int>,std::allocator<std::pair<unsigned int const ,Message::INFO> >,0> >::iterator::operator++
; Line 345
	jmp	SHORT $LN4@CharacterI
$LN5@CharacterI:
; Line 346
	mov	esp, ebp
	pop	ebp
	ret	0
?CharacterInfoReq@Message@@YAXI_N@Z ENDP		; Message::CharacterInfoReq
_TEXT	ENDS
PUBLIC	?PlayerLaunch@Message@@YAXII@Z			; Message::PlayerLaunch
EXTRN	?MailCheckLog@Mail@@YAXABV?$basic_string@GU?$char_traits@G@std@@V?$allocator@G@2@@std@@ABV?$basic_string@DU?$char_traits@D@std@@V?$allocator@D@2@@3@@Z:PROC ; Mail::MailCheckLog
EXTRN	__imp_?GetActiveCharacterName@PlayerDB@@QBEPBGI@Z:PROC
xdata$x	SEGMENT
__unwindtable$?PlayerLaunch@Message@@YAXII@Z DD 0ffffffffH
	DD	FLAT:__unwindfunclet$?PlayerLaunch@Message@@YAXII@Z$0
__ehfuncinfo$?PlayerLaunch@Message@@YAXII@Z DD 019930522H
	DD	01H
	DD	FLAT:__unwindtable$?PlayerLaunch@Message@@YAXII@Z
	DD	2 DUP(00H)
	DD	2 DUP(00H)
	DD	00H
	DD	00H
; Function compile flags: /Odtp
xdata$x	ENDS
_TEXT	SEGMENT
$T152278 = -40						; size = 28
__$EHRec$ = -12						; size = 12
_iShip$ = 8						; size = 4
_iClientID$ = 12					; size = 4
?PlayerLaunch@Message@@YAXII@Z PROC			; Message::PlayerLaunch
; Line 350
	push	ebp
	mov	ebp, esp
	push	-1
	push	__ehhandler$?PlayerLaunch@Message@@YAXII@Z
	mov	eax, DWORD PTR fs:0
	push	eax
	sub	esp, 28					; 0000001cH
	mov	eax, DWORD PTR ___security_cookie
	xor	eax, ebp
	push	eax
	lea	eax, DWORD PTR __$EHRec$[ebp]
	mov	DWORD PTR fs:0, eax
; Line 351
	mov	eax, DWORD PTR _iClientID$[ebp]
	push	eax
	call	?LoadMsgs@Message@@YAXI@Z		; Message::LoadMsgs
	add	esp, 4
; Line 352
	mov	ecx, DWORD PTR _iClientID$[ebp]
	push	ecx
	call	?ShowGreetingBanner@Message@@YAXH@Z	; Message::ShowGreetingBanner
	add	esp, 4
; Line 353
	mov	edx, DWORD PTR _iClientID$[ebp]
	push	edx
	mov	ecx, DWORD PTR __imp_?Players@@3VPlayerDB@@A
	call	DWORD PTR __imp_?GetActiveCharacterName@PlayerDB@@QBEPBGI@Z
	push	eax
	lea	ecx, DWORD PTR $T152278[ebp]
	call	DWORD PTR __imp_??0?$basic_string@GU?$char_traits@G@std@@V?$allocator@G@2@@std@@QAE@PBG@Z
	mov	DWORD PTR __$EHRec$[ebp+8], 0
	push	OFFSET _MSG_LOG
	lea	eax, DWORD PTR $T152278[ebp]
	push	eax
	call	?MailCheckLog@Mail@@YAXABV?$basic_string@GU?$char_traits@G@std@@V?$allocator@G@2@@std@@ABV?$basic_string@DU?$char_traits@D@std@@V?$allocator@D@2@@3@@Z ; Mail::MailCheckLog
	add	esp, 8
	mov	DWORD PTR __$EHRec$[ebp+8], -1
	lea	ecx, DWORD PTR $T152278[ebp]
	call	DWORD PTR __imp_??1?$basic_string@GU?$char_traits@G@std@@V?$allocator@G@2@@std@@QAE@XZ
; Line 354
	mov	ecx, DWORD PTR __$EHRec$[ebp]
	mov	DWORD PTR fs:0, ecx
	pop	ecx
	mov	esp, ebp
	pop	ebp
	ret	0
_TEXT	ENDS
text$x	SEGMENT
__unwindfunclet$?PlayerLaunch@Message@@YAXII@Z$0:
	lea	ecx, DWORD PTR $T152278[ebp]
	jmp	DWORD PTR __imp_??1?$basic_string@GU?$char_traits@G@std@@V?$allocator@G@2@@std@@QAE@XZ
__ehhandler$?PlayerLaunch@Message@@YAXII@Z:
	mov	edx, DWORD PTR [esp+8]
	lea	eax, DWORD PTR [edx+12]
	mov	ecx, DWORD PTR [edx-32]
	xor	ecx, eax
	call	@__security_check_cookie@4
	mov	eax, OFFSET __ehfuncinfo$?PlayerLaunch@Message@@YAXII@Z
	jmp	___CxxFrameHandler3
text$x	ENDS
?PlayerLaunch@Message@@YAXII@Z ENDP			; Message::PlayerLaunch
xdata$x	SEGMENT
__unwindtable$?ShowGreetingBanner@Message@@YAXH@Z DD 0ffffffffH
	DD	FLAT:__unwindfunclet$?ShowGreetingBanner@Message@@YAXH@Z$0
__ehfuncinfo$?ShowGreetingBanner@Message@@YAXH@Z DD 019930522H
	DD	01H
	DD	FLAT:__unwindtable$?ShowGreetingBanner@Message@@YAXH@Z
	DD	2 DUP(00H)
	DD	2 DUP(00H)
	DD	00H
	DD	00H
; Function compile flags: /Odtp
xdata$x	ENDS
_TEXT	SEGMENT
tv160 = -56						; size = 4
tv161 = -52						; size = 4
$T152289 = -48						; size = 4
$T152288 = -44						; size = 8
$T152287 = -36						; size = 8
$T152286 = -28						; size = 4
$T152285 = -24						; size = 4
_iter$142809 = -20					; size = 8
__$EHRec$ = -12						; size = 12
_iClientID$ = 8						; size = 4
?ShowGreetingBanner@Message@@YAXH@Z PROC		; Message::ShowGreetingBanner
; Line 132
	push	ebp
	mov	ebp, esp
	push	-1
	push	__ehhandler$?ShowGreetingBanner@Message@@YAXH@Z
	mov	eax, DWORD PTR fs:0
	push	eax
	sub	esp, 44					; 0000002cH
	mov	eax, DWORD PTR ___security_cookie
	xor	eax, ebp
	push	eax
	lea	eax, DWORD PTR __$EHRec$[ebp]
	mov	DWORD PTR fs:0, eax
; Line 133
	mov	eax, DWORD PTR _iClientID$[ebp]
	mov	DWORD PTR $T152285[ebp], eax
	lea	ecx, DWORD PTR $T152285[ebp]
	push	ecx
	mov	ecx, OFFSET _mapInfo
	call	??A?$map@IVINFO@Message@@U?$less@I@std@@V?$allocator@U?$pair@$$CBIVINFO@Message@@@std@@@4@@std@@QAEAAVINFO@Message@@ABI@Z ; std::map<unsigned int,Message::INFO,std::less<unsigned int>,std::allocator<std::pair<unsigned int const ,Message::INFO> > >::operator[]
	movzx	edx, BYTE PTR [eax+289]
	test	edx, edx
	jne	$LN7@ShowGreeti
; Line 135
	mov	eax, DWORD PTR _iClientID$[ebp]
	mov	DWORD PTR $T152286[ebp], eax
	lea	ecx, DWORD PTR $T152286[ebp]
	push	ecx
	mov	ecx, OFFSET _mapInfo
	call	??A?$map@IVINFO@Message@@U?$less@I@std@@V?$allocator@U?$pair@$$CBIVINFO@Message@@@std@@@4@@std@@QAEAAVINFO@Message@@ABI@Z ; std::map<unsigned int,Message::INFO,std::less<unsigned int>,std::allocator<std::pair<unsigned int const ,Message::INFO> > >::operator[]
	mov	BYTE PTR [eax+289], 1
; Line 136
	lea	edx, DWORD PTR _iter$142809[ebp]
	push	edx
	mov	ecx, OFFSET _set_lstGreetingBannerLines
	call	?begin@?$list@V?$basic_string@GU?$char_traits@G@std@@V?$allocator@G@2@@std@@V?$allocator@V?$basic_string@GU?$char_traits@G@std@@V?$allocator@G@2@@std@@@2@@std@@QAE?AV?$_Iterator@$00@12@XZ ; std::list<std::basic_string<unsigned short,std::char_traits<unsigned short>,std::allocator<unsigned short> >,std::allocator<std::basic_string<unsigned short,std::char_traits<unsigned short>,std::allocator<unsigned short> > > >::begin
	jmp	SHORT $LN5@ShowGreeti
$LN4@ShowGreeti:
	push	0
	lea	eax, DWORD PTR $T152287[ebp]
	push	eax
	lea	ecx, DWORD PTR _iter$142809[ebp]
	call	??E?$_Iterator@$00@?$list@V?$basic_string@GU?$char_traits@G@std@@V?$allocator@G@2@@std@@V?$allocator@V?$basic_string@GU?$char_traits@G@std@@V?$allocator@G@2@@std@@@2@@std@@QAE?AV012@H@Z ; std::list<std::basic_string<unsigned short,std::char_traits<unsigned short>,std::allocator<unsigned short> >,std::allocator<std::basic_string<unsigned short,std::char_traits<unsigned short>,std::allocator<unsigned short> > > >::_Iterator<1>::operator++
$LN5@ShowGreeti:
	lea	ecx, DWORD PTR $T152288[ebp]
	push	ecx
	mov	ecx, OFFSET _set_lstGreetingBannerLines
	call	?end@?$list@V?$basic_string@GU?$char_traits@G@std@@V?$allocator@G@2@@std@@V?$allocator@V?$basic_string@GU?$char_traits@G@std@@V?$allocator@G@2@@std@@@2@@std@@QAE?AV?$_Iterator@$00@12@XZ ; std::list<std::basic_string<unsigned short,std::char_traits<unsigned short>,std::allocator<unsigned short> >,std::allocator<std::basic_string<unsigned short,std::char_traits<unsigned short>,std::allocator<unsigned short> > > >::end
	push	eax
	lea	ecx, DWORD PTR _iter$142809[ebp]
	call	??9?$_Const_iterator@$00@?$list@V?$basic_string@GU?$char_traits@G@std@@V?$allocator@G@2@@std@@V?$allocator@V?$basic_string@GU?$char_traits@G@std@@V?$allocator@G@2@@std@@@2@@std@@QBE_NABV012@@Z ; std::list<std::basic_string<unsigned short,std::char_traits<unsigned short>,std::allocator<unsigned short> >,std::allocator<std::basic_string<unsigned short,std::char_traits<unsigned short>,std::allocator<unsigned short> > > >::_Const_iterator<1>::operator!=
	movzx	edx, al
	test	edx, edx
	je	$LN7@ShowGreeti
; Line 138
	push	0
	push	OFFSET $SG142817
	lea	ecx, DWORD PTR _iter$142809[ebp]
	call	??C?$_Iterator@$00@?$list@V?$basic_string@GU?$char_traits@G@std@@V?$allocator@G@2@@std@@V?$allocator@V?$basic_string@GU?$char_traits@G@std@@V?$allocator@G@2@@std@@@2@@std@@QBEPAV?$basic_string@GU?$char_traits@G@std@@V?$allocator@G@2@@2@XZ ; std::list<std::basic_string<unsigned short,std::char_traits<unsigned short>,std::allocator<unsigned short> >,std::allocator<std::basic_string<unsigned short,std::char_traits<unsigned short>,std::allocator<unsigned short> > > >::_Iterator<1>::operator->
	mov	ecx, eax
	call	DWORD PTR __imp_?find@?$basic_string@GU?$char_traits@G@std@@V?$allocator@G@2@@std@@QBEIPBGI@Z
	test	eax, eax
	jne	SHORT $LN2@ShowGreeti
; Line 139
	lea	ecx, DWORD PTR _iter$142809[ebp]
	call	??D?$_Iterator@$00@?$list@V?$basic_string@GU?$char_traits@G@std@@V?$allocator@G@2@@std@@V?$allocator@V?$basic_string@GU?$char_traits@G@std@@V?$allocator@G@2@@std@@@2@@std@@QBEAAV?$basic_string@GU?$char_traits@G@std@@V?$allocator@G@2@@2@XZ ; std::list<std::basic_string<unsigned short,std::char_traits<unsigned short>,std::allocator<unsigned short> >,std::allocator<std::basic_string<unsigned short,std::char_traits<unsigned short>,std::allocator<unsigned short> > > >::_Iterator<1>::operator*
	push	eax
	mov	eax, DWORD PTR _iClientID$[ebp]
	push	eax
	call	DWORD PTR __imp_?HkFMsg@@YA?AW4HK_ERROR@@IABV?$basic_string@GU?$char_traits@G@std@@V?$allocator@G@2@@std@@@Z
	add	esp, 8
; Line 140
	jmp	SHORT $LN1@ShowGreeti
$LN2@ShowGreeti:
; Line 141
	lea	ecx, DWORD PTR _iter$142809[ebp]
	call	??C?$_Iterator@$00@?$list@V?$basic_string@GU?$char_traits@G@std@@V?$allocator@G@2@@std@@V?$allocator@V?$basic_string@GU?$char_traits@G@std@@V?$allocator@G@2@@std@@@2@@std@@QBEPAV?$basic_string@GU?$char_traits@G@std@@V?$allocator@G@2@@2@XZ ; std::list<std::basic_string<unsigned short,std::char_traits<unsigned short>,std::allocator<unsigned short> >,std::allocator<std::basic_string<unsigned short,std::char_traits<unsigned short>,std::allocator<unsigned short> > > >::_Iterator<1>::operator->
	mov	ecx, eax
	call	DWORD PTR __imp_?c_str@?$basic_string@GU?$char_traits@G@std@@V?$allocator@G@2@@std@@QBEPBGXZ
	push	eax
	sub	esp, 28					; 0000001cH
	mov	ecx, esp
	mov	DWORD PTR $T152289[ebp], esp
	push	OFFSET $SG142820
	call	DWORD PTR __imp_??0?$basic_string@GU?$char_traits@G@std@@V?$allocator@G@2@@std@@QAE@PBG@Z
	mov	DWORD PTR tv161[ebp], eax
	mov	ecx, DWORD PTR tv161[ebp]
	mov	DWORD PTR tv160[ebp], ecx
	mov	DWORD PTR __$EHRec$[ebp+8], 0
	mov	edx, DWORD PTR _iClientID$[ebp]
	push	edx
	mov	DWORD PTR __$EHRec$[ebp+8], -1
	call	DWORD PTR __imp_?PrintUserCmdText@@YAXIV?$basic_string@GU?$char_traits@G@std@@V?$allocator@G@2@@std@@ZZ
	add	esp, 36					; 00000024H
$LN1@ShowGreeti:
; Line 142
	jmp	$LN4@ShowGreeti
$LN7@ShowGreeti:
; Line 144
	mov	ecx, DWORD PTR __$EHRec$[ebp]
	mov	DWORD PTR fs:0, ecx
	pop	ecx
	mov	esp, ebp
	pop	ebp
	ret	0
_TEXT	ENDS
text$x	SEGMENT
__unwindfunclet$?ShowGreetingBanner@Message@@YAXH@Z$0:
	mov	ecx, DWORD PTR $T152289[ebp]
	jmp	DWORD PTR __imp_??1?$basic_string@GU?$char_traits@G@std@@V?$allocator@G@2@@std@@QAE@XZ
__ehhandler$?ShowGreetingBanner@Message@@YAXH@Z:
	mov	edx, DWORD PTR [esp+8]
	lea	eax, DWORD PTR [edx+12]
	mov	ecx, DWORD PTR [edx-48]
	xor	ecx, eax
	call	@__security_check_cookie@4
	mov	eax, OFFSET __ehfuncinfo$?ShowGreetingBanner@Message@@YAXH@Z
	jmp	___CxxFrameHandler3
text$x	ENDS
?ShowGreetingBanner@Message@@YAXH@Z ENDP		; Message::ShowGreetingBanner
PUBLIC	?BaseEnter@Message@@YAXII@Z			; Message::BaseEnter
xdata$x	SEGMENT
__unwindtable$?BaseEnter@Message@@YAXII@Z DD 0ffffffffH
	DD	FLAT:__unwindfunclet$?BaseEnter@Message@@YAXII@Z$0
__ehfuncinfo$?BaseEnter@Message@@YAXII@Z DD 019930522H
	DD	01H
	DD	FLAT:__unwindtable$?BaseEnter@Message@@YAXII@Z
	DD	2 DUP(00H)
	DD	2 DUP(00H)
	DD	00H
	DD	00H
; Function compile flags: /Odtp
xdata$x	ENDS
_TEXT	SEGMENT
$T152296 = -40						; size = 28
__$EHRec$ = -12						; size = 12
_iBaseID$ = 8						; size = 4
_iClientID$ = 12					; size = 4
?BaseEnter@Message@@YAXII@Z PROC			; Message::BaseEnter
; Line 358
	push	ebp
	mov	ebp, esp
	push	-1
	push	__ehhandler$?BaseEnter@Message@@YAXII@Z
	mov	eax, DWORD PTR fs:0
	push	eax
	sub	esp, 28					; 0000001cH
	mov	eax, DWORD PTR ___security_cookie
	xor	eax, ebp
	push	eax
	lea	eax, DWORD PTR __$EHRec$[ebp]
	mov	DWORD PTR fs:0, eax
; Line 359
	mov	eax, DWORD PTR _iClientID$[ebp]
	push	eax
	call	?LoadMsgs@Message@@YAXI@Z		; Message::LoadMsgs
	add	esp, 4
; Line 360
	mov	ecx, DWORD PTR _iClientID$[ebp]
	push	ecx
	call	?ShowGreetingBanner@Message@@YAXH@Z	; Message::ShowGreetingBanner
	add	esp, 4
; Line 361
	mov	edx, DWORD PTR _iClientID$[ebp]
	push	edx
	mov	ecx, DWORD PTR __imp_?Players@@3VPlayerDB@@A
	call	DWORD PTR __imp_?GetActiveCharacterName@PlayerDB@@QBEPBGI@Z
	push	eax
	lea	ecx, DWORD PTR $T152296[ebp]
	call	DWORD PTR __imp_??0?$basic_string@GU?$char_traits@G@std@@V?$allocator@G@2@@std@@QAE@PBG@Z
	mov	DWORD PTR __$EHRec$[ebp+8], 0
	push	OFFSET _MSG_LOG
	lea	eax, DWORD PTR $T152296[ebp]
	push	eax
	call	?MailCheckLog@Mail@@YAXABV?$basic_string@GU?$char_traits@G@std@@V?$allocator@G@2@@std@@ABV?$basic_string@DU?$char_traits@D@std@@V?$allocator@D@2@@3@@Z ; Mail::MailCheckLog
	add	esp, 8
	mov	DWORD PTR __$EHRec$[ebp+8], -1
	lea	ecx, DWORD PTR $T152296[ebp]
	call	DWORD PTR __imp_??1?$basic_string@GU?$char_traits@G@std@@V?$allocator@G@2@@std@@QAE@XZ
; Line 362
	mov	ecx, DWORD PTR __$EHRec$[ebp]
	mov	DWORD PTR fs:0, ecx
	pop	ecx
	mov	esp, ebp
	pop	ebp
	ret	0
_TEXT	ENDS
text$x	SEGMENT
__unwindfunclet$?BaseEnter@Message@@YAXII@Z$0:
	lea	ecx, DWORD PTR $T152296[ebp]
	jmp	DWORD PTR __imp_??1?$basic_string@GU?$char_traits@G@std@@V?$allocator@G@2@@std@@QAE@XZ
__ehhandler$?BaseEnter@Message@@YAXII@Z:
	mov	edx, DWORD PTR [esp+8]
	lea	eax, DWORD PTR [edx+12]
	mov	ecx, DWORD PTR [edx-32]
	xor	ecx, eax
	call	@__security_check_cookie@4
	mov	eax, OFFSET __ehfuncinfo$?BaseEnter@Message@@YAXII@Z
	jmp	___CxxFrameHandler3
text$x	ENDS
?BaseEnter@Message@@YAXII@Z ENDP			; Message::BaseEnter
PUBLIC	?find@?$_Tree@V?$_Tmap_traits@IVINFO@Message@@U?$less@I@std@@V?$allocator@U?$pair@$$CBIVINFO@Message@@@std@@@4@$0A@@std@@@std@@QAE?AViterator@12@ABI@Z ; std::_Tree<std::_Tmap_traits<unsigned int,Message::INFO,std::less<unsigned int>,std::allocator<std::pair<unsigned int const ,Message::INFO> >,0> >::find
PUBLIC	?SetTarget@Message@@YAXIABUXSetTarget@@@Z	; Message::SetTarget
EXTRN	__imp_?HkGetClientIDByShip@@YAII@Z:PROC
; Function compile flags: /Odtp
_TEXT	SEGMENT
$T152303 = -20						; size = 8
_iter$143890 = -12					; size = 8
_uTargetClientID$ = -4					; size = 4
_uClientID$ = 8						; size = 4
_p2$ = 12						; size = 4
?SetTarget@Message@@YAXIABUXSetTarget@@@Z PROC		; Message::SetTarget
; Line 367
	push	ebp
	mov	ebp, esp
	sub	esp, 20					; 00000014H
; Line 371
	mov	eax, DWORD PTR _p2$[ebp]
	mov	ecx, DWORD PTR [eax+8]
	push	ecx
	call	DWORD PTR __imp_?HkGetClientIDByShip@@YAII@Z
	add	esp, 4
	mov	DWORD PTR _uTargetClientID$[ebp], eax
; Line 372
	cmp	DWORD PTR _uTargetClientID$[ebp], 0
	je	SHORT $LN3@SetTarget
; Line 374
	lea	edx, DWORD PTR _uClientID$[ebp]
	push	edx
	lea	eax, DWORD PTR _iter$143890[ebp]
	push	eax
	mov	ecx, OFFSET _mapInfo
	call	?find@?$_Tree@V?$_Tmap_traits@IVINFO@Message@@U?$less@I@std@@V?$allocator@U?$pair@$$CBIVINFO@Message@@@std@@@4@$0A@@std@@@std@@QAE?AViterator@12@ABI@Z ; std::_Tree<std::_Tmap_traits<unsigned int,Message::INFO,std::less<unsigned int>,std::allocator<std::pair<unsigned int const ,Message::INFO> >,0> >::find
; Line 375
	lea	ecx, DWORD PTR $T152303[ebp]
	push	ecx
	mov	ecx, OFFSET _mapInfo
	call	?end@?$_Tree@V?$_Tmap_traits@IVINFO@Message@@U?$less@I@std@@V?$allocator@U?$pair@$$CBIVINFO@Message@@@std@@@4@$0A@@std@@@std@@QAE?AViterator@12@XZ ; std::_Tree<std::_Tmap_traits<unsigned int,Message::INFO,std::less<unsigned int>,std::allocator<std::pair<unsigned int const ,Message::INFO> >,0> >::end
	push	eax
	lea	ecx, DWORD PTR _iter$143890[ebp]
	call	??9const_iterator@?$_Tree@V?$_Tmap_traits@IVINFO@Message@@U?$less@I@std@@V?$allocator@U?$pair@$$CBIVINFO@Message@@@std@@@4@$0A@@std@@@std@@QBE_NABV012@@Z ; std::_Tree<std::_Tmap_traits<unsigned int,Message::INFO,std::less<unsigned int>,std::allocator<std::pair<unsigned int const ,Message::INFO> >,0> >::const_iterator::operator!=
	movzx	edx, al
	test	edx, edx
	je	SHORT $LN3@SetTarget
; Line 377
	lea	ecx, DWORD PTR _iter$143890[ebp]
	call	??Citerator@?$_Tree@V?$_Tmap_traits@IVINFO@Message@@U?$less@I@std@@V?$allocator@U?$pair@$$CBIVINFO@Message@@@std@@@4@$0A@@std@@@std@@QBEPAU?$pair@$$CBIVINFO@Message@@@2@XZ ; std::_Tree<std::_Tmap_traits<unsigned int,Message::INFO,std::less<unsigned int>,std::allocator<std::pair<unsigned int const ,Message::INFO> >,0> >::iterator::operator->
	mov	ecx, DWORD PTR _uTargetClientID$[ebp]
	mov	DWORD PTR [eax+288], ecx
$LN3@SetTarget:
; Line 380
	mov	esp, ebp
	pop	ebp
	ret	0
?SetTarget@Message@@YAXIABUXSetTarget@@@Z ENDP		; Message::SetTarget
_TEXT	ENDS
PUBLIC	__real@0000000000000000
PUBLIC	__$ArrayPad$
PUBLIC	?SubmitChat@Message@@YA_NUCHAT_ID@@KPBX0H@Z	; Message::SubmitChat
EXTRN	?PrintLocalUserCmdText@@YAXIABV?$basic_string@GU?$char_traits@G@std@@V?$allocator@G@2@@std@@M@Z:PROC ; PrintLocalUserCmdText
EXTRN	?GetTimeString@@YA?AV?$basic_string@GU?$char_traits@G@std@@V?$allocator@G@2@@std@@_N@Z:PROC ; GetTimeString
EXTRN	?set_bLocalTime@@3_NA:BYTE			; set_bLocalTime
EXTRN	__imp_??0?$basic_string@GU?$char_traits@G@std@@V?$allocator@G@2@@std@@QAE@ABV01@@Z:PROC
EXTRN	?HkDelayedKick@@YAXII@Z:PROC			; HkDelayedKick
EXTRN	?HkTempBan@@YAXII@Z:PROC			; HkTempBan
EXTRN	__imp_?AddLog@@YAXPBDZZ:PROC
EXTRN	__imp_?HkGetAccountID@@YA?AV?$basic_string@GU?$char_traits@G@std@@V?$allocator@G@2@@std@@PAVCAccount@@@Z:PROC
EXTRN	__imp_?HkGetAccountByCharname@@YAPAVCAccount@@ABV?$basic_string@GU?$char_traits@G@std@@V?$allocator@G@2@@std@@@Z:PROC
EXTRN	__imp_?wstos@@YA?AV?$basic_string@DU?$char_traits@D@std@@V?$allocator@D@2@@std@@ABV?$basic_string@GU?$char_traits@G@std@@V?$allocator@G@2@@2@@Z:PROC
EXTRN	__imp_?find@?$basic_string@GU?$char_traits@G@std@@V?$allocator@G@2@@std@@QBEIABV12@I@Z:PROC
EXTRN	__imp_?ToLower@@YA?AV?$basic_string@GU?$char_traits@G@std@@V?$allocator@G@2@@std@@ABV12@@Z:PROC
EXTRN	__imp_?extract_text_from_buffer@BinaryRDLReader@@UAE_NPAGIAAIPBDI@Z:PROC
EXTRN	__imp_??0BinaryRDLReader@@QAE@XZ:PROC
;	COMDAT __real@0000000000000000
CONST	SEGMENT
__real@0000000000000000 DQ 00000000000000000r	; 0
CONST	ENDS
xdata$x	SEGMENT
__ehfuncinfo$?SubmitChat@Message@@YA_NUCHAT_ID@@KPBX0H@Z DD 019930522H
	DD	010H
	DD	FLAT:__unwindtable$?SubmitChat@Message@@YA_NUCHAT_ID@@KPBX0H@Z
	DD	2 DUP(00H)
	DD	2 DUP(00H)
	DD	00H
	DD	00H
__unwindtable$?SubmitChat@Message@@YA_NUCHAT_ID@@KPBX0H@Z DD 0ffffffffH
	DD	FLAT:__unwindfunclet$?SubmitChat@Message@@YA_NUCHAT_ID@@KPBX0H@Z$0
	DD	00H
	DD	FLAT:__unwindfunclet$?SubmitChat@Message@@YA_NUCHAT_ID@@KPBX0H@Z$1
	DD	0ffffffffH
	DD	FLAT:__unwindfunclet$?SubmitChat@Message@@YA_NUCHAT_ID@@KPBX0H@Z$1
	DD	02H
	DD	FLAT:__unwindfunclet$?SubmitChat@Message@@YA_NUCHAT_ID@@KPBX0H@Z$2
	DD	02H
	DD	FLAT:__unwindfunclet$?SubmitChat@Message@@YA_NUCHAT_ID@@KPBX0H@Z$3
	DD	02H
	DD	FLAT:__unwindfunclet$?SubmitChat@Message@@YA_NUCHAT_ID@@KPBX0H@Z$4
	DD	05H
	DD	FLAT:__unwindfunclet$?SubmitChat@Message@@YA_NUCHAT_ID@@KPBX0H@Z$5
	DD	06H
	DD	FLAT:__unwindfunclet$?SubmitChat@Message@@YA_NUCHAT_ID@@KPBX0H@Z$6
	DD	07H
	DD	FLAT:__unwindfunclet$?SubmitChat@Message@@YA_NUCHAT_ID@@KPBX0H@Z$7
	DD	08H
	DD	FLAT:__unwindfunclet$?SubmitChat@Message@@YA_NUCHAT_ID@@KPBX0H@Z$8
	DD	05H
	DD	FLAT:__unwindfunclet$?SubmitChat@Message@@YA_NUCHAT_ID@@KPBX0H@Z$9
	DD	0aH
	DD	FLAT:__unwindfunclet$?SubmitChat@Message@@YA_NUCHAT_ID@@KPBX0H@Z$10
	DD	0bH
	DD	FLAT:__unwindfunclet$?SubmitChat@Message@@YA_NUCHAT_ID@@KPBX0H@Z$11
	DD	0cH
	DD	FLAT:__unwindfunclet$?SubmitChat@Message@@YA_NUCHAT_ID@@KPBX0H@Z$12
	DD	0aH
	DD	FLAT:__unwindfunclet$?SubmitChat@Message@@YA_NUCHAT_ID@@KPBX0H@Z$13
	DD	0eH
	DD	FLAT:__unwindfunclet$?SubmitChat@Message@@YA_NUCHAT_ID@@KPBX0H@Z$14
; Function compile flags: /Odtp
xdata$x	ENDS
_TEXT	SEGMENT
tv368 = -3616						; size = 4
tv268 = -3612						; size = 4
tv365 = -3608						; size = 4
tv242 = -3604						; size = 4
tv363 = -3600						; size = 4
tv255 = -3596						; size = 4
tv359 = -3592						; size = 4
tv375 = -3588						; size = 4
tv357 = -3584						; size = 4
tv374 = -3580						; size = 4
tv355 = -3576						; size = 4
tv373 = -3572						; size = 4
tv353 = -3568						; size = 4
tv197 = -3564						; size = 4
tv189 = -3560						; size = 4
tv318 = -3556						; size = 4
tv371 = -3552						; size = 4
tv316 = -3548						; size = 4
tv67 = -3544						; size = 4
tv91 = -3540						; size = 4
$T152325 = -3533					; size = 1
$T152324 = -3532					; size = 8
$T152323 = -3524					; size = 4
$T152322 = -3517					; size = 1
$T152321 = -3516					; size = 28
$T152320 = -3488					; size = 28
$T152319 = -3460					; size = 28
$T152318 = -3432					; size = 28
$T152317 = -3404					; size = 28
$T152316 = -3376					; size = 28
$T152315 = -3348					; size = 28
$T152314 = -3320					; size = 28
$T152313 = -3292					; size = 28
$T152312 = -3264					; size = 4
$T152311 = -3260					; size = 4
$T152310 = -3256					; size = 8
$T152309 = -3248					; size = 8
$T152306 = -3240					; size = 28
_iter$143962 = -3212					; size = 8
_wscMsg$143939 = -3204					; size = 28
_wscCharname$143932 = -3176				; size = 28
_worditer$143919 = -3148				; size = 8
_iClientID$ = -3140					; size = 4
_wscChatMsg$ = -3136					; size = 28
_bIsGroup$ = -3105					; size = 1
_iRet1$ = -3104						; size = 4
_wszBuf$ = -3100					; size = 2048
_rdl$ = -1052						; size = 1028
__$ArrayPad$ = -16					; size = 4
__$EHRec$ = -12						; size = 12
_cId$ = 8						; size = 4
_iSize$ = 12						; size = 4
_rdlReader$ = 16					; size = 4
_cIdTo$ = 20						; size = 4
_p2$ = 24						; size = 4
?SubmitChat@Message@@YA_NUCHAT_ID@@KPBX0H@Z PROC	; Message::SubmitChat
; Line 383
	push	ebp
	mov	ebp, esp
	push	-1
	push	__ehhandler$?SubmitChat@Message@@YA_NUCHAT_ID@@KPBX0H@Z
	mov	eax, DWORD PTR fs:0
	push	eax
	sub	esp, 3604				; 00000e14H
	mov	eax, DWORD PTR ___security_cookie
	xor	eax, ebp
	mov	DWORD PTR __$ArrayPad$[ebp], eax
	push	eax
	lea	eax, DWORD PTR __$EHRec$[ebp]
	mov	DWORD PTR fs:0, eax
; Line 385
	cmp	DWORD PTR _cIdTo$[ebp], 65540		; 00010004H
	jne	SHORT $LN10@SubmitChat
; Line 386
	xor	al, al
	jmp	$LN11@SubmitChat
$LN10@SubmitChat:
; Line 389
	lea	ecx, DWORD PTR _rdl$[ebp]
	call	DWORD PTR __imp_??0BinaryRDLReader@@QAE@XZ
; Line 392
	mov	eax, DWORD PTR _iSize$[ebp]
	push	eax
	mov	ecx, DWORD PTR _rdlReader$[ebp]
	push	ecx
	lea	edx, DWORD PTR _iRet1$[ebp]
	push	edx
	push	2048					; 00000800H
	lea	eax, DWORD PTR _wszBuf$[ebp]
	push	eax
	lea	ecx, DWORD PTR _rdl$[ebp]
	call	DWORD PTR __imp_?extract_text_from_buffer@BinaryRDLReader@@UAE_NPAGIAAIPBDI@Z
; Line 394
	lea	ecx, DWORD PTR _wszBuf$[ebp]
	push	ecx
	lea	ecx, DWORD PTR $T152306[ebp]
	call	DWORD PTR __imp_??0?$basic_string@GU?$char_traits@G@std@@V?$allocator@G@2@@std@@QAE@PBG@Z
	mov	DWORD PTR __$EHRec$[ebp+8], 0
	lea	edx, DWORD PTR $T152306[ebp]
	push	edx
	lea	eax, DWORD PTR _wscChatMsg$[ebp]
	push	eax
	call	DWORD PTR __imp_?ToLower@@YA?AV?$basic_string@GU?$char_traits@G@std@@V?$allocator@G@2@@std@@ABV12@@Z
	add	esp, 8
	mov	BYTE PTR __$EHRec$[ebp+8], 2
	lea	ecx, DWORD PTR $T152306[ebp]
	call	DWORD PTR __imp_??1?$basic_string@GU?$char_traits@G@std@@V?$allocator@G@2@@std@@QAE@XZ
; Line 395
	mov	ecx, DWORD PTR _cId$[ebp]
	mov	DWORD PTR _iClientID$[ebp], ecx
; Line 397
	cmp	DWORD PTR _cIdTo$[ebp], 65539		; 00010003H
	je	SHORT $LN13@SubmitChat
	push	0
	push	OFFSET $SG143912
	lea	ecx, DWORD PTR _wscChatMsg$[ebp]
	call	DWORD PTR __imp_?find@?$basic_string@GU?$char_traits@G@std@@V?$allocator@G@2@@std@@QBEIPBGI@Z
	test	eax, eax
	je	SHORT $LN13@SubmitChat
	push	0
	push	OFFSET $SG143913
	lea	ecx, DWORD PTR _wscChatMsg$[ebp]
	call	DWORD PTR __imp_?find@?$basic_string@GU?$char_traits@G@std@@V?$allocator@G@2@@std@@QBEIPBGI@Z
	test	eax, eax
	je	SHORT $LN13@SubmitChat
	mov	DWORD PTR tv91[ebp], 0
	jmp	SHORT $LN14@SubmitChat
$LN13@SubmitChat:
	mov	DWORD PTR tv91[ebp], 1
$LN14@SubmitChat:
	mov	dl, BYTE PTR tv91[ebp]
	mov	BYTE PTR _bIsGroup$[ebp], dl
; Line 398
	movzx	eax, BYTE PTR _bIsGroup$[ebp]
	test	eax, eax
	jne	$LN6@SubmitChat
; Line 401
	lea	ecx, DWORD PTR _worditer$143919[ebp]
	push	ecx
	mov	ecx, OFFSET _set_lstSwearWords
	call	?begin@?$list@V?$basic_string@GU?$char_traits@G@std@@V?$allocator@G@2@@std@@V?$allocator@V?$basic_string@GU?$char_traits@G@std@@V?$allocator@G@2@@std@@@2@@std@@QAE?AV?$_Iterator@$00@12@XZ ; std::list<std::basic_string<unsigned short,std::char_traits<unsigned short>,std::allocator<unsigned short> >,std::allocator<std::basic_string<unsigned short,std::char_traits<unsigned short>,std::allocator<unsigned short> > > >::begin
	jmp	SHORT $LN8@SubmitChat
$LN7@SubmitChat:
	push	0
	lea	edx, DWORD PTR $T152309[ebp]
	push	edx
	lea	ecx, DWORD PTR _worditer$143919[ebp]
	call	??E?$_Iterator@$00@?$list@V?$basic_string@GU?$char_traits@G@std@@V?$allocator@G@2@@std@@V?$allocator@V?$basic_string@GU?$char_traits@G@std@@V?$allocator@G@2@@std@@@2@@std@@QAE?AV012@H@Z ; std::list<std::basic_string<unsigned short,std::char_traits<unsigned short>,std::allocator<unsigned short> >,std::allocator<std::basic_string<unsigned short,std::char_traits<unsigned short>,std::allocator<unsigned short> > > >::_Iterator<1>::operator++
$LN8@SubmitChat:
	lea	eax, DWORD PTR $T152310[ebp]
	push	eax
	mov	ecx, OFFSET _set_lstSwearWords
	call	?end@?$list@V?$basic_string@GU?$char_traits@G@std@@V?$allocator@G@2@@std@@V?$allocator@V?$basic_string@GU?$char_traits@G@std@@V?$allocator@G@2@@std@@@2@@std@@QAE?AV?$_Iterator@$00@12@XZ ; std::list<std::basic_string<unsigned short,std::char_traits<unsigned short>,std::allocator<unsigned short> >,std::allocator<std::basic_string<unsigned short,std::char_traits<unsigned short>,std::allocator<unsigned short> > > >::end
	push	eax
	lea	ecx, DWORD PTR _worditer$143919[ebp]
	call	??9?$_Const_iterator@$00@?$list@V?$basic_string@GU?$char_traits@G@std@@V?$allocator@G@2@@std@@V?$allocator@V?$basic_string@GU?$char_traits@G@std@@V?$allocator@G@2@@std@@@2@@std@@QBE_NABV012@@Z ; std::list<std::basic_string<unsigned short,std::char_traits<unsigned short>,std::allocator<unsigned short> >,std::allocator<std::basic_string<unsigned short,std::char_traits<unsigned short>,std::allocator<unsigned short> > > >::_Const_iterator<1>::operator!=
	movzx	ecx, al
	test	ecx, ecx
	je	$LN6@SubmitChat
; Line 403
	push	0
	lea	ecx, DWORD PTR _worditer$143919[ebp]
	call	??D?$_Iterator@$00@?$list@V?$basic_string@GU?$char_traits@G@std@@V?$allocator@G@2@@std@@V?$allocator@V?$basic_string@GU?$char_traits@G@std@@V?$allocator@G@2@@std@@@2@@std@@QBEAAV?$basic_string@GU?$char_traits@G@std@@V?$allocator@G@2@@2@XZ ; std::list<std::basic_string<unsigned short,std::char_traits<unsigned short>,std::allocator<unsigned short> >,std::allocator<std::basic_string<unsigned short,std::char_traits<unsigned short>,std::allocator<unsigned short> > > >::_Iterator<1>::operator*
	push	eax
	lea	ecx, DWORD PTR _wscChatMsg$[ebp]
	call	DWORD PTR __imp_?find@?$basic_string@GU?$char_traits@G@std@@V?$allocator@G@2@@std@@QBEIABV12@I@Z
	cmp	eax, -1
	je	$LN5@SubmitChat
; Line 405
	sub	esp, 28					; 0000001cH
	mov	ecx, esp
	mov	DWORD PTR $T152311[ebp], esp
	push	OFFSET $SG143928
	call	DWORD PTR __imp_??0?$basic_string@GU?$char_traits@G@std@@V?$allocator@G@2@@std@@QAE@PBG@Z
	mov	DWORD PTR tv67[ebp], eax
	mov	edx, DWORD PTR tv67[ebp]
	mov	DWORD PTR tv316[ebp], edx
	mov	BYTE PTR __$EHRec$[ebp+8], 3
	mov	eax, DWORD PTR _iClientID$[ebp]
	push	eax
	mov	BYTE PTR __$EHRec$[ebp+8], 2
	call	DWORD PTR __imp_?PrintUserCmdText@@YAXIV?$basic_string@GU?$char_traits@G@std@@V?$allocator@G@2@@std@@ZZ
	add	esp, 32					; 00000020H
; Line 406
	sub	esp, 28					; 0000001cH
	mov	ecx, esp
	mov	DWORD PTR $T152312[ebp], esp
	push	OFFSET $SG143930
	call	DWORD PTR __imp_??0?$basic_string@GU?$char_traits@G@std@@V?$allocator@G@2@@std@@QAE@PBG@Z
	mov	DWORD PTR tv371[ebp], eax
	mov	ecx, DWORD PTR tv371[ebp]
	mov	DWORD PTR tv318[ebp], ecx
	mov	BYTE PTR __$EHRec$[ebp+8], 4
	mov	edx, DWORD PTR _iClientID$[ebp]
	push	edx
	mov	BYTE PTR __$EHRec$[ebp+8], 2
	call	DWORD PTR __imp_?PrintUserCmdText@@YAXIV?$basic_string@GU?$char_traits@G@std@@V?$allocator@G@2@@std@@ZZ
	add	esp, 32					; 00000020H
; Line 408
	lea	eax, DWORD PTR _iClientID$[ebp]
	push	eax
	mov	ecx, OFFSET _mapInfo
	call	??A?$map@IVINFO@Message@@U?$less@I@std@@V?$allocator@U?$pair@$$CBIVINFO@Message@@@std@@@4@@std@@QAEAAVINFO@Message@@ABI@Z ; std::map<unsigned int,Message::INFO,std::less<unsigned int>,std::allocator<std::pair<unsigned int const ,Message::INFO> > >::operator[]
	add	eax, 292				; 00000124H
	mov	DWORD PTR tv189[ebp], eax
	mov	ecx, DWORD PTR tv189[ebp]
	mov	edx, DWORD PTR [ecx]
	add	edx, 1
	mov	eax, DWORD PTR tv189[ebp]
	mov	DWORD PTR [eax], edx
; Line 409
	lea	ecx, DWORD PTR _iClientID$[ebp]
	push	ecx
	mov	ecx, OFFSET _mapInfo
	call	??A?$map@IVINFO@Message@@U?$less@I@std@@V?$allocator@U?$pair@$$CBIVINFO@Message@@@std@@@4@@std@@QAEAAVINFO@Message@@ABI@Z ; std::map<unsigned int,Message::INFO,std::less<unsigned int>,std::allocator<std::pair<unsigned int const ,Message::INFO> > >::operator[]
	cmp	DWORD PTR [eax+292], 2
	jle	$LN4@SubmitChat
; Line 411
	mov	edx, DWORD PTR _iClientID$[ebp]
	push	edx
	mov	ecx, DWORD PTR __imp_?Players@@3VPlayerDB@@A
	call	DWORD PTR __imp_?GetActiveCharacterName@PlayerDB@@QBEPBGI@Z
	push	eax
	lea	ecx, DWORD PTR _wscCharname$143932[ebp]
	call	DWORD PTR __imp_??0?$basic_string@GU?$char_traits@G@std@@V?$allocator@G@2@@std@@QAE@PBG@Z
	mov	BYTE PTR __$EHRec$[ebp+8], 5
; Line 414
	lea	eax, DWORD PTR _wscChatMsg$[ebp]
	push	eax
	lea	ecx, DWORD PTR $T152313[ebp]
	push	ecx
	call	DWORD PTR __imp_?wstos@@YA?AV?$basic_string@DU?$char_traits@D@std@@V?$allocator@D@2@@std@@ABV?$basic_string@GU?$char_traits@G@std@@V?$allocator@G@2@@2@@Z
	add	esp, 8
	mov	DWORD PTR tv197[ebp], eax
	mov	edx, DWORD PTR tv197[ebp]
	mov	DWORD PTR tv353[ebp], edx
	mov	BYTE PTR __$EHRec$[ebp+8], 6
	mov	ecx, DWORD PTR tv353[ebp]
	call	DWORD PTR __imp_?c_str@?$basic_string@DU?$char_traits@D@std@@V?$allocator@D@2@@std@@QBEPBDXZ
	push	eax
	lea	eax, DWORD PTR _wscCharname$143932[ebp]
	push	eax
	call	DWORD PTR __imp_?HkGetAccountByCharname@@YAPAVCAccount@@ABV?$basic_string@GU?$char_traits@G@std@@V?$allocator@G@2@@std@@@Z
	add	esp, 4
	push	eax
	lea	ecx, DWORD PTR $T152314[ebp]
	push	ecx
	call	DWORD PTR __imp_?HkGetAccountID@@YA?AV?$basic_string@GU?$char_traits@G@std@@V?$allocator@G@2@@std@@PAVCAccount@@@Z
	add	esp, 8
	mov	DWORD PTR tv373[ebp], eax
	mov	edx, DWORD PTR tv373[ebp]
	mov	DWORD PTR tv355[ebp], edx
	mov	BYTE PTR __$EHRec$[ebp+8], 7
	mov	eax, DWORD PTR tv355[ebp]
	push	eax
	lea	ecx, DWORD PTR $T152315[ebp]
	push	ecx
	call	DWORD PTR __imp_?wstos@@YA?AV?$basic_string@DU?$char_traits@D@std@@V?$allocator@D@2@@std@@ABV?$basic_string@GU?$char_traits@G@std@@V?$allocator@G@2@@2@@Z
	add	esp, 8
	mov	DWORD PTR tv374[ebp], eax
	mov	edx, DWORD PTR tv374[ebp]
	mov	DWORD PTR tv357[ebp], edx
	mov	BYTE PTR __$EHRec$[ebp+8], 8
	mov	ecx, DWORD PTR tv357[ebp]
	call	DWORD PTR __imp_?c_str@?$basic_string@DU?$char_traits@D@std@@V?$allocator@D@2@@std@@QBEPBDXZ
	push	eax
	lea	eax, DWORD PTR _wscCharname$143932[ebp]
	push	eax
	lea	ecx, DWORD PTR $T152316[ebp]
	push	ecx
	call	DWORD PTR __imp_?wstos@@YA?AV?$basic_string@DU?$char_traits@D@std@@V?$allocator@D@2@@std@@ABV?$basic_string@GU?$char_traits@G@std@@V?$allocator@G@2@@2@@Z
	add	esp, 8
	mov	DWORD PTR tv375[ebp], eax
	mov	edx, DWORD PTR tv375[ebp]
	mov	DWORD PTR tv359[ebp], edx
	mov	BYTE PTR __$EHRec$[ebp+8], 9
	mov	ecx, DWORD PTR tv359[ebp]
	call	DWORD PTR __imp_?c_str@?$basic_string@DU?$char_traits@D@std@@V?$allocator@D@2@@std@@QBEPBDXZ
	push	eax
	push	OFFSET $SG143937
	call	DWORD PTR __imp_?AddLog@@YAXPBDZZ
	add	esp, 16					; 00000010H
	mov	BYTE PTR __$EHRec$[ebp+8], 8
	lea	ecx, DWORD PTR $T152316[ebp]
	call	DWORD PTR __imp_??1?$basic_string@DU?$char_traits@D@std@@V?$allocator@D@2@@std@@QAE@XZ
	mov	BYTE PTR __$EHRec$[ebp+8], 7
	lea	ecx, DWORD PTR $T152315[ebp]
	call	DWORD PTR __imp_??1?$basic_string@DU?$char_traits@D@std@@V?$allocator@D@2@@std@@QAE@XZ
	mov	BYTE PTR __$EHRec$[ebp+8], 6
	lea	ecx, DWORD PTR $T152314[ebp]
	call	DWORD PTR __imp_??1?$basic_string@GU?$char_traits@G@std@@V?$allocator@G@2@@std@@QAE@XZ
	mov	BYTE PTR __$EHRec$[ebp+8], 5
	lea	ecx, DWORD PTR $T152313[ebp]
	call	DWORD PTR __imp_??1?$basic_string@DU?$char_traits@D@std@@V?$allocator@D@2@@std@@QAE@XZ
; Line 415
	push	10					; 0000000aH
	mov	eax, DWORD PTR _iClientID$[ebp]
	push	eax
	call	?HkTempBan@@YAXII@Z			; HkTempBan
	add	esp, 8
; Line 416
	push	1
	mov	ecx, DWORD PTR _iClientID$[ebp]
	push	ecx
	call	?HkDelayedKick@@YAXII@Z			; HkDelayedKick
	add	esp, 8
; Line 418
	fld	DWORD PTR _set_fDisconnectSwearingInSpaceRange
	fcomp	QWORD PTR __real@0000000000000000
	fnstsw	ax
	test	ah, 65					; 00000041H
	jne	$LN3@SubmitChat
; Line 420
	push	OFFSET _set_wscDisconnectSwearingInSpaceMsg
	lea	ecx, DWORD PTR _wscMsg$143939[ebp]
	call	DWORD PTR __imp_??0?$basic_string@GU?$char_traits@G@std@@V?$allocator@G@2@@std@@QAE@ABV01@@Z
	mov	BYTE PTR __$EHRec$[ebp+8], 10		; 0000000aH
; Line 421
	push	OFFSET $SG143943
	lea	ecx, DWORD PTR $T152318[ebp]
	call	DWORD PTR __imp_??0?$basic_string@GU?$char_traits@G@std@@V?$allocator@G@2@@std@@QAE@PBG@Z
	mov	BYTE PTR __$EHRec$[ebp+8], 11		; 0000000bH
	movzx	edx, BYTE PTR ?set_bLocalTime@@3_NA	; set_bLocalTime
	push	edx
	lea	eax, DWORD PTR $T152317[ebp]
	push	eax
	call	?GetTimeString@@YA?AV?$basic_string@GU?$char_traits@G@std@@V?$allocator@G@2@@std@@_N@Z ; GetTimeString
	add	esp, 8
	mov	DWORD PTR tv255[ebp], eax
	mov	ecx, DWORD PTR tv255[ebp]
	mov	DWORD PTR tv363[ebp], ecx
	mov	BYTE PTR __$EHRec$[ebp+8], 12		; 0000000cH
	mov	edx, DWORD PTR tv363[ebp]
	push	edx
	lea	eax, DWORD PTR $T152318[ebp]
	push	eax
	lea	ecx, DWORD PTR _wscMsg$143939[ebp]
	push	ecx
	lea	edx, DWORD PTR $T152319[ebp]
	push	edx
	call	DWORD PTR __imp_?ReplaceStr@@YA?AV?$basic_string@GU?$char_traits@G@std@@V?$allocator@G@2@@std@@ABV12@00@Z
	add	esp, 16					; 00000010H
	mov	DWORD PTR tv242[ebp], eax
	mov	eax, DWORD PTR tv242[ebp]
	mov	DWORD PTR tv365[ebp], eax
	mov	BYTE PTR __$EHRec$[ebp+8], 13		; 0000000dH
	mov	ecx, DWORD PTR tv365[ebp]
	push	ecx
	lea	ecx, DWORD PTR _wscMsg$143939[ebp]
	call	DWORD PTR __imp_??4?$basic_string@GU?$char_traits@G@std@@V?$allocator@G@2@@std@@QAEAAV01@ABV01@@Z
	mov	BYTE PTR __$EHRec$[ebp+8], 12		; 0000000cH
	lea	ecx, DWORD PTR $T152319[ebp]
	call	DWORD PTR __imp_??1?$basic_string@GU?$char_traits@G@std@@V?$allocator@G@2@@std@@QAE@XZ
	mov	BYTE PTR __$EHRec$[ebp+8], 11		; 0000000bH
	lea	ecx, DWORD PTR $T152317[ebp]
	call	DWORD PTR __imp_??1?$basic_string@GU?$char_traits@G@std@@V?$allocator@G@2@@std@@QAE@XZ
	mov	BYTE PTR __$EHRec$[ebp+8], 10		; 0000000aH
	lea	ecx, DWORD PTR $T152318[ebp]
	call	DWORD PTR __imp_??1?$basic_string@GU?$char_traits@G@std@@V?$allocator@G@2@@std@@QAE@XZ
; Line 422
	push	OFFSET $SG143946
	lea	ecx, DWORD PTR $T152320[ebp]
	call	DWORD PTR __imp_??0?$basic_string@GU?$char_traits@G@std@@V?$allocator@G@2@@std@@QAE@PBG@Z
	mov	BYTE PTR __$EHRec$[ebp+8], 14		; 0000000eH
	lea	edx, DWORD PTR _wscCharname$143932[ebp]
	push	edx
	lea	eax, DWORD PTR $T152320[ebp]
	push	eax
	lea	ecx, DWORD PTR _wscMsg$143939[ebp]
	push	ecx
	lea	edx, DWORD PTR $T152321[ebp]
	push	edx
	call	DWORD PTR __imp_?ReplaceStr@@YA?AV?$basic_string@GU?$char_traits@G@std@@V?$allocator@G@2@@std@@ABV12@00@Z
	add	esp, 16					; 00000010H
	mov	DWORD PTR tv268[ebp], eax
	mov	eax, DWORD PTR tv268[ebp]
	mov	DWORD PTR tv368[ebp], eax
	mov	BYTE PTR __$EHRec$[ebp+8], 15		; 0000000fH
	mov	ecx, DWORD PTR tv368[ebp]
	push	ecx
	lea	ecx, DWORD PTR _wscMsg$143939[ebp]
	call	DWORD PTR __imp_??4?$basic_string@GU?$char_traits@G@std@@V?$allocator@G@2@@std@@QAEAAV01@ABV01@@Z
	mov	BYTE PTR __$EHRec$[ebp+8], 14		; 0000000eH
	lea	ecx, DWORD PTR $T152321[ebp]
	call	DWORD PTR __imp_??1?$basic_string@GU?$char_traits@G@std@@V?$allocator@G@2@@std@@QAE@XZ
	mov	BYTE PTR __$EHRec$[ebp+8], 10		; 0000000aH
	lea	ecx, DWORD PTR $T152320[ebp]
	call	DWORD PTR __imp_??1?$basic_string@GU?$char_traits@G@std@@V?$allocator@G@2@@std@@QAE@XZ
; Line 423
	push	ecx
	fld	DWORD PTR _set_fDisconnectSwearingInSpaceRange
	fstp	DWORD PTR [esp]
	lea	edx, DWORD PTR _wscMsg$143939[ebp]
	push	edx
	mov	eax, DWORD PTR _iClientID$[ebp]
	push	eax
	call	?PrintLocalUserCmdText@@YAXIABV?$basic_string@GU?$char_traits@G@std@@V?$allocator@G@2@@std@@M@Z ; PrintLocalUserCmdText
	add	esp, 12					; 0000000cH
; Line 424
	mov	BYTE PTR __$EHRec$[ebp+8], 5
	lea	ecx, DWORD PTR _wscMsg$143939[ebp]
	call	DWORD PTR __imp_??1?$basic_string@GU?$char_traits@G@std@@V?$allocator@G@2@@std@@QAE@XZ
$LN3@SubmitChat:
; Line 425
	mov	BYTE PTR __$EHRec$[ebp+8], 2
	lea	ecx, DWORD PTR _wscCharname$143932[ebp]
	call	DWORD PTR __imp_??1?$basic_string@GU?$char_traits@G@std@@V?$allocator@G@2@@std@@QAE@XZ
$LN4@SubmitChat:
; Line 426
	mov	BYTE PTR $T152322[ebp], 1
	mov	DWORD PTR __$EHRec$[ebp+8], -1
	lea	ecx, DWORD PTR _wscChatMsg$[ebp]
	call	DWORD PTR __imp_??1?$basic_string@GU?$char_traits@G@std@@V?$allocator@G@2@@std@@QAE@XZ
	mov	al, BYTE PTR $T152322[ebp]
	jmp	$LN11@SubmitChat
$LN5@SubmitChat:
; Line 428
	jmp	$LN7@SubmitChat
$LN6@SubmitChat:
; Line 433
	cmp	DWORD PTR _iClientID$[ebp], 65536	; 00010000H
	jae	SHORT $LN1@SubmitChat
	cmp	DWORD PTR _cIdTo$[ebp], 0
	jle	SHORT $LN1@SubmitChat
	cmp	DWORD PTR _cIdTo$[ebp], 65536		; 00010000H
	jge	SHORT $LN1@SubmitChat
; Line 435
	mov	ecx, DWORD PTR _cIdTo$[ebp]
	mov	DWORD PTR $T152323[ebp], ecx
	lea	edx, DWORD PTR $T152323[ebp]
	push	edx
	lea	eax, DWORD PTR _iter$143962[ebp]
	push	eax
	mov	ecx, OFFSET _mapInfo
	call	?find@?$_Tree@V?$_Tmap_traits@IVINFO@Message@@U?$less@I@std@@V?$allocator@U?$pair@$$CBIVINFO@Message@@@std@@@4@$0A@@std@@@std@@QAE?AViterator@12@ABI@Z ; std::_Tree<std::_Tmap_traits<unsigned int,Message::INFO,std::less<unsigned int>,std::allocator<std::pair<unsigned int const ,Message::INFO> >,0> >::find
; Line 436
	lea	ecx, DWORD PTR $T152324[ebp]
	push	ecx
	mov	ecx, OFFSET _mapInfo
	call	?end@?$_Tree@V?$_Tmap_traits@IVINFO@Message@@U?$less@I@std@@V?$allocator@U?$pair@$$CBIVINFO@Message@@@std@@@4@$0A@@std@@@std@@QAE?AViterator@12@XZ ; std::_Tree<std::_Tmap_traits<unsigned int,Message::INFO,std::less<unsigned int>,std::allocator<std::pair<unsigned int const ,Message::INFO> >,0> >::end
	push	eax
	lea	ecx, DWORD PTR _iter$143962[ebp]
	call	??9const_iterator@?$_Tree@V?$_Tmap_traits@IVINFO@Message@@U?$less@I@std@@V?$allocator@U?$pair@$$CBIVINFO@Message@@@std@@@4@$0A@@std@@@std@@QBE_NABV012@@Z ; std::_Tree<std::_Tmap_traits<unsigned int,Message::INFO,std::less<unsigned int>,std::allocator<std::pair<unsigned int const ,Message::INFO> >,0> >::const_iterator::operator!=
	movzx	edx, al
	test	edx, edx
	je	SHORT $LN1@SubmitChat
; Line 438
	lea	ecx, DWORD PTR _iter$143962[ebp]
	call	??Citerator@?$_Tree@V?$_Tmap_traits@IVINFO@Message@@U?$less@I@std@@V?$allocator@U?$pair@$$CBIVINFO@Message@@@std@@@4@$0A@@std@@@std@@QBEPAU?$pair@$$CBIVINFO@Message@@@2@XZ ; std::_Tree<std::_Tmap_traits<unsigned int,Message::INFO,std::less<unsigned int>,std::allocator<std::pair<unsigned int const ,Message::INFO> >,0> >::iterator::operator->
	mov	ecx, DWORD PTR _iClientID$[ebp]
	mov	DWORD PTR [eax+284], ecx
$LN1@SubmitChat:
; Line 441
	mov	BYTE PTR $T152325[ebp], 0
	mov	DWORD PTR __$EHRec$[ebp+8], -1
	lea	ecx, DWORD PTR _wscChatMsg$[ebp]
	call	DWORD PTR __imp_??1?$basic_string@GU?$char_traits@G@std@@V?$allocator@G@2@@std@@QAE@XZ
	mov	al, BYTE PTR $T152325[ebp]
$LN11@SubmitChat:
; Line 442
	mov	ecx, DWORD PTR __$EHRec$[ebp]
	mov	DWORD PTR fs:0, ecx
	pop	ecx
	mov	ecx, DWORD PTR __$ArrayPad$[ebp]
	xor	ecx, ebp
	call	@__security_check_cookie@4
	mov	esp, ebp
	pop	ebp
	ret	0
_TEXT	ENDS
text$x	SEGMENT
__unwindfunclet$?SubmitChat@Message@@YA_NUCHAT_ID@@KPBX0H@Z$0:
	lea	ecx, DWORD PTR $T152306[ebp]
	jmp	DWORD PTR __imp_??1?$basic_string@GU?$char_traits@G@std@@V?$allocator@G@2@@std@@QAE@XZ
__unwindfunclet$?SubmitChat@Message@@YA_NUCHAT_ID@@KPBX0H@Z$1:
	lea	ecx, DWORD PTR _wscChatMsg$[ebp]
	jmp	DWORD PTR __imp_??1?$basic_string@GU?$char_traits@G@std@@V?$allocator@G@2@@std@@QAE@XZ
__unwindfunclet$?SubmitChat@Message@@YA_NUCHAT_ID@@KPBX0H@Z$2:
	mov	ecx, DWORD PTR $T152311[ebp]
	jmp	DWORD PTR __imp_??1?$basic_string@GU?$char_traits@G@std@@V?$allocator@G@2@@std@@QAE@XZ
__unwindfunclet$?SubmitChat@Message@@YA_NUCHAT_ID@@KPBX0H@Z$3:
	mov	ecx, DWORD PTR $T152312[ebp]
	jmp	DWORD PTR __imp_??1?$basic_string@GU?$char_traits@G@std@@V?$allocator@G@2@@std@@QAE@XZ
__unwindfunclet$?SubmitChat@Message@@YA_NUCHAT_ID@@KPBX0H@Z$4:
	lea	ecx, DWORD PTR _wscCharname$143932[ebp]
	jmp	DWORD PTR __imp_??1?$basic_string@GU?$char_traits@G@std@@V?$allocator@G@2@@std@@QAE@XZ
__unwindfunclet$?SubmitChat@Message@@YA_NUCHAT_ID@@KPBX0H@Z$5:
	lea	ecx, DWORD PTR $T152313[ebp]
	jmp	DWORD PTR __imp_??1?$basic_string@DU?$char_traits@D@std@@V?$allocator@D@2@@std@@QAE@XZ
__unwindfunclet$?SubmitChat@Message@@YA_NUCHAT_ID@@KPBX0H@Z$6:
	lea	ecx, DWORD PTR $T152314[ebp]
	jmp	DWORD PTR __imp_??1?$basic_string@GU?$char_traits@G@std@@V?$allocator@G@2@@std@@QAE@XZ
__unwindfunclet$?SubmitChat@Message@@YA_NUCHAT_ID@@KPBX0H@Z$7:
	lea	ecx, DWORD PTR $T152315[ebp]
	jmp	DWORD PTR __imp_??1?$basic_string@DU?$char_traits@D@std@@V?$allocator@D@2@@std@@QAE@XZ
__unwindfunclet$?SubmitChat@Message@@YA_NUCHAT_ID@@KPBX0H@Z$8:
	lea	ecx, DWORD PTR $T152316[ebp]
	jmp	DWORD PTR __imp_??1?$basic_string@DU?$char_traits@D@std@@V?$allocator@D@2@@std@@QAE@XZ
__unwindfunclet$?SubmitChat@Message@@YA_NUCHAT_ID@@KPBX0H@Z$9:
	lea	ecx, DWORD PTR _wscMsg$143939[ebp]
	jmp	DWORD PTR __imp_??1?$basic_string@GU?$char_traits@G@std@@V?$allocator@G@2@@std@@QAE@XZ
__unwindfunclet$?SubmitChat@Message@@YA_NUCHAT_ID@@KPBX0H@Z$10:
	lea	ecx, DWORD PTR $T152318[ebp]
	jmp	DWORD PTR __imp_??1?$basic_string@GU?$char_traits@G@std@@V?$allocator@G@2@@std@@QAE@XZ
__unwindfunclet$?SubmitChat@Message@@YA_NUCHAT_ID@@KPBX0H@Z$11:
	lea	ecx, DWORD PTR $T152317[ebp]
	jmp	DWORD PTR __imp_??1?$basic_string@GU?$char_traits@G@std@@V?$allocator@G@2@@std@@QAE@XZ
__unwindfunclet$?SubmitChat@Message@@YA_NUCHAT_ID@@KPBX0H@Z$12:
	lea	ecx, DWORD PTR $T152319[ebp]
	jmp	DWORD PTR __imp_??1?$basic_string@GU?$char_traits@G@std@@V?$allocator@G@2@@std@@QAE@XZ
__unwindfunclet$?SubmitChat@Message@@YA_NUCHAT_ID@@KPBX0H@Z$13:
	lea	ecx, DWORD PTR $T152320[ebp]
	jmp	DWORD PTR __imp_??1?$basic_string@GU?$char_traits@G@std@@V?$allocator@G@2@@std@@QAE@XZ
__unwindfunclet$?SubmitChat@Message@@YA_NUCHAT_ID@@KPBX0H@Z$14:
	lea	ecx, DWORD PTR $T152321[ebp]
	jmp	DWORD PTR __imp_??1?$basic_string@GU?$char_traits@G@std@@V?$allocator@G@2@@std@@QAE@XZ
__ehhandler$?SubmitChat@Message@@YA_NUCHAT_ID@@KPBX0H@Z:
	mov	edx, DWORD PTR [esp+8]
	lea	eax, DWORD PTR [edx+12]
	mov	ecx, DWORD PTR [edx-3608]
	xor	ecx, eax
	call	@__security_check_cookie@4
	mov	ecx, DWORD PTR [edx-4]
	xor	ecx, eax
	call	@__security_check_cookie@4
	mov	eax, OFFSET __ehfuncinfo$?SubmitChat@Message@@YA_NUCHAT_ID@@KPBX0H@Z
	jmp	___CxxFrameHandler3
text$x	ENDS
?SubmitChat@Message@@YA_NUCHAT_ID@@KPBX0H@Z ENDP	; Message::SubmitChat
PUBLIC	__$ArrayPad$
PUBLIC	?HkCb_SendChat@Message@@YA_NIIIPAX@Z		; Message::HkCb_SendChat
EXTRN	__imp_??$?HGU?$char_traits@G@std@@V?$allocator@G@1@@std@@YA?AV?$basic_string@GU?$char_traits@G@std@@V?$allocator@G@2@@0@ABV10@PBG@Z:PROC
EXTRN	__imp_??$?HGU?$char_traits@G@std@@V?$allocator@G@1@@std@@YA?AV?$basic_string@GU?$char_traits@G@std@@V?$allocator@G@2@@0@PBGABV10@@Z:PROC
EXTRN	__imp_?XMLText@@YA?AV?$basic_string@GU?$char_traits@G@std@@V?$allocator@G@2@@std@@ABV12@@Z:PROC
EXTRN	__imp_?npos@?$basic_string@DU?$char_traits@D@std@@V?$allocator@D@2@@std@@2IB:DWORD
xdata$x	SEGMENT
__ehfuncinfo$?HkCb_SendChat@Message@@YA_NIIIPAX@Z DD 019930522H
	DD	05H
	DD	FLAT:__unwindtable$?HkCb_SendChat@Message@@YA_NIIIPAX@Z
	DD	2 DUP(00H)
	DD	2 DUP(00H)
	DD	00H
	DD	00H
__unwindtable$?HkCb_SendChat@Message@@YA_NIIIPAX@Z DD 0ffffffffH
	DD	FLAT:__unwindfunclet$?HkCb_SendChat@Message@@YA_NIIIPAX@Z$0
	DD	0ffffffffH
	DD	FLAT:__unwindfunclet$?HkCb_SendChat@Message@@YA_NIIIPAX@Z$1
	DD	01H
	DD	FLAT:__unwindfunclet$?HkCb_SendChat@Message@@YA_NIIIPAX@Z$2
	DD	02H
	DD	FLAT:__unwindfunclet$?HkCb_SendChat@Message@@YA_NIIIPAX@Z$3
	DD	03H
	DD	FLAT:__unwindfunclet$?HkCb_SendChat@Message@@YA_NIIIPAX@Z$4
; Function compile flags: /Odtp
xdata$x	ENDS
_TEXT	SEGMENT
tv171 = -3284						; size = 4
tv174 = -3280						; size = 4
tv169 = -3276						; size = 4
tv173 = -3272						; size = 4
tv167 = -3268						; size = 4
tv172 = -3264						; size = 4
tv165 = -3260						; size = 4
tv77 = -3256						; size = 4
$T152353 = -3252					; size = 28
$T152352 = -3224					; size = 28
$T152351 = -3196					; size = 28
$T152350 = -3168					; size = 28
$T152349 = -3137					; size = 1
_wscChatMsg$143983 = -3136				; size = 28
_iTextStartPos$143984 = -3108				; size = 4
_iRet1$143980 = -3104					; size = 4
_wszBuf$143979 = -3100					; size = 2048
_rdl$143978 = -1052					; size = 1028
__$ArrayPad$ = -16					; size = 4
__$EHRec$ = -12						; size = 12
_iClientID$ = 8						; size = 4
_iTo$ = 12						; size = 4
_iSize$ = 16						; size = 4
_rdlReader$ = 20					; size = 4
?HkCb_SendChat@Message@@YA_NIIIPAX@Z PROC		; Message::HkCb_SendChat
; Line 451
	push	ebp
	mov	ebp, esp
	push	-1
	push	__ehhandler$?HkCb_SendChat@Message@@YA_NIIIPAX@Z
	mov	eax, DWORD PTR fs:0
	push	eax
	sub	esp, 3272				; 00000cc8H
	mov	eax, DWORD PTR ___security_cookie
	xor	eax, ebp
	mov	DWORD PTR __$ArrayPad$[ebp], eax
	push	eax
	lea	eax, DWORD PTR __$EHRec$[ebp]
	mov	DWORD PTR fs:0, eax
; Line 453
	movzx	eax, BYTE PTR _bSendingTime
	test	eax, eax
	je	SHORT $LN8@HkCb_SendC
; Line 454
	xor	al, al
	jmp	$LN9@HkCb_SendC
$LN8@HkCb_SendC:
; Line 457
	cmp	DWORD PTR _iTo$[ebp], 65540		; 00010004H
	jne	SHORT $LN7@HkCb_SendC
; Line 458
	xor	al, al
	jmp	$LN9@HkCb_SendC
$LN7@HkCb_SendC:
; Line 460
	movzx	ecx, BYTE PTR _set_bCmdHide
	test	ecx, ecx
	je	$LN6@HkCb_SendC
; Line 463
	lea	ecx, DWORD PTR _rdl$143978[ebp]
	call	DWORD PTR __imp_??0BinaryRDLReader@@QAE@XZ
; Line 466
	mov	edx, DWORD PTR _iSize$[ebp]
	push	edx
	mov	eax, DWORD PTR _rdlReader$[ebp]
	push	eax
	lea	ecx, DWORD PTR _iRet1$143980[ebp]
	push	ecx
	push	2048					; 00000800H
	lea	edx, DWORD PTR _wszBuf$143979[ebp]
	push	edx
	lea	ecx, DWORD PTR _rdl$143978[ebp]
	call	DWORD PTR __imp_?extract_text_from_buffer@BinaryRDLReader@@UAE_NPAGIAAIPBDI@Z
; Line 467
	lea	eax, DWORD PTR _wszBuf$143979[ebp]
	push	eax
	lea	ecx, DWORD PTR _wscChatMsg$143983[ebp]
	call	DWORD PTR __imp_??0?$basic_string@GU?$char_traits@G@std@@V?$allocator@G@2@@std@@QAE@PBG@Z
	mov	DWORD PTR __$EHRec$[ebp+8], 0
; Line 470
	push	0
	push	OFFSET $SG143985
	lea	ecx, DWORD PTR _wscChatMsg$143983[ebp]
	call	DWORD PTR __imp_?find@?$basic_string@GU?$char_traits@G@std@@V?$allocator@G@2@@std@@QBEIPBGI@Z
	mov	DWORD PTR _iTextStartPos$143984[ebp], eax
; Line 471
	mov	ecx, DWORD PTR __imp_?npos@?$basic_string@DU?$char_traits@D@std@@V?$allocator@D@2@@std@@2IB
	mov	edx, DWORD PTR _iTextStartPos$143984[ebp]
	cmp	edx, DWORD PTR [ecx]
	je	SHORT $LN5@HkCb_SendC
; Line 474
	push	0
	push	OFFSET $SG143990
	lea	ecx, DWORD PTR _wscChatMsg$143983[ebp]
	call	DWORD PTR __imp_?find@?$basic_string@GU?$char_traits@G@std@@V?$allocator@G@2@@std@@QBEIPBGI@Z
	cmp	eax, DWORD PTR _iTextStartPos$143984[ebp]
	jne	SHORT $LN2@HkCb_SendC
	push	0
	push	OFFSET $SG143991
	lea	ecx, DWORD PTR _wscChatMsg$143983[ebp]
	call	DWORD PTR __imp_?find@?$basic_string@GU?$char_traits@G@std@@V?$allocator@G@2@@std@@QBEIPBGI@Z
	cmp	eax, DWORD PTR _iTextStartPos$143984[ebp]
	jne	SHORT $LN3@HkCb_SendC
$LN2@HkCb_SendC:
	push	0
	push	OFFSET $SG143992
	lea	ecx, DWORD PTR _wscChatMsg$143983[ebp]
	call	DWORD PTR __imp_?find@?$basic_string@GU?$char_traits@G@std@@V?$allocator@G@2@@std@@QBEIPBGI@Z
	cmp	eax, DWORD PTR _iTextStartPos$143984[ebp]
	jne	SHORT $LN5@HkCb_SendC
$LN3@HkCb_SendC:
; Line 476
	mov	BYTE PTR $T152349[ebp], 1
	mov	DWORD PTR __$EHRec$[ebp+8], -1
	lea	ecx, DWORD PTR _wscChatMsg$143983[ebp]
	call	DWORD PTR __imp_??1?$basic_string@GU?$char_traits@G@std@@V?$allocator@G@2@@std@@QAE@XZ
	mov	al, BYTE PTR $T152349[ebp]
	jmp	$LN9@HkCb_SendC
$LN5@HkCb_SendC:
; Line 479
	mov	DWORD PTR __$EHRec$[ebp+8], -1
	lea	ecx, DWORD PTR _wscChatMsg$143983[ebp]
	call	DWORD PTR __imp_??1?$basic_string@GU?$char_traits@G@std@@V?$allocator@G@2@@std@@QAE@XZ
$LN6@HkCb_SendC:
; Line 481
	lea	eax, DWORD PTR _iClientID$[ebp]
	push	eax
	mov	ecx, OFFSET _mapInfo
	call	??A?$map@IVINFO@Message@@U?$less@I@std@@V?$allocator@U?$pair@$$CBIVINFO@Message@@@std@@@4@@std@@QAEAAVINFO@Message@@ABI@Z ; std::map<unsigned int,Message::INFO,std::less<unsigned int>,std::allocator<std::pair<unsigned int const ,Message::INFO> > >::operator[]
	movzx	ecx, BYTE PTR [eax+288]
	test	ecx, ecx
	je	$LN1@HkCb_SendC
; Line 484
	mov	BYTE PTR _bSendingTime, 1
; Line 485
	push	OFFSET $SG143999
	movzx	edx, BYTE PTR ?set_bLocalTime@@3_NA	; set_bLocalTime
	push	edx
	lea	eax, DWORD PTR $T152350[ebp]
	push	eax
	call	?GetTimeString@@YA?AV?$basic_string@GU?$char_traits@G@std@@V?$allocator@G@2@@std@@_N@Z ; GetTimeString
	add	esp, 8
	mov	DWORD PTR tv77[ebp], eax
	mov	ecx, DWORD PTR tv77[ebp]
	mov	DWORD PTR tv165[ebp], ecx
	mov	DWORD PTR __$EHRec$[ebp+8], 1
	mov	edx, DWORD PTR tv165[ebp]
	push	edx
	lea	eax, DWORD PTR $T152351[ebp]
	push	eax
	call	DWORD PTR __imp_?XMLText@@YA?AV?$basic_string@GU?$char_traits@G@std@@V?$allocator@G@2@@std@@ABV12@@Z
	add	esp, 8
	mov	DWORD PTR tv172[ebp], eax
	mov	ecx, DWORD PTR tv172[ebp]
	mov	DWORD PTR tv167[ebp], ecx
	mov	BYTE PTR __$EHRec$[ebp+8], 2
	mov	edx, DWORD PTR tv167[ebp]
	push	edx
	push	OFFSET $SG144000
	lea	eax, DWORD PTR $T152352[ebp]
	push	eax
	call	DWORD PTR __imp_??$?HGU?$char_traits@G@std@@V?$allocator@G@1@@std@@YA?AV?$basic_string@GU?$char_traits@G@std@@V?$allocator@G@2@@0@PBGABV10@@Z
	add	esp, 12					; 0000000cH
	mov	DWORD PTR tv173[ebp], eax
	mov	ecx, DWORD PTR tv173[ebp]
	mov	DWORD PTR tv169[ebp], ecx
	mov	BYTE PTR __$EHRec$[ebp+8], 3
	mov	edx, DWORD PTR tv169[ebp]
	push	edx
	lea	eax, DWORD PTR $T152353[ebp]
	push	eax
	call	DWORD PTR __imp_??$?HGU?$char_traits@G@std@@V?$allocator@G@1@@std@@YA?AV?$basic_string@GU?$char_traits@G@std@@V?$allocator@G@2@@0@ABV10@PBG@Z
	add	esp, 12					; 0000000cH
	mov	DWORD PTR tv174[ebp], eax
	mov	ecx, DWORD PTR tv174[ebp]
	mov	DWORD PTR tv171[ebp], ecx
	mov	BYTE PTR __$EHRec$[ebp+8], 4
	mov	edx, DWORD PTR tv171[ebp]
	push	edx
	mov	eax, DWORD PTR _iClientID$[ebp]
	push	eax
	call	DWORD PTR __imp_?HkFMsg@@YA?AW4HK_ERROR@@IABV?$basic_string@GU?$char_traits@G@std@@V?$allocator@G@2@@std@@@Z
	add	esp, 8
	mov	BYTE PTR __$EHRec$[ebp+8], 3
	lea	ecx, DWORD PTR $T152353[ebp]
	call	DWORD PTR __imp_??1?$basic_string@GU?$char_traits@G@std@@V?$allocator@G@2@@std@@QAE@XZ
	mov	BYTE PTR __$EHRec$[ebp+8], 2
	lea	ecx, DWORD PTR $T152352[ebp]
	call	DWORD PTR __imp_??1?$basic_string@GU?$char_traits@G@std@@V?$allocator@G@2@@std@@QAE@XZ
	mov	BYTE PTR __$EHRec$[ebp+8], 1
	lea	ecx, DWORD PTR $T152351[ebp]
	call	DWORD PTR __imp_??1?$basic_string@GU?$char_traits@G@std@@V?$allocator@G@2@@std@@QAE@XZ
	mov	DWORD PTR __$EHRec$[ebp+8], -1
	lea	ecx, DWORD PTR $T152350[ebp]
	call	DWORD PTR __imp_??1?$basic_string@GU?$char_traits@G@std@@V?$allocator@G@2@@std@@QAE@XZ
; Line 486
	mov	BYTE PTR _bSendingTime, 0
$LN1@HkCb_SendC:
; Line 488
	xor	al, al
$LN9@HkCb_SendC:
; Line 489
	mov	ecx, DWORD PTR __$EHRec$[ebp]
	mov	DWORD PTR fs:0, ecx
	pop	ecx
	mov	ecx, DWORD PTR __$ArrayPad$[ebp]
	xor	ecx, ebp
	call	@__security_check_cookie@4
	mov	esp, ebp
	pop	ebp
	ret	0
_TEXT	ENDS
text$x	SEGMENT
__unwindfunclet$?HkCb_SendChat@Message@@YA_NIIIPAX@Z$0:
	lea	ecx, DWORD PTR _wscChatMsg$143983[ebp]
	jmp	DWORD PTR __imp_??1?$basic_string@GU?$char_traits@G@std@@V?$allocator@G@2@@std@@QAE@XZ
__unwindfunclet$?HkCb_SendChat@Message@@YA_NIIIPAX@Z$1:
	lea	ecx, DWORD PTR $T152350[ebp]
	jmp	DWORD PTR __imp_??1?$basic_string@GU?$char_traits@G@std@@V?$allocator@G@2@@std@@QAE@XZ
__unwindfunclet$?HkCb_SendChat@Message@@YA_NIIIPAX@Z$2:
	lea	ecx, DWORD PTR $T152351[ebp]
	jmp	DWORD PTR __imp_??1?$basic_string@GU?$char_traits@G@std@@V?$allocator@G@2@@std@@QAE@XZ
__unwindfunclet$?HkCb_SendChat@Message@@YA_NIIIPAX@Z$3:
	lea	ecx, DWORD PTR $T152352[ebp]
	jmp	DWORD PTR __imp_??1?$basic_string@GU?$char_traits@G@std@@V?$allocator@G@2@@std@@QAE@XZ
__unwindfunclet$?HkCb_SendChat@Message@@YA_NIIIPAX@Z$4:
	lea	ecx, DWORD PTR $T152353[ebp]
	jmp	DWORD PTR __imp_??1?$basic_string@GU?$char_traits@G@std@@V?$allocator@G@2@@std@@QAE@XZ
__ehhandler$?HkCb_SendChat@Message@@YA_NIIIPAX@Z:
	mov	edx, DWORD PTR [esp+8]
	lea	eax, DWORD PTR [edx+12]
	mov	ecx, DWORD PTR [edx-3276]
	xor	ecx, eax
	call	@__security_check_cookie@4
	mov	ecx, DWORD PTR [edx-4]
	xor	ecx, eax
	call	@__security_check_cookie@4
	mov	eax, OFFSET __ehfuncinfo$?HkCb_SendChat@Message@@YA_NIIIPAX@Z
	jmp	___CxxFrameHandler3
text$x	ENDS
?HkCb_SendChat@Message@@YA_NIIIPAX@Z ENDP		; Message::HkCb_SendChat
PUBLIC	__$ArrayPad$
PUBLIC	?UserCmd_SetMsg@Message@@YA_NIABV?$basic_string@GU?$char_traits@G@std@@V?$allocator@G@2@@std@@0PBG@Z ; Message::UserCmd_SetMsg
EXTRN	__imp_?IniSetWS@HookExt@@YAXIABV?$basic_string@DU?$char_traits@D@std@@V?$allocator@D@2@@std@@ABV?$basic_string@GU?$char_traits@G@std@@V?$allocator@G@2@@3@@Z:PROC
EXTRN	__imp_?size@?$basic_string@GU?$char_traits@G@std@@V?$allocator@G@2@@std@@QBEIXZ:PROC
EXTRN	?GetParamToEnd@@YA?AV?$basic_string@GU?$char_traits@G@std@@V?$allocator@G@2@@std@@ABV12@GI@Z:PROC ; GetParamToEnd
EXTRN	__imp_?ToInt@@YAHABV?$basic_string@GU?$char_traits@G@std@@V?$allocator@G@2@@std@@@Z:PROC
EXTRN	__imp_?GetParam@@YA?AV?$basic_string@GU?$char_traits@G@std@@V?$allocator@G@2@@std@@ABV12@GI@Z:PROC
xdata$x	SEGMENT
__ehfuncinfo$?UserCmd_SetMsg@Message@@YA_NIABV?$basic_string@GU?$char_traits@G@std@@V?$allocator@G@2@@std@@0PBG@Z DD 019930522H
	DD	07H
	DD	FLAT:__unwindtable$?UserCmd_SetMsg@Message@@YA_NIABV?$basic_string@GU?$char_traits@G@std@@V?$allocator@G@2@@std@@0PBG@Z
	DD	2 DUP(00H)
	DD	2 DUP(00H)
	DD	00H
	DD	00H
__unwindtable$?UserCmd_SetMsg@Message@@YA_NIABV?$basic_string@GU?$char_traits@G@std@@V?$allocator@G@2@@std@@0PBG@Z DD 0ffffffffH
	DD	FLAT:__unwindfunclet$?UserCmd_SetMsg@Message@@YA_NIABV?$basic_string@GU?$char_traits@G@std@@V?$allocator@G@2@@std@@0PBG@Z$0
	DD	0ffffffffH
	DD	FLAT:__unwindfunclet$?UserCmd_SetMsg@Message@@YA_NIABV?$basic_string@GU?$char_traits@G@std@@V?$allocator@G@2@@std@@0PBG@Z$1
	DD	01H
	DD	FLAT:__unwindfunclet$?UserCmd_SetMsg@Message@@YA_NIABV?$basic_string@GU?$char_traits@G@std@@V?$allocator@G@2@@std@@0PBG@Z$2
	DD	01H
	DD	FLAT:__unwindfunclet$?UserCmd_SetMsg@Message@@YA_NIABV?$basic_string@GU?$char_traits@G@std@@V?$allocator@G@2@@std@@0PBG@Z$3
	DD	01H
	DD	FLAT:__unwindfunclet$?UserCmd_SetMsg@Message@@YA_NIABV?$basic_string@GU?$char_traits@G@std@@V?$allocator@G@2@@std@@0PBG@Z$4
	DD	04H
	DD	FLAT:__unwindfunclet$?UserCmd_SetMsg@Message@@YA_NIABV?$basic_string@GU?$char_traits@G@std@@V?$allocator@G@2@@std@@0PBG@Z$5
	DD	01H
	DD	FLAT:__unwindfunclet$?UserCmd_SetMsg@Message@@YA_NIABV?$basic_string@GU?$char_traits@G@std@@V?$allocator@G@2@@std@@0PBG@Z$6
; Function compile flags: /Odtp
xdata$x	ENDS
_TEXT	SEGMENT
tv191 = -200						; size = 4
tv199 = -196						; size = 4
tv189 = -192						; size = 4
tv198 = -188						; size = 4
tv187 = -184						; size = 4
tv197 = -180						; size = 4
tv184 = -176						; size = 4
tv195 = -172						; size = 4
tv182 = -168						; size = 4
tv75 = -164						; size = 4
tv179 = -160						; size = 4
tv193 = -156						; size = 4
$T152372 = -149						; size = 1
$T152371 = -148						; size = 4
$T152370 = -144						; size = 28
$T152369 = -116						; size = 28
$T152368 = -85						; size = 1
$T152367 = -84						; size = 4
$T152366 = -80						; size = 4
$T152365 = -76						; size = 28
_wscMsg$ = -48						; size = 28
__$ArrayPad$ = -20					; size = 4
_iMsgSlot$ = -16					; size = 4
__$EHRec$ = -12						; size = 12
_iClientID$ = 8						; size = 4
_wscCmd$ = 12						; size = 4
_wscParam$ = 16						; size = 4
_usage$ = 20						; size = 4
?UserCmd_SetMsg@Message@@YA_NIABV?$basic_string@GU?$char_traits@G@std@@V?$allocator@G@2@@std@@0PBG@Z PROC ; Message::UserCmd_SetMsg
; Line 493
	push	ebp
	mov	ebp, esp
	push	-1
	push	__ehhandler$?UserCmd_SetMsg@Message@@YA_NIABV?$basic_string@GU?$char_traits@G@std@@V?$allocator@G@2@@std@@0PBG@Z
	mov	eax, DWORD PTR fs:0
	push	eax
	sub	esp, 188				; 000000bcH
	mov	eax, DWORD PTR ___security_cookie
	xor	eax, ebp
	mov	DWORD PTR __$ArrayPad$[ebp], eax
	push	eax
	lea	eax, DWORD PTR __$EHRec$[ebp]
	mov	DWORD PTR fs:0, eax
; Line 494
	movzx	eax, BYTE PTR _set_bSetMsg
	test	eax, eax
	jne	SHORT $LN3@UserCmd_Se
; Line 495
	xor	al, al
	jmp	$LN4@UserCmd_Se
$LN3@UserCmd_Se:
; Line 497
	push	0
	push	32					; 00000020H
	mov	ecx, DWORD PTR _wscParam$[ebp]
	push	ecx
	lea	edx, DWORD PTR $T152365[ebp]
	push	edx
	call	DWORD PTR __imp_?GetParam@@YA?AV?$basic_string@GU?$char_traits@G@std@@V?$allocator@G@2@@std@@ABV12@GI@Z
	add	esp, 16					; 00000010H
	mov	DWORD PTR tv193[ebp], eax
	mov	eax, DWORD PTR tv193[ebp]
	mov	DWORD PTR tv179[ebp], eax
	mov	DWORD PTR __$EHRec$[ebp+8], 0
	mov	ecx, DWORD PTR tv179[ebp]
	push	ecx
	call	DWORD PTR __imp_?ToInt@@YAHABV?$basic_string@GU?$char_traits@G@std@@V?$allocator@G@2@@std@@@Z
	add	esp, 4
	mov	DWORD PTR _iMsgSlot$[ebp], eax
	mov	DWORD PTR __$EHRec$[ebp+8], -1
	lea	ecx, DWORD PTR $T152365[ebp]
	call	DWORD PTR __imp_??1?$basic_string@GU?$char_traits@G@std@@V?$allocator@G@2@@std@@QAE@XZ
; Line 498
	push	1
	push	32					; 00000020H
	mov	edx, DWORD PTR _wscParam$[ebp]
	push	edx
	lea	eax, DWORD PTR _wscMsg$[ebp]
	push	eax
	call	?GetParamToEnd@@YA?AV?$basic_string@GU?$char_traits@G@std@@V?$allocator@G@2@@std@@ABV12@GI@Z ; GetParamToEnd
	add	esp, 16					; 00000010H
	mov	DWORD PTR __$EHRec$[ebp+8], 1
; Line 500
	cmp	DWORD PTR _iMsgSlot$[ebp], 0
	jl	SHORT $LN1@UserCmd_Se
	cmp	DWORD PTR _iMsgSlot$[ebp], 9
	jg	SHORT $LN1@UserCmd_Se
	mov	ecx, DWORD PTR _wscParam$[ebp]
	call	DWORD PTR __imp_?size@?$basic_string@GU?$char_traits@G@std@@V?$allocator@G@2@@std@@QBEIXZ
	test	eax, eax
	jne	$LN2@UserCmd_Se
$LN1@UserCmd_Se:
; Line 502
	sub	esp, 28					; 0000001cH
	mov	ecx, esp
	mov	DWORD PTR $T152366[ebp], esp
	push	OFFSET $SG144015
	call	DWORD PTR __imp_??0?$basic_string@GU?$char_traits@G@std@@V?$allocator@G@2@@std@@QAE@PBG@Z
	mov	DWORD PTR tv75[ebp], eax
	mov	ecx, DWORD PTR tv75[ebp]
	mov	DWORD PTR tv182[ebp], ecx
	mov	BYTE PTR __$EHRec$[ebp+8], 2
	mov	edx, DWORD PTR _iClientID$[ebp]
	push	edx
	mov	BYTE PTR __$EHRec$[ebp+8], 1
	call	DWORD PTR __imp_?PrintUserCmdText@@YAXIV?$basic_string@GU?$char_traits@G@std@@V?$allocator@G@2@@std@@ZZ
	add	esp, 32					; 00000020H
; Line 503
	sub	esp, 28					; 0000001cH
	mov	ecx, esp
	mov	DWORD PTR $T152367[ebp], esp
	mov	eax, DWORD PTR _usage$[ebp]
	push	eax
	call	DWORD PTR __imp_??0?$basic_string@GU?$char_traits@G@std@@V?$allocator@G@2@@std@@QAE@PBG@Z
	mov	DWORD PTR tv195[ebp], eax
	mov	ecx, DWORD PTR tv195[ebp]
	mov	DWORD PTR tv184[ebp], ecx
	mov	BYTE PTR __$EHRec$[ebp+8], 3
	mov	edx, DWORD PTR _iClientID$[ebp]
	push	edx
	mov	BYTE PTR __$EHRec$[ebp+8], 1
	call	DWORD PTR __imp_?PrintUserCmdText@@YAXIV?$basic_string@GU?$char_traits@G@std@@V?$allocator@G@2@@std@@ZZ
	add	esp, 32					; 00000020H
; Line 504
	mov	BYTE PTR $T152368[ebp], 1
	mov	DWORD PTR __$EHRec$[ebp+8], -1
	lea	ecx, DWORD PTR _wscMsg$[ebp]
	call	DWORD PTR __imp_??1?$basic_string@GU?$char_traits@G@std@@V?$allocator@G@2@@std@@QAE@XZ
	mov	al, BYTE PTR $T152368[ebp]
	jmp	$LN4@UserCmd_Se
$LN2@UserCmd_Se:
; Line 507
	lea	eax, DWORD PTR _wscMsg$[ebp]
	push	eax
	mov	ecx, DWORD PTR _iMsgSlot$[ebp]
	push	ecx
	lea	edx, DWORD PTR $T152369[ebp]
	push	edx
	call	DWORD PTR __imp_?itos@@YA?AV?$basic_string@DU?$char_traits@D@std@@V?$allocator@D@2@@std@@H@Z
	add	esp, 8
	mov	DWORD PTR tv197[ebp], eax
	mov	eax, DWORD PTR tv197[ebp]
	mov	DWORD PTR tv187[ebp], eax
	mov	BYTE PTR __$EHRec$[ebp+8], 4
	mov	ecx, DWORD PTR tv187[ebp]
	push	ecx
	push	OFFSET $SG144020
	lea	edx, DWORD PTR $T152370[ebp]
	push	edx
	call	DWORD PTR __imp_??$?HDU?$char_traits@D@std@@V?$allocator@D@1@@std@@YA?AV?$basic_string@DU?$char_traits@D@std@@V?$allocator@D@2@@0@PBDABV10@@Z
	add	esp, 12					; 0000000cH
	mov	DWORD PTR tv198[ebp], eax
	mov	eax, DWORD PTR tv198[ebp]
	mov	DWORD PTR tv189[ebp], eax
	mov	BYTE PTR __$EHRec$[ebp+8], 5
	mov	ecx, DWORD PTR tv189[ebp]
	push	ecx
	mov	edx, DWORD PTR _iClientID$[ebp]
	push	edx
	call	DWORD PTR __imp_?IniSetWS@HookExt@@YAXIABV?$basic_string@DU?$char_traits@D@std@@V?$allocator@D@2@@std@@ABV?$basic_string@GU?$char_traits@G@std@@V?$allocator@G@2@@3@@Z
	add	esp, 12					; 0000000cH
	mov	BYTE PTR __$EHRec$[ebp+8], 4
	lea	ecx, DWORD PTR $T152370[ebp]
	call	DWORD PTR __imp_??1?$basic_string@DU?$char_traits@D@std@@V?$allocator@D@2@@std@@QAE@XZ
	mov	BYTE PTR __$EHRec$[ebp+8], 1
	lea	ecx, DWORD PTR $T152369[ebp]
	call	DWORD PTR __imp_??1?$basic_string@DU?$char_traits@D@std@@V?$allocator@D@2@@std@@QAE@XZ
; Line 510
	mov	eax, DWORD PTR _iClientID$[ebp]
	push	eax
	call	?LoadMsgs@Message@@YAXI@Z		; Message::LoadMsgs
	add	esp, 4
; Line 511
	sub	esp, 28					; 0000001cH
	mov	ecx, esp
	mov	DWORD PTR $T152371[ebp], esp
	push	OFFSET $SG144022
	call	DWORD PTR __imp_??0?$basic_string@GU?$char_traits@G@std@@V?$allocator@G@2@@std@@QAE@PBG@Z
	mov	DWORD PTR tv199[ebp], eax
	mov	ecx, DWORD PTR tv199[ebp]
	mov	DWORD PTR tv191[ebp], ecx
	mov	BYTE PTR __$EHRec$[ebp+8], 6
	mov	edx, DWORD PTR _iClientID$[ebp]
	push	edx
	mov	BYTE PTR __$EHRec$[ebp+8], 1
	call	DWORD PTR __imp_?PrintUserCmdText@@YAXIV?$basic_string@GU?$char_traits@G@std@@V?$allocator@G@2@@std@@ZZ
	add	esp, 32					; 00000020H
; Line 512
	mov	BYTE PTR $T152372[ebp], 1
	mov	DWORD PTR __$EHRec$[ebp+8], -1
	lea	ecx, DWORD PTR _wscMsg$[ebp]
	call	DWORD PTR __imp_??1?$basic_string@GU?$char_traits@G@std@@V?$allocator@G@2@@std@@QAE@XZ
	mov	al, BYTE PTR $T152372[ebp]
$LN4@UserCmd_Se:
; Line 513
	mov	ecx, DWORD PTR __$EHRec$[ebp]
	mov	DWORD PTR fs:0, ecx
	pop	ecx
	mov	ecx, DWORD PTR __$ArrayPad$[ebp]
	xor	ecx, ebp
	call	@__security_check_cookie@4
	mov	esp, ebp
	pop	ebp
	ret	0
_TEXT	ENDS
text$x	SEGMENT
__unwindfunclet$?UserCmd_SetMsg@Message@@YA_NIABV?$basic_string@GU?$char_traits@G@std@@V?$allocator@G@2@@std@@0PBG@Z$0:
	lea	ecx, DWORD PTR $T152365[ebp]
	jmp	DWORD PTR __imp_??1?$basic_string@GU?$char_traits@G@std@@V?$allocator@G@2@@std@@QAE@XZ
__unwindfunclet$?UserCmd_SetMsg@Message@@YA_NIABV?$basic_string@GU?$char_traits@G@std@@V?$allocator@G@2@@std@@0PBG@Z$1:
	lea	ecx, DWORD PTR _wscMsg$[ebp]
	jmp	DWORD PTR __imp_??1?$basic_string@GU?$char_traits@G@std@@V?$allocator@G@2@@std@@QAE@XZ
__unwindfunclet$?UserCmd_SetMsg@Message@@YA_NIABV?$basic_string@GU?$char_traits@G@std@@V?$allocator@G@2@@std@@0PBG@Z$2:
	mov	ecx, DWORD PTR $T152366[ebp]
	jmp	DWORD PTR __imp_??1?$basic_string@GU?$char_traits@G@std@@V?$allocator@G@2@@std@@QAE@XZ
__unwindfunclet$?UserCmd_SetMsg@Message@@YA_NIABV?$basic_string@GU?$char_traits@G@std@@V?$allocator@G@2@@std@@0PBG@Z$3:
	mov	ecx, DWORD PTR $T152367[ebp]
	jmp	DWORD PTR __imp_??1?$basic_string@GU?$char_traits@G@std@@V?$allocator@G@2@@std@@QAE@XZ
__unwindfunclet$?UserCmd_SetMsg@Message@@YA_NIABV?$basic_string@GU?$char_traits@G@std@@V?$allocator@G@2@@std@@0PBG@Z$4:
	lea	ecx, DWORD PTR $T152369[ebp]
	jmp	DWORD PTR __imp_??1?$basic_string@DU?$char_traits@D@std@@V?$allocator@D@2@@std@@QAE@XZ
__unwindfunclet$?UserCmd_SetMsg@Message@@YA_NIABV?$basic_string@GU?$char_traits@G@std@@V?$allocator@G@2@@std@@0PBG@Z$5:
	lea	ecx, DWORD PTR $T152370[ebp]
	jmp	DWORD PTR __imp_??1?$basic_string@DU?$char_traits@D@std@@V?$allocator@D@2@@std@@QAE@XZ
__unwindfunclet$?UserCmd_SetMsg@Message@@YA_NIABV?$basic_string@GU?$char_traits@G@std@@V?$allocator@G@2@@std@@0PBG@Z$6:
	mov	ecx, DWORD PTR $T152371[ebp]
	jmp	DWORD PTR __imp_??1?$basic_string@GU?$char_traits@G@std@@V?$allocator@G@2@@std@@QAE@XZ
__ehhandler$?UserCmd_SetMsg@Message@@YA_NIABV?$basic_string@GU?$char_traits@G@std@@V?$allocator@G@2@@std@@0PBG@Z:
	mov	edx, DWORD PTR [esp+8]
	lea	eax, DWORD PTR [edx+12]
	mov	ecx, DWORD PTR [edx-192]
	xor	ecx, eax
	call	@__security_check_cookie@4
	mov	ecx, DWORD PTR [edx-8]
	xor	ecx, eax
	call	@__security_check_cookie@4
	mov	eax, OFFSET __ehfuncinfo$?UserCmd_SetMsg@Message@@YA_NIABV?$basic_string@GU?$char_traits@G@std@@V?$allocator@G@2@@std@@0PBG@Z
	jmp	___CxxFrameHandler3
text$x	ENDS
?UserCmd_SetMsg@Message@@YA_NIABV?$basic_string@GU?$char_traits@G@std@@V?$allocator@G@2@@std@@0PBG@Z ENDP ; Message::UserCmd_SetMsg
PUBLIC	??8const_iterator@?$_Tree@V?$_Tmap_traits@IVINFO@Message@@U?$less@I@std@@V?$allocator@U?$pair@$$CBIVINFO@Message@@@std@@@4@$0A@@std@@@std@@QBE_NABV012@@Z ; std::_Tree<std::_Tmap_traits<unsigned int,Message::INFO,std::less<unsigned int>,std::allocator<std::pair<unsigned int const ,Message::INFO> >,0> >::const_iterator::operator==
PUBLIC	?UserCmd_ShowMsgs@Message@@YA_NIABV?$basic_string@GU?$char_traits@G@std@@V?$allocator@G@2@@std@@0PBG@Z ; Message::UserCmd_ShowMsgs
xdata$x	SEGMENT
__unwindtable$?UserCmd_ShowMsgs@Message@@YA_NIABV?$basic_string@GU?$char_traits@G@std@@V?$allocator@G@2@@std@@0PBG@Z DD 0ffffffffH
	DD	FLAT:__unwindfunclet$?UserCmd_ShowMsgs@Message@@YA_NIABV?$basic_string@GU?$char_traits@G@std@@V?$allocator@G@2@@std@@0PBG@Z$0
	DD	0ffffffffH
	DD	FLAT:__unwindfunclet$?UserCmd_ShowMsgs@Message@@YA_NIABV?$basic_string@GU?$char_traits@G@std@@V?$allocator@G@2@@std@@0PBG@Z$1
	DD	0ffffffffH
	DD	FLAT:__unwindfunclet$?UserCmd_ShowMsgs@Message@@YA_NIABV?$basic_string@GU?$char_traits@G@std@@V?$allocator@G@2@@std@@0PBG@Z$2
__ehfuncinfo$?UserCmd_ShowMsgs@Message@@YA_NIABV?$basic_string@GU?$char_traits@G@std@@V?$allocator@G@2@@std@@0PBG@Z DD 019930522H
	DD	03H
	DD	FLAT:__unwindtable$?UserCmd_ShowMsgs@Message@@YA_NIABV?$basic_string@GU?$char_traits@G@std@@V?$allocator@G@2@@std@@0PBG@Z
	DD	2 DUP(00H)
	DD	2 DUP(00H)
	DD	00H
	DD	00H
; Function compile flags: /Odtp
xdata$x	ENDS
_TEXT	SEGMENT
tv189 = -68						; size = 4
tv192 = -64						; size = 4
tv187 = -60						; size = 4
tv191 = -56						; size = 4
tv183 = -52						; size = 4
tv190 = -48						; size = 4
$T152388 = -44						; size = 4
$T152387 = -40						; size = 4
$T152386 = -36						; size = 4
$T152385 = -32						; size = 8
_i$144050 = -24						; size = 4
_iter$ = -20						; size = 8
__$EHRec$ = -12						; size = 12
_iClientID$ = 8						; size = 4
_wscCmd$ = 12						; size = 4
_wscParam$ = 16						; size = 4
_usage$ = 20						; size = 4
?UserCmd_ShowMsgs@Message@@YA_NIABV?$basic_string@GU?$char_traits@G@std@@V?$allocator@G@2@@std@@0PBG@Z PROC ; Message::UserCmd_ShowMsgs
; Line 517
	push	ebp
	mov	ebp, esp
	push	-1
	push	__ehhandler$?UserCmd_ShowMsgs@Message@@YA_NIABV?$basic_string@GU?$char_traits@G@std@@V?$allocator@G@2@@std@@0PBG@Z
	mov	eax, DWORD PTR fs:0
	push	eax
	sub	esp, 56					; 00000038H
	mov	eax, DWORD PTR ___security_cookie
	xor	eax, ebp
	push	eax
	lea	eax, DWORD PTR __$EHRec$[ebp]
	mov	DWORD PTR fs:0, eax
; Line 518
	movzx	eax, BYTE PTR _set_bSetMsg
	test	eax, eax
	jne	SHORT $LN5@UserCmd_Sh
; Line 519
	xor	al, al
	jmp	$LN6@UserCmd_Sh
$LN5@UserCmd_Sh:
; Line 521
	lea	ecx, DWORD PTR _iClientID$[ebp]
	push	ecx
	lea	edx, DWORD PTR _iter$[ebp]
	push	edx
	mov	ecx, OFFSET _mapInfo
	call	?find@?$_Tree@V?$_Tmap_traits@IVINFO@Message@@U?$less@I@std@@V?$allocator@U?$pair@$$CBIVINFO@Message@@@std@@@4@$0A@@std@@@std@@QAE?AViterator@12@ABI@Z ; std::_Tree<std::_Tmap_traits<unsigned int,Message::INFO,std::less<unsigned int>,std::allocator<std::pair<unsigned int const ,Message::INFO> >,0> >::find
; Line 522
	lea	eax, DWORD PTR $T152385[ebp]
	push	eax
	mov	ecx, OFFSET _mapInfo
	call	?end@?$_Tree@V?$_Tmap_traits@IVINFO@Message@@U?$less@I@std@@V?$allocator@U?$pair@$$CBIVINFO@Message@@@std@@@4@$0A@@std@@@std@@QAE?AViterator@12@XZ ; std::_Tree<std::_Tmap_traits<unsigned int,Message::INFO,std::less<unsigned int>,std::allocator<std::pair<unsigned int const ,Message::INFO> >,0> >::end
	push	eax
	lea	ecx, DWORD PTR _iter$[ebp]
	call	??8const_iterator@?$_Tree@V?$_Tmap_traits@IVINFO@Message@@U?$less@I@std@@V?$allocator@U?$pair@$$CBIVINFO@Message@@@std@@@4@$0A@@std@@@std@@QBE_NABV012@@Z ; std::_Tree<std::_Tmap_traits<unsigned int,Message::INFO,std::less<unsigned int>,std::allocator<std::pair<unsigned int const ,Message::INFO> >,0> >::const_iterator::operator==
	movzx	ecx, al
	test	ecx, ecx
	je	SHORT $LN4@UserCmd_Sh
; Line 524
	sub	esp, 28					; 0000001cH
	mov	ecx, esp
	mov	DWORD PTR $T152386[ebp], esp
	push	OFFSET $SG144049
	call	DWORD PTR __imp_??0?$basic_string@GU?$char_traits@G@std@@V?$allocator@G@2@@std@@QAE@PBG@Z
	mov	DWORD PTR tv190[ebp], eax
	mov	edx, DWORD PTR tv190[ebp]
	mov	DWORD PTR tv183[ebp], edx
	mov	DWORD PTR __$EHRec$[ebp+8], 0
	mov	eax, DWORD PTR _iClientID$[ebp]
	push	eax
	mov	DWORD PTR __$EHRec$[ebp+8], -1
	call	DWORD PTR __imp_?PrintUserCmdText@@YAXIV?$basic_string@GU?$char_traits@G@std@@V?$allocator@G@2@@std@@ZZ
	add	esp, 32					; 00000020H
; Line 525
	mov	al, 1
	jmp	$LN6@UserCmd_Sh
$LN4@UserCmd_Sh:
; Line 528
	mov	DWORD PTR _i$144050[ebp], 0
	jmp	SHORT $LN3@UserCmd_Sh
$LN2@UserCmd_Sh:
	mov	ecx, DWORD PTR _i$144050[ebp]
	add	ecx, 1
	mov	DWORD PTR _i$144050[ebp], ecx
$LN3@UserCmd_Sh:
	cmp	DWORD PTR _i$144050[ebp], 10		; 0000000aH
	jge	SHORT $LN1@UserCmd_Sh
; Line 530
	lea	ecx, DWORD PTR _iter$[ebp]
	call	??Citerator@?$_Tree@V?$_Tmap_traits@IVINFO@Message@@U?$less@I@std@@V?$allocator@U?$pair@$$CBIVINFO@Message@@@std@@@4@$0A@@std@@@std@@QBEPAU?$pair@$$CBIVINFO@Message@@@2@XZ ; std::_Tree<std::_Tmap_traits<unsigned int,Message::INFO,std::less<unsigned int>,std::allocator<std::pair<unsigned int const ,Message::INFO> >,0> >::iterator::operator->
	mov	edx, DWORD PTR _i$144050[ebp]
	imul	edx, 28					; 0000001cH
	lea	ecx, DWORD PTR [eax+edx+4]
	call	DWORD PTR __imp_?c_str@?$basic_string@GU?$char_traits@G@std@@V?$allocator@G@2@@std@@QBEPBGXZ
	push	eax
	mov	eax, DWORD PTR _i$144050[ebp]
	push	eax
	sub	esp, 28					; 0000001cH
	mov	ecx, esp
	mov	DWORD PTR $T152387[ebp], esp
	push	OFFSET $SG144055
	call	DWORD PTR __imp_??0?$basic_string@GU?$char_traits@G@std@@V?$allocator@G@2@@std@@QAE@PBG@Z
	mov	DWORD PTR tv191[ebp], eax
	mov	ecx, DWORD PTR tv191[ebp]
	mov	DWORD PTR tv187[ebp], ecx
	mov	DWORD PTR __$EHRec$[ebp+8], 1
	mov	edx, DWORD PTR _iClientID$[ebp]
	push	edx
	mov	DWORD PTR __$EHRec$[ebp+8], -1
	call	DWORD PTR __imp_?PrintUserCmdText@@YAXIV?$basic_string@GU?$char_traits@G@std@@V?$allocator@G@2@@std@@ZZ
	add	esp, 40					; 00000028H
; Line 531
	jmp	SHORT $LN2@UserCmd_Sh
$LN1@UserCmd_Sh:
; Line 532
	sub	esp, 28					; 0000001cH
	mov	ecx, esp
	mov	DWORD PTR $T152388[ebp], esp
	push	OFFSET $SG144057
	call	DWORD PTR __imp_??0?$basic_string@GU?$char_traits@G@std@@V?$allocator@G@2@@std@@QAE@PBG@Z
	mov	DWORD PTR tv192[ebp], eax
	mov	eax, DWORD PTR tv192[ebp]
	mov	DWORD PTR tv189[ebp], eax
	mov	DWORD PTR __$EHRec$[ebp+8], 2
	mov	ecx, DWORD PTR _iClientID$[ebp]
	push	ecx
	mov	DWORD PTR __$EHRec$[ebp+8], -1
	call	DWORD PTR __imp_?PrintUserCmdText@@YAXIV?$basic_string@GU?$char_traits@G@std@@V?$allocator@G@2@@std@@ZZ
	add	esp, 32					; 00000020H
; Line 533
	mov	al, 1
$LN6@UserCmd_Sh:
; Line 534
	mov	ecx, DWORD PTR __$EHRec$[ebp]
	mov	DWORD PTR fs:0, ecx
	pop	ecx
	mov	esp, ebp
	pop	ebp
	ret	0
_TEXT	ENDS
text$x	SEGMENT
__unwindfunclet$?UserCmd_ShowMsgs@Message@@YA_NIABV?$basic_string@GU?$char_traits@G@std@@V?$allocator@G@2@@std@@0PBG@Z$0:
	mov	ecx, DWORD PTR $T152386[ebp]
	jmp	DWORD PTR __imp_??1?$basic_string@GU?$char_traits@G@std@@V?$allocator@G@2@@std@@QAE@XZ
__unwindfunclet$?UserCmd_ShowMsgs@Message@@YA_NIABV?$basic_string@GU?$char_traits@G@std@@V?$allocator@G@2@@std@@0PBG@Z$1:
	mov	ecx, DWORD PTR $T152387[ebp]
	jmp	DWORD PTR __imp_??1?$basic_string@GU?$char_traits@G@std@@V?$allocator@G@2@@std@@QAE@XZ
__unwindfunclet$?UserCmd_ShowMsgs@Message@@YA_NIABV?$basic_string@GU?$char_traits@G@std@@V?$allocator@G@2@@std@@0PBG@Z$2:
	mov	ecx, DWORD PTR $T152388[ebp]
	jmp	DWORD PTR __imp_??1?$basic_string@GU?$char_traits@G@std@@V?$allocator@G@2@@std@@QAE@XZ
__ehhandler$?UserCmd_ShowMsgs@Message@@YA_NIABV?$basic_string@GU?$char_traits@G@std@@V?$allocator@G@2@@std@@0PBG@Z:
	mov	edx, DWORD PTR [esp+8]
	lea	eax, DWORD PTR [edx+12]
	mov	ecx, DWORD PTR [edx-60]
	xor	ecx, eax
	call	@__security_check_cookie@4
	mov	eax, OFFSET __ehfuncinfo$?UserCmd_ShowMsgs@Message@@YA_NIABV?$basic_string@GU?$char_traits@G@std@@V?$allocator@G@2@@std@@0PBG@Z
	jmp	___CxxFrameHandler3
text$x	ENDS
?UserCmd_ShowMsgs@Message@@YA_NIABV?$basic_string@GU?$char_traits@G@std@@V?$allocator@G@2@@std@@0PBG@Z ENDP ; Message::UserCmd_ShowMsgs
PUBLIC	__$ArrayPad$
PUBLIC	?UserCmd_SMsg@Message@@YA_NIABV?$basic_string@GU?$char_traits@G@std@@V?$allocator@G@2@@std@@0PBG@Z ; Message::UserCmd_SMsg
EXTRN	?SendSystemChat@@YAXIABV?$basic_string@GU?$char_traits@G@std@@V?$allocator@G@2@@std@@@Z:PROC ; SendSystemChat
EXTRN	__imp_?substr@?$basic_string@GU?$char_traits@G@std@@V?$allocator@G@2@@std@@QBE?AV12@II@Z:PROC
xdata$x	SEGMENT
__ehfuncinfo$?UserCmd_SMsg@Message@@YA_NIABV?$basic_string@GU?$char_traits@G@std@@V?$allocator@G@2@@std@@0PBG@Z DD 019930522H
	DD	05H
	DD	FLAT:__unwindtable$?UserCmd_SMsg@Message@@YA_NIABV?$basic_string@GU?$char_traits@G@std@@V?$allocator@G@2@@std@@0PBG@Z
	DD	2 DUP(00H)
	DD	2 DUP(00H)
	DD	00H
	DD	00H
__unwindtable$?UserCmd_SMsg@Message@@YA_NIABV?$basic_string@GU?$char_traits@G@std@@V?$allocator@G@2@@std@@0PBG@Z DD 0ffffffffH
	DD	FLAT:__unwindfunclet$?UserCmd_SMsg@Message@@YA_NIABV?$basic_string@GU?$char_traits@G@std@@V?$allocator@G@2@@std@@0PBG@Z$0
	DD	0ffffffffH
	DD	FLAT:__unwindfunclet$?UserCmd_SMsg@Message@@YA_NIABV?$basic_string@GU?$char_traits@G@std@@V?$allocator@G@2@@std@@0PBG@Z$1
	DD	0ffffffffH
	DD	FLAT:__unwindfunclet$?UserCmd_SMsg@Message@@YA_NIABV?$basic_string@GU?$char_traits@G@std@@V?$allocator@G@2@@std@@0PBG@Z$2
	DD	0ffffffffH
	DD	FLAT:__unwindfunclet$?UserCmd_SMsg@Message@@YA_NIABV?$basic_string@GU?$char_traits@G@std@@V?$allocator@G@2@@std@@0PBG@Z$3
	DD	0ffffffffH
	DD	FLAT:__unwindfunclet$?UserCmd_SMsg@Message@@YA_NIABV?$basic_string@GU?$char_traits@G@std@@V?$allocator@G@2@@std@@0PBG@Z$4
; Function compile flags: /Odtp
xdata$x	ENDS
_TEXT	SEGMENT
tv218 = -140						; size = 4
tv225 = -136						; size = 4
tv216 = -132						; size = 4
tv224 = -128						; size = 4
tv214 = -124						; size = 4
tv223 = -120						; size = 4
tv212 = -116						; size = 4
tv222 = -112						; size = 4
$T152404 = -106						; size = 1
$T152403 = -105						; size = 1
$T152402 = -104						; size = 4
$T152401 = -100						; size = 8
$T152400 = -92						; size = 4
$T152399 = -88						; size = 4
$T152398 = -84						; size = 28
_wscMsg$ = -56						; size = 28
__$ArrayPad$ = -28					; size = 4
_iMsgSlot$ = -24					; size = 4
_iter$ = -20						; size = 8
__$EHRec$ = -12						; size = 12
_iClientID$ = 8						; size = 4
_wscCmd$ = 12						; size = 4
_wscParam$ = 16						; size = 4
_usage$ = 20						; size = 4
?UserCmd_SMsg@Message@@YA_NIABV?$basic_string@GU?$char_traits@G@std@@V?$allocator@G@2@@std@@0PBG@Z PROC ; Message::UserCmd_SMsg
; Line 538
	push	ebp
	mov	ebp, esp
	push	-1
	push	__ehhandler$?UserCmd_SMsg@Message@@YA_NIABV?$basic_string@GU?$char_traits@G@std@@V?$allocator@G@2@@std@@0PBG@Z
	mov	eax, DWORD PTR fs:0
	push	eax
	sub	esp, 128				; 00000080H
	mov	eax, DWORD PTR ___security_cookie
	xor	eax, ebp
	mov	DWORD PTR __$ArrayPad$[ebp], eax
	push	eax
	lea	eax, DWORD PTR __$EHRec$[ebp]
	mov	DWORD PTR fs:0, eax
; Line 539
	movzx	eax, BYTE PTR _set_bSetMsg
	test	eax, eax
	jne	SHORT $LN6@UserCmd_SM
; Line 540
	xor	al, al
	jmp	$LN7@UserCmd_SM
$LN6@UserCmd_SM:
; Line 542
	push	1
	push	1
	lea	ecx, DWORD PTR $T152398[ebp]
	push	ecx
	mov	ecx, DWORD PTR _wscCmd$[ebp]
	call	DWORD PTR __imp_?substr@?$basic_string@GU?$char_traits@G@std@@V?$allocator@G@2@@std@@QBE?AV12@II@Z
	mov	DWORD PTR tv222[ebp], eax
	mov	edx, DWORD PTR tv222[ebp]
	mov	DWORD PTR tv212[ebp], edx
	mov	DWORD PTR __$EHRec$[ebp+8], 0
	mov	eax, DWORD PTR tv212[ebp]
	push	eax
	call	DWORD PTR __imp_?ToInt@@YAHABV?$basic_string@GU?$char_traits@G@std@@V?$allocator@G@2@@std@@@Z
	add	esp, 4
	mov	DWORD PTR _iMsgSlot$[ebp], eax
	mov	DWORD PTR __$EHRec$[ebp+8], -1
	lea	ecx, DWORD PTR $T152398[ebp]
	call	DWORD PTR __imp_??1?$basic_string@GU?$char_traits@G@std@@V?$allocator@G@2@@std@@QAE@XZ
; Line 543
	cmp	DWORD PTR _iMsgSlot$[ebp], 0
	jl	SHORT $LN4@UserCmd_SM
	cmp	DWORD PTR _iMsgSlot$[ebp], 9
	jle	SHORT $LN5@UserCmd_SM
$LN4@UserCmd_SM:
; Line 545
	sub	esp, 28					; 0000001cH
	mov	ecx, esp
	mov	DWORD PTR $T152399[ebp], esp
	push	OFFSET $SG144070
	call	DWORD PTR __imp_??0?$basic_string@GU?$char_traits@G@std@@V?$allocator@G@2@@std@@QAE@PBG@Z
	mov	DWORD PTR tv223[ebp], eax
	mov	ecx, DWORD PTR tv223[ebp]
	mov	DWORD PTR tv214[ebp], ecx
	mov	DWORD PTR __$EHRec$[ebp+8], 1
	mov	edx, DWORD PTR _iClientID$[ebp]
	push	edx
	mov	DWORD PTR __$EHRec$[ebp+8], -1
	call	DWORD PTR __imp_?PrintUserCmdText@@YAXIV?$basic_string@GU?$char_traits@G@std@@V?$allocator@G@2@@std@@ZZ
	add	esp, 32					; 00000020H
; Line 546
	sub	esp, 28					; 0000001cH
	mov	ecx, esp
	mov	DWORD PTR $T152400[ebp], esp
	mov	eax, DWORD PTR _usage$[ebp]
	push	eax
	call	DWORD PTR __imp_??0?$basic_string@GU?$char_traits@G@std@@V?$allocator@G@2@@std@@QAE@PBG@Z
	mov	DWORD PTR tv224[ebp], eax
	mov	ecx, DWORD PTR tv224[ebp]
	mov	DWORD PTR tv216[ebp], ecx
	mov	DWORD PTR __$EHRec$[ebp+8], 2
	mov	edx, DWORD PTR _iClientID$[ebp]
	push	edx
	mov	DWORD PTR __$EHRec$[ebp+8], -1
	call	DWORD PTR __imp_?PrintUserCmdText@@YAXIV?$basic_string@GU?$char_traits@G@std@@V?$allocator@G@2@@std@@ZZ
	add	esp, 32					; 00000020H
; Line 547
	mov	al, 1
	jmp	$LN7@UserCmd_SM
$LN5@UserCmd_SM:
; Line 550
	lea	eax, DWORD PTR _iClientID$[ebp]
	push	eax
	lea	ecx, DWORD PTR _iter$[ebp]
	push	ecx
	mov	ecx, OFFSET _mapInfo
	call	?find@?$_Tree@V?$_Tmap_traits@IVINFO@Message@@U?$less@I@std@@V?$allocator@U?$pair@$$CBIVINFO@Message@@@std@@@4@$0A@@std@@@std@@QAE?AViterator@12@ABI@Z ; std::_Tree<std::_Tmap_traits<unsigned int,Message::INFO,std::less<unsigned int>,std::allocator<std::pair<unsigned int const ,Message::INFO> >,0> >::find
; Line 551
	lea	edx, DWORD PTR $T152401[ebp]
	push	edx
	mov	ecx, OFFSET _mapInfo
	call	?end@?$_Tree@V?$_Tmap_traits@IVINFO@Message@@U?$less@I@std@@V?$allocator@U?$pair@$$CBIVINFO@Message@@@std@@@4@$0A@@std@@@std@@QAE?AViterator@12@XZ ; std::_Tree<std::_Tmap_traits<unsigned int,Message::INFO,std::less<unsigned int>,std::allocator<std::pair<unsigned int const ,Message::INFO> >,0> >::end
	push	eax
	lea	ecx, DWORD PTR _iter$[ebp]
	call	??8const_iterator@?$_Tree@V?$_Tmap_traits@IVINFO@Message@@U?$less@I@std@@V?$allocator@U?$pair@$$CBIVINFO@Message@@@std@@@4@$0A@@std@@@std@@QBE_NABV012@@Z ; std::_Tree<std::_Tmap_traits<unsigned int,Message::INFO,std::less<unsigned int>,std::allocator<std::pair<unsigned int const ,Message::INFO> >,0> >::const_iterator::operator==
	movzx	eax, al
	test	eax, eax
	jne	SHORT $LN2@UserCmd_SM
	lea	ecx, DWORD PTR _iter$[ebp]
	call	??Citerator@?$_Tree@V?$_Tmap_traits@IVINFO@Message@@U?$less@I@std@@V?$allocator@U?$pair@$$CBIVINFO@Message@@@std@@@4@$0A@@std@@@std@@QBEPAU?$pair@$$CBIVINFO@Message@@@2@XZ ; std::_Tree<std::_Tmap_traits<unsigned int,Message::INFO,std::less<unsigned int>,std::allocator<std::pair<unsigned int const ,Message::INFO> >,0> >::iterator::operator->
	mov	ecx, DWORD PTR _iMsgSlot$[ebp]
	imul	ecx, 28					; 0000001cH
	lea	ecx, DWORD PTR [eax+ecx+4]
	call	DWORD PTR __imp_?size@?$basic_string@GU?$char_traits@G@std@@V?$allocator@G@2@@std@@QBEIXZ
	test	eax, eax
	jne	SHORT $LN3@UserCmd_SM
$LN2@UserCmd_SM:
; Line 553
	sub	esp, 28					; 0000001cH
	mov	ecx, esp
	mov	DWORD PTR $T152402[ebp], esp
	push	OFFSET $SG144091
	call	DWORD PTR __imp_??0?$basic_string@GU?$char_traits@G@std@@V?$allocator@G@2@@std@@QAE@PBG@Z
	mov	DWORD PTR tv225[ebp], eax
	mov	edx, DWORD PTR tv225[ebp]
	mov	DWORD PTR tv218[ebp], edx
	mov	DWORD PTR __$EHRec$[ebp+8], 3
	mov	eax, DWORD PTR _iClientID$[ebp]
	push	eax
	mov	DWORD PTR __$EHRec$[ebp+8], -1
	call	DWORD PTR __imp_?PrintUserCmdText@@YAXIV?$basic_string@GU?$char_traits@G@std@@V?$allocator@G@2@@std@@ZZ
	add	esp, 32					; 00000020H
; Line 554
	mov	al, 1
	jmp	$LN7@UserCmd_SM
$LN3@UserCmd_SM:
; Line 558
	lea	ecx, DWORD PTR _iter$[ebp]
	call	??Citerator@?$_Tree@V?$_Tmap_traits@IVINFO@Message@@U?$less@I@std@@V?$allocator@U?$pair@$$CBIVINFO@Message@@@std@@@4@$0A@@std@@@std@@QBEPAU?$pair@$$CBIVINFO@Message@@@2@XZ ; std::_Tree<std::_Tmap_traits<unsigned int,Message::INFO,std::less<unsigned int>,std::allocator<std::pair<unsigned int const ,Message::INFO> >,0> >::iterator::operator->
	mov	ecx, DWORD PTR _iMsgSlot$[ebp]
	imul	ecx, 28					; 0000001cH
	lea	edx, DWORD PTR [eax+ecx+4]
	push	edx
	lea	ecx, DWORD PTR _wscMsg$[ebp]
	call	DWORD PTR __imp_??0?$basic_string@GU?$char_traits@G@std@@V?$allocator@G@2@@std@@QAE@ABV01@@Z
	mov	DWORD PTR __$EHRec$[ebp+8], 4
; Line 559
	lea	eax, DWORD PTR _wscMsg$[ebp]
	push	eax
	lea	ecx, DWORD PTR _iter$[ebp]
	call	??Citerator@?$_Tree@V?$_Tmap_traits@IVINFO@Message@@U?$less@I@std@@V?$allocator@U?$pair@$$CBIVINFO@Message@@@std@@@4@$0A@@std@@@std@@QBEPAU?$pair@$$CBIVINFO@Message@@@2@XZ ; std::_Tree<std::_Tmap_traits<unsigned int,Message::INFO,std::less<unsigned int>,std::allocator<std::pair<unsigned int const ,Message::INFO> >,0> >::iterator::operator->
	add	eax, 4
	push	eax
	mov	ecx, DWORD PTR _iClientID$[ebp]
	push	ecx
	call	?ReplaceMessageTags@Message@@YA_NIAAVINFO@1@AAV?$basic_string@GU?$char_traits@G@std@@V?$allocator@G@2@@std@@@Z ; Message::ReplaceMessageTags
	add	esp, 12					; 0000000cH
	movzx	edx, al
	test	edx, edx
	jne	SHORT $LN1@UserCmd_SM
; Line 560
	mov	BYTE PTR $T152403[ebp], 1
	mov	DWORD PTR __$EHRec$[ebp+8], -1
	lea	ecx, DWORD PTR _wscMsg$[ebp]
	call	DWORD PTR __imp_??1?$basic_string@GU?$char_traits@G@std@@V?$allocator@G@2@@std@@QAE@XZ
	mov	al, BYTE PTR $T152403[ebp]
	jmp	SHORT $LN7@UserCmd_SM
$LN1@UserCmd_SM:
; Line 562
	lea	eax, DWORD PTR _wscMsg$[ebp]
	push	eax
	mov	ecx, DWORD PTR _iClientID$[ebp]
	push	ecx
	call	?SendSystemChat@@YAXIABV?$basic_string@GU?$char_traits@G@std@@V?$allocator@G@2@@std@@@Z ; SendSystemChat
	add	esp, 8
; Line 564
	mov	BYTE PTR $T152404[ebp], 1
	mov	DWORD PTR __$EHRec$[ebp+8], -1
	lea	ecx, DWORD PTR _wscMsg$[ebp]
	call	DWORD PTR __imp_??1?$basic_string@GU?$char_traits@G@std@@V?$allocator@G@2@@std@@QAE@XZ
	mov	al, BYTE PTR $T152404[ebp]
$LN7@UserCmd_SM:
; Line 565
	mov	ecx, DWORD PTR __$EHRec$[ebp]
	mov	DWORD PTR fs:0, ecx
	pop	ecx
	mov	ecx, DWORD PTR __$ArrayPad$[ebp]
	xor	ecx, ebp
	call	@__security_check_cookie@4
	mov	esp, ebp
	pop	ebp
	ret	0
_TEXT	ENDS
text$x	SEGMENT
__unwindfunclet$?UserCmd_SMsg@Message@@YA_NIABV?$basic_string@GU?$char_traits@G@std@@V?$allocator@G@2@@std@@0PBG@Z$0:
	lea	ecx, DWORD PTR $T152398[ebp]
	jmp	DWORD PTR __imp_??1?$basic_string@GU?$char_traits@G@std@@V?$allocator@G@2@@std@@QAE@XZ
__unwindfunclet$?UserCmd_SMsg@Message@@YA_NIABV?$basic_string@GU?$char_traits@G@std@@V?$allocator@G@2@@std@@0PBG@Z$1:
	mov	ecx, DWORD PTR $T152399[ebp]
	jmp	DWORD PTR __imp_??1?$basic_string@GU?$char_traits@G@std@@V?$allocator@G@2@@std@@QAE@XZ
__unwindfunclet$?UserCmd_SMsg@Message@@YA_NIABV?$basic_string@GU?$char_traits@G@std@@V?$allocator@G@2@@std@@0PBG@Z$2:
	mov	ecx, DWORD PTR $T152400[ebp]
	jmp	DWORD PTR __imp_??1?$basic_string@GU?$char_traits@G@std@@V?$allocator@G@2@@std@@QAE@XZ
__unwindfunclet$?UserCmd_SMsg@Message@@YA_NIABV?$basic_string@GU?$char_traits@G@std@@V?$allocator@G@2@@std@@0PBG@Z$3:
	mov	ecx, DWORD PTR $T152402[ebp]
	jmp	DWORD PTR __imp_??1?$basic_string@GU?$char_traits@G@std@@V?$allocator@G@2@@std@@QAE@XZ
__unwindfunclet$?UserCmd_SMsg@Message@@YA_NIABV?$basic_string@GU?$char_traits@G@std@@V?$allocator@G@2@@std@@0PBG@Z$4:
	lea	ecx, DWORD PTR _wscMsg$[ebp]
	jmp	DWORD PTR __imp_??1?$basic_string@GU?$char_traits@G@std@@V?$allocator@G@2@@std@@QAE@XZ
__ehhandler$?UserCmd_SMsg@Message@@YA_NIABV?$basic_string@GU?$char_traits@G@std@@V?$allocator@G@2@@std@@0PBG@Z:
	mov	edx, DWORD PTR [esp+8]
	lea	eax, DWORD PTR [edx+12]
	mov	ecx, DWORD PTR [edx-132]
	xor	ecx, eax
	call	@__security_check_cookie@4
	mov	ecx, DWORD PTR [edx-16]
	xor	ecx, eax
	call	@__security_check_cookie@4
	mov	eax, OFFSET __ehfuncinfo$?UserCmd_SMsg@Message@@YA_NIABV?$basic_string@GU?$char_traits@G@std@@V?$allocator@G@2@@std@@0PBG@Z
	jmp	___CxxFrameHandler3
text$x	ENDS
?UserCmd_SMsg@Message@@YA_NIABV?$basic_string@GU?$char_traits@G@std@@V?$allocator@G@2@@std@@0PBG@Z ENDP ; Message::UserCmd_SMsg
PUBLIC	__$ArrayPad$
EXTRN	?GetLocation@@YA?AV?$basic_string@GU?$char_traits@G@std@@V?$allocator@G@2@@std@@I@Z:PROC ; GetLocation
xdata$x	SEGMENT
__ehfuncinfo$?ReplaceMessageTags@Message@@YA_NIAAVINFO@1@AAV?$basic_string@GU?$char_traits@G@std@@V?$allocator@G@2@@std@@@Z DD 019930522H
	DD	08H
	DD	FLAT:__unwindtable$?ReplaceMessageTags@Message@@YA_NIAAVINFO@1@AAV?$basic_string@GU?$char_traits@G@std@@V?$allocator@G@2@@std@@@Z
	DD	2 DUP(00H)
	DD	2 DUP(00H)
	DD	00H
	DD	00H
__unwindtable$?ReplaceMessageTags@Message@@YA_NIAAVINFO@1@AAV?$basic_string@GU?$char_traits@G@std@@V?$allocator@G@2@@std@@@Z DD 0ffffffffH
	DD	FLAT:__unwindfunclet$?ReplaceMessageTags@Message@@YA_NIAAVINFO@1@AAV?$basic_string@GU?$char_traits@G@std@@V?$allocator@G@2@@std@@@Z$0
	DD	0ffffffffH
	DD	FLAT:__unwindfunclet$?ReplaceMessageTags@Message@@YA_NIAAVINFO@1@AAV?$basic_string@GU?$char_traits@G@std@@V?$allocator@G@2@@std@@@Z$1
	DD	01H
	DD	FLAT:__unwindfunclet$?ReplaceMessageTags@Message@@YA_NIAAVINFO@1@AAV?$basic_string@GU?$char_traits@G@std@@V?$allocator@G@2@@std@@@Z$2
	DD	02H
	DD	FLAT:__unwindfunclet$?ReplaceMessageTags@Message@@YA_NIAAVINFO@1@AAV?$basic_string@GU?$char_traits@G@std@@V?$allocator@G@2@@std@@@Z$3
	DD	0ffffffffH
	DD	FLAT:__unwindfunclet$?ReplaceMessageTags@Message@@YA_NIAAVINFO@1@AAV?$basic_string@GU?$char_traits@G@std@@V?$allocator@G@2@@std@@@Z$4
	DD	04H
	DD	FLAT:__unwindfunclet$?ReplaceMessageTags@Message@@YA_NIAAVINFO@1@AAV?$basic_string@GU?$char_traits@G@std@@V?$allocator@G@2@@std@@@Z$5
	DD	05H
	DD	FLAT:__unwindfunclet$?ReplaceMessageTags@Message@@YA_NIAAVINFO@1@AAV?$basic_string@GU?$char_traits@G@std@@V?$allocator@G@2@@std@@@Z$6
	DD	06H
	DD	FLAT:__unwindfunclet$?ReplaceMessageTags@Message@@YA_NIAAVINFO@1@AAV?$basic_string@GU?$char_traits@G@std@@V?$allocator@G@2@@std@@@Z$7
; Function compile flags: /Odtp
xdata$x	ENDS
_TEXT	SEGMENT
tv177 = -240						; size = 4
tv159 = -236						; size = 4
tv172 = -232						; size = 4
tv131 = -228						; size = 4
tv168 = -224						; size = 4
tv178 = -220						; size = 4
$T152421 = -216						; size = 28
$T152420 = -188						; size = 28
$T152419 = -160						; size = 28
$T152418 = -132						; size = 28
$T152417 = -104						; size = 28
$T152416 = -76						; size = 4
_wscCurrLocation$142900 = -72				; size = 28
_wscTargetName$142893 = -44				; size = 28
__$ArrayPad$ = -16					; size = 4
__$EHRec$ = -12						; size = 12
_iClientID$ = 8						; size = 4
_clientData$ = 12					; size = 4
_wscMsg$ = 16						; size = 4
?ReplaceMessageTags@Message@@YA_NIAAVINFO@1@AAV?$basic_string@GU?$char_traits@G@std@@V?$allocator@G@2@@std@@@Z PROC ; Message::ReplaceMessageTags
; Line 202
	push	ebp
	mov	ebp, esp
	push	-1
	push	__ehhandler$?ReplaceMessageTags@Message@@YA_NIAAVINFO@1@AAV?$basic_string@GU?$char_traits@G@std@@V?$allocator@G@2@@std@@@Z
	mov	eax, DWORD PTR fs:0
	push	eax
	sub	esp, 228				; 000000e4H
	mov	eax, DWORD PTR ___security_cookie
	xor	eax, ebp
	mov	DWORD PTR __$ArrayPad$[ebp], eax
	push	eax
	lea	eax, DWORD PTR __$EHRec$[ebp]
	mov	DWORD PTR fs:0, eax
; Line 203
	push	0
	push	OFFSET $SG142889
	mov	ecx, DWORD PTR _wscMsg$[ebp]
	call	DWORD PTR __imp_?find@?$basic_string@GU?$char_traits@G@std@@V?$allocator@G@2@@std@@QBEIPBGI@Z
	cmp	eax, -1
	je	$LN3@ReplaceMes
; Line 205
	mov	eax, DWORD PTR _clientData$[ebp]
	cmp	DWORD PTR [eax+284], -1
	jne	SHORT $LN2@ReplaceMes
; Line 207
	sub	esp, 28					; 0000001cH
	mov	ecx, esp
	mov	DWORD PTR $T152416[ebp], esp
	push	OFFSET $SG142892
	call	DWORD PTR __imp_??0?$basic_string@GU?$char_traits@G@std@@V?$allocator@G@2@@std@@QAE@PBG@Z
	mov	DWORD PTR tv178[ebp], eax
	mov	ecx, DWORD PTR tv178[ebp]
	mov	DWORD PTR tv168[ebp], ecx
	mov	DWORD PTR __$EHRec$[ebp+8], 0
	mov	edx, DWORD PTR _iClientID$[ebp]
	push	edx
	mov	DWORD PTR __$EHRec$[ebp+8], -1
	call	DWORD PTR __imp_?PrintUserCmdText@@YAXIV?$basic_string@GU?$char_traits@G@std@@V?$allocator@G@2@@std@@ZZ
	add	esp, 32					; 00000020H
; Line 208
	xor	al, al
	jmp	$LN4@ReplaceMes
$LN2@ReplaceMes:
; Line 211
	mov	eax, DWORD PTR _clientData$[ebp]
	mov	ecx, DWORD PTR [eax+284]
	push	ecx
	mov	ecx, DWORD PTR __imp_?Players@@3VPlayerDB@@A
	call	DWORD PTR __imp_?GetActiveCharacterName@PlayerDB@@QBEPBGI@Z
	push	eax
	lea	ecx, DWORD PTR _wscTargetName$142893[ebp]
	call	DWORD PTR __imp_??0?$basic_string@GU?$char_traits@G@std@@V?$allocator@G@2@@std@@QAE@PBG@Z
	mov	DWORD PTR __$EHRec$[ebp+8], 1
; Line 212
	push	OFFSET $SG142897
	lea	ecx, DWORD PTR $T152417[ebp]
	call	DWORD PTR __imp_??0?$basic_string@GU?$char_traits@G@std@@V?$allocator@G@2@@std@@QAE@PBG@Z
	mov	BYTE PTR __$EHRec$[ebp+8], 2
	lea	edx, DWORD PTR _wscTargetName$142893[ebp]
	push	edx
	lea	eax, DWORD PTR $T152417[ebp]
	push	eax
	mov	ecx, DWORD PTR _wscMsg$[ebp]
	push	ecx
	lea	edx, DWORD PTR $T152418[ebp]
	push	edx
	call	DWORD PTR __imp_?ReplaceStr@@YA?AV?$basic_string@GU?$char_traits@G@std@@V?$allocator@G@2@@std@@ABV12@00@Z
	add	esp, 16					; 00000010H
	mov	DWORD PTR tv131[ebp], eax
	mov	eax, DWORD PTR tv131[ebp]
	mov	DWORD PTR tv172[ebp], eax
	mov	BYTE PTR __$EHRec$[ebp+8], 3
	mov	ecx, DWORD PTR tv172[ebp]
	push	ecx
	mov	ecx, DWORD PTR _wscMsg$[ebp]
	call	DWORD PTR __imp_??4?$basic_string@GU?$char_traits@G@std@@V?$allocator@G@2@@std@@QAEAAV01@ABV01@@Z
	mov	BYTE PTR __$EHRec$[ebp+8], 2
	lea	ecx, DWORD PTR $T152418[ebp]
	call	DWORD PTR __imp_??1?$basic_string@GU?$char_traits@G@std@@V?$allocator@G@2@@std@@QAE@XZ
	mov	BYTE PTR __$EHRec$[ebp+8], 1
	lea	ecx, DWORD PTR $T152417[ebp]
	call	DWORD PTR __imp_??1?$basic_string@GU?$char_traits@G@std@@V?$allocator@G@2@@std@@QAE@XZ
; Line 213
	mov	DWORD PTR __$EHRec$[ebp+8], -1
	lea	ecx, DWORD PTR _wscTargetName$142893[ebp]
	call	DWORD PTR __imp_??1?$basic_string@GU?$char_traits@G@std@@V?$allocator@G@2@@std@@QAE@XZ
$LN3@ReplaceMes:
; Line 215
	push	0
	push	OFFSET $SG142899
	mov	ecx, DWORD PTR _wscMsg$[ebp]
	call	DWORD PTR __imp_?find@?$basic_string@GU?$char_traits@G@std@@V?$allocator@G@2@@std@@QBEIPBGI@Z
	cmp	eax, -1
	je	$LN1@ReplaceMes
; Line 217
	mov	edx, DWORD PTR _iClientID$[ebp]
	push	edx
	lea	eax, DWORD PTR _wscCurrLocation$142900[ebp]
	push	eax
	call	?GetLocation@@YA?AV?$basic_string@GU?$char_traits@G@std@@V?$allocator@G@2@@std@@I@Z ; GetLocation
	add	esp, 8
	mov	DWORD PTR __$EHRec$[ebp+8], 4
; Line 218
	lea	ecx, DWORD PTR _wscCurrLocation$142900[ebp]
	call	DWORD PTR __imp_?c_str@?$basic_string@GU?$char_traits@G@std@@V?$allocator@G@2@@std@@QBEPBGXZ
	push	eax
	lea	ecx, DWORD PTR $T152419[ebp]
	call	DWORD PTR __imp_??0?$basic_string@GU?$char_traits@G@std@@V?$allocator@G@2@@std@@QAE@PBG@Z
	mov	BYTE PTR __$EHRec$[ebp+8], 5
	push	OFFSET $SG142905
	lea	ecx, DWORD PTR $T152420[ebp]
	call	DWORD PTR __imp_??0?$basic_string@GU?$char_traits@G@std@@V?$allocator@G@2@@std@@QAE@PBG@Z
	mov	BYTE PTR __$EHRec$[ebp+8], 6
	lea	ecx, DWORD PTR $T152419[ebp]
	push	ecx
	lea	edx, DWORD PTR $T152420[ebp]
	push	edx
	mov	eax, DWORD PTR _wscMsg$[ebp]
	push	eax
	lea	ecx, DWORD PTR $T152421[ebp]
	push	ecx
	call	DWORD PTR __imp_?ReplaceStr@@YA?AV?$basic_string@GU?$char_traits@G@std@@V?$allocator@G@2@@std@@ABV12@00@Z
	add	esp, 16					; 00000010H
	mov	DWORD PTR tv159[ebp], eax
	mov	edx, DWORD PTR tv159[ebp]
	mov	DWORD PTR tv177[ebp], edx
	mov	BYTE PTR __$EHRec$[ebp+8], 7
	mov	eax, DWORD PTR tv177[ebp]
	push	eax
	mov	ecx, DWORD PTR _wscMsg$[ebp]
	call	DWORD PTR __imp_??4?$basic_string@GU?$char_traits@G@std@@V?$allocator@G@2@@std@@QAEAAV01@ABV01@@Z
	mov	BYTE PTR __$EHRec$[ebp+8], 6
	lea	ecx, DWORD PTR $T152421[ebp]
	call	DWORD PTR __imp_??1?$basic_string@GU?$char_traits@G@std@@V?$allocator@G@2@@std@@QAE@XZ
	mov	BYTE PTR __$EHRec$[ebp+8], 5
	lea	ecx, DWORD PTR $T152420[ebp]
	call	DWORD PTR __imp_??1?$basic_string@GU?$char_traits@G@std@@V?$allocator@G@2@@std@@QAE@XZ
	mov	BYTE PTR __$EHRec$[ebp+8], 4
	lea	ecx, DWORD PTR $T152419[ebp]
	call	DWORD PTR __imp_??1?$basic_string@GU?$char_traits@G@std@@V?$allocator@G@2@@std@@QAE@XZ
; Line 219
	mov	DWORD PTR __$EHRec$[ebp+8], -1
	lea	ecx, DWORD PTR _wscCurrLocation$142900[ebp]
	call	DWORD PTR __imp_??1?$basic_string@GU?$char_traits@G@std@@V?$allocator@G@2@@std@@QAE@XZ
$LN1@ReplaceMes:
; Line 221
	mov	al, 1
$LN4@ReplaceMes:
; Line 222
	mov	ecx, DWORD PTR __$EHRec$[ebp]
	mov	DWORD PTR fs:0, ecx
	pop	ecx
	mov	ecx, DWORD PTR __$ArrayPad$[ebp]
	xor	ecx, ebp
	call	@__security_check_cookie@4
	mov	esp, ebp
	pop	ebp
	ret	0
_TEXT	ENDS
text$x	SEGMENT
__unwindfunclet$?ReplaceMessageTags@Message@@YA_NIAAVINFO@1@AAV?$basic_string@GU?$char_traits@G@std@@V?$allocator@G@2@@std@@@Z$0:
	mov	ecx, DWORD PTR $T152416[ebp]
	jmp	DWORD PTR __imp_??1?$basic_string@GU?$char_traits@G@std@@V?$allocator@G@2@@std@@QAE@XZ
__unwindfunclet$?ReplaceMessageTags@Message@@YA_NIAAVINFO@1@AAV?$basic_string@GU?$char_traits@G@std@@V?$allocator@G@2@@std@@@Z$1:
	lea	ecx, DWORD PTR _wscTargetName$142893[ebp]
	jmp	DWORD PTR __imp_??1?$basic_string@GU?$char_traits@G@std@@V?$allocator@G@2@@std@@QAE@XZ
__unwindfunclet$?ReplaceMessageTags@Message@@YA_NIAAVINFO@1@AAV?$basic_string@GU?$char_traits@G@std@@V?$allocator@G@2@@std@@@Z$2:
	lea	ecx, DWORD PTR $T152417[ebp]
	jmp	DWORD PTR __imp_??1?$basic_string@GU?$char_traits@G@std@@V?$allocator@G@2@@std@@QAE@XZ
__unwindfunclet$?ReplaceMessageTags@Message@@YA_NIAAVINFO@1@AAV?$basic_string@GU?$char_traits@G@std@@V?$allocator@G@2@@std@@@Z$3:
	lea	ecx, DWORD PTR $T152418[ebp]
	jmp	DWORD PTR __imp_??1?$basic_string@GU?$char_traits@G@std@@V?$allocator@G@2@@std@@QAE@XZ
__unwindfunclet$?ReplaceMessageTags@Message@@YA_NIAAVINFO@1@AAV?$basic_string@GU?$char_traits@G@std@@V?$allocator@G@2@@std@@@Z$4:
	lea	ecx, DWORD PTR _wscCurrLocation$142900[ebp]
	jmp	DWORD PTR __imp_??1?$basic_string@GU?$char_traits@G@std@@V?$allocator@G@2@@std@@QAE@XZ
__unwindfunclet$?ReplaceMessageTags@Message@@YA_NIAAVINFO@1@AAV?$basic_string@GU?$char_traits@G@std@@V?$allocator@G@2@@std@@@Z$5:
	lea	ecx, DWORD PTR $T152419[ebp]
	jmp	DWORD PTR __imp_??1?$basic_string@GU?$char_traits@G@std@@V?$allocator@G@2@@std@@QAE@XZ
__unwindfunclet$?ReplaceMessageTags@Message@@YA_NIAAVINFO@1@AAV?$basic_string@GU?$char_traits@G@std@@V?$allocator@G@2@@std@@@Z$6:
	lea	ecx, DWORD PTR $T152420[ebp]
	jmp	DWORD PTR __imp_??1?$basic_string@GU?$char_traits@G@std@@V?$allocator@G@2@@std@@QAE@XZ
__unwindfunclet$?ReplaceMessageTags@Message@@YA_NIAAVINFO@1@AAV?$basic_string@GU?$char_traits@G@std@@V?$allocator@G@2@@std@@@Z$7:
	lea	ecx, DWORD PTR $T152421[ebp]
	jmp	DWORD PTR __imp_??1?$basic_string@GU?$char_traits@G@std@@V?$allocator@G@2@@std@@QAE@XZ
__ehhandler$?ReplaceMessageTags@Message@@YA_NIAAVINFO@1@AAV?$basic_string@GU?$char_traits@G@std@@V?$allocator@G@2@@std@@@Z:
	mov	edx, DWORD PTR [esp+8]
	lea	eax, DWORD PTR [edx+12]
	mov	ecx, DWORD PTR [edx-232]
	xor	ecx, eax
	call	@__security_check_cookie@4
	mov	ecx, DWORD PTR [edx-4]
	xor	ecx, eax
	call	@__security_check_cookie@4
	mov	eax, OFFSET __ehfuncinfo$?ReplaceMessageTags@Message@@YA_NIAAVINFO@1@AAV?$basic_string@GU?$char_traits@G@std@@V?$allocator@G@2@@std@@@Z
	jmp	___CxxFrameHandler3
text$x	ENDS
?ReplaceMessageTags@Message@@YA_NIAAVINFO@1@AAV?$basic_string@GU?$char_traits@G@std@@V?$allocator@G@2@@std@@@Z ENDP ; Message::ReplaceMessageTags
PUBLIC	__$ArrayPad$
PUBLIC	?UserCmd_LMsg@Message@@YA_NIABV?$basic_string@GU?$char_traits@G@std@@V?$allocator@G@2@@std@@0PBG@Z ; Message::UserCmd_LMsg
EXTRN	?SendLocalSystemChat@@YAXIABV?$basic_string@GU?$char_traits@G@std@@V?$allocator@G@2@@std@@@Z:PROC ; SendLocalSystemChat
xdata$x	SEGMENT
__ehfuncinfo$?UserCmd_LMsg@Message@@YA_NIABV?$basic_string@GU?$char_traits@G@std@@V?$allocator@G@2@@std@@0PBG@Z DD 019930522H
	DD	05H
	DD	FLAT:__unwindtable$?UserCmd_LMsg@Message@@YA_NIABV?$basic_string@GU?$char_traits@G@std@@V?$allocator@G@2@@std@@0PBG@Z
	DD	2 DUP(00H)
	DD	2 DUP(00H)
	DD	00H
	DD	00H
__unwindtable$?UserCmd_LMsg@Message@@YA_NIABV?$basic_string@GU?$char_traits@G@std@@V?$allocator@G@2@@std@@0PBG@Z DD 0ffffffffH
	DD	FLAT:__unwindfunclet$?UserCmd_LMsg@Message@@YA_NIABV?$basic_string@GU?$char_traits@G@std@@V?$allocator@G@2@@std@@0PBG@Z$0
	DD	0ffffffffH
	DD	FLAT:__unwindfunclet$?UserCmd_LMsg@Message@@YA_NIABV?$basic_string@GU?$char_traits@G@std@@V?$allocator@G@2@@std@@0PBG@Z$1
	DD	0ffffffffH
	DD	FLAT:__unwindfunclet$?UserCmd_LMsg@Message@@YA_NIABV?$basic_string@GU?$char_traits@G@std@@V?$allocator@G@2@@std@@0PBG@Z$2
	DD	0ffffffffH
	DD	FLAT:__unwindfunclet$?UserCmd_LMsg@Message@@YA_NIABV?$basic_string@GU?$char_traits@G@std@@V?$allocator@G@2@@std@@0PBG@Z$3
	DD	0ffffffffH
	DD	FLAT:__unwindfunclet$?UserCmd_LMsg@Message@@YA_NIABV?$basic_string@GU?$char_traits@G@std@@V?$allocator@G@2@@std@@0PBG@Z$4
; Function compile flags: /Odtp
xdata$x	ENDS
_TEXT	SEGMENT
tv218 = -140						; size = 4
tv225 = -136						; size = 4
tv216 = -132						; size = 4
tv224 = -128						; size = 4
tv214 = -124						; size = 4
tv223 = -120						; size = 4
tv212 = -116						; size = 4
tv222 = -112						; size = 4
$T152442 = -106						; size = 1
$T152441 = -105						; size = 1
$T152440 = -104						; size = 4
$T152439 = -100						; size = 8
$T152438 = -92						; size = 4
$T152437 = -88						; size = 4
$T152436 = -84						; size = 28
_wscMsg$ = -56						; size = 28
__$ArrayPad$ = -28					; size = 4
_iMsgSlot$ = -24					; size = 4
_iter$ = -20						; size = 8
__$EHRec$ = -12						; size = 12
_iClientID$ = 8						; size = 4
_wscCmd$ = 12						; size = 4
_wscParam$ = 16						; size = 4
_usage$ = 20						; size = 4
?UserCmd_LMsg@Message@@YA_NIABV?$basic_string@GU?$char_traits@G@std@@V?$allocator@G@2@@std@@0PBG@Z PROC ; Message::UserCmd_LMsg
; Line 569
	push	ebp
	mov	ebp, esp
	push	-1
	push	__ehhandler$?UserCmd_LMsg@Message@@YA_NIABV?$basic_string@GU?$char_traits@G@std@@V?$allocator@G@2@@std@@0PBG@Z
	mov	eax, DWORD PTR fs:0
	push	eax
	sub	esp, 128				; 00000080H
	mov	eax, DWORD PTR ___security_cookie
	xor	eax, ebp
	mov	DWORD PTR __$ArrayPad$[ebp], eax
	push	eax
	lea	eax, DWORD PTR __$EHRec$[ebp]
	mov	DWORD PTR fs:0, eax
; Line 570
	movzx	eax, BYTE PTR _set_bSetMsg
	test	eax, eax
	jne	SHORT $LN6@UserCmd_LM
; Line 571
	xor	al, al
	jmp	$LN7@UserCmd_LM
$LN6@UserCmd_LM:
; Line 573
	push	1
	push	2
	lea	ecx, DWORD PTR $T152436[ebp]
	push	ecx
	mov	ecx, DWORD PTR _wscCmd$[ebp]
	call	DWORD PTR __imp_?substr@?$basic_string@GU?$char_traits@G@std@@V?$allocator@G@2@@std@@QBE?AV12@II@Z
	mov	DWORD PTR tv222[ebp], eax
	mov	edx, DWORD PTR tv222[ebp]
	mov	DWORD PTR tv212[ebp], edx
	mov	DWORD PTR __$EHRec$[ebp+8], 0
	mov	eax, DWORD PTR tv212[ebp]
	push	eax
	call	DWORD PTR __imp_?ToInt@@YAHABV?$basic_string@GU?$char_traits@G@std@@V?$allocator@G@2@@std@@@Z
	add	esp, 4
	mov	DWORD PTR _iMsgSlot$[ebp], eax
	mov	DWORD PTR __$EHRec$[ebp+8], -1
	lea	ecx, DWORD PTR $T152436[ebp]
	call	DWORD PTR __imp_??1?$basic_string@GU?$char_traits@G@std@@V?$allocator@G@2@@std@@QAE@XZ
; Line 574
	cmp	DWORD PTR _iMsgSlot$[ebp], 0
	jl	SHORT $LN4@UserCmd_LM
	cmp	DWORD PTR _iMsgSlot$[ebp], 9
	jle	SHORT $LN5@UserCmd_LM
$LN4@UserCmd_LM:
; Line 576
	sub	esp, 28					; 0000001cH
	mov	ecx, esp
	mov	DWORD PTR $T152437[ebp], esp
	push	OFFSET $SG144108
	call	DWORD PTR __imp_??0?$basic_string@GU?$char_traits@G@std@@V?$allocator@G@2@@std@@QAE@PBG@Z
	mov	DWORD PTR tv223[ebp], eax
	mov	ecx, DWORD PTR tv223[ebp]
	mov	DWORD PTR tv214[ebp], ecx
	mov	DWORD PTR __$EHRec$[ebp+8], 1
	mov	edx, DWORD PTR _iClientID$[ebp]
	push	edx
	mov	DWORD PTR __$EHRec$[ebp+8], -1
	call	DWORD PTR __imp_?PrintUserCmdText@@YAXIV?$basic_string@GU?$char_traits@G@std@@V?$allocator@G@2@@std@@ZZ
	add	esp, 32					; 00000020H
; Line 577
	sub	esp, 28					; 0000001cH
	mov	ecx, esp
	mov	DWORD PTR $T152438[ebp], esp
	mov	eax, DWORD PTR _usage$[ebp]
	push	eax
	call	DWORD PTR __imp_??0?$basic_string@GU?$char_traits@G@std@@V?$allocator@G@2@@std@@QAE@PBG@Z
	mov	DWORD PTR tv224[ebp], eax
	mov	ecx, DWORD PTR tv224[ebp]
	mov	DWORD PTR tv216[ebp], ecx
	mov	DWORD PTR __$EHRec$[ebp+8], 2
	mov	edx, DWORD PTR _iClientID$[ebp]
	push	edx
	mov	DWORD PTR __$EHRec$[ebp+8], -1
	call	DWORD PTR __imp_?PrintUserCmdText@@YAXIV?$basic_string@GU?$char_traits@G@std@@V?$allocator@G@2@@std@@ZZ
	add	esp, 32					; 00000020H
; Line 578
	mov	al, 1
	jmp	$LN7@UserCmd_LM
$LN5@UserCmd_LM:
; Line 581
	lea	eax, DWORD PTR _iClientID$[ebp]
	push	eax
	lea	ecx, DWORD PTR _iter$[ebp]
	push	ecx
	mov	ecx, OFFSET _mapInfo
	call	?find@?$_Tree@V?$_Tmap_traits@IVINFO@Message@@U?$less@I@std@@V?$allocator@U?$pair@$$CBIVINFO@Message@@@std@@@4@$0A@@std@@@std@@QAE?AViterator@12@ABI@Z ; std::_Tree<std::_Tmap_traits<unsigned int,Message::INFO,std::less<unsigned int>,std::allocator<std::pair<unsigned int const ,Message::INFO> >,0> >::find
; Line 582
	lea	edx, DWORD PTR $T152439[ebp]
	push	edx
	mov	ecx, OFFSET _mapInfo
	call	?end@?$_Tree@V?$_Tmap_traits@IVINFO@Message@@U?$less@I@std@@V?$allocator@U?$pair@$$CBIVINFO@Message@@@std@@@4@$0A@@std@@@std@@QAE?AViterator@12@XZ ; std::_Tree<std::_Tmap_traits<unsigned int,Message::INFO,std::less<unsigned int>,std::allocator<std::pair<unsigned int const ,Message::INFO> >,0> >::end
	push	eax
	lea	ecx, DWORD PTR _iter$[ebp]
	call	??8const_iterator@?$_Tree@V?$_Tmap_traits@IVINFO@Message@@U?$less@I@std@@V?$allocator@U?$pair@$$CBIVINFO@Message@@@std@@@4@$0A@@std@@@std@@QBE_NABV012@@Z ; std::_Tree<std::_Tmap_traits<unsigned int,Message::INFO,std::less<unsigned int>,std::allocator<std::pair<unsigned int const ,Message::INFO> >,0> >::const_iterator::operator==
	movzx	eax, al
	test	eax, eax
	jne	SHORT $LN2@UserCmd_LM
	lea	ecx, DWORD PTR _iter$[ebp]
	call	??Citerator@?$_Tree@V?$_Tmap_traits@IVINFO@Message@@U?$less@I@std@@V?$allocator@U?$pair@$$CBIVINFO@Message@@@std@@@4@$0A@@std@@@std@@QBEPAU?$pair@$$CBIVINFO@Message@@@2@XZ ; std::_Tree<std::_Tmap_traits<unsigned int,Message::INFO,std::less<unsigned int>,std::allocator<std::pair<unsigned int const ,Message::INFO> >,0> >::iterator::operator->
	mov	ecx, DWORD PTR _iMsgSlot$[ebp]
	imul	ecx, 28					; 0000001cH
	lea	ecx, DWORD PTR [eax+ecx+4]
	call	DWORD PTR __imp_?size@?$basic_string@GU?$char_traits@G@std@@V?$allocator@G@2@@std@@QBEIXZ
	test	eax, eax
	jne	SHORT $LN3@UserCmd_LM
$LN2@UserCmd_LM:
; Line 584
	sub	esp, 28					; 0000001cH
	mov	ecx, esp
	mov	DWORD PTR $T152440[ebp], esp
	push	OFFSET $SG144129
	call	DWORD PTR __imp_??0?$basic_string@GU?$char_traits@G@std@@V?$allocator@G@2@@std@@QAE@PBG@Z
	mov	DWORD PTR tv225[ebp], eax
	mov	edx, DWORD PTR tv225[ebp]
	mov	DWORD PTR tv218[ebp], edx
	mov	DWORD PTR __$EHRec$[ebp+8], 3
	mov	eax, DWORD PTR _iClientID$[ebp]
	push	eax
	mov	DWORD PTR __$EHRec$[ebp+8], -1
	call	DWORD PTR __imp_?PrintUserCmdText@@YAXIV?$basic_string@GU?$char_traits@G@std@@V?$allocator@G@2@@std@@ZZ
	add	esp, 32					; 00000020H
; Line 585
	mov	al, 1
	jmp	$LN7@UserCmd_LM
$LN3@UserCmd_LM:
; Line 589
	lea	ecx, DWORD PTR _iter$[ebp]
	call	??Citerator@?$_Tree@V?$_Tmap_traits@IVINFO@Message@@U?$less@I@std@@V?$allocator@U?$pair@$$CBIVINFO@Message@@@std@@@4@$0A@@std@@@std@@QBEPAU?$pair@$$CBIVINFO@Message@@@2@XZ ; std::_Tree<std::_Tmap_traits<unsigned int,Message::INFO,std::less<unsigned int>,std::allocator<std::pair<unsigned int const ,Message::INFO> >,0> >::iterator::operator->
	mov	ecx, DWORD PTR _iMsgSlot$[ebp]
	imul	ecx, 28					; 0000001cH
	lea	edx, DWORD PTR [eax+ecx+4]
	push	edx
	lea	ecx, DWORD PTR _wscMsg$[ebp]
	call	DWORD PTR __imp_??0?$basic_string@GU?$char_traits@G@std@@V?$allocator@G@2@@std@@QAE@ABV01@@Z
	mov	DWORD PTR __$EHRec$[ebp+8], 4
; Line 590
	lea	eax, DWORD PTR _wscMsg$[ebp]
	push	eax
	lea	ecx, DWORD PTR _iter$[ebp]
	call	??Citerator@?$_Tree@V?$_Tmap_traits@IVINFO@Message@@U?$less@I@std@@V?$allocator@U?$pair@$$CBIVINFO@Message@@@std@@@4@$0A@@std@@@std@@QBEPAU?$pair@$$CBIVINFO@Message@@@2@XZ ; std::_Tree<std::_Tmap_traits<unsigned int,Message::INFO,std::less<unsigned int>,std::allocator<std::pair<unsigned int const ,Message::INFO> >,0> >::iterator::operator->
	add	eax, 4
	push	eax
	mov	ecx, DWORD PTR _iClientID$[ebp]
	push	ecx
	call	?ReplaceMessageTags@Message@@YA_NIAAVINFO@1@AAV?$basic_string@GU?$char_traits@G@std@@V?$allocator@G@2@@std@@@Z ; Message::ReplaceMessageTags
	add	esp, 12					; 0000000cH
	movzx	edx, al
	test	edx, edx
	jne	SHORT $LN1@UserCmd_LM
; Line 591
	mov	BYTE PTR $T152441[ebp], 1
	mov	DWORD PTR __$EHRec$[ebp+8], -1
	lea	ecx, DWORD PTR _wscMsg$[ebp]
	call	DWORD PTR __imp_??1?$basic_string@GU?$char_traits@G@std@@V?$allocator@G@2@@std@@QAE@XZ
	mov	al, BYTE PTR $T152441[ebp]
	jmp	SHORT $LN7@UserCmd_LM
$LN1@UserCmd_LM:
; Line 593
	lea	eax, DWORD PTR _wscMsg$[ebp]
	push	eax
	mov	ecx, DWORD PTR _iClientID$[ebp]
	push	ecx
	call	?SendLocalSystemChat@@YAXIABV?$basic_string@GU?$char_traits@G@std@@V?$allocator@G@2@@std@@@Z ; SendLocalSystemChat
	add	esp, 8
; Line 595
	mov	BYTE PTR $T152442[ebp], 1
	mov	DWORD PTR __$EHRec$[ebp+8], -1
	lea	ecx, DWORD PTR _wscMsg$[ebp]
	call	DWORD PTR __imp_??1?$basic_string@GU?$char_traits@G@std@@V?$allocator@G@2@@std@@QAE@XZ
	mov	al, BYTE PTR $T152442[ebp]
$LN7@UserCmd_LM:
; Line 596
	mov	ecx, DWORD PTR __$EHRec$[ebp]
	mov	DWORD PTR fs:0, ecx
	pop	ecx
	mov	ecx, DWORD PTR __$ArrayPad$[ebp]
	xor	ecx, ebp
	call	@__security_check_cookie@4
	mov	esp, ebp
	pop	ebp
	ret	0
_TEXT	ENDS
text$x	SEGMENT
__unwindfunclet$?UserCmd_LMsg@Message@@YA_NIABV?$basic_string@GU?$char_traits@G@std@@V?$allocator@G@2@@std@@0PBG@Z$0:
	lea	ecx, DWORD PTR $T152436[ebp]
	jmp	DWORD PTR __imp_??1?$basic_string@GU?$char_traits@G@std@@V?$allocator@G@2@@std@@QAE@XZ
__unwindfunclet$?UserCmd_LMsg@Message@@YA_NIABV?$basic_string@GU?$char_traits@G@std@@V?$allocator@G@2@@std@@0PBG@Z$1:
	mov	ecx, DWORD PTR $T152437[ebp]
	jmp	DWORD PTR __imp_??1?$basic_string@GU?$char_traits@G@std@@V?$allocator@G@2@@std@@QAE@XZ
__unwindfunclet$?UserCmd_LMsg@Message@@YA_NIABV?$basic_string@GU?$char_traits@G@std@@V?$allocator@G@2@@std@@0PBG@Z$2:
	mov	ecx, DWORD PTR $T152438[ebp]
	jmp	DWORD PTR __imp_??1?$basic_string@GU?$char_traits@G@std@@V?$allocator@G@2@@std@@QAE@XZ
__unwindfunclet$?UserCmd_LMsg@Message@@YA_NIABV?$basic_string@GU?$char_traits@G@std@@V?$allocator@G@2@@std@@0PBG@Z$3:
	mov	ecx, DWORD PTR $T152440[ebp]
	jmp	DWORD PTR __imp_??1?$basic_string@GU?$char_traits@G@std@@V?$allocator@G@2@@std@@QAE@XZ
__unwindfunclet$?UserCmd_LMsg@Message@@YA_NIABV?$basic_string@GU?$char_traits@G@std@@V?$allocator@G@2@@std@@0PBG@Z$4:
	lea	ecx, DWORD PTR _wscMsg$[ebp]
	jmp	DWORD PTR __imp_??1?$basic_string@GU?$char_traits@G@std@@V?$allocator@G@2@@std@@QAE@XZ
__ehhandler$?UserCmd_LMsg@Message@@YA_NIABV?$basic_string@GU?$char_traits@G@std@@V?$allocator@G@2@@std@@0PBG@Z:
	mov	edx, DWORD PTR [esp+8]
	lea	eax, DWORD PTR [edx+12]
	mov	ecx, DWORD PTR [edx-132]
	xor	ecx, eax
	call	@__security_check_cookie@4
	mov	ecx, DWORD PTR [edx-16]
	xor	ecx, eax
	call	@__security_check_cookie@4
	mov	eax, OFFSET __ehfuncinfo$?UserCmd_LMsg@Message@@YA_NIABV?$basic_string@GU?$char_traits@G@std@@V?$allocator@G@2@@std@@0PBG@Z
	jmp	___CxxFrameHandler3
text$x	ENDS
?UserCmd_LMsg@Message@@YA_NIABV?$basic_string@GU?$char_traits@G@std@@V?$allocator@G@2@@std@@0PBG@Z ENDP ; Message::UserCmd_LMsg
PUBLIC	__$ArrayPad$
PUBLIC	?UserCmd_GMsg@Message@@YA_NIABV?$basic_string@GU?$char_traits@G@std@@V?$allocator@G@2@@std@@0PBG@Z ; Message::UserCmd_GMsg
EXTRN	?SendGroupChat@@YAXIABV?$basic_string@GU?$char_traits@G@std@@V?$allocator@G@2@@std@@@Z:PROC ; SendGroupChat
xdata$x	SEGMENT
__ehfuncinfo$?UserCmd_GMsg@Message@@YA_NIABV?$basic_string@GU?$char_traits@G@std@@V?$allocator@G@2@@std@@0PBG@Z DD 019930522H
	DD	05H
	DD	FLAT:__unwindtable$?UserCmd_GMsg@Message@@YA_NIABV?$basic_string@GU?$char_traits@G@std@@V?$allocator@G@2@@std@@0PBG@Z
	DD	2 DUP(00H)
	DD	2 DUP(00H)
	DD	00H
	DD	00H
__unwindtable$?UserCmd_GMsg@Message@@YA_NIABV?$basic_string@GU?$char_traits@G@std@@V?$allocator@G@2@@std@@0PBG@Z DD 0ffffffffH
	DD	FLAT:__unwindfunclet$?UserCmd_GMsg@Message@@YA_NIABV?$basic_string@GU?$char_traits@G@std@@V?$allocator@G@2@@std@@0PBG@Z$0
	DD	0ffffffffH
	DD	FLAT:__unwindfunclet$?UserCmd_GMsg@Message@@YA_NIABV?$basic_string@GU?$char_traits@G@std@@V?$allocator@G@2@@std@@0PBG@Z$1
	DD	0ffffffffH
	DD	FLAT:__unwindfunclet$?UserCmd_GMsg@Message@@YA_NIABV?$basic_string@GU?$char_traits@G@std@@V?$allocator@G@2@@std@@0PBG@Z$2
	DD	0ffffffffH
	DD	FLAT:__unwindfunclet$?UserCmd_GMsg@Message@@YA_NIABV?$basic_string@GU?$char_traits@G@std@@V?$allocator@G@2@@std@@0PBG@Z$3
	DD	0ffffffffH
	DD	FLAT:__unwindfunclet$?UserCmd_GMsg@Message@@YA_NIABV?$basic_string@GU?$char_traits@G@std@@V?$allocator@G@2@@std@@0PBG@Z$4
; Function compile flags: /Odtp
xdata$x	ENDS
_TEXT	SEGMENT
tv218 = -140						; size = 4
tv225 = -136						; size = 4
tv216 = -132						; size = 4
tv224 = -128						; size = 4
tv214 = -124						; size = 4
tv223 = -120						; size = 4
tv212 = -116						; size = 4
tv222 = -112						; size = 4
$T152460 = -106						; size = 1
$T152459 = -105						; size = 1
$T152458 = -104						; size = 4
$T152457 = -100						; size = 8
$T152456 = -92						; size = 4
$T152455 = -88						; size = 4
$T152454 = -84						; size = 28
_wscMsg$ = -56						; size = 28
__$ArrayPad$ = -28					; size = 4
_iMsgSlot$ = -24					; size = 4
_iter$ = -20						; size = 8
__$EHRec$ = -12						; size = 12
_iClientID$ = 8						; size = 4
_wscCmd$ = 12						; size = 4
_wscParam$ = 16						; size = 4
_usage$ = 20						; size = 4
?UserCmd_GMsg@Message@@YA_NIABV?$basic_string@GU?$char_traits@G@std@@V?$allocator@G@2@@std@@0PBG@Z PROC ; Message::UserCmd_GMsg
; Line 600
	push	ebp
	mov	ebp, esp
	push	-1
	push	__ehhandler$?UserCmd_GMsg@Message@@YA_NIABV?$basic_string@GU?$char_traits@G@std@@V?$allocator@G@2@@std@@0PBG@Z
	mov	eax, DWORD PTR fs:0
	push	eax
	sub	esp, 128				; 00000080H
	mov	eax, DWORD PTR ___security_cookie
	xor	eax, ebp
	mov	DWORD PTR __$ArrayPad$[ebp], eax
	push	eax
	lea	eax, DWORD PTR __$EHRec$[ebp]
	mov	DWORD PTR fs:0, eax
; Line 601
	movzx	eax, BYTE PTR _set_bSetMsg
	test	eax, eax
	jne	SHORT $LN6@UserCmd_GM
; Line 602
	xor	al, al
	jmp	$LN7@UserCmd_GM
$LN6@UserCmd_GM:
; Line 604
	push	1
	push	2
	lea	ecx, DWORD PTR $T152454[ebp]
	push	ecx
	mov	ecx, DWORD PTR _wscCmd$[ebp]
	call	DWORD PTR __imp_?substr@?$basic_string@GU?$char_traits@G@std@@V?$allocator@G@2@@std@@QBE?AV12@II@Z
	mov	DWORD PTR tv222[ebp], eax
	mov	edx, DWORD PTR tv222[ebp]
	mov	DWORD PTR tv212[ebp], edx
	mov	DWORD PTR __$EHRec$[ebp+8], 0
	mov	eax, DWORD PTR tv212[ebp]
	push	eax
	call	DWORD PTR __imp_?ToInt@@YAHABV?$basic_string@GU?$char_traits@G@std@@V?$allocator@G@2@@std@@@Z
	add	esp, 4
	mov	DWORD PTR _iMsgSlot$[ebp], eax
	mov	DWORD PTR __$EHRec$[ebp+8], -1
	lea	ecx, DWORD PTR $T152454[ebp]
	call	DWORD PTR __imp_??1?$basic_string@GU?$char_traits@G@std@@V?$allocator@G@2@@std@@QAE@XZ
; Line 605
	cmp	DWORD PTR _iMsgSlot$[ebp], 0
	jl	SHORT $LN4@UserCmd_GM
	cmp	DWORD PTR _iMsgSlot$[ebp], 9
	jle	SHORT $LN5@UserCmd_GM
$LN4@UserCmd_GM:
; Line 607
	sub	esp, 28					; 0000001cH
	mov	ecx, esp
	mov	DWORD PTR $T152455[ebp], esp
	push	OFFSET $SG144146
	call	DWORD PTR __imp_??0?$basic_string@GU?$char_traits@G@std@@V?$allocator@G@2@@std@@QAE@PBG@Z
	mov	DWORD PTR tv223[ebp], eax
	mov	ecx, DWORD PTR tv223[ebp]
	mov	DWORD PTR tv214[ebp], ecx
	mov	DWORD PTR __$EHRec$[ebp+8], 1
	mov	edx, DWORD PTR _iClientID$[ebp]
	push	edx
	mov	DWORD PTR __$EHRec$[ebp+8], -1
	call	DWORD PTR __imp_?PrintUserCmdText@@YAXIV?$basic_string@GU?$char_traits@G@std@@V?$allocator@G@2@@std@@ZZ
	add	esp, 32					; 00000020H
; Line 608
	sub	esp, 28					; 0000001cH
	mov	ecx, esp
	mov	DWORD PTR $T152456[ebp], esp
	mov	eax, DWORD PTR _usage$[ebp]
	push	eax
	call	DWORD PTR __imp_??0?$basic_string@GU?$char_traits@G@std@@V?$allocator@G@2@@std@@QAE@PBG@Z
	mov	DWORD PTR tv224[ebp], eax
	mov	ecx, DWORD PTR tv224[ebp]
	mov	DWORD PTR tv216[ebp], ecx
	mov	DWORD PTR __$EHRec$[ebp+8], 2
	mov	edx, DWORD PTR _iClientID$[ebp]
	push	edx
	mov	DWORD PTR __$EHRec$[ebp+8], -1
	call	DWORD PTR __imp_?PrintUserCmdText@@YAXIV?$basic_string@GU?$char_traits@G@std@@V?$allocator@G@2@@std@@ZZ
	add	esp, 32					; 00000020H
; Line 609
	mov	al, 1
	jmp	$LN7@UserCmd_GM
$LN5@UserCmd_GM:
; Line 612
	lea	eax, DWORD PTR _iClientID$[ebp]
	push	eax
	lea	ecx, DWORD PTR _iter$[ebp]
	push	ecx
	mov	ecx, OFFSET _mapInfo
	call	?find@?$_Tree@V?$_Tmap_traits@IVINFO@Message@@U?$less@I@std@@V?$allocator@U?$pair@$$CBIVINFO@Message@@@std@@@4@$0A@@std@@@std@@QAE?AViterator@12@ABI@Z ; std::_Tree<std::_Tmap_traits<unsigned int,Message::INFO,std::less<unsigned int>,std::allocator<std::pair<unsigned int const ,Message::INFO> >,0> >::find
; Line 613
	lea	edx, DWORD PTR $T152457[ebp]
	push	edx
	mov	ecx, OFFSET _mapInfo
	call	?end@?$_Tree@V?$_Tmap_traits@IVINFO@Message@@U?$less@I@std@@V?$allocator@U?$pair@$$CBIVINFO@Message@@@std@@@4@$0A@@std@@@std@@QAE?AViterator@12@XZ ; std::_Tree<std::_Tmap_traits<unsigned int,Message::INFO,std::less<unsigned int>,std::allocator<std::pair<unsigned int const ,Message::INFO> >,0> >::end
	push	eax
	lea	ecx, DWORD PTR _iter$[ebp]
	call	??8const_iterator@?$_Tree@V?$_Tmap_traits@IVINFO@Message@@U?$less@I@std@@V?$allocator@U?$pair@$$CBIVINFO@Message@@@std@@@4@$0A@@std@@@std@@QBE_NABV012@@Z ; std::_Tree<std::_Tmap_traits<unsigned int,Message::INFO,std::less<unsigned int>,std::allocator<std::pair<unsigned int const ,Message::INFO> >,0> >::const_iterator::operator==
	movzx	eax, al
	test	eax, eax
	jne	SHORT $LN2@UserCmd_GM
	lea	ecx, DWORD PTR _iter$[ebp]
	call	??Citerator@?$_Tree@V?$_Tmap_traits@IVINFO@Message@@U?$less@I@std@@V?$allocator@U?$pair@$$CBIVINFO@Message@@@std@@@4@$0A@@std@@@std@@QBEPAU?$pair@$$CBIVINFO@Message@@@2@XZ ; std::_Tree<std::_Tmap_traits<unsigned int,Message::INFO,std::less<unsigned int>,std::allocator<std::pair<unsigned int const ,Message::INFO> >,0> >::iterator::operator->
	mov	ecx, DWORD PTR _iMsgSlot$[ebp]
	imul	ecx, 28					; 0000001cH
	lea	ecx, DWORD PTR [eax+ecx+4]
	call	DWORD PTR __imp_?size@?$basic_string@GU?$char_traits@G@std@@V?$allocator@G@2@@std@@QBEIXZ
	test	eax, eax
	jne	SHORT $LN3@UserCmd_GM
$LN2@UserCmd_GM:
; Line 615
	sub	esp, 28					; 0000001cH
	mov	ecx, esp
	mov	DWORD PTR $T152458[ebp], esp
	push	OFFSET $SG144167
	call	DWORD PTR __imp_??0?$basic_string@GU?$char_traits@G@std@@V?$allocator@G@2@@std@@QAE@PBG@Z
	mov	DWORD PTR tv225[ebp], eax
	mov	edx, DWORD PTR tv225[ebp]
	mov	DWORD PTR tv218[ebp], edx
	mov	DWORD PTR __$EHRec$[ebp+8], 3
	mov	eax, DWORD PTR _iClientID$[ebp]
	push	eax
	mov	DWORD PTR __$EHRec$[ebp+8], -1
	call	DWORD PTR __imp_?PrintUserCmdText@@YAXIV?$basic_string@GU?$char_traits@G@std@@V?$allocator@G@2@@std@@ZZ
	add	esp, 32					; 00000020H
; Line 616
	mov	al, 1
	jmp	$LN7@UserCmd_GM
$LN3@UserCmd_GM:
; Line 620
	lea	ecx, DWORD PTR _iter$[ebp]
	call	??Citerator@?$_Tree@V?$_Tmap_traits@IVINFO@Message@@U?$less@I@std@@V?$allocator@U?$pair@$$CBIVINFO@Message@@@std@@@4@$0A@@std@@@std@@QBEPAU?$pair@$$CBIVINFO@Message@@@2@XZ ; std::_Tree<std::_Tmap_traits<unsigned int,Message::INFO,std::less<unsigned int>,std::allocator<std::pair<unsigned int const ,Message::INFO> >,0> >::iterator::operator->
	mov	ecx, DWORD PTR _iMsgSlot$[ebp]
	imul	ecx, 28					; 0000001cH
	lea	edx, DWORD PTR [eax+ecx+4]
	push	edx
	lea	ecx, DWORD PTR _wscMsg$[ebp]
	call	DWORD PTR __imp_??0?$basic_string@GU?$char_traits@G@std@@V?$allocator@G@2@@std@@QAE@ABV01@@Z
	mov	DWORD PTR __$EHRec$[ebp+8], 4
; Line 621
	lea	eax, DWORD PTR _wscMsg$[ebp]
	push	eax
	lea	ecx, DWORD PTR _iter$[ebp]
	call	??Citerator@?$_Tree@V?$_Tmap_traits@IVINFO@Message@@U?$less@I@std@@V?$allocator@U?$pair@$$CBIVINFO@Message@@@std@@@4@$0A@@std@@@std@@QBEPAU?$pair@$$CBIVINFO@Message@@@2@XZ ; std::_Tree<std::_Tmap_traits<unsigned int,Message::INFO,std::less<unsigned int>,std::allocator<std::pair<unsigned int const ,Message::INFO> >,0> >::iterator::operator->
	add	eax, 4
	push	eax
	mov	ecx, DWORD PTR _iClientID$[ebp]
	push	ecx
	call	?ReplaceMessageTags@Message@@YA_NIAAVINFO@1@AAV?$basic_string@GU?$char_traits@G@std@@V?$allocator@G@2@@std@@@Z ; Message::ReplaceMessageTags
	add	esp, 12					; 0000000cH
	movzx	edx, al
	test	edx, edx
	jne	SHORT $LN1@UserCmd_GM
; Line 622
	mov	BYTE PTR $T152459[ebp], 1
	mov	DWORD PTR __$EHRec$[ebp+8], -1
	lea	ecx, DWORD PTR _wscMsg$[ebp]
	call	DWORD PTR __imp_??1?$basic_string@GU?$char_traits@G@std@@V?$allocator@G@2@@std@@QAE@XZ
	mov	al, BYTE PTR $T152459[ebp]
	jmp	SHORT $LN7@UserCmd_GM
$LN1@UserCmd_GM:
; Line 624
	lea	eax, DWORD PTR _wscMsg$[ebp]
	push	eax
	mov	ecx, DWORD PTR _iClientID$[ebp]
	push	ecx
	call	?SendGroupChat@@YAXIABV?$basic_string@GU?$char_traits@G@std@@V?$allocator@G@2@@std@@@Z ; SendGroupChat
	add	esp, 8
; Line 625
	mov	BYTE PTR $T152460[ebp], 1
	mov	DWORD PTR __$EHRec$[ebp+8], -1
	lea	ecx, DWORD PTR _wscMsg$[ebp]
	call	DWORD PTR __imp_??1?$basic_string@GU?$char_traits@G@std@@V?$allocator@G@2@@std@@QAE@XZ
	mov	al, BYTE PTR $T152460[ebp]
$LN7@UserCmd_GM:
; Line 626
	mov	ecx, DWORD PTR __$EHRec$[ebp]
	mov	DWORD PTR fs:0, ecx
	pop	ecx
	mov	ecx, DWORD PTR __$ArrayPad$[ebp]
	xor	ecx, ebp
	call	@__security_check_cookie@4
	mov	esp, ebp
	pop	ebp
	ret	0
_TEXT	ENDS
text$x	SEGMENT
__unwindfunclet$?UserCmd_GMsg@Message@@YA_NIABV?$basic_string@GU?$char_traits@G@std@@V?$allocator@G@2@@std@@0PBG@Z$0:
	lea	ecx, DWORD PTR $T152454[ebp]
	jmp	DWORD PTR __imp_??1?$basic_string@GU?$char_traits@G@std@@V?$allocator@G@2@@std@@QAE@XZ
__unwindfunclet$?UserCmd_GMsg@Message@@YA_NIABV?$basic_string@GU?$char_traits@G@std@@V?$allocator@G@2@@std@@0PBG@Z$1:
	mov	ecx, DWORD PTR $T152455[ebp]
	jmp	DWORD PTR __imp_??1?$basic_string@GU?$char_traits@G@std@@V?$allocator@G@2@@std@@QAE@XZ
__unwindfunclet$?UserCmd_GMsg@Message@@YA_NIABV?$basic_string@GU?$char_traits@G@std@@V?$allocator@G@2@@std@@0PBG@Z$2:
	mov	ecx, DWORD PTR $T152456[ebp]
	jmp	DWORD PTR __imp_??1?$basic_string@GU?$char_traits@G@std@@V?$allocator@G@2@@std@@QAE@XZ
