; Listing generated by Microsoft (R) Optimizing Compiler Version 15.00.30729.01 

	TITLE	g:\Max\Bastelstube\GitHub\FL-MoD-FLHook\plugins\playercntl_plugin\src\MiscCmds.cpp
	.686P
	.XMM
	include listing.inc
	.model	flat

INCLUDELIB MSVCRT
INCLUDELIB OLDNAMES

PUBLIC	?_Value@?$_Is_swap_move@U_Swap_move_tag@std@@@std@@2_NB ; std::_Is_swap_move<std::_Swap_move_tag>::_Value
PUBLIC	?collate@?$_Locbase@H@std@@2HB			; std::_Locbase<int>::collate
PUBLIC	?ctype@?$_Locbase@H@std@@2HB			; std::_Locbase<int>::ctype
PUBLIC	?monetary@?$_Locbase@H@std@@2HB			; std::_Locbase<int>::monetary
PUBLIC	?numeric@?$_Locbase@H@std@@2HB			; std::_Locbase<int>::numeric
PUBLIC	?time@?$_Locbase@H@std@@2HB			; std::_Locbase<int>::time
PUBLIC	?messages@?$_Locbase@H@std@@2HB			; std::_Locbase<int>::messages
PUBLIC	?all@?$_Locbase@H@std@@2HB			; std::_Locbase<int>::all
PUBLIC	?none@?$_Locbase@H@std@@2HB			; std::_Locbase<int>::none
PUBLIC	?skipws@?$_Iosb@H@std@@2W4_Fmtflags@12@B	; std::_Iosb<int>::skipws
PUBLIC	?unitbuf@?$_Iosb@H@std@@2W4_Fmtflags@12@B	; std::_Iosb<int>::unitbuf
PUBLIC	?uppercase@?$_Iosb@H@std@@2W4_Fmtflags@12@B	; std::_Iosb<int>::uppercase
PUBLIC	?showbase@?$_Iosb@H@std@@2W4_Fmtflags@12@B	; std::_Iosb<int>::showbase
PUBLIC	?showpoint@?$_Iosb@H@std@@2W4_Fmtflags@12@B	; std::_Iosb<int>::showpoint
PUBLIC	?showpos@?$_Iosb@H@std@@2W4_Fmtflags@12@B	; std::_Iosb<int>::showpos
PUBLIC	?left@?$_Iosb@H@std@@2W4_Fmtflags@12@B		; std::_Iosb<int>::left
PUBLIC	?right@?$_Iosb@H@std@@2W4_Fmtflags@12@B		; std::_Iosb<int>::right
PUBLIC	?internal@?$_Iosb@H@std@@2W4_Fmtflags@12@B	; std::_Iosb<int>::internal
PUBLIC	?dec@?$_Iosb@H@std@@2W4_Fmtflags@12@B		; std::_Iosb<int>::dec
PUBLIC	?oct@?$_Iosb@H@std@@2W4_Fmtflags@12@B		; std::_Iosb<int>::oct
PUBLIC	?hex@?$_Iosb@H@std@@2W4_Fmtflags@12@B		; std::_Iosb<int>::hex
PUBLIC	?scientific@?$_Iosb@H@std@@2W4_Fmtflags@12@B	; std::_Iosb<int>::scientific
PUBLIC	?fixed@?$_Iosb@H@std@@2W4_Fmtflags@12@B		; std::_Iosb<int>::fixed
PUBLIC	?hexfloat@?$_Iosb@H@std@@2W4_Fmtflags@12@B	; std::_Iosb<int>::hexfloat
PUBLIC	?boolalpha@?$_Iosb@H@std@@2W4_Fmtflags@12@B	; std::_Iosb<int>::boolalpha
PUBLIC	?_Stdio@?$_Iosb@H@std@@2W4_Fmtflags@12@B	; std::_Iosb<int>::_Stdio
PUBLIC	?adjustfield@?$_Iosb@H@std@@2W4_Fmtflags@12@B	; std::_Iosb<int>::adjustfield
PUBLIC	?basefield@?$_Iosb@H@std@@2W4_Fmtflags@12@B	; std::_Iosb<int>::basefield
PUBLIC	?floatfield@?$_Iosb@H@std@@2W4_Fmtflags@12@B	; std::_Iosb<int>::floatfield
PUBLIC	?goodbit@?$_Iosb@H@std@@2W4_Iostate@12@B	; std::_Iosb<int>::goodbit
PUBLIC	?eofbit@?$_Iosb@H@std@@2W4_Iostate@12@B		; std::_Iosb<int>::eofbit
PUBLIC	?failbit@?$_Iosb@H@std@@2W4_Iostate@12@B	; std::_Iosb<int>::failbit
PUBLIC	?badbit@?$_Iosb@H@std@@2W4_Iostate@12@B		; std::_Iosb<int>::badbit
PUBLIC	?_Hardfail@?$_Iosb@H@std@@2W4_Iostate@12@B	; std::_Iosb<int>::_Hardfail
PUBLIC	?in@?$_Iosb@H@std@@2W4_Openmode@12@B		; std::_Iosb<int>::in
PUBLIC	?out@?$_Iosb@H@std@@2W4_Openmode@12@B		; std::_Iosb<int>::out
PUBLIC	?ate@?$_Iosb@H@std@@2W4_Openmode@12@B		; std::_Iosb<int>::ate
PUBLIC	?app@?$_Iosb@H@std@@2W4_Openmode@12@B		; std::_Iosb<int>::app
PUBLIC	?trunc@?$_Iosb@H@std@@2W4_Openmode@12@B		; std::_Iosb<int>::trunc
PUBLIC	?_Nocreate@?$_Iosb@H@std@@2W4_Openmode@12@B	; std::_Iosb<int>::_Nocreate
PUBLIC	?_Noreplace@?$_Iosb@H@std@@2W4_Openmode@12@B	; std::_Iosb<int>::_Noreplace
PUBLIC	?binary@?$_Iosb@H@std@@2W4_Openmode@12@B	; std::_Iosb<int>::binary
PUBLIC	?beg@?$_Iosb@H@std@@2W4_Seekdir@12@B		; std::_Iosb<int>::beg
PUBLIC	?cur@?$_Iosb@H@std@@2W4_Seekdir@12@B		; std::_Iosb<int>::cur
PUBLIC	?end@?$_Iosb@H@std@@2W4_Seekdir@12@B		; std::_Iosb<int>::end
PUBLIC	?value@?$integral_constant@_N$0A@@tr1@std@@2_NB	; std::tr1::integral_constant<bool,0>::value
PUBLIC	?value@?$integral_constant@_N$00@tr1@std@@2_NB	; std::tr1::integral_constant<bool,1>::value
PUBLIC	?set_iSmiteMusicID@MiscCmds@@3IA		; MiscCmds::set_iSmiteMusicID
PUBLIC	?set_iRepdropCost@MiscCmds@@3HA			; MiscCmds::set_iRepdropCost
_BSS	SEGMENT
?set_iSmiteMusicID@MiscCmds@@3IA DD 01H DUP (?)		; MiscCmds::set_iSmiteMusicID
?set_iRepdropCost@MiscCmds@@3HA DD 01H DUP (?)		; MiscCmds::set_iRepdropCost
_BSS	ENDS
;	COMDAT ?value@?$integral_constant@_N$00@tr1@std@@2_NB
CONST	SEGMENT
?value@?$integral_constant@_N$00@tr1@std@@2_NB DB 01H	; std::tr1::integral_constant<bool,1>::value
CONST	ENDS
;	COMDAT ?value@?$integral_constant@_N$0A@@tr1@std@@2_NB
CONST	SEGMENT
?value@?$integral_constant@_N$0A@@tr1@std@@2_NB DB 00H	; std::tr1::integral_constant<bool,0>::value
CONST	ENDS
;	COMDAT ?end@?$_Iosb@H@std@@2W4_Seekdir@12@B
CONST	SEGMENT
?end@?$_Iosb@H@std@@2W4_Seekdir@12@B DD 02H		; std::_Iosb<int>::end
CONST	ENDS
;	COMDAT ?cur@?$_Iosb@H@std@@2W4_Seekdir@12@B
CONST	SEGMENT
?cur@?$_Iosb@H@std@@2W4_Seekdir@12@B DD 01H		; std::_Iosb<int>::cur
CONST	ENDS
;	COMDAT ?beg@?$_Iosb@H@std@@2W4_Seekdir@12@B
CONST	SEGMENT
?beg@?$_Iosb@H@std@@2W4_Seekdir@12@B DD 00H		; std::_Iosb<int>::beg
CONST	ENDS
;	COMDAT ?binary@?$_Iosb@H@std@@2W4_Openmode@12@B
CONST	SEGMENT
?binary@?$_Iosb@H@std@@2W4_Openmode@12@B DD 020H	; std::_Iosb<int>::binary
CONST	ENDS
;	COMDAT ?_Noreplace@?$_Iosb@H@std@@2W4_Openmode@12@B
CONST	SEGMENT
?_Noreplace@?$_Iosb@H@std@@2W4_Openmode@12@B DD 080H	; std::_Iosb<int>::_Noreplace
CONST	ENDS
;	COMDAT ?_Nocreate@?$_Iosb@H@std@@2W4_Openmode@12@B
CONST	SEGMENT
?_Nocreate@?$_Iosb@H@std@@2W4_Openmode@12@B DD 040H	; std::_Iosb<int>::_Nocreate
CONST	ENDS
;	COMDAT ?trunc@?$_Iosb@H@std@@2W4_Openmode@12@B
CONST	SEGMENT
?trunc@?$_Iosb@H@std@@2W4_Openmode@12@B DD 010H		; std::_Iosb<int>::trunc
CONST	ENDS
;	COMDAT ?app@?$_Iosb@H@std@@2W4_Openmode@12@B
CONST	SEGMENT
?app@?$_Iosb@H@std@@2W4_Openmode@12@B DD 08H		; std::_Iosb<int>::app
CONST	ENDS
;	COMDAT ?ate@?$_Iosb@H@std@@2W4_Openmode@12@B
CONST	SEGMENT
?ate@?$_Iosb@H@std@@2W4_Openmode@12@B DD 04H		; std::_Iosb<int>::ate
CONST	ENDS
;	COMDAT ?out@?$_Iosb@H@std@@2W4_Openmode@12@B
CONST	SEGMENT
?out@?$_Iosb@H@std@@2W4_Openmode@12@B DD 02H		; std::_Iosb<int>::out
CONST	ENDS
;	COMDAT ?in@?$_Iosb@H@std@@2W4_Openmode@12@B
CONST	SEGMENT
?in@?$_Iosb@H@std@@2W4_Openmode@12@B DD 01H		; std::_Iosb<int>::in
CONST	ENDS
;	COMDAT ?_Hardfail@?$_Iosb@H@std@@2W4_Iostate@12@B
CONST	SEGMENT
?_Hardfail@?$_Iosb@H@std@@2W4_Iostate@12@B DD 010H	; std::_Iosb<int>::_Hardfail
CONST	ENDS
;	COMDAT ?badbit@?$_Iosb@H@std@@2W4_Iostate@12@B
CONST	SEGMENT
?badbit@?$_Iosb@H@std@@2W4_Iostate@12@B DD 04H		; std::_Iosb<int>::badbit
CONST	ENDS
;	COMDAT ?failbit@?$_Iosb@H@std@@2W4_Iostate@12@B
CONST	SEGMENT
?failbit@?$_Iosb@H@std@@2W4_Iostate@12@B DD 02H		; std::_Iosb<int>::failbit
CONST	ENDS
;	COMDAT ?eofbit@?$_Iosb@H@std@@2W4_Iostate@12@B
CONST	SEGMENT
?eofbit@?$_Iosb@H@std@@2W4_Iostate@12@B DD 01H		; std::_Iosb<int>::eofbit
CONST	ENDS
;	COMDAT ?goodbit@?$_Iosb@H@std@@2W4_Iostate@12@B
CONST	SEGMENT
?goodbit@?$_Iosb@H@std@@2W4_Iostate@12@B DD 00H		; std::_Iosb<int>::goodbit
CONST	ENDS
;	COMDAT ?floatfield@?$_Iosb@H@std@@2W4_Fmtflags@12@B
CONST	SEGMENT
?floatfield@?$_Iosb@H@std@@2W4_Fmtflags@12@B DD 03000H	; std::_Iosb<int>::floatfield
CONST	ENDS
;	COMDAT ?basefield@?$_Iosb@H@std@@2W4_Fmtflags@12@B
CONST	SEGMENT
?basefield@?$_Iosb@H@std@@2W4_Fmtflags@12@B DD 0e00H	; std::_Iosb<int>::basefield
CONST	ENDS
;	COMDAT ?adjustfield@?$_Iosb@H@std@@2W4_Fmtflags@12@B
CONST	SEGMENT
?adjustfield@?$_Iosb@H@std@@2W4_Fmtflags@12@B DD 01c0H	; std::_Iosb<int>::adjustfield
CONST	ENDS
;	COMDAT ?_Stdio@?$_Iosb@H@std@@2W4_Fmtflags@12@B
CONST	SEGMENT
?_Stdio@?$_Iosb@H@std@@2W4_Fmtflags@12@B DD 08000H	; std::_Iosb<int>::_Stdio
CONST	ENDS
;	COMDAT ?boolalpha@?$_Iosb@H@std@@2W4_Fmtflags@12@B
CONST	SEGMENT
?boolalpha@?$_Iosb@H@std@@2W4_Fmtflags@12@B DD 04000H	; std::_Iosb<int>::boolalpha
CONST	ENDS
;	COMDAT ?hexfloat@?$_Iosb@H@std@@2W4_Fmtflags@12@B
CONST	SEGMENT
?hexfloat@?$_Iosb@H@std@@2W4_Fmtflags@12@B DD 03000H	; std::_Iosb<int>::hexfloat
CONST	ENDS
;	COMDAT ?fixed@?$_Iosb@H@std@@2W4_Fmtflags@12@B
CONST	SEGMENT
?fixed@?$_Iosb@H@std@@2W4_Fmtflags@12@B DD 02000H	; std::_Iosb<int>::fixed
CONST	ENDS
;	COMDAT ?scientific@?$_Iosb@H@std@@2W4_Fmtflags@12@B
CONST	SEGMENT
?scientific@?$_Iosb@H@std@@2W4_Fmtflags@12@B DD 01000H	; std::_Iosb<int>::scientific
CONST	ENDS
;	COMDAT ?hex@?$_Iosb@H@std@@2W4_Fmtflags@12@B
CONST	SEGMENT
?hex@?$_Iosb@H@std@@2W4_Fmtflags@12@B DD 0800H		; std::_Iosb<int>::hex
CONST	ENDS
;	COMDAT ?oct@?$_Iosb@H@std@@2W4_Fmtflags@12@B
CONST	SEGMENT
?oct@?$_Iosb@H@std@@2W4_Fmtflags@12@B DD 0400H		; std::_Iosb<int>::oct
CONST	ENDS
;	COMDAT ?dec@?$_Iosb@H@std@@2W4_Fmtflags@12@B
CONST	SEGMENT
?dec@?$_Iosb@H@std@@2W4_Fmtflags@12@B DD 0200H		; std::_Iosb<int>::dec
CONST	ENDS
;	COMDAT ?internal@?$_Iosb@H@std@@2W4_Fmtflags@12@B
CONST	SEGMENT
?internal@?$_Iosb@H@std@@2W4_Fmtflags@12@B DD 0100H	; std::_Iosb<int>::internal
CONST	ENDS
;	COMDAT ?right@?$_Iosb@H@std@@2W4_Fmtflags@12@B
CONST	SEGMENT
?right@?$_Iosb@H@std@@2W4_Fmtflags@12@B DD 080H		; std::_Iosb<int>::right
CONST	ENDS
;	COMDAT ?left@?$_Iosb@H@std@@2W4_Fmtflags@12@B
CONST	SEGMENT
?left@?$_Iosb@H@std@@2W4_Fmtflags@12@B DD 040H		; std::_Iosb<int>::left
CONST	ENDS
;	COMDAT ?showpos@?$_Iosb@H@std@@2W4_Fmtflags@12@B
CONST	SEGMENT
?showpos@?$_Iosb@H@std@@2W4_Fmtflags@12@B DD 020H	; std::_Iosb<int>::showpos
CONST	ENDS
;	COMDAT ?showpoint@?$_Iosb@H@std@@2W4_Fmtflags@12@B
CONST	SEGMENT
?showpoint@?$_Iosb@H@std@@2W4_Fmtflags@12@B DD 010H	; std::_Iosb<int>::showpoint
CONST	ENDS
;	COMDAT ?showbase@?$_Iosb@H@std@@2W4_Fmtflags@12@B
CONST	SEGMENT
?showbase@?$_Iosb@H@std@@2W4_Fmtflags@12@B DD 08H	; std::_Iosb<int>::showbase
CONST	ENDS
;	COMDAT ?uppercase@?$_Iosb@H@std@@2W4_Fmtflags@12@B
CONST	SEGMENT
?uppercase@?$_Iosb@H@std@@2W4_Fmtflags@12@B DD 04H	; std::_Iosb<int>::uppercase
CONST	ENDS
;	COMDAT ?unitbuf@?$_Iosb@H@std@@2W4_Fmtflags@12@B
CONST	SEGMENT
?unitbuf@?$_Iosb@H@std@@2W4_Fmtflags@12@B DD 02H	; std::_Iosb<int>::unitbuf
CONST	ENDS
;	COMDAT ?skipws@?$_Iosb@H@std@@2W4_Fmtflags@12@B
CONST	SEGMENT
?skipws@?$_Iosb@H@std@@2W4_Fmtflags@12@B DD 01H		; std::_Iosb<int>::skipws
CONST	ENDS
;	COMDAT ?none@?$_Locbase@H@std@@2HB
CONST	SEGMENT
?none@?$_Locbase@H@std@@2HB DD 00H			; std::_Locbase<int>::none
CONST	ENDS
;	COMDAT ?all@?$_Locbase@H@std@@2HB
CONST	SEGMENT
?all@?$_Locbase@H@std@@2HB DD 03fH			; std::_Locbase<int>::all
CONST	ENDS
;	COMDAT ?messages@?$_Locbase@H@std@@2HB
CONST	SEGMENT
?messages@?$_Locbase@H@std@@2HB DD 020H			; std::_Locbase<int>::messages
CONST	ENDS
;	COMDAT ?time@?$_Locbase@H@std@@2HB
CONST	SEGMENT
?time@?$_Locbase@H@std@@2HB DD 010H			; std::_Locbase<int>::time
CONST	ENDS
;	COMDAT ?numeric@?$_Locbase@H@std@@2HB
CONST	SEGMENT
?numeric@?$_Locbase@H@std@@2HB DD 08H			; std::_Locbase<int>::numeric
CONST	ENDS
;	COMDAT ?monetary@?$_Locbase@H@std@@2HB
CONST	SEGMENT
?monetary@?$_Locbase@H@std@@2HB DD 04H			; std::_Locbase<int>::monetary
CONST	ENDS
;	COMDAT ?ctype@?$_Locbase@H@std@@2HB
CONST	SEGMENT
?ctype@?$_Locbase@H@std@@2HB DD 02H			; std::_Locbase<int>::ctype
CONST	ENDS
;	COMDAT ?collate@?$_Locbase@H@std@@2HB
CONST	SEGMENT
?collate@?$_Locbase@H@std@@2HB DD 01H			; std::_Locbase<int>::collate
CONST	ENDS
;	COMDAT ?_Value@?$_Is_swap_move@U_Swap_move_tag@std@@@std@@2_NB
CONST	SEGMENT
?_Value@?$_Is_swap_move@U_Swap_move_tag@std@@@std@@2_NB DB 01H ; std::_Is_swap_move<std::_Swap_move_tag>::_Value
CONST	ENDS
_DATA	SEGMENT
__bad_alloc_Message DD FLAT:$SG63979
_DATA	ENDS
CONST	SEGMENT
$SG63979 DB	'bad allocation', 00H
	ORG $+1
$SG140656 DB	'A', 00H, 't', 00H, 't', 00H, 'e', 00H, 'n', 00H, 't', 00H
	DB	'i', 00H, 'o', 00H, 'n', 00H, '!', 00H, ' ', 00H, 'S', 00H, 't'
	DB	00H, 'a', 00H, 'n', 00H, 'd', 00H, ' ', 00H, 'c', 00H, 'l', 00H
	DB	'e', 00H, 'a', 00H, 'r', 00H, '.', 00H, ' ', 00H, 'T', 00H, 'o'
	DB	00H, 'w', 00H, 'i', 00H, 'n', 00H, 'g', 00H, ' ', 00H, '%', 00H
	DB	'p', 00H, 'l', 00H, 'a', 00H, 'y', 00H, 'e', 00H, 'r', 00H, 00H
	DB	00H
	ORG $+2
$SG140663 DB	'%', 00H, 'p', 00H, 'l', 00H, 'a', 00H, 'y', 00H, 'e', 00H
	DB	'r', 00H, ' ', 00H, 'r', 00H, 'o', 00H, 'l', 00H, 'l', 00H, 'e'
	DB	00H, 'd', 00H, ' ', 00H, '%', 00H, 'n', 00H, 'u', 00H, 'm', 00H
	DB	'b', 00H, 'e', 00H, 'r', 00H, 00H, 00H
	ORG $+2
$SG140670 DB	'%', 00H, 'p', 00H, 'l', 00H, 'a', 00H, 'y', 00H, 'e', 00H
	DB	'r', 00H, ' ', 00H, 't', 00H, 'o', 00H, 's', 00H, 's', 00H, 'e'
	DB	00H, 'd', 00H, ' ', 00H, '%', 00H, 'r', 00H, 'e', 00H, 's', 00H
	DB	'u', 00H, 'l', 00H, 't', 00H, 00H, 00H
	ORG $+2
$SG140681 DB	'RepDropCost', 00H
$SG140682 DB	'General', 00H
$SG140688 DB	'Attention! Stand clear. Towing %player', 00H
	ORG $+1
$SG140689 DB	'StuckMsg', 00H
	ORG $+3
$SG140690 DB	'General', 00H
$SG140696 DB	'%player rolled %number of %max', 00H
	ORG $+1
$SG140697 DB	'DiceMsg', 00H
$SG140698 DB	'General', 00H
$SG140704 DB	'%player tossed %result', 00H
	ORG $+1
$SG140705 DB	'CoinMsg', 00H
$SG140706 DB	'General', 00H
$SG140711 DB	'music_danger', 00H
	ORG $+3
$SG140712 DB	'SmiteMusic', 00H
	ORG $+1
$SG140713 DB	'General', 00H
$SG140720 DB	'dsy_ge_fighter', 00H
	ORG $+1
$SG140804 DB	'dsy_ge_fighter', 00H
	ORG $+1
$SG140881 DB	'E', 00H, 'R', 00H, 'R', 00H, ' ', 00H, 'N', 00H, 'o', 00H
	DB	't', 00H, ' ', 00H, 'i', 00H, 'n', 00H, ' ', 00H, 's', 00H, 'p'
	DB	00H, 'a', 00H, 'c', 00H, 'e', 00H, 00H, 00H
	ORG $+2
$SG140888 DB	'P', 00H, 'o', 00H, 's', 00H, 'i', 00H, 't', 00H, 'i', 00H
	DB	'o', 00H, 'n', 00H, ' ', 00H, '%', 00H, '0', 00H, '.', 00H, '0'
	DB	00H, 'f', 00H, ' ', 00H, '%', 00H, '0', 00H, '.', 00H, '0', 00H
	DB	'f', 00H, ' ', 00H, '%', 00H, '0', 00H, '.', 00H, '0', 00H, 'f'
	DB	00H, ' ', 00H, 'O', 00H, 'r', 00H, 'i', 00H, 'e', 00H, 'n', 00H
	DB	't', 00H, ' ', 00H, '%', 00H, '0', 00H, '.', 00H, '0', 00H, 'f'
	DB	00H, ' ', 00H, '%', 00H, '0', 00H, '.', 00H, '0', 00H, 'f', 00H
	DB	' ', 00H, '%', 00H, '0', 00H, '.', 00H, '0', 00H, 'f', 00H, 00H
	DB	00H
$SG140902 DB	'E', 00H, 'R', 00H, 'R', 00H, ' ', 00H, 'N', 00H, 'o', 00H
	DB	't', 00H, ' ', 00H, 'i', 00H, 'n', 00H, ' ', 00H, 's', 00H, 'p'
	DB	00H, 'a', 00H, 'c', 00H, 'e', 00H, 00H, 00H
	ORG $+2
$SG140909 DB	'E', 00H, 'R', 00H, 'R', 00H, ' ', 00H, 'S', 00H, 'h', 00H
	DB	'i', 00H, 'p', 00H, ' ', 00H, 'i', 00H, 's', 00H, ' ', 00H, 'm'
	DB	00H, 'o', 00H, 'v', 00H, 'i', 00H, 'n', 00H, 'g', 00H, 00H, 00H
	ORG $+2
$SG140916 DB	'%', 00H, 'p', 00H, 'l', 00H, 'a', 00H, 'y', 00H, 'e', 00H
	DB	'r', 00H, 00H, 00H
$SG140931 DB	'r', 00H, 'e', 00H, 'p', 00H, '_', 00H, 'g', 00H, 'r', 00H
	DB	'o', 00H, 'u', 00H, 'p', 00H, 00H, 00H
$SG140933 DB	'E', 00H, 'R', 00H, 'R', 00H, ' ', 00H, 'N', 00H, 'o', 00H
	DB	' ', 00H, 'a', 00H, 'f', 00H, 'f', 00H, 'i', 00H, 'l', 00H, 'i'
	DB	00H, 'a', 00H, 't', 00H, 'i', 00H, 'o', 00H, 'n', 00H, 00H, 00H
	ORG $+2
$SG140939 DB	'E', 00H, 'R', 00H, 'R', 00H, ' ', 00H, '%', 00H, 's', 00H
	DB	00H, 00H
	ORG $+2
$SG140943 DB	'E', 00H, 'R', 00H, 'R', 00H, ' ', 00H, 'I', 00H, 'n', 00H
	DB	's', 00H, 'u', 00H, 'f', 00H, 'f', 00H, 'i', 00H, 'c', 00H, 'i'
	DB	00H, 'e', 00H, 'n', 00H, 't', 00H, ' ', 00H, 'c', 00H, 'r', 00H
	DB	'e', 00H, 'd', 00H, 'i', 00H, 't', 00H, 's', 00H, 00H, 00H
	ORG $+2
$SG140949 DB	'E', 00H, 'R', 00H, 'R', 00H, ' ', 00H, '%', 00H, 's', 00H
	DB	00H, 00H
	ORG $+6
$SG140952 DB	'O', 00H, 'K', 00H, ' ', 00H, 'R', 00H, 'e', 00H, 'p', 00H
	DB	'u', 00H, 't', 00H, 'a', 00H, 't', 00H, 'i', 00H, 'o', 00H, 'n'
	DB	00H, ' ', 00H, 'd', 00H, 'r', 00H, 'o', 00H, 'p', 00H, 'p', 00H
	DB	'e', 00H, 'd', 00H, ',', 00H, ' ', 00H, 'l', 00H, 'o', 00H, 'g'
	DB	00H, 'o', 00H, 'u', 00H, 't', 00H, ' ', 00H, 'f', 00H, 'o', 00H
	DB	'r', 00H, ' ', 00H, 'c', 00H, 'h', 00H, 'a', 00H, 'n', 00H, 'g'
	DB	00H, 'e', 00H, ' ', 00H, 't', 00H, 'o', 00H, ' ', 00H, 't', 00H
	DB	'a', 00H, 'k', 00H, 'e', 00H, ' ', 00H, 'e', 00H, 'f', 00H, 'f'
	DB	00H, 'e', 00H, 'c', 00H, 't', 00H, '.', 00H, 00H, 00H
	ORG $+2
$SG140970 DB	'%', 00H, 'p', 00H, 'l', 00H, 'a', 00H, 'y', 00H, 'e', 00H
	DB	'r', 00H, 00H, 00H
$SG140975 DB	'%', 00H, 'n', 00H, 'u', 00H, 'm', 00H, 'b', 00H, 'e', 00H
	DB	'r', 00H, 00H, 00H
$SG140980 DB	'%', 00H, 'm', 00H, 'a', 00H, 'x', 00H, 00H, 00H
	ORG $+2
$SG140994 DB	'%', 00H, 'p', 00H, 'l', 00H, 'a', 00H, 'y', 00H, 'e', 00H
	DB	'r', 00H, 00H, 00H
$SG140998 DB	'h', 00H, 'e', 00H, 'a', 00H, 'd', 00H, 's', 00H, 00H, 00H
$SG140999 DB	't', 00H, 'a', 00H, 'i', 00H, 'l', 00H, 's', 00H, 00H, 00H
$SG141000 DB	'%', 00H, 'r', 00H, 'e', 00H, 's', 00H, 'u', 00H, 'l', 00H
	DB	't', 00H, 00H, 00H
$SG141007 DB	'E', 00H, 'R', 00H, 'R', 00H, ' ', 00H, 'N', 00H, 'o', 00H
	DB	' ', 00H, 'p', 00H, 'e', 00H, 'r', 00H, 'm', 00H, 'i', 00H, 's'
	DB	00H, 's', 00H, 'i', 00H, 'o', 00H, 'n', 00H, 0aH, 00H, 00H, 00H
	ORG $+2
$SG141013 DB	'E', 00H, 'R', 00H, 'R', 00H, ' ', 00H, 'N', 00H, 'o', 00H
	DB	't', 00H, ' ', 00H, 'i', 00H, 'n', 00H, ' ', 00H, 's', 00H, 'p'
	DB	00H, 'a', 00H, 'c', 00H, 'e', 00H, 0aH, 00H, 00H, 00H
$SG141016 DB	'd', 00H, 'i', 00H, 'e', 00H, 00H, 00H
$SG141038 DB	'death_comm', 00H
	ORG $+1
$SG141040 DB	'O', 00H, 'K', 00H, 0aH, 00H, 00H, 00H
$SG141048 DB	'E', 00H, 'R', 00H, 'R', 00H, ' ', 00H, 'N', 00H, 'o', 00H
	DB	't', 00H, ' ', 00H, 'i', 00H, 'n', 00H, ' ', 00H, 's', 00H, 'p'
	DB	00H, 'a', 00H, 'c', 00H, 'e', 00H, 00H, 00H
	ORG $+2
$SG141205 DB	'dock', 00H
	ORG $+3
$SG141209 DB	'o', 00H, 'n', 00H, 00H, 00H
	ORG $+2
$SG141210 DB	'o', 00H, 'f', 00H, 'f', 00H, 00H, 00H
$SG141211 DB	' ', 00H, 'L', 00H, 'i', 00H, 'g', 00H, 'h', 00H, 't', 00H
	DB	's', 00H, ' ', 00H, '%', 00H, 's', 00H, 00H, 00H
	ORG $+2
$SG141214 DB	'L', 00H, 'i', 00H, 'g', 00H, 'h', 00H, 't', 00H, ' ', 00H
	DB	'c', 00H, 'o', 00H, 'n', 00H, 't', 00H, 'r', 00H, 'o', 00H, 'l'
	DB	00H, ' ', 00H, 'n', 00H, 'o', 00H, 't', 00H, ' ', 00H, 'a', 00H
	DB	'v', 00H, 'a', 00H, 'i', 00H, 'l', 00H, 'a', 00H, 'b', 00H, 'l'
	DB	00H, 'e', 00H, 00H, 00H
$SG141236 DB	'0', 00H, '0', 00H, '0', 00H, '0', 00H, 00H, 00H
	ORG $+2
$SG141234 DB	'S', 00H, 'e', 00H, 'l', 00H, 'f', 00H, ' ', 00H, 'd', 00H
	DB	'e', 00H, 's', 00H, 't', 00H, 'r', 00H, 'u', 00H, 'c', 00H, 't'
	DB	00H, ' ', 00H, 'p', 00H, 'r', 00H, 'o', 00H, 'h', 00H, 'i', 00H
	DB	'b', 00H, 'i', 00H, 't', 00H, 'e', 00H, 'd', 00H, '.', 00H, ' '
	DB	00H, 'N', 00H, 'o', 00H, 't', 00H, ' ', 00H, 'i', 00H, 'n', 00H
	DB	' ', 00H, 's', 00H, 'p', 00H, 'a', 00H, 'c', 00H, 'e', 00H, '.'
	DB	00H, 00H, 00H
$SG141238 DB	'S', 00H, 'e', 00H, 'l', 00H, 'f', 00H, ' ', 00H, 'd', 00H
	DB	'e', 00H, 's', 00H, 't', 00H, 'r', 00H, 'u', 00H, 'c', 00H, 't'
	DB	00H, ' ', 00H, 'e', 00H, 'n', 00H, 'a', 00H, 'b', 00H, 'l', 00H
	DB	'e', 00H, 'd', 00H, '.', 00H, ' ', 00H, 'S', 00H, 't', 00H, 'a'
	DB	00H, 'n', 00H, 'd', 00H, 'b', 00H, 'y', 00H, '.', 00H, 00H, 00H
$SG141240 DB	'E', 00H, 'j', 00H, 'e', 00H, 'c', 00H, 't', 00H, 'i', 00H
	DB	'n', 00H, 'g', 00H, ' ', 00H, 'p', 00H, 'o', 00H, 'd', 00H, '.'
	DB	00H, '.', 00H, '.', 00H, 00H, 00H
$SG141242 DB	'death_comm', 00H
	ORG $+5
$SG141245 DB	'W', 00H, 'A', 00H, 'R', 00H, 'N', 00H, 'I', 00H, 'N', 00H
	DB	'G', 00H, '!', 00H, ' ', 00H, 'S', 00H, 'E', 00H, 'L', 00H, 'F'
	DB	00H, ' ', 00H, 'D', 00H, 'E', 00H, 'S', 00H, 'T', 00H, 'R', 00H
	DB	'U', 00H, 'C', 00H, 'T', 00H, ' ', 00H, 'W', 00H, 'I', 00H, 'L'
	DB	00H, 'L', 00H, ' ', 00H, 'C', 00H, 'O', 00H, 'M', 00H, 'P', 00H
	DB	'L', 00H, 'E', 00H, 'T', 00H, 'E', 00H, 'L', 00H, 'Y', 00H, ' '
	DB	00H, 'A', 00H, 'N', 00H, 'D', 00H, ' ', 00H, 'P', 00H, 'E', 00H
	DB	'R', 00H, 'M', 00H, 'A', 00H, 'N', 00H, 'E', 00H, 'N', 00H, 'T'
	DB	00H, 'L', 00H, 'Y', 00H, ' ', 00H, 'D', 00H, 'E', 00H, 'S', 00H
	DB	'T', 00H, 'R', 00H, 'O', 00H, 'Y', 00H, ' ', 00H, 'S', 00H, 'H'
	DB	00H, 'I', 00H, 'P', 00H, '.', 00H, 00H, 00H
	ORG $+6
$SG141247 DB	'W', 00H, 'A', 00H, 'R', 00H, 'N', 00H, 'I', 00H, 'N', 00H
	DB	'G', 00H, '!', 00H, ' ', 00H, 'W', 00H, 'A', 00H, 'R', 00H, 'N'
	DB	00H, 'I', 00H, 'N', 00H, 'G', 00H, '!', 00H, ' ', 00H, 'S', 00H
	DB	'E', 00H, 'C', 00H, 'U', 00H, 'R', 00H, 'I', 00H, 'T', 00H, 'Y'
	DB	00H, ' ', 00H, 'C', 00H, 'O', 00H, 'N', 00H, 'F', 00H, 'I', 00H
	DB	'R', 00H, 'M', 00H, 'A', 00H, 'T', 00H, 'I', 00H, 'O', 00H, 'N'
	DB	00H, ' ', 00H, 'R', 00H, 'E', 00H, 'Q', 00H, 'U', 00H, 'I', 00H
	DB	'R', 00H, 'E', 00H, 'D', 00H, '.', 00H, ' ', 00H, 'T', 00H, 'Y'
	DB	00H, 'P', 00H, 'E', 00H, 00H, 00H
	ORG $+2
$SG141249 DB	'/', 00H, 's', 00H, 'e', 00H, 'l', 00H, 'f', 00H, 'd', 00H
	DB	'e', 00H, 's', 00H, 't', 00H, 'r', 00H, 'u', 00H, 'c', 00H, 't'
	DB	00H, ' ', 00H, '0', 00H, '0', 00H, '0', 00H, '0', 00H, 00H, 00H
	ORG $+2
$SG141258 DB	00H, 00H
	ORG $+2
$SG141259 DB	00H, 00H
	ORG $+2
$SG141260 DB	00H, 00H
	ORG $+2
$SG141262 DB	' ', 00H, 'S', 00H, 'S', 00H, ' ', 00H, 00H, 00H
	ORG $+2
$SG141270 DB	'D', 00H, 'i', 00H, 's', 00H, 'a', 00H, 'b', 00H, 'l', 00H
	DB	'e', 00H, 'd', 00H, 00H, 00H
	ORG $+2
$SG141271 DB	'E', 00H, 'n', 00H, 'a', 00H, 'b', 00H, 'l', 00H, 'e', 00H
	DB	'd', 00H, 00H, 00H
$SG141272 DB	'S', 00H, 'h', 00H, 'i', 00H, 'e', 00H, 'l', 00H, 'd', 00H
	DB	's', 00H, ' ', 00H, '%', 00H, 's', 00H, 00H, 00H
CONST	ENDS
PUBLIC	?LoadSettings@MiscCmds@@YAXABV?$basic_string@DU?$char_traits@D@std@@V?$allocator@D@2@@std@@@Z ; MiscCmds::LoadSettings
EXTRN	__imp_?CreateID@@YAIPBD@Z:PROC
EXTRN	__imp_?c_str@?$basic_string@DU?$char_traits@D@std@@V?$allocator@D@2@@std@@QBEPBDXZ:PROC
EXTRN	__imp_??1?$basic_string@GU?$char_traits@G@std@@V?$allocator@G@2@@std@@QAE@XZ:PROC
EXTRN	__imp_??4?$basic_string@GU?$char_traits@G@std@@V?$allocator@G@2@@std@@QAEAAV01@ABV01@@Z:PROC
EXTRN	__imp_?stows@@YA?AV?$basic_string@GU?$char_traits@G@std@@V?$allocator@G@2@@std@@ABV?$basic_string@DU?$char_traits@D@std@@V?$allocator@D@2@@2@@Z:PROC
EXTRN	__imp_?IniGetS@@YA?AV?$basic_string@DU?$char_traits@D@std@@V?$allocator@D@2@@std@@ABV12@000@Z:PROC
EXTRN	__imp_??1?$basic_string@DU?$char_traits@D@std@@V?$allocator@D@2@@std@@QAE@XZ:PROC
EXTRN	__imp_?IniGetI@@YAHABV?$basic_string@DU?$char_traits@D@std@@V?$allocator@D@2@@std@@00H@Z:PROC
EXTRN	__imp_??0?$basic_string@DU?$char_traits@D@std@@V?$allocator@D@2@@std@@QAE@PBD@Z:PROC
EXTRN	___security_cookie:DWORD
EXTRN	___CxxFrameHandler3:PROC
EXTRN	@__security_check_cookie@4:PROC
xdata$x	SEGMENT
__ehfuncinfo$?LoadSettings@MiscCmds@@YAXABV?$basic_string@DU?$char_traits@D@std@@V?$allocator@D@2@@std@@@Z DD 019930522H
	DD	015H
	DD	FLAT:__unwindtable$?LoadSettings@MiscCmds@@YAXABV?$basic_string@DU?$char_traits@D@std@@V?$allocator@D@2@@std@@@Z
	DD	2 DUP(00H)
	DD	2 DUP(00H)
	DD	00H
	DD	00H
__unwindtable$?LoadSettings@MiscCmds@@YAXABV?$basic_string@DU?$char_traits@D@std@@V?$allocator@D@2@@std@@@Z DD 0ffffffffH
	DD	FLAT:__unwindfunclet$?LoadSettings@MiscCmds@@YAXABV?$basic_string@DU?$char_traits@D@std@@V?$allocator@D@2@@std@@@Z$0
	DD	00H
	DD	FLAT:__unwindfunclet$?LoadSettings@MiscCmds@@YAXABV?$basic_string@DU?$char_traits@D@std@@V?$allocator@D@2@@std@@@Z$1
	DD	0ffffffffH
	DD	FLAT:__unwindfunclet$?LoadSettings@MiscCmds@@YAXABV?$basic_string@DU?$char_traits@D@std@@V?$allocator@D@2@@std@@@Z$2
	DD	02H
	DD	FLAT:__unwindfunclet$?LoadSettings@MiscCmds@@YAXABV?$basic_string@DU?$char_traits@D@std@@V?$allocator@D@2@@std@@@Z$3
	DD	03H
	DD	FLAT:__unwindfunclet$?LoadSettings@MiscCmds@@YAXABV?$basic_string@DU?$char_traits@D@std@@V?$allocator@D@2@@std@@@Z$4
	DD	04H
	DD	FLAT:__unwindfunclet$?LoadSettings@MiscCmds@@YAXABV?$basic_string@DU?$char_traits@D@std@@V?$allocator@D@2@@std@@@Z$5
	DD	05H
	DD	FLAT:__unwindfunclet$?LoadSettings@MiscCmds@@YAXABV?$basic_string@DU?$char_traits@D@std@@V?$allocator@D@2@@std@@@Z$6
	DD	0ffffffffH
	DD	FLAT:__unwindfunclet$?LoadSettings@MiscCmds@@YAXABV?$basic_string@DU?$char_traits@D@std@@V?$allocator@D@2@@std@@@Z$7
	DD	07H
	DD	FLAT:__unwindfunclet$?LoadSettings@MiscCmds@@YAXABV?$basic_string@DU?$char_traits@D@std@@V?$allocator@D@2@@std@@@Z$8
	DD	08H
	DD	FLAT:__unwindfunclet$?LoadSettings@MiscCmds@@YAXABV?$basic_string@DU?$char_traits@D@std@@V?$allocator@D@2@@std@@@Z$9
	DD	09H
	DD	FLAT:__unwindfunclet$?LoadSettings@MiscCmds@@YAXABV?$basic_string@DU?$char_traits@D@std@@V?$allocator@D@2@@std@@@Z$10
	DD	0aH
	DD	FLAT:__unwindfunclet$?LoadSettings@MiscCmds@@YAXABV?$basic_string@DU?$char_traits@D@std@@V?$allocator@D@2@@std@@@Z$11
	DD	0ffffffffH
	DD	FLAT:__unwindfunclet$?LoadSettings@MiscCmds@@YAXABV?$basic_string@DU?$char_traits@D@std@@V?$allocator@D@2@@std@@@Z$12
	DD	0cH
	DD	FLAT:__unwindfunclet$?LoadSettings@MiscCmds@@YAXABV?$basic_string@DU?$char_traits@D@std@@V?$allocator@D@2@@std@@@Z$13
	DD	0dH
	DD	FLAT:__unwindfunclet$?LoadSettings@MiscCmds@@YAXABV?$basic_string@DU?$char_traits@D@std@@V?$allocator@D@2@@std@@@Z$14
	DD	0eH
	DD	FLAT:__unwindfunclet$?LoadSettings@MiscCmds@@YAXABV?$basic_string@DU?$char_traits@D@std@@V?$allocator@D@2@@std@@@Z$15
	DD	0fH
	DD	FLAT:__unwindfunclet$?LoadSettings@MiscCmds@@YAXABV?$basic_string@DU?$char_traits@D@std@@V?$allocator@D@2@@std@@@Z$16
	DD	0ffffffffH
	DD	FLAT:__unwindfunclet$?LoadSettings@MiscCmds@@YAXABV?$basic_string@DU?$char_traits@D@std@@V?$allocator@D@2@@std@@@Z$17
	DD	011H
	DD	FLAT:__unwindfunclet$?LoadSettings@MiscCmds@@YAXABV?$basic_string@DU?$char_traits@D@std@@V?$allocator@D@2@@std@@@Z$18
	DD	012H
	DD	FLAT:__unwindfunclet$?LoadSettings@MiscCmds@@YAXABV?$basic_string@DU?$char_traits@D@std@@V?$allocator@D@2@@std@@@Z$19
	DD	013H
	DD	FLAT:__unwindfunclet$?LoadSettings@MiscCmds@@YAXABV?$basic_string@DU?$char_traits@D@std@@V?$allocator@D@2@@std@@@Z$20
; Function compile flags: /Odtp
xdata$x	ENDS
_TEXT	SEGMENT
tv241 = -656						; size = 4
tv203 = -652						; size = 4
tv236 = -648						; size = 4
tv173 = -644						; size = 4
tv234 = -640						; size = 4
tv178 = -636						; size = 4
tv229 = -632						; size = 4
tv146 = -628						; size = 4
tv227 = -624						; size = 4
tv151 = -620						; size = 4
tv222 = -616						; size = 4
tv87 = -612						; size = 4
tv220 = -608						; size = 4
tv92 = -604						; size = 4
$T146601 = -600						; size = 28
$T146600 = -572						; size = 28
$T146599 = -544						; size = 28
$T146598 = -516						; size = 28
$T146597 = -488						; size = 28
$T146596 = -460						; size = 28
$T146595 = -432						; size = 28
$T146594 = -404						; size = 28
$T146593 = -376						; size = 28
$T146592 = -348						; size = 28
$T146591 = -320						; size = 28
$T146590 = -292						; size = 28
$T146589 = -264						; size = 28
$T146588 = -236						; size = 28
$T146587 = -208						; size = 28
$T146586 = -180						; size = 28
$T146585 = -152						; size = 28
$T146584 = -124						; size = 28
$T146583 = -96						; size = 28
$T146582 = -68						; size = 28
$T146581 = -40						; size = 28
__$EHRec$ = -12						; size = 12
_scPluginCfgFile$ = 8					; size = 4
?LoadSettings@MiscCmds@@YAXABV?$basic_string@DU?$char_traits@D@std@@V?$allocator@D@2@@std@@@Z PROC ; MiscCmds::LoadSettings
; File g:\max\bastelstube\github\fl-mod-flhook\plugins\playercntl_plugin\src\misccmds.cpp
; Line 60
	push	ebp
	mov	ebp, esp
	push	-1
	push	__ehhandler$?LoadSettings@MiscCmds@@YAXABV?$basic_string@DU?$char_traits@D@std@@V?$allocator@D@2@@std@@@Z
	mov	eax, DWORD PTR fs:0
	push	eax
	sub	esp, 644				; 00000284H
	mov	eax, DWORD PTR ___security_cookie
	xor	eax, ebp
	push	eax
	lea	eax, DWORD PTR __$EHRec$[ebp]
	mov	DWORD PTR fs:0, eax
; Line 62
	push	OFFSET $SG140681
	lea	ecx, DWORD PTR $T146581[ebp]
	call	DWORD PTR __imp_??0?$basic_string@DU?$char_traits@D@std@@V?$allocator@D@2@@std@@QAE@PBD@Z
	mov	DWORD PTR __$EHRec$[ebp+8], 0
	push	OFFSET $SG140682
	lea	ecx, DWORD PTR $T146582[ebp]
	call	DWORD PTR __imp_??0?$basic_string@DU?$char_traits@D@std@@V?$allocator@D@2@@std@@QAE@PBD@Z
	mov	BYTE PTR __$EHRec$[ebp+8], 1
	push	0
	lea	eax, DWORD PTR $T146581[ebp]
	push	eax
	lea	ecx, DWORD PTR $T146582[ebp]
	push	ecx
	mov	edx, DWORD PTR _scPluginCfgFile$[ebp]
	push	edx
	call	DWORD PTR __imp_?IniGetI@@YAHABV?$basic_string@DU?$char_traits@D@std@@V?$allocator@D@2@@std@@00H@Z
	add	esp, 16					; 00000010H
	mov	DWORD PTR ?set_iRepdropCost@MiscCmds@@3HA, eax ; MiscCmds::set_iRepdropCost
	mov	BYTE PTR __$EHRec$[ebp+8], 0
	lea	ecx, DWORD PTR $T146582[ebp]
	call	DWORD PTR __imp_??1?$basic_string@DU?$char_traits@D@std@@V?$allocator@D@2@@std@@QAE@XZ
	mov	DWORD PTR __$EHRec$[ebp+8], -1
	lea	ecx, DWORD PTR $T146581[ebp]
	call	DWORD PTR __imp_??1?$basic_string@DU?$char_traits@D@std@@V?$allocator@D@2@@std@@QAE@XZ
; Line 64
	push	OFFSET $SG140688
	lea	ecx, DWORD PTR $T146583[ebp]
	call	DWORD PTR __imp_??0?$basic_string@DU?$char_traits@D@std@@V?$allocator@D@2@@std@@QAE@PBD@Z
	mov	DWORD PTR __$EHRec$[ebp+8], 2
	push	OFFSET $SG140689
	lea	ecx, DWORD PTR $T146584[ebp]
	call	DWORD PTR __imp_??0?$basic_string@DU?$char_traits@D@std@@V?$allocator@D@2@@std@@QAE@PBD@Z
	mov	BYTE PTR __$EHRec$[ebp+8], 3
	push	OFFSET $SG140690
	lea	ecx, DWORD PTR $T146585[ebp]
	call	DWORD PTR __imp_??0?$basic_string@DU?$char_traits@D@std@@V?$allocator@D@2@@std@@QAE@PBD@Z
	mov	BYTE PTR __$EHRec$[ebp+8], 4
	lea	eax, DWORD PTR $T146583[ebp]
	push	eax
	lea	ecx, DWORD PTR $T146584[ebp]
	push	ecx
	lea	edx, DWORD PTR $T146585[ebp]
	push	edx
	mov	eax, DWORD PTR _scPluginCfgFile$[ebp]
	push	eax
	lea	ecx, DWORD PTR $T146586[ebp]
	push	ecx
	call	DWORD PTR __imp_?IniGetS@@YA?AV?$basic_string@DU?$char_traits@D@std@@V?$allocator@D@2@@std@@ABV12@000@Z
	add	esp, 20					; 00000014H
	mov	DWORD PTR tv92[ebp], eax
	mov	edx, DWORD PTR tv92[ebp]
	mov	DWORD PTR tv220[ebp], edx
	mov	BYTE PTR __$EHRec$[ebp+8], 5
	mov	eax, DWORD PTR tv220[ebp]
	push	eax
	lea	ecx, DWORD PTR $T146587[ebp]
	push	ecx
	call	DWORD PTR __imp_?stows@@YA?AV?$basic_string@GU?$char_traits@G@std@@V?$allocator@G@2@@std@@ABV?$basic_string@DU?$char_traits@D@std@@V?$allocator@D@2@@2@@Z
	add	esp, 8
	mov	DWORD PTR tv87[ebp], eax
	mov	edx, DWORD PTR tv87[ebp]
	mov	DWORD PTR tv222[ebp], edx
	mov	BYTE PTR __$EHRec$[ebp+8], 6
	mov	eax, DWORD PTR tv222[ebp]
	push	eax
	mov	ecx, OFFSET ?set_wscStuckMsg@MiscCmds@@3V?$basic_string@GU?$char_traits@G@std@@V?$allocator@G@2@@std@@A ; MiscCmds::set_wscStuckMsg
	call	DWORD PTR __imp_??4?$basic_string@GU?$char_traits@G@std@@V?$allocator@G@2@@std@@QAEAAV01@ABV01@@Z
	mov	BYTE PTR __$EHRec$[ebp+8], 5
	lea	ecx, DWORD PTR $T146587[ebp]
	call	DWORD PTR __imp_??1?$basic_string@GU?$char_traits@G@std@@V?$allocator@G@2@@std@@QAE@XZ
	mov	BYTE PTR __$EHRec$[ebp+8], 4
	lea	ecx, DWORD PTR $T146586[ebp]
	call	DWORD PTR __imp_??1?$basic_string@DU?$char_traits@D@std@@V?$allocator@D@2@@std@@QAE@XZ
	mov	BYTE PTR __$EHRec$[ebp+8], 3
	lea	ecx, DWORD PTR $T146585[ebp]
	call	DWORD PTR __imp_??1?$basic_string@DU?$char_traits@D@std@@V?$allocator@D@2@@std@@QAE@XZ
	mov	BYTE PTR __$EHRec$[ebp+8], 2
	lea	ecx, DWORD PTR $T146584[ebp]
	call	DWORD PTR __imp_??1?$basic_string@DU?$char_traits@D@std@@V?$allocator@D@2@@std@@QAE@XZ
	mov	DWORD PTR __$EHRec$[ebp+8], -1
	lea	ecx, DWORD PTR $T146583[ebp]
	call	DWORD PTR __imp_??1?$basic_string@DU?$char_traits@D@std@@V?$allocator@D@2@@std@@QAE@XZ
; Line 65
	push	OFFSET $SG140696
	lea	ecx, DWORD PTR $T146588[ebp]
	call	DWORD PTR __imp_??0?$basic_string@DU?$char_traits@D@std@@V?$allocator@D@2@@std@@QAE@PBD@Z
	mov	DWORD PTR __$EHRec$[ebp+8], 7
	push	OFFSET $SG140697
	lea	ecx, DWORD PTR $T146589[ebp]
	call	DWORD PTR __imp_??0?$basic_string@DU?$char_traits@D@std@@V?$allocator@D@2@@std@@QAE@PBD@Z
	mov	BYTE PTR __$EHRec$[ebp+8], 8
	push	OFFSET $SG140698
	lea	ecx, DWORD PTR $T146590[ebp]
	call	DWORD PTR __imp_??0?$basic_string@DU?$char_traits@D@std@@V?$allocator@D@2@@std@@QAE@PBD@Z
	mov	BYTE PTR __$EHRec$[ebp+8], 9
	lea	ecx, DWORD PTR $T146588[ebp]
	push	ecx
	lea	edx, DWORD PTR $T146589[ebp]
	push	edx
	lea	eax, DWORD PTR $T146590[ebp]
	push	eax
	mov	ecx, DWORD PTR _scPluginCfgFile$[ebp]
	push	ecx
	lea	edx, DWORD PTR $T146591[ebp]
	push	edx
	call	DWORD PTR __imp_?IniGetS@@YA?AV?$basic_string@DU?$char_traits@D@std@@V?$allocator@D@2@@std@@ABV12@000@Z
	add	esp, 20					; 00000014H
	mov	DWORD PTR tv151[ebp], eax
	mov	eax, DWORD PTR tv151[ebp]
	mov	DWORD PTR tv227[ebp], eax
	mov	BYTE PTR __$EHRec$[ebp+8], 10		; 0000000aH
	mov	ecx, DWORD PTR tv227[ebp]
	push	ecx
	lea	edx, DWORD PTR $T146592[ebp]
	push	edx
	call	DWORD PTR __imp_?stows@@YA?AV?$basic_string@GU?$char_traits@G@std@@V?$allocator@G@2@@std@@ABV?$basic_string@DU?$char_traits@D@std@@V?$allocator@D@2@@2@@Z
	add	esp, 8
	mov	DWORD PTR tv146[ebp], eax
	mov	eax, DWORD PTR tv146[ebp]
	mov	DWORD PTR tv229[ebp], eax
	mov	BYTE PTR __$EHRec$[ebp+8], 11		; 0000000bH
	mov	ecx, DWORD PTR tv229[ebp]
	push	ecx
	mov	ecx, OFFSET ?set_wscDiceMsg@MiscCmds@@3V?$basic_string@GU?$char_traits@G@std@@V?$allocator@G@2@@std@@A ; MiscCmds::set_wscDiceMsg
	call	DWORD PTR __imp_??4?$basic_string@GU?$char_traits@G@std@@V?$allocator@G@2@@std@@QAEAAV01@ABV01@@Z
	mov	BYTE PTR __$EHRec$[ebp+8], 10		; 0000000aH
	lea	ecx, DWORD PTR $T146592[ebp]
	call	DWORD PTR __imp_??1?$basic_string@GU?$char_traits@G@std@@V?$allocator@G@2@@std@@QAE@XZ
	mov	BYTE PTR __$EHRec$[ebp+8], 9
	lea	ecx, DWORD PTR $T146591[ebp]
	call	DWORD PTR __imp_??1?$basic_string@DU?$char_traits@D@std@@V?$allocator@D@2@@std@@QAE@XZ
	mov	BYTE PTR __$EHRec$[ebp+8], 8
	lea	ecx, DWORD PTR $T146590[ebp]
	call	DWORD PTR __imp_??1?$basic_string@DU?$char_traits@D@std@@V?$allocator@D@2@@std@@QAE@XZ
	mov	BYTE PTR __$EHRec$[ebp+8], 7
	lea	ecx, DWORD PTR $T146589[ebp]
	call	DWORD PTR __imp_??1?$basic_string@DU?$char_traits@D@std@@V?$allocator@D@2@@std@@QAE@XZ
	mov	DWORD PTR __$EHRec$[ebp+8], -1
	lea	ecx, DWORD PTR $T146588[ebp]
	call	DWORD PTR __imp_??1?$basic_string@DU?$char_traits@D@std@@V?$allocator@D@2@@std@@QAE@XZ
; Line 66
	push	OFFSET $SG140704
	lea	ecx, DWORD PTR $T146593[ebp]
	call	DWORD PTR __imp_??0?$basic_string@DU?$char_traits@D@std@@V?$allocator@D@2@@std@@QAE@PBD@Z
	mov	DWORD PTR __$EHRec$[ebp+8], 12		; 0000000cH
	push	OFFSET $SG140705
	lea	ecx, DWORD PTR $T146594[ebp]
	call	DWORD PTR __imp_??0?$basic_string@DU?$char_traits@D@std@@V?$allocator@D@2@@std@@QAE@PBD@Z
	mov	BYTE PTR __$EHRec$[ebp+8], 13		; 0000000dH
	push	OFFSET $SG140706
	lea	ecx, DWORD PTR $T146595[ebp]
	call	DWORD PTR __imp_??0?$basic_string@DU?$char_traits@D@std@@V?$allocator@D@2@@std@@QAE@PBD@Z
	mov	BYTE PTR __$EHRec$[ebp+8], 14		; 0000000eH
	lea	edx, DWORD PTR $T146593[ebp]
	push	edx
	lea	eax, DWORD PTR $T146594[ebp]
	push	eax
	lea	ecx, DWORD PTR $T146595[ebp]
	push	ecx
	mov	edx, DWORD PTR _scPluginCfgFile$[ebp]
	push	edx
	lea	eax, DWORD PTR $T146596[ebp]
	push	eax
	call	DWORD PTR __imp_?IniGetS@@YA?AV?$basic_string@DU?$char_traits@D@std@@V?$allocator@D@2@@std@@ABV12@000@Z
	add	esp, 20					; 00000014H
	mov	DWORD PTR tv178[ebp], eax
	mov	ecx, DWORD PTR tv178[ebp]
	mov	DWORD PTR tv234[ebp], ecx
	mov	BYTE PTR __$EHRec$[ebp+8], 15		; 0000000fH
	mov	edx, DWORD PTR tv234[ebp]
	push	edx
	lea	eax, DWORD PTR $T146597[ebp]
	push	eax
	call	DWORD PTR __imp_?stows@@YA?AV?$basic_string@GU?$char_traits@G@std@@V?$allocator@G@2@@std@@ABV?$basic_string@DU?$char_traits@D@std@@V?$allocator@D@2@@2@@Z
	add	esp, 8
	mov	DWORD PTR tv173[ebp], eax
	mov	ecx, DWORD PTR tv173[ebp]
	mov	DWORD PTR tv236[ebp], ecx
	mov	BYTE PTR __$EHRec$[ebp+8], 16		; 00000010H
	mov	edx, DWORD PTR tv236[ebp]
	push	edx
	mov	ecx, OFFSET ?set_wscCoinMsg@MiscCmds@@3V?$basic_string@GU?$char_traits@G@std@@V?$allocator@G@2@@std@@A ; MiscCmds::set_wscCoinMsg
	call	DWORD PTR __imp_??4?$basic_string@GU?$char_traits@G@std@@V?$allocator@G@2@@std@@QAEAAV01@ABV01@@Z
	mov	BYTE PTR __$EHRec$[ebp+8], 15		; 0000000fH
	lea	ecx, DWORD PTR $T146597[ebp]
	call	DWORD PTR __imp_??1?$basic_string@GU?$char_traits@G@std@@V?$allocator@G@2@@std@@QAE@XZ
	mov	BYTE PTR __$EHRec$[ebp+8], 14		; 0000000eH
	lea	ecx, DWORD PTR $T146596[ebp]
	call	DWORD PTR __imp_??1?$basic_string@DU?$char_traits@D@std@@V?$allocator@D@2@@std@@QAE@XZ
	mov	BYTE PTR __$EHRec$[ebp+8], 13		; 0000000dH
	lea	ecx, DWORD PTR $T146595[ebp]
	call	DWORD PTR __imp_??1?$basic_string@DU?$char_traits@D@std@@V?$allocator@D@2@@std@@QAE@XZ
	mov	BYTE PTR __$EHRec$[ebp+8], 12		; 0000000cH
	lea	ecx, DWORD PTR $T146594[ebp]
	call	DWORD PTR __imp_??1?$basic_string@DU?$char_traits@D@std@@V?$allocator@D@2@@std@@QAE@XZ
	mov	DWORD PTR __$EHRec$[ebp+8], -1
	lea	ecx, DWORD PTR $T146593[ebp]
	call	DWORD PTR __imp_??1?$basic_string@DU?$char_traits@D@std@@V?$allocator@D@2@@std@@QAE@XZ
; Line 68
	push	OFFSET $SG140711
	lea	ecx, DWORD PTR $T146598[ebp]
	call	DWORD PTR __imp_??0?$basic_string@DU?$char_traits@D@std@@V?$allocator@D@2@@std@@QAE@PBD@Z
	mov	DWORD PTR __$EHRec$[ebp+8], 17		; 00000011H
	push	OFFSET $SG140712
	lea	ecx, DWORD PTR $T146599[ebp]
	call	DWORD PTR __imp_??0?$basic_string@DU?$char_traits@D@std@@V?$allocator@D@2@@std@@QAE@PBD@Z
	mov	BYTE PTR __$EHRec$[ebp+8], 18		; 00000012H
	push	OFFSET $SG140713
	lea	ecx, DWORD PTR $T146600[ebp]
	call	DWORD PTR __imp_??0?$basic_string@DU?$char_traits@D@std@@V?$allocator@D@2@@std@@QAE@PBD@Z
	mov	BYTE PTR __$EHRec$[ebp+8], 19		; 00000013H
	lea	eax, DWORD PTR $T146598[ebp]
	push	eax
	lea	ecx, DWORD PTR $T146599[ebp]
	push	ecx
	lea	edx, DWORD PTR $T146600[ebp]
	push	edx
	mov	eax, DWORD PTR _scPluginCfgFile$[ebp]
	push	eax
	lea	ecx, DWORD PTR $T146601[ebp]
	push	ecx
	call	DWORD PTR __imp_?IniGetS@@YA?AV?$basic_string@DU?$char_traits@D@std@@V?$allocator@D@2@@std@@ABV12@000@Z
	add	esp, 20					; 00000014H
	mov	DWORD PTR tv203[ebp], eax
	mov	edx, DWORD PTR tv203[ebp]
	mov	DWORD PTR tv241[ebp], edx
	mov	BYTE PTR __$EHRec$[ebp+8], 20		; 00000014H
	mov	ecx, DWORD PTR tv241[ebp]
	call	DWORD PTR __imp_?c_str@?$basic_string@DU?$char_traits@D@std@@V?$allocator@D@2@@std@@QBEPBDXZ
	push	eax
	call	DWORD PTR __imp_?CreateID@@YAIPBD@Z
	add	esp, 4
	mov	DWORD PTR ?set_iSmiteMusicID@MiscCmds@@3IA, eax ; MiscCmds::set_iSmiteMusicID
	mov	BYTE PTR __$EHRec$[ebp+8], 19		; 00000013H
	lea	ecx, DWORD PTR $T146601[ebp]
	call	DWORD PTR __imp_??1?$basic_string@DU?$char_traits@D@std@@V?$allocator@D@2@@std@@QAE@XZ
	mov	BYTE PTR __$EHRec$[ebp+8], 18		; 00000012H
	lea	ecx, DWORD PTR $T146600[ebp]
	call	DWORD PTR __imp_??1?$basic_string@DU?$char_traits@D@std@@V?$allocator@D@2@@std@@QAE@XZ
	mov	BYTE PTR __$EHRec$[ebp+8], 17		; 00000011H
	lea	ecx, DWORD PTR $T146599[ebp]
	call	DWORD PTR __imp_??1?$basic_string@DU?$char_traits@D@std@@V?$allocator@D@2@@std@@QAE@XZ
	mov	DWORD PTR __$EHRec$[ebp+8], -1
	lea	ecx, DWORD PTR $T146598[ebp]
	call	DWORD PTR __imp_??1?$basic_string@DU?$char_traits@D@std@@V?$allocator@D@2@@std@@QAE@XZ
; Line 69
	mov	ecx, DWORD PTR __$EHRec$[ebp]
	mov	DWORD PTR fs:0, ecx
	pop	ecx
	mov	esp, ebp
	pop	ebp
	ret	0
_TEXT	ENDS
text$x	SEGMENT
__unwindfunclet$?LoadSettings@MiscCmds@@YAXABV?$basic_string@DU?$char_traits@D@std@@V?$allocator@D@2@@std@@@Z$0:
	lea	ecx, DWORD PTR $T146581[ebp]
	jmp	DWORD PTR __imp_??1?$basic_string@DU?$char_traits@D@std@@V?$allocator@D@2@@std@@QAE@XZ
__unwindfunclet$?LoadSettings@MiscCmds@@YAXABV?$basic_string@DU?$char_traits@D@std@@V?$allocator@D@2@@std@@@Z$1:
	lea	ecx, DWORD PTR $T146582[ebp]
	jmp	DWORD PTR __imp_??1?$basic_string@DU?$char_traits@D@std@@V?$allocator@D@2@@std@@QAE@XZ
__unwindfunclet$?LoadSettings@MiscCmds@@YAXABV?$basic_string@DU?$char_traits@D@std@@V?$allocator@D@2@@std@@@Z$2:
	lea	ecx, DWORD PTR $T146583[ebp]
	jmp	DWORD PTR __imp_??1?$basic_string@DU?$char_traits@D@std@@V?$allocator@D@2@@std@@QAE@XZ
__unwindfunclet$?LoadSettings@MiscCmds@@YAXABV?$basic_string@DU?$char_traits@D@std@@V?$allocator@D@2@@std@@@Z$3:
	lea	ecx, DWORD PTR $T146584[ebp]
	jmp	DWORD PTR __imp_??1?$basic_string@DU?$char_traits@D@std@@V?$allocator@D@2@@std@@QAE@XZ
__unwindfunclet$?LoadSettings@MiscCmds@@YAXABV?$basic_string@DU?$char_traits@D@std@@V?$allocator@D@2@@std@@@Z$4:
	lea	ecx, DWORD PTR $T146585[ebp]
	jmp	DWORD PTR __imp_??1?$basic_string@DU?$char_traits@D@std@@V?$allocator@D@2@@std@@QAE@XZ
__unwindfunclet$?LoadSettings@MiscCmds@@YAXABV?$basic_string@DU?$char_traits@D@std@@V?$allocator@D@2@@std@@@Z$5:
	lea	ecx, DWORD PTR $T146586[ebp]
	jmp	DWORD PTR __imp_??1?$basic_string@DU?$char_traits@D@std@@V?$allocator@D@2@@std@@QAE@XZ
__unwindfunclet$?LoadSettings@MiscCmds@@YAXABV?$basic_string@DU?$char_traits@D@std@@V?$allocator@D@2@@std@@@Z$6:
	lea	ecx, DWORD PTR $T146587[ebp]
	jmp	DWORD PTR __imp_??1?$basic_string@GU?$char_traits@G@std@@V?$allocator@G@2@@std@@QAE@XZ
__unwindfunclet$?LoadSettings@MiscCmds@@YAXABV?$basic_string@DU?$char_traits@D@std@@V?$allocator@D@2@@std@@@Z$7:
	lea	ecx, DWORD PTR $T146588[ebp]
	jmp	DWORD PTR __imp_??1?$basic_string@DU?$char_traits@D@std@@V?$allocator@D@2@@std@@QAE@XZ
__unwindfunclet$?LoadSettings@MiscCmds@@YAXABV?$basic_string@DU?$char_traits@D@std@@V?$allocator@D@2@@std@@@Z$8:
	lea	ecx, DWORD PTR $T146589[ebp]
	jmp	DWORD PTR __imp_??1?$basic_string@DU?$char_traits@D@std@@V?$allocator@D@2@@std@@QAE@XZ
__unwindfunclet$?LoadSettings@MiscCmds@@YAXABV?$basic_string@DU?$char_traits@D@std@@V?$allocator@D@2@@std@@@Z$9:
	lea	ecx, DWORD PTR $T146590[ebp]
	jmp	DWORD PTR __imp_??1?$basic_string@DU?$char_traits@D@std@@V?$allocator@D@2@@std@@QAE@XZ
__unwindfunclet$?LoadSettings@MiscCmds@@YAXABV?$basic_string@DU?$char_traits@D@std@@V?$allocator@D@2@@std@@@Z$10:
	lea	ecx, DWORD PTR $T146591[ebp]
	jmp	DWORD PTR __imp_??1?$basic_string@DU?$char_traits@D@std@@V?$allocator@D@2@@std@@QAE@XZ
__unwindfunclet$?LoadSettings@MiscCmds@@YAXABV?$basic_string@DU?$char_traits@D@std@@V?$allocator@D@2@@std@@@Z$11:
	lea	ecx, DWORD PTR $T146592[ebp]
	jmp	DWORD PTR __imp_??1?$basic_string@GU?$char_traits@G@std@@V?$allocator@G@2@@std@@QAE@XZ
__unwindfunclet$?LoadSettings@MiscCmds@@YAXABV?$basic_string@DU?$char_traits@D@std@@V?$allocator@D@2@@std@@@Z$12:
	lea	ecx, DWORD PTR $T146593[ebp]
	jmp	DWORD PTR __imp_??1?$basic_string@DU?$char_traits@D@std@@V?$allocator@D@2@@std@@QAE@XZ
__unwindfunclet$?LoadSettings@MiscCmds@@YAXABV?$basic_string@DU?$char_traits@D@std@@V?$allocator@D@2@@std@@@Z$13:
	lea	ecx, DWORD PTR $T146594[ebp]
	jmp	DWORD PTR __imp_??1?$basic_string@DU?$char_traits@D@std@@V?$allocator@D@2@@std@@QAE@XZ
__unwindfunclet$?LoadSettings@MiscCmds@@YAXABV?$basic_string@DU?$char_traits@D@std@@V?$allocator@D@2@@std@@@Z$14:
	lea	ecx, DWORD PTR $T146595[ebp]
	jmp	DWORD PTR __imp_??1?$basic_string@DU?$char_traits@D@std@@V?$allocator@D@2@@std@@QAE@XZ
__unwindfunclet$?LoadSettings@MiscCmds@@YAXABV?$basic_string@DU?$char_traits@D@std@@V?$allocator@D@2@@std@@@Z$15:
	lea	ecx, DWORD PTR $T146596[ebp]
	jmp	DWORD PTR __imp_??1?$basic_string@DU?$char_traits@D@std@@V?$allocator@D@2@@std@@QAE@XZ
__unwindfunclet$?LoadSettings@MiscCmds@@YAXABV?$basic_string@DU?$char_traits@D@std@@V?$allocator@D@2@@std@@@Z$16:
	lea	ecx, DWORD PTR $T146597[ebp]
	jmp	DWORD PTR __imp_??1?$basic_string@GU?$char_traits@G@std@@V?$allocator@G@2@@std@@QAE@XZ
__unwindfunclet$?LoadSettings@MiscCmds@@YAXABV?$basic_string@DU?$char_traits@D@std@@V?$allocator@D@2@@std@@@Z$17:
	lea	ecx, DWORD PTR $T146598[ebp]
	jmp	DWORD PTR __imp_??1?$basic_string@DU?$char_traits@D@std@@V?$allocator@D@2@@std@@QAE@XZ
__unwindfunclet$?LoadSettings@MiscCmds@@YAXABV?$basic_string@DU?$char_traits@D@std@@V?$allocator@D@2@@std@@@Z$18:
	lea	ecx, DWORD PTR $T146599[ebp]
	jmp	DWORD PTR __imp_??1?$basic_string@DU?$char_traits@D@std@@V?$allocator@D@2@@std@@QAE@XZ
__unwindfunclet$?LoadSettings@MiscCmds@@YAXABV?$basic_string@DU?$char_traits@D@std@@V?$allocator@D@2@@std@@@Z$19:
	lea	ecx, DWORD PTR $T146600[ebp]
	jmp	DWORD PTR __imp_??1?$basic_string@DU?$char_traits@D@std@@V?$allocator@D@2@@std@@QAE@XZ
__unwindfunclet$?LoadSettings@MiscCmds@@YAXABV?$basic_string@DU?$char_traits@D@std@@V?$allocator@D@2@@std@@@Z$20:
	lea	ecx, DWORD PTR $T146601[ebp]
	jmp	DWORD PTR __imp_??1?$basic_string@DU?$char_traits@D@std@@V?$allocator@D@2@@std@@QAE@XZ
__ehhandler$?LoadSettings@MiscCmds@@YAXABV?$basic_string@DU?$char_traits@D@std@@V?$allocator@D@2@@std@@@Z:
	mov	edx, DWORD PTR [esp+8]
	lea	eax, DWORD PTR [edx+12]
	mov	ecx, DWORD PTR [edx-648]
	xor	ecx, eax
	call	@__security_check_cookie@4
	mov	eax, OFFSET __ehfuncinfo$?LoadSettings@MiscCmds@@YAXABV?$basic_string@DU?$char_traits@D@std@@V?$allocator@D@2@@std@@@Z
	jmp	___CxxFrameHandler3
text$x	ENDS
?LoadSettings@MiscCmds@@YAXABV?$basic_string@DU?$char_traits@D@std@@V?$allocator@D@2@@std@@@Z ENDP ; MiscCmds::LoadSettings
PUBLIC	?erase@?$_Tree@V?$_Tmap_traits@IUINFO@MiscCmds@@U?$less@I@std@@V?$allocator@U?$pair@$$CBIUINFO@MiscCmds@@@std@@@4@$0A@@std@@@std@@QAEIABI@Z ; std::_Tree<std::_Tmap_traits<unsigned int,MiscCmds::INFO,std::less<unsigned int>,std::allocator<std::pair<unsigned int const ,MiscCmds::INFO> >,0> >::erase
PUBLIC	??A?$map@IUINFO@MiscCmds@@U?$less@I@std@@V?$allocator@U?$pair@$$CBIUINFO@MiscCmds@@@std@@@4@@std@@QAEAAUINFO@MiscCmds@@ABI@Z ; std::map<unsigned int,MiscCmds::INFO,std::less<unsigned int>,std::allocator<std::pair<unsigned int const ,MiscCmds::INFO> > >::operator[]
PUBLIC	?ClearClientInfo@MiscCmds@@YAXI@Z		; MiscCmds::ClearClientInfo
EXTRN	__imp_?SetShipAndLoadout@Player@pub@@YAHABIIABUEquipDescVector@@@Z:PROC
; Function compile flags: /Odtp
_TEXT	SEGMENT
_dummy$140718 = -12					; size = 12
_iClientID$ = 8						; size = 4
?ClearClientInfo@MiscCmds@@YAXI@Z PROC			; MiscCmds::ClearClientInfo
; Line 73
	push	ebp
	mov	ebp, esp
	sub	esp, 12					; 0000000cH
; Line 74
	lea	eax, DWORD PTR _iClientID$[ebp]
	push	eax
	mov	ecx, OFFSET ?mapInfo@MiscCmds@@3V?$map@IUINFO@MiscCmds@@U?$less@I@std@@V?$allocator@U?$pair@$$CBIUINFO@MiscCmds@@@std@@@4@@std@@A ; MiscCmds::mapInfo
	call	??A?$map@IUINFO@MiscCmds@@U?$less@I@std@@V?$allocator@U?$pair@$$CBIUINFO@MiscCmds@@@std@@@4@@std@@QAEAAUINFO@MiscCmds@@ABI@Z ; std::map<unsigned int,MiscCmds::INFO,std::less<unsigned int>,std::allocator<std::pair<unsigned int const ,MiscCmds::INFO> > >::operator[]
	movzx	ecx, BYTE PTR [eax+2]
	test	ecx, ecx
	je	SHORT $LN1@ClearClien
; Line 76
	lea	edx, DWORD PTR _iClientID$[ebp]
	push	edx
	mov	ecx, OFFSET ?mapInfo@MiscCmds@@3V?$map@IUINFO@MiscCmds@@U?$less@I@std@@V?$allocator@U?$pair@$$CBIUINFO@MiscCmds@@@std@@@4@@std@@A ; MiscCmds::mapInfo
	call	??A?$map@IUINFO@MiscCmds@@U?$less@I@std@@V?$allocator@U?$pair@$$CBIUINFO@MiscCmds@@@std@@@4@@std@@QAEAAUINFO@MiscCmds@@ABI@Z ; std::map<unsigned int,MiscCmds::INFO,std::less<unsigned int>,std::allocator<std::pair<unsigned int const ,MiscCmds::INFO> > >::operator[]
	mov	BYTE PTR [eax+2], 0
; Line 77
	mov	DWORD PTR _dummy$140718[ebp], 0
	xor	eax, eax
	mov	DWORD PTR _dummy$140718[ebp+4], eax
	mov	DWORD PTR _dummy$140718[ebp+8], eax
; Line 78
	lea	ecx, DWORD PTR _dummy$140718[ebp]
	push	ecx
	push	OFFSET $SG140720
	call	DWORD PTR __imp_?CreateID@@YAIPBD@Z
	add	esp, 4
	push	eax
	lea	edx, DWORD PTR _iClientID$[ebp]
	push	edx
	call	DWORD PTR __imp_?SetShipAndLoadout@Player@pub@@YAHABIIABUEquipDescVector@@@Z
	add	esp, 12					; 0000000cH
$LN1@ClearClien:
; Line 80
	lea	eax, DWORD PTR _iClientID$[ebp]
	push	eax
	mov	ecx, OFFSET ?mapInfo@MiscCmds@@3V?$map@IUINFO@MiscCmds@@U?$less@I@std@@V?$allocator@U?$pair@$$CBIUINFO@MiscCmds@@@std@@@4@@std@@A ; MiscCmds::mapInfo
	call	?erase@?$_Tree@V?$_Tmap_traits@IUINFO@MiscCmds@@U?$less@I@std@@V?$allocator@U?$pair@$$CBIUINFO@MiscCmds@@@std@@@4@$0A@@std@@@std@@QAEIABI@Z ; std::_Tree<std::_Tmap_traits<unsigned int,MiscCmds::INFO,std::less<unsigned int>,std::allocator<std::pair<unsigned int const ,MiscCmds::INFO> >,0> >::erase
; Line 81
	mov	esp, ebp
	pop	ebp
	ret	0
?ClearClientInfo@MiscCmds@@YAXI@Z ENDP			; MiscCmds::ClearClientInfo
_TEXT	ENDS
PUBLIC	?CharacterInfoReq@MiscCmds@@YAXI_N@Z		; MiscCmds::CharacterInfoReq
; Function compile flags: /Odtp
_TEXT	SEGMENT
_dummy$140802 = -12					; size = 12
_iClientID$ = 8						; size = 4
_p2$ = 12						; size = 1
?CharacterInfoReq@MiscCmds@@YAXI_N@Z PROC		; MiscCmds::CharacterInfoReq
; Line 84
	push	ebp
	mov	ebp, esp
	sub	esp, 12					; 0000000cH
; Line 85
	lea	eax, DWORD PTR _iClientID$[ebp]
	push	eax
	mov	ecx, OFFSET ?mapInfo@MiscCmds@@3V?$map@IUINFO@MiscCmds@@U?$less@I@std@@V?$allocator@U?$pair@$$CBIUINFO@MiscCmds@@@std@@@4@@std@@A ; MiscCmds::mapInfo
	call	??A?$map@IUINFO@MiscCmds@@U?$less@I@std@@V?$allocator@U?$pair@$$CBIUINFO@MiscCmds@@@std@@@4@@std@@QAEAAUINFO@MiscCmds@@ABI@Z ; std::map<unsigned int,MiscCmds::INFO,std::less<unsigned int>,std::allocator<std::pair<unsigned int const ,MiscCmds::INFO> > >::operator[]
	movzx	ecx, BYTE PTR [eax+2]
	test	ecx, ecx
	je	SHORT $LN2@CharacterI
; Line 87
	lea	edx, DWORD PTR _iClientID$[ebp]
	push	edx
	mov	ecx, OFFSET ?mapInfo@MiscCmds@@3V?$map@IUINFO@MiscCmds@@U?$less@I@std@@V?$allocator@U?$pair@$$CBIUINFO@MiscCmds@@@std@@@4@@std@@A ; MiscCmds::mapInfo
	call	??A?$map@IUINFO@MiscCmds@@U?$less@I@std@@V?$allocator@U?$pair@$$CBIUINFO@MiscCmds@@@std@@@4@@std@@QAEAAUINFO@MiscCmds@@ABI@Z ; std::map<unsigned int,MiscCmds::INFO,std::less<unsigned int>,std::allocator<std::pair<unsigned int const ,MiscCmds::INFO> > >::operator[]
	mov	BYTE PTR [eax+2], 0
; Line 88
	mov	DWORD PTR _dummy$140802[ebp], 0
	xor	eax, eax
	mov	DWORD PTR _dummy$140802[ebp+4], eax
	mov	DWORD PTR _dummy$140802[ebp+8], eax
; Line 89
	lea	ecx, DWORD PTR _dummy$140802[ebp]
	push	ecx
	push	OFFSET $SG140804
	call	DWORD PTR __imp_?CreateID@@YAIPBD@Z
	add	esp, 4
	push	eax
	lea	edx, DWORD PTR _iClientID$[ebp]
	push	edx
	call	DWORD PTR __imp_?SetShipAndLoadout@Player@pub@@YAHABIIABUEquipDescVector@@@Z
	add	esp, 12					; 0000000cH
$LN2@CharacterI:
; Line 91
	mov	esp, ebp
	pop	ebp
	ret	0
?CharacterInfoReq@MiscCmds@@YAXI_N@Z ENDP		; MiscCmds::CharacterInfoReq
_TEXT	ENDS
PUBLIC	??1HKPLAYERINFO@@QAE@XZ				; HKPLAYERINFO::~HKPLAYERINFO
PUBLIC	??0HKPLAYERINFO@@QAE@XZ				; HKPLAYERINFO::HKPLAYERINFO
PUBLIC	??Citerator@?$_Tree@V?$_Tmap_traits@IUINFO@MiscCmds@@U?$less@I@std@@V?$allocator@U?$pair@$$CBIUINFO@MiscCmds@@@std@@@4@$0A@@std@@@std@@QBEPAU?$pair@$$CBIUINFO@MiscCmds@@@2@XZ ; std::_Tree<std::_Tmap_traits<unsigned int,MiscCmds::INFO,std::less<unsigned int>,std::allocator<std::pair<unsigned int const ,MiscCmds::INFO> >,0> >::iterator::operator->
PUBLIC	??9const_iterator@?$_Tree@V?$_Tmap_traits@IUINFO@MiscCmds@@U?$less@I@std@@V?$allocator@U?$pair@$$CBIUINFO@MiscCmds@@@std@@@4@$0A@@std@@@std@@QBE_NABV012@@Z ; std::_Tree<std::_Tmap_traits<unsigned int,MiscCmds::INFO,std::less<unsigned int>,std::allocator<std::pair<unsigned int const ,MiscCmds::INFO> >,0> >::const_iterator::operator!=
PUBLIC	?end@?$_Tree@V?$_Tmap_traits@IUINFO@MiscCmds@@U?$less@I@std@@V?$allocator@U?$pair@$$CBIUINFO@MiscCmds@@@std@@@4@$0A@@std@@@std@@QAE?AViterator@12@XZ ; std::_Tree<std::_Tmap_traits<unsigned int,MiscCmds::INFO,std::less<unsigned int>,std::allocator<std::pair<unsigned int const ,MiscCmds::INFO> >,0> >::end
PUBLIC	??Eiterator@?$_Tree@V?$_Tmap_traits@IUINFO@MiscCmds@@U?$less@I@std@@V?$allocator@U?$pair@$$CBIUINFO@MiscCmds@@@std@@@4@$0A@@std@@@std@@QAE?AV012@H@Z ; std::_Tree<std::_Tmap_traits<unsigned int,MiscCmds::INFO,std::less<unsigned int>,std::allocator<std::pair<unsigned int const ,MiscCmds::INFO> >,0> >::iterator::operator++
PUBLIC	?begin@?$_Tree@V?$_Tmap_traits@IUINFO@MiscCmds@@U?$less@I@std@@V?$allocator@U?$pair@$$CBIUINFO@MiscCmds@@@std@@@4@$0A@@std@@@std@@QAE?AViterator@12@XZ ; std::_Tree<std::_Tmap_traits<unsigned int,MiscCmds::INFO,std::less<unsigned int>,std::allocator<std::pair<unsigned int const ,MiscCmds::INFO> >,0> >::begin
PUBLIC	__$ArrayPad$
PUBLIC	?Timer@MiscCmds@@YAXXZ				; MiscCmds::Timer
EXTRN	__imp_?DrainShields@SpaceObj@pub@@YAHI@Z:PROC
EXTRN	__imp_?HkGetPlayerInfo@@YA?AW4HK_ERROR@@ABV?$basic_string@GU?$char_traits@G@std@@V?$allocator@G@2@@std@@AAUHKPLAYERINFO@@_N@Z:PROC
EXTRN	__imp_??0?$basic_string@GU?$char_traits@G@std@@V?$allocator@G@2@@std@@QAE@PBG@Z:PROC
EXTRN	__imp_?GetActiveCharacterName@PlayerDB@@QBEPBGI@Z:PROC
EXTRN	__imp_?Players@@3VPlayerDB@@A:BYTE
xdata$x	SEGMENT
__unwindtable$?Timer@MiscCmds@@YAXXZ DD 0ffffffffH
	DD	FLAT:__unwindfunclet$?Timer@MiscCmds@@YAXXZ$0
	DD	00H
	DD	FLAT:__unwindfunclet$?Timer@MiscCmds@@YAXXZ$1
__ehfuncinfo$?Timer@MiscCmds@@YAXXZ DD 019930522H
	DD	02H
	DD	FLAT:__unwindtable$?Timer@MiscCmds@@YAXXZ
	DD	2 DUP(00H)
	DD	2 DUP(00H)
	DD	00H
	DD	00H
; Function compile flags: /Odtp
xdata$x	ENDS
_TEXT	SEGMENT
tv149 = -332						; size = 4
$T146643 = -328						; size = 4
$T146639 = -324						; size = 28
$T146638 = -293						; size = 1
$T146637 = -292						; size = 8
$T146636 = -284						; size = 8
_p$140860 = -276					; size = 244
__$ArrayPad$ = -24					; size = 4
_iter$140828 = -20					; size = 8
__$EHRec$ = -12						; size = 12
?Timer@MiscCmds@@YAXXZ PROC				; MiscCmds::Timer
; Line 95
	push	ebp
	mov	ebp, esp
	push	-1
	push	__ehhandler$?Timer@MiscCmds@@YAXXZ
	mov	eax, DWORD PTR fs:0
	push	eax
	sub	esp, 320				; 00000140H
	mov	eax, DWORD PTR ___security_cookie
	xor	eax, ebp
	mov	DWORD PTR __$ArrayPad$[ebp], eax
	push	eax
	lea	eax, DWORD PTR __$EHRec$[ebp]
	mov	DWORD PTR fs:0, eax
	mov	DWORD PTR $T146643[ebp], 0
; Line 97
	lea	eax, DWORD PTR _iter$140828[ebp]
	push	eax
	mov	ecx, OFFSET ?mapInfo@MiscCmds@@3V?$map@IUINFO@MiscCmds@@U?$less@I@std@@V?$allocator@U?$pair@$$CBIUINFO@MiscCmds@@@std@@@4@@std@@A ; MiscCmds::mapInfo
	call	?begin@?$_Tree@V?$_Tmap_traits@IUINFO@MiscCmds@@U?$less@I@std@@V?$allocator@U?$pair@$$CBIUINFO@MiscCmds@@@std@@@4@$0A@@std@@@std@@QAE?AViterator@12@XZ ; std::_Tree<std::_Tmap_traits<unsigned int,MiscCmds::INFO,std::less<unsigned int>,std::allocator<std::pair<unsigned int const ,MiscCmds::INFO> >,0> >::begin
	jmp	SHORT $LN5@Timer
$LN4@Timer:
	push	0
	lea	ecx, DWORD PTR $T146636[ebp]
	push	ecx
	lea	ecx, DWORD PTR _iter$140828[ebp]
	call	??Eiterator@?$_Tree@V?$_Tmap_traits@IUINFO@MiscCmds@@U?$less@I@std@@V?$allocator@U?$pair@$$CBIUINFO@MiscCmds@@@std@@@4@$0A@@std@@@std@@QAE?AV012@H@Z ; std::_Tree<std::_Tmap_traits<unsigned int,MiscCmds::INFO,std::less<unsigned int>,std::allocator<std::pair<unsigned int const ,MiscCmds::INFO> >,0> >::iterator::operator++
$LN5@Timer:
	lea	edx, DWORD PTR $T146637[ebp]
	push	edx
	mov	ecx, OFFSET ?mapInfo@MiscCmds@@3V?$map@IUINFO@MiscCmds@@U?$less@I@std@@V?$allocator@U?$pair@$$CBIUINFO@MiscCmds@@@std@@@4@@std@@A ; MiscCmds::mapInfo
	call	?end@?$_Tree@V?$_Tmap_traits@IUINFO@MiscCmds@@U?$less@I@std@@V?$allocator@U?$pair@$$CBIUINFO@MiscCmds@@@std@@@4@$0A@@std@@@std@@QAE?AViterator@12@XZ ; std::_Tree<std::_Tmap_traits<unsigned int,MiscCmds::INFO,std::less<unsigned int>,std::allocator<std::pair<unsigned int const ,MiscCmds::INFO> >,0> >::end
	push	eax
	lea	ecx, DWORD PTR _iter$140828[ebp]
	call	??9const_iterator@?$_Tree@V?$_Tmap_traits@IUINFO@MiscCmds@@U?$less@I@std@@V?$allocator@U?$pair@$$CBIUINFO@MiscCmds@@@std@@@4@$0A@@std@@@std@@QBE_NABV012@@Z ; std::_Tree<std::_Tmap_traits<unsigned int,MiscCmds::INFO,std::less<unsigned int>,std::allocator<std::pair<unsigned int const ,MiscCmds::INFO> >,0> >::const_iterator::operator!=
	movzx	eax, al
	test	eax, eax
	je	$LN6@Timer
; Line 99
	lea	ecx, DWORD PTR _iter$140828[ebp]
	call	??Citerator@?$_Tree@V?$_Tmap_traits@IUINFO@MiscCmds@@U?$less@I@std@@V?$allocator@U?$pair@$$CBIUINFO@MiscCmds@@@std@@@4@$0A@@std@@@std@@QBEPAU?$pair@$$CBIUINFO@MiscCmds@@@2@XZ ; std::_Tree<std::_Tmap_traits<unsigned int,MiscCmds::INFO,std::less<unsigned int>,std::allocator<std::pair<unsigned int const ,MiscCmds::INFO> >,0> >::iterator::operator->
	movzx	ecx, BYTE PTR [eax+5]
	test	ecx, ecx
	je	$LN2@Timer
; Line 101
	lea	ecx, DWORD PTR _p$140860[ebp]
	call	??0HKPLAYERINFO@@QAE@XZ
	mov	DWORD PTR __$EHRec$[ebp+8], 0
; Line 102
	lea	ecx, DWORD PTR _iter$140828[ebp]
	call	??Citerator@?$_Tree@V?$_Tmap_traits@IUINFO@MiscCmds@@U?$less@I@std@@V?$allocator@U?$pair@$$CBIUINFO@MiscCmds@@@std@@@4@$0A@@std@@@std@@QBEPAU?$pair@$$CBIUINFO@MiscCmds@@@2@XZ ; std::_Tree<std::_Tmap_traits<unsigned int,MiscCmds::INFO,std::less<unsigned int>,std::allocator<std::pair<unsigned int const ,MiscCmds::INFO> >,0> >::iterator::operator->
	mov	edx, DWORD PTR [eax]
	push	edx
	mov	ecx, DWORD PTR __imp_?Players@@3VPlayerDB@@A
	call	DWORD PTR __imp_?GetActiveCharacterName@PlayerDB@@QBEPBGI@Z
	push	eax
	lea	ecx, DWORD PTR $T146639[ebp]
	call	DWORD PTR __imp_??0?$basic_string@GU?$char_traits@G@std@@V?$allocator@G@2@@std@@QAE@PBG@Z
	mov	BYTE PTR __$EHRec$[ebp+8], 1
	mov	eax, DWORD PTR $T146643[ebp]
	or	eax, 1
	mov	DWORD PTR $T146643[ebp], eax
	push	0
	lea	ecx, DWORD PTR _p$140860[ebp]
	push	ecx
	lea	edx, DWORD PTR $T146639[ebp]
	push	edx
	call	DWORD PTR __imp_?HkGetPlayerInfo@@YA?AW4HK_ERROR@@ABV?$basic_string@GU?$char_traits@G@std@@V?$allocator@G@2@@std@@AAUHKPLAYERINFO@@_N@Z
	add	esp, 12					; 0000000cH
	test	eax, eax
	jne	SHORT $LN8@Timer
	cmp	DWORD PTR _p$140860[ebp+92], 0
	je	SHORT $LN8@Timer
	mov	DWORD PTR tv149[ebp], 1
	jmp	SHORT $LN9@Timer
$LN8@Timer:
	mov	DWORD PTR tv149[ebp], 0
$LN9@Timer:
	mov	al, BYTE PTR tv149[ebp]
	mov	BYTE PTR $T146638[ebp], al
	mov	DWORD PTR __$EHRec$[ebp+8], 0
	mov	ecx, DWORD PTR $T146643[ebp]
	and	ecx, 1
	je	SHORT $LN13@Timer
	and	DWORD PTR $T146643[ebp], -2		; fffffffeH
	lea	ecx, DWORD PTR $T146639[ebp]
	call	DWORD PTR __imp_??1?$basic_string@GU?$char_traits@G@std@@V?$allocator@G@2@@std@@QAE@XZ
$LN13@Timer:
	movzx	edx, BYTE PTR $T146638[ebp]
	test	edx, edx
	je	SHORT $LN1@Timer
; Line 104
	mov	eax, DWORD PTR _p$140860[ebp+92]
	push	eax
	call	DWORD PTR __imp_?DrainShields@SpaceObj@pub@@YAHI@Z
	add	esp, 4
$LN1@Timer:
; Line 106
	mov	DWORD PTR __$EHRec$[ebp+8], -1
	lea	ecx, DWORD PTR _p$140860[ebp]
	call	??1HKPLAYERINFO@@QAE@XZ
$LN2@Timer:
	jmp	$LN4@Timer
$LN6@Timer:
; Line 108
	mov	ecx, DWORD PTR __$EHRec$[ebp]
	mov	DWORD PTR fs:0, ecx
	pop	ecx
	mov	ecx, DWORD PTR __$ArrayPad$[ebp]
	xor	ecx, ebp
	call	@__security_check_cookie@4
	mov	esp, ebp
	pop	ebp
	ret	0
_TEXT	ENDS
text$x	SEGMENT
__unwindfunclet$?Timer@MiscCmds@@YAXXZ$0:
	lea	ecx, DWORD PTR _p$140860[ebp]
	jmp	??1HKPLAYERINFO@@QAE@XZ
__unwindfunclet$?Timer@MiscCmds@@YAXXZ$1:
	mov	eax, DWORD PTR $T146643[ebp]
	and	eax, 1
	je	$LN12@Timer
	and	DWORD PTR $T146643[ebp], -2		; fffffffeH
	lea	ecx, DWORD PTR $T146639[ebp]
	jmp	DWORD PTR __imp_??1?$basic_string@GU?$char_traits@G@std@@V?$allocator@G@2@@std@@QAE@XZ
$LN12@Timer:
	ret	0
__ehhandler$?Timer@MiscCmds@@YAXXZ:
	mov	edx, DWORD PTR [esp+8]
	lea	eax, DWORD PTR [edx+12]
	mov	ecx, DWORD PTR [edx-324]
	xor	ecx, eax
	call	@__security_check_cookie@4
	mov	ecx, DWORD PTR [edx-12]
	xor	ecx, eax
	call	@__security_check_cookie@4
	mov	eax, OFFSET __ehfuncinfo$?Timer@MiscCmds@@YAXXZ
	jmp	___CxxFrameHandler3
text$x	ENDS
?Timer@MiscCmds@@YAXXZ ENDP				; MiscCmds::Timer
EXTRN	__imp_??0?$basic_string@GU?$char_traits@G@std@@V?$allocator@G@2@@std@@QAE@XZ:PROC
;	COMDAT xdata$x
xdata$x	SEGMENT
__ehfuncinfo$??0HKPLAYERINFO@@QAE@XZ DD 019930522H
	DD	05H
	DD	FLAT:__unwindtable$??0HKPLAYERINFO@@QAE@XZ
	DD	2 DUP(00H)
	DD	2 DUP(00H)
	DD	00H
	DD	00H
__unwindtable$??0HKPLAYERINFO@@QAE@XZ DD 0ffffffffH
	DD	FLAT:__unwindfunclet$??0HKPLAYERINFO@@QAE@XZ$0
	DD	00H
	DD	FLAT:__unwindfunclet$??0HKPLAYERINFO@@QAE@XZ$1
	DD	01H
	DD	FLAT:__unwindfunclet$??0HKPLAYERINFO@@QAE@XZ$2
	DD	02H
	DD	FLAT:__unwindfunclet$??0HKPLAYERINFO@@QAE@XZ$3
	DD	03H
	DD	FLAT:__unwindfunclet$??0HKPLAYERINFO@@QAE@XZ$4
; Function compile flags: /Odtp
xdata$x	ENDS
;	COMDAT ??0HKPLAYERINFO@@QAE@XZ
_TEXT	SEGMENT
_this$ = -16						; size = 4
__$EHRec$ = -12						; size = 12
??0HKPLAYERINFO@@QAE@XZ PROC				; HKPLAYERINFO::HKPLAYERINFO, COMDAT
; _this$ = ecx
	push	ebp
	mov	ebp, esp
	push	-1
	push	__ehhandler$??0HKPLAYERINFO@@QAE@XZ
	mov	eax, DWORD PTR fs:0
	push	eax
	push	ecx
	mov	eax, DWORD PTR ___security_cookie
	xor	eax, ebp
	push	eax
	lea	eax, DWORD PTR __$EHRec$[ebp]
	mov	DWORD PTR fs:0, eax
	mov	DWORD PTR _this$[ebp], ecx
	mov	ecx, DWORD PTR _this$[ebp]
	add	ecx, 4
	call	DWORD PTR __imp_??0?$basic_string@GU?$char_traits@G@std@@V?$allocator@G@2@@std@@QAE@XZ
	mov	DWORD PTR __$EHRec$[ebp+8], 0
	mov	ecx, DWORD PTR _this$[ebp]
	add	ecx, 32					; 00000020H
	call	DWORD PTR __imp_??0?$basic_string@GU?$char_traits@G@std@@V?$allocator@G@2@@std@@QAE@XZ
	mov	BYTE PTR __$EHRec$[ebp+8], 1
	mov	ecx, DWORD PTR _this$[ebp]
	add	ecx, 60					; 0000003cH
	call	DWORD PTR __imp_??0?$basic_string@GU?$char_traits@G@std@@V?$allocator@G@2@@std@@QAE@XZ
	mov	BYTE PTR __$EHRec$[ebp+8], 2
	mov	ecx, DWORD PTR _this$[ebp]
	add	ecx, 188				; 000000bcH
	call	DWORD PTR __imp_??0?$basic_string@GU?$char_traits@G@std@@V?$allocator@G@2@@std@@QAE@XZ
	mov	BYTE PTR __$EHRec$[ebp+8], 3
	mov	ecx, DWORD PTR _this$[ebp]
	add	ecx, 216				; 000000d8H
	call	DWORD PTR __imp_??0?$basic_string@GU?$char_traits@G@std@@V?$allocator@G@2@@std@@QAE@XZ
	mov	BYTE PTR __$EHRec$[ebp+8], 4
	mov	DWORD PTR __$EHRec$[ebp+8], -1
	mov	eax, DWORD PTR _this$[ebp]
	mov	ecx, DWORD PTR __$EHRec$[ebp]
	mov	DWORD PTR fs:0, ecx
	pop	ecx
	mov	esp, ebp
	pop	ebp
	ret	0
_TEXT	ENDS
;	COMDAT text$x
text$x	SEGMENT
__unwindfunclet$??0HKPLAYERINFO@@QAE@XZ$0:
	mov	ecx, DWORD PTR _this$[ebp]
	add	ecx, 4
	jmp	DWORD PTR __imp_??1?$basic_string@GU?$char_traits@G@std@@V?$allocator@G@2@@std@@QAE@XZ
__unwindfunclet$??0HKPLAYERINFO@@QAE@XZ$1:
	mov	ecx, DWORD PTR _this$[ebp]
	add	ecx, 32					; 00000020H
	jmp	DWORD PTR __imp_??1?$basic_string@GU?$char_traits@G@std@@V?$allocator@G@2@@std@@QAE@XZ
__unwindfunclet$??0HKPLAYERINFO@@QAE@XZ$2:
	mov	ecx, DWORD PTR _this$[ebp]
	add	ecx, 60					; 0000003cH
	jmp	DWORD PTR __imp_??1?$basic_string@GU?$char_traits@G@std@@V?$allocator@G@2@@std@@QAE@XZ
__unwindfunclet$??0HKPLAYERINFO@@QAE@XZ$3:
	mov	ecx, DWORD PTR _this$[ebp]
	add	ecx, 188				; 000000bcH
	jmp	DWORD PTR __imp_??1?$basic_string@GU?$char_traits@G@std@@V?$allocator@G@2@@std@@QAE@XZ
__unwindfunclet$??0HKPLAYERINFO@@QAE@XZ$4:
	mov	ecx, DWORD PTR _this$[ebp]
	add	ecx, 216				; 000000d8H
	jmp	DWORD PTR __imp_??1?$basic_string@GU?$char_traits@G@std@@V?$allocator@G@2@@std@@QAE@XZ
__ehhandler$??0HKPLAYERINFO@@QAE@XZ:
	mov	edx, DWORD PTR [esp+8]
	lea	eax, DWORD PTR [edx+12]
	mov	ecx, DWORD PTR [edx-8]
	xor	ecx, eax
	call	@__security_check_cookie@4
	mov	eax, OFFSET __ehfuncinfo$??0HKPLAYERINFO@@QAE@XZ
	jmp	___CxxFrameHandler3
text$x	ENDS
??0HKPLAYERINFO@@QAE@XZ ENDP				; HKPLAYERINFO::HKPLAYERINFO
;	COMDAT xdata$x
xdata$x	SEGMENT
__ehfuncinfo$??1HKPLAYERINFO@@QAE@XZ DD 019930522H
	DD	05H
	DD	FLAT:__unwindtable$??1HKPLAYERINFO@@QAE@XZ
	DD	2 DUP(00H)
	DD	2 DUP(00H)
	DD	00H
	DD	00H
__unwindtable$??1HKPLAYERINFO@@QAE@XZ DD 0ffffffffH
	DD	FLAT:__unwindfunclet$??1HKPLAYERINFO@@QAE@XZ$0
	DD	00H
	DD	FLAT:__unwindfunclet$??1HKPLAYERINFO@@QAE@XZ$1
	DD	01H
	DD	FLAT:__unwindfunclet$??1HKPLAYERINFO@@QAE@XZ$2
	DD	02H
	DD	FLAT:__unwindfunclet$??1HKPLAYERINFO@@QAE@XZ$3
	DD	03H
	DD	FLAT:__unwindfunclet$??1HKPLAYERINFO@@QAE@XZ$4
; Function compile flags: /Odtp
xdata$x	ENDS
;	COMDAT ??1HKPLAYERINFO@@QAE@XZ
_TEXT	SEGMENT
_this$ = -16						; size = 4
__$EHRec$ = -12						; size = 12
??1HKPLAYERINFO@@QAE@XZ PROC				; HKPLAYERINFO::~HKPLAYERINFO, COMDAT
; _this$ = ecx
	push	ebp
	mov	ebp, esp
	push	-1
	push	__ehhandler$??1HKPLAYERINFO@@QAE@XZ
	mov	eax, DWORD PTR fs:0
	push	eax
	push	ecx
	mov	eax, DWORD PTR ___security_cookie
	xor	eax, ebp
	push	eax
	lea	eax, DWORD PTR __$EHRec$[ebp]
	mov	DWORD PTR fs:0, eax
	mov	DWORD PTR _this$[ebp], ecx
	mov	DWORD PTR __$EHRec$[ebp+8], 4
	mov	BYTE PTR __$EHRec$[ebp+8], 3
	mov	ecx, DWORD PTR _this$[ebp]
	add	ecx, 216				; 000000d8H
	call	DWORD PTR __imp_??1?$basic_string@GU?$char_traits@G@std@@V?$allocator@G@2@@std@@QAE@XZ
	mov	BYTE PTR __$EHRec$[ebp+8], 2
	mov	ecx, DWORD PTR _this$[ebp]
	add	ecx, 188				; 000000bcH
	call	DWORD PTR __imp_??1?$basic_string@GU?$char_traits@G@std@@V?$allocator@G@2@@std@@QAE@XZ
	mov	BYTE PTR __$EHRec$[ebp+8], 1
	mov	ecx, DWORD PTR _this$[ebp]
	add	ecx, 60					; 0000003cH
	call	DWORD PTR __imp_??1?$basic_string@GU?$char_traits@G@std@@V?$allocator@G@2@@std@@QAE@XZ
	mov	BYTE PTR __$EHRec$[ebp+8], 0
	mov	ecx, DWORD PTR _this$[ebp]
	add	ecx, 32					; 00000020H
	call	DWORD PTR __imp_??1?$basic_string@GU?$char_traits@G@std@@V?$allocator@G@2@@std@@QAE@XZ
	mov	DWORD PTR __$EHRec$[ebp+8], -1
	mov	ecx, DWORD PTR _this$[ebp]
	add	ecx, 4
	call	DWORD PTR __imp_??1?$basic_string@GU?$char_traits@G@std@@V?$allocator@G@2@@std@@QAE@XZ
	mov	ecx, DWORD PTR __$EHRec$[ebp]
	mov	DWORD PTR fs:0, ecx
	pop	ecx
	mov	esp, ebp
	pop	ebp
	ret	0
_TEXT	ENDS
;	COMDAT text$x
text$x	SEGMENT
__unwindfunclet$??1HKPLAYERINFO@@QAE@XZ$0:
	mov	ecx, DWORD PTR _this$[ebp]
	add	ecx, 4
	jmp	DWORD PTR __imp_??1?$basic_string@GU?$char_traits@G@std@@V?$allocator@G@2@@std@@QAE@XZ
__unwindfunclet$??1HKPLAYERINFO@@QAE@XZ$1:
	mov	ecx, DWORD PTR _this$[ebp]
	add	ecx, 32					; 00000020H
	jmp	DWORD PTR __imp_??1?$basic_string@GU?$char_traits@G@std@@V?$allocator@G@2@@std@@QAE@XZ
__unwindfunclet$??1HKPLAYERINFO@@QAE@XZ$2:
	mov	ecx, DWORD PTR _this$[ebp]
	add	ecx, 60					; 0000003cH
	jmp	DWORD PTR __imp_??1?$basic_string@GU?$char_traits@G@std@@V?$allocator@G@2@@std@@QAE@XZ
__unwindfunclet$??1HKPLAYERINFO@@QAE@XZ$3:
	mov	ecx, DWORD PTR _this$[ebp]
	add	ecx, 188				; 000000bcH
	jmp	DWORD PTR __imp_??1?$basic_string@GU?$char_traits@G@std@@V?$allocator@G@2@@std@@QAE@XZ
__unwindfunclet$??1HKPLAYERINFO@@QAE@XZ$4:
	mov	ecx, DWORD PTR _this$[ebp]
	add	ecx, 216				; 000000d8H
	jmp	DWORD PTR __imp_??1?$basic_string@GU?$char_traits@G@std@@V?$allocator@G@2@@std@@QAE@XZ
__ehhandler$??1HKPLAYERINFO@@QAE@XZ:
	mov	edx, DWORD PTR [esp+8]
	lea	eax, DWORD PTR [edx+12]
	mov	ecx, DWORD PTR [edx-8]
	xor	ecx, eax
	call	@__security_check_cookie@4
	mov	eax, OFFSET __ehfuncinfo$??1HKPLAYERINFO@@QAE@XZ
	jmp	___CxxFrameHandler3
text$x	ENDS
??1HKPLAYERINFO@@QAE@XZ ENDP				; HKPLAYERINFO::~HKPLAYERINFO
PUBLIC	__$ArrayPad$
PUBLIC	?UserCmd_Pos@MiscCmds@@YA_NIABV?$basic_string@GU?$char_traits@G@std@@V?$allocator@G@2@@std@@0PBG@Z ; MiscCmds::UserCmd_Pos
EXTRN	__imp___snwprintf:PROC
EXTRN	?MatrixToEuler@@YA?AVVector@@ABVMatrix@@@Z:PROC	; MatrixToEuler
EXTRN	__imp_?GetLocation@SpaceObj@pub@@YAHIAAVVector@@AAVMatrix@@@Z:PROC
EXTRN	__imp_?PrintUserCmdText@@YAXIV?$basic_string@GU?$char_traits@G@std@@V?$allocator@G@2@@std@@ZZ:PROC
EXTRN	__fltused:DWORD
xdata$x	SEGMENT
__unwindtable$?UserCmd_Pos@MiscCmds@@YA_NIABV?$basic_string@GU?$char_traits@G@std@@V?$allocator@G@2@@std@@0PBG@Z DD 0ffffffffH
	DD	FLAT:__unwindfunclet$?UserCmd_Pos@MiscCmds@@YA_NIABV?$basic_string@GU?$char_traits@G@std@@V?$allocator@G@2@@std@@0PBG@Z$0
	DD	00H
	DD	FLAT:__unwindfunclet$?UserCmd_Pos@MiscCmds@@YA_NIABV?$basic_string@GU?$char_traits@G@std@@V?$allocator@G@2@@std@@0PBG@Z$1
	DD	00H
	DD	FLAT:__unwindfunclet$?UserCmd_Pos@MiscCmds@@YA_NIABV?$basic_string@GU?$char_traits@G@std@@V?$allocator@G@2@@std@@0PBG@Z$2
	DD	00H
	DD	FLAT:__unwindfunclet$?UserCmd_Pos@MiscCmds@@YA_NIABV?$basic_string@GU?$char_traits@G@std@@V?$allocator@G@2@@std@@0PBG@Z$3
__ehfuncinfo$?UserCmd_Pos@MiscCmds@@YA_NIABV?$basic_string@GU?$char_traits@G@std@@V?$allocator@G@2@@std@@0PBG@Z DD 019930522H
	DD	04H
	DD	FLAT:__unwindtable$?UserCmd_Pos@MiscCmds@@YA_NIABV?$basic_string@GU?$char_traits@G@std@@V?$allocator@G@2@@std@@0PBG@Z
	DD	2 DUP(00H)
	DD	2 DUP(00H)
	DD	00H
	DD	00H
; Function compile flags: /Odtp
xdata$x	ENDS
_TEXT	SEGMENT
tv179 = -628						; size = 4
tv182 = -624						; size = 4
tv176 = -620						; size = 4
tv65 = -616						; size = 4
tv80 = -612						; size = 4
$T146690 = -608						; size = 4
$T146688 = -601						; size = 1
$T146687 = -600						; size = 4
$T146686 = -596						; size = 12
$T146685 = -580						; size = 12
$T146684 = -565						; size = 1
$T146683 = -564						; size = 4
$T146680 = -560						; size = 28
$T146679 = -529						; size = 1
_pos$ = -528						; size = 12
_buf$ = -516						; size = 200
_erot$ = -316						; size = 12
_rot$ = -304						; size = 36
_p$ = -268						; size = 244
__$ArrayPad$ = -16					; size = 4
__$EHRec$ = -12						; size = 12
_iClientID$ = 8						; size = 4
_wscCmd$ = 12						; size = 4
_wscParam$ = 16						; size = 4
_usage$ = 20						; size = 4
?UserCmd_Pos@MiscCmds@@YA_NIABV?$basic_string@GU?$char_traits@G@std@@V?$allocator@G@2@@std@@0PBG@Z PROC ; MiscCmds::UserCmd_Pos
; Line 112
	push	ebp
	mov	ebp, esp
	push	-1
	push	__ehhandler$?UserCmd_Pos@MiscCmds@@YA_NIABV?$basic_string@GU?$char_traits@G@std@@V?$allocator@G@2@@std@@0PBG@Z
	mov	eax, DWORD PTR fs:0
	push	eax
	sub	esp, 616				; 00000268H
	mov	eax, DWORD PTR ___security_cookie
	xor	eax, ebp
	mov	DWORD PTR __$ArrayPad$[ebp], eax
	push	eax
	lea	eax, DWORD PTR __$EHRec$[ebp]
	mov	DWORD PTR fs:0, eax
	mov	DWORD PTR $T146690[ebp], 0
; Line 113
	lea	ecx, DWORD PTR _p$[ebp]
	call	??0HKPLAYERINFO@@QAE@XZ
	mov	DWORD PTR __$EHRec$[ebp+8], 0
; Line 114
	mov	eax, DWORD PTR _iClientID$[ebp]
	push	eax
	mov	ecx, DWORD PTR __imp_?Players@@3VPlayerDB@@A
	call	DWORD PTR __imp_?GetActiveCharacterName@PlayerDB@@QBEPBGI@Z
	push	eax
	lea	ecx, DWORD PTR $T146680[ebp]
	call	DWORD PTR __imp_??0?$basic_string@GU?$char_traits@G@std@@V?$allocator@G@2@@std@@QAE@PBG@Z
	mov	BYTE PTR __$EHRec$[ebp+8], 1
	mov	ecx, DWORD PTR $T146690[ebp]
	or	ecx, 1
	mov	DWORD PTR $T146690[ebp], ecx
	push	0
	lea	edx, DWORD PTR _p$[ebp]
	push	edx
	lea	eax, DWORD PTR $T146680[ebp]
	push	eax
	call	DWORD PTR __imp_?HkGetPlayerInfo@@YA?AW4HK_ERROR@@ABV?$basic_string@GU?$char_traits@G@std@@V?$allocator@G@2@@std@@AAUHKPLAYERINFO@@_N@Z
	add	esp, 12					; 0000000cH
	test	eax, eax
	jne	SHORT $LN4@UserCmd_Po
	cmp	DWORD PTR _p$[ebp+92], 0
	je	SHORT $LN4@UserCmd_Po
	mov	DWORD PTR tv80[ebp], 0
	jmp	SHORT $LN5@UserCmd_Po
$LN4@UserCmd_Po:
	mov	DWORD PTR tv80[ebp], 1
$LN5@UserCmd_Po:
	mov	cl, BYTE PTR tv80[ebp]
	mov	BYTE PTR $T146679[ebp], cl
	mov	DWORD PTR __$EHRec$[ebp+8], 0
	mov	edx, DWORD PTR $T146690[ebp]
	and	edx, 1
	je	SHORT $LN9@UserCmd_Po
	and	DWORD PTR $T146690[ebp], -2		; fffffffeH
	lea	ecx, DWORD PTR $T146680[ebp]
	call	DWORD PTR __imp_??1?$basic_string@GU?$char_traits@G@std@@V?$allocator@G@2@@std@@QAE@XZ
$LN9@UserCmd_Po:
	movzx	eax, BYTE PTR $T146679[ebp]
	test	eax, eax
	je	SHORT $LN1@UserCmd_Po
; Line 116
	sub	esp, 28					; 0000001cH
	mov	ecx, esp
	mov	DWORD PTR $T146683[ebp], esp
	push	OFFSET $SG140881
	call	DWORD PTR __imp_??0?$basic_string@GU?$char_traits@G@std@@V?$allocator@G@2@@std@@QAE@PBG@Z
	mov	DWORD PTR tv65[ebp], eax
	mov	ecx, DWORD PTR tv65[ebp]
	mov	DWORD PTR tv176[ebp], ecx
	mov	BYTE PTR __$EHRec$[ebp+8], 2
	mov	edx, DWORD PTR _iClientID$[ebp]
	push	edx
	mov	BYTE PTR __$EHRec$[ebp+8], 0
	call	DWORD PTR __imp_?PrintUserCmdText@@YAXIV?$basic_string@GU?$char_traits@G@std@@V?$allocator@G@2@@std@@ZZ
	add	esp, 32					; 00000020H
; Line 117
	mov	BYTE PTR $T146684[ebp], 1
	mov	DWORD PTR __$EHRec$[ebp+8], -1
	lea	ecx, DWORD PTR _p$[ebp]
	call	??1HKPLAYERINFO@@QAE@XZ
	mov	al, BYTE PTR $T146684[ebp]
	jmp	$LN2@UserCmd_Po
$LN1@UserCmd_Po:
; Line 122
	lea	eax, DWORD PTR _rot$[ebp]
	push	eax
	lea	ecx, DWORD PTR _pos$[ebp]
	push	ecx
	mov	edx, DWORD PTR _p$[ebp+92]
	push	edx
	call	DWORD PTR __imp_?GetLocation@SpaceObj@pub@@YAHIAAVVector@@AAVMatrix@@@Z
	add	esp, 12					; 0000000cH
; Line 124
	lea	eax, DWORD PTR _rot$[ebp]
	push	eax
	lea	ecx, DWORD PTR $T146686[ebp]
	push	ecx
	call	?MatrixToEuler@@YA?AVVector@@ABVMatrix@@@Z ; MatrixToEuler
	add	esp, 8
	mov	edx, DWORD PTR [eax]
	mov	DWORD PTR $T146685[ebp], edx
	mov	ecx, DWORD PTR [eax+4]
	mov	DWORD PTR $T146685[ebp+4], ecx
	mov	edx, DWORD PTR [eax+8]
	mov	DWORD PTR $T146685[ebp+8], edx
	mov	eax, DWORD PTR $T146685[ebp]
	mov	DWORD PTR _erot$[ebp], eax
	mov	ecx, DWORD PTR $T146685[ebp+4]
	mov	DWORD PTR _erot$[ebp+4], ecx
	mov	edx, DWORD PTR $T146685[ebp+8]
	mov	DWORD PTR _erot$[ebp+8], edx
; Line 128
	fld	DWORD PTR _erot$[ebp+8]
	sub	esp, 8
	fstp	QWORD PTR [esp]
	fld	DWORD PTR _erot$[ebp+4]
	sub	esp, 8
	fstp	QWORD PTR [esp]
	fld	DWORD PTR _erot$[ebp]
	sub	esp, 8
	fstp	QWORD PTR [esp]
	fld	DWORD PTR _pos$[ebp+8]
	sub	esp, 8
	fstp	QWORD PTR [esp]
	fld	DWORD PTR _pos$[ebp+4]
	sub	esp, 8
	fstp	QWORD PTR [esp]
	fld	DWORD PTR _pos$[ebp]
	sub	esp, 8
	fstp	QWORD PTR [esp]
	push	OFFSET $SG140888
	push	200					; 000000c8H
	lea	eax, DWORD PTR _buf$[ebp]
	push	eax
	call	DWORD PTR __imp___snwprintf
	add	esp, 60					; 0000003cH
; Line 129
	sub	esp, 28					; 0000001cH
	mov	ecx, esp
	mov	DWORD PTR $T146687[ebp], esp
	lea	edx, DWORD PTR _buf$[ebp]
	push	edx
	call	DWORD PTR __imp_??0?$basic_string@GU?$char_traits@G@std@@V?$allocator@G@2@@std@@QAE@PBG@Z
	mov	DWORD PTR tv182[ebp], eax
	mov	eax, DWORD PTR tv182[ebp]
	mov	DWORD PTR tv179[ebp], eax
	mov	BYTE PTR __$EHRec$[ebp+8], 3
	mov	ecx, DWORD PTR _iClientID$[ebp]
	push	ecx
	mov	BYTE PTR __$EHRec$[ebp+8], 0
	call	DWORD PTR __imp_?PrintUserCmdText@@YAXIV?$basic_string@GU?$char_traits@G@std@@V?$allocator@G@2@@std@@ZZ
	add	esp, 32					; 00000020H
; Line 130
	mov	BYTE PTR $T146688[ebp], 1
	mov	DWORD PTR __$EHRec$[ebp+8], -1
	lea	ecx, DWORD PTR _p$[ebp]
	call	??1HKPLAYERINFO@@QAE@XZ
	mov	al, BYTE PTR $T146688[ebp]
$LN2@UserCmd_Po:
; Line 131
	mov	ecx, DWORD PTR __$EHRec$[ebp]
	mov	DWORD PTR fs:0, ecx
	pop	ecx
	mov	ecx, DWORD PTR __$ArrayPad$[ebp]
	xor	ecx, ebp
	call	@__security_check_cookie@4
	mov	esp, ebp
	pop	ebp
	ret	0
_TEXT	ENDS
text$x	SEGMENT
__unwindfunclet$?UserCmd_Pos@MiscCmds@@YA_NIABV?$basic_string@GU?$char_traits@G@std@@V?$allocator@G@2@@std@@0PBG@Z$0:
	lea	ecx, DWORD PTR _p$[ebp]
	jmp	??1HKPLAYERINFO@@QAE@XZ
__unwindfunclet$?UserCmd_Pos@MiscCmds@@YA_NIABV?$basic_string@GU?$char_traits@G@std@@V?$allocator@G@2@@std@@0PBG@Z$1:
	mov	eax, DWORD PTR $T146690[ebp]
	and	eax, 1
	je	$LN8@UserCmd_Po
	and	DWORD PTR $T146690[ebp], -2		; fffffffeH
	lea	ecx, DWORD PTR $T146680[ebp]
	jmp	DWORD PTR __imp_??1?$basic_string@GU?$char_traits@G@std@@V?$allocator@G@2@@std@@QAE@XZ
$LN8@UserCmd_Po:
	ret	0
__unwindfunclet$?UserCmd_Pos@MiscCmds@@YA_NIABV?$basic_string@GU?$char_traits@G@std@@V?$allocator@G@2@@std@@0PBG@Z$2:
	mov	ecx, DWORD PTR $T146683[ebp]
	jmp	DWORD PTR __imp_??1?$basic_string@GU?$char_traits@G@std@@V?$allocator@G@2@@std@@QAE@XZ
__unwindfunclet$?UserCmd_Pos@MiscCmds@@YA_NIABV?$basic_string@GU?$char_traits@G@std@@V?$allocator@G@2@@std@@0PBG@Z$3:
	mov	ecx, DWORD PTR $T146687[ebp]
	jmp	DWORD PTR __imp_??1?$basic_string@GU?$char_traits@G@std@@V?$allocator@G@2@@std@@QAE@XZ
__ehhandler$?UserCmd_Pos@MiscCmds@@YA_NIABV?$basic_string@GU?$char_traits@G@std@@V?$allocator@G@2@@std@@0PBG@Z:
	mov	edx, DWORD PTR [esp+8]
	lea	eax, DWORD PTR [edx+12]
	mov	ecx, DWORD PTR [edx-620]
	xor	ecx, eax
	call	@__security_check_cookie@4
	mov	ecx, DWORD PTR [edx-4]
	xor	ecx, eax
	call	@__security_check_cookie@4
	mov	eax, OFFSET __ehfuncinfo$?UserCmd_Pos@MiscCmds@@YA_NIABV?$basic_string@GU?$char_traits@G@std@@V?$allocator@G@2@@std@@0PBG@Z
	jmp	___CxxFrameHandler3
text$x	ENDS
?UserCmd_Pos@MiscCmds@@YA_NIABV?$basic_string@GU?$char_traits@G@std@@V?$allocator@G@2@@std@@0PBG@Z ENDP ; MiscCmds::UserCmd_Pos
PUBLIC	__real@45bb8000
PUBLIC	__real@402e000000000000
PUBLIC	__real@4014000000000000
PUBLIC	__$ArrayPad$
PUBLIC	?UserCmd_Stuck@MiscCmds@@YA_NIABV?$basic_string@GU?$char_traits@G@std@@V?$allocator@G@2@@std@@0PBG@Z ; MiscCmds::UserCmd_Stuck
EXTRN	?PrintLocalUserCmdText@@YAXIABV?$basic_string@GU?$char_traits@G@std@@V?$allocator@G@2@@std@@M@Z:PROC ; PrintLocalUserCmdText
EXTRN	__imp_?ReplaceStr@@YA?AV?$basic_string@GU?$char_traits@G@std@@V?$allocator@G@2@@std@@ABV12@00@Z:PROC
EXTRN	__imp_??0?$basic_string@GU?$char_traits@G@std@@V?$allocator@G@2@@std@@QAE@ABV01@@Z:PROC
EXTRN	?HkRelocateClient@@YAXIVVector@@VMatrix@@@Z:PROC ; HkRelocateClient
EXTRN	__imp_?GetMotion@SpaceObj@pub@@YAHIAAVVector@@0@Z:PROC
;	COMDAT __real@45bb8000
CONST	SEGMENT
__real@45bb8000 DD 045bb8000r			; 6000
CONST	ENDS
;	COMDAT __real@402e000000000000
CONST	SEGMENT
__real@402e000000000000 DQ 0402e000000000000r	; 15
CONST	ENDS
;	COMDAT __real@4014000000000000
CONST	SEGMENT
__real@4014000000000000 DQ 04014000000000000r	; 5
CONST	ENDS
xdata$x	SEGMENT
__ehfuncinfo$?UserCmd_Stuck@MiscCmds@@YA_NIABV?$basic_string@GU?$char_traits@G@std@@V?$allocator@G@2@@std@@0PBG@Z DD 019930522H
	DD	07H
	DD	FLAT:__unwindtable$?UserCmd_Stuck@MiscCmds@@YA_NIABV?$basic_string@GU?$char_traits@G@std@@V?$allocator@G@2@@std@@0PBG@Z
	DD	2 DUP(00H)
	DD	2 DUP(00H)
	DD	00H
	DD	00H
__unwindtable$?UserCmd_Stuck@MiscCmds@@YA_NIABV?$basic_string@GU?$char_traits@G@std@@V?$allocator@G@2@@std@@0PBG@Z DD 0ffffffffH
	DD	FLAT:__unwindfunclet$?UserCmd_Stuck@MiscCmds@@YA_NIABV?$basic_string@GU?$char_traits@G@std@@V?$allocator@G@2@@std@@0PBG@Z$0
	DD	00H
	DD	FLAT:__unwindfunclet$?UserCmd_Stuck@MiscCmds@@YA_NIABV?$basic_string@GU?$char_traits@G@std@@V?$allocator@G@2@@std@@0PBG@Z$1
	DD	01H
	DD	FLAT:__unwindfunclet$?UserCmd_Stuck@MiscCmds@@YA_NIABV?$basic_string@GU?$char_traits@G@std@@V?$allocator@G@2@@std@@0PBG@Z$2
	DD	01H
	DD	FLAT:__unwindfunclet$?UserCmd_Stuck@MiscCmds@@YA_NIABV?$basic_string@GU?$char_traits@G@std@@V?$allocator@G@2@@std@@0PBG@Z$3
	DD	01H
	DD	FLAT:__unwindfunclet$?UserCmd_Stuck@MiscCmds@@YA_NIABV?$basic_string@GU?$char_traits@G@std@@V?$allocator@G@2@@std@@0PBG@Z$4
	DD	04H
	DD	FLAT:__unwindfunclet$?UserCmd_Stuck@MiscCmds@@YA_NIABV?$basic_string@GU?$char_traits@G@std@@V?$allocator@G@2@@std@@0PBG@Z$5
	DD	05H
	DD	FLAT:__unwindfunclet$?UserCmd_Stuck@MiscCmds@@YA_NIABV?$basic_string@GU?$char_traits@G@std@@V?$allocator@G@2@@std@@0PBG@Z$6
; Function compile flags: /Odtp
xdata$x	ENDS
_TEXT	SEGMENT
tv198 = -496						; size = 4
tv174 = -492						; size = 4
tv192 = -488						; size = 4
tv202 = -484						; size = 4
tv188 = -480						; size = 4
tv72 = -476						; size = 4
$T146709 = -469						; size = 1
$T146708 = -468						; size = 28
$T146707 = -440						; size = 28
$T146706 = -409						; size = 1
$T146705 = -408						; size = 4
$T146704 = -401						; size = 1
$T146703 = -400						; size = 4
_pos$ = -396						; size = 12
_wscCharname$ = -384					; size = 28
_dir1$ = -356						; size = 12
_wscMsg$ = -344						; size = 28
_dir2$ = -316						; size = 12
_rot$ = -304						; size = 36
_p$ = -268						; size = 244
__$ArrayPad$ = -16					; size = 4
__$EHRec$ = -12						; size = 12
_iClientID$ = 8						; size = 4
_wscCmd$ = 12						; size = 4
_wscParam$ = 16						; size = 4
_usage$ = 20						; size = 4
?UserCmd_Stuck@MiscCmds@@YA_NIABV?$basic_string@GU?$char_traits@G@std@@V?$allocator@G@2@@std@@0PBG@Z PROC ; MiscCmds::UserCmd_Stuck
; Line 135
	push	ebp
	mov	ebp, esp
	push	-1
	push	__ehhandler$?UserCmd_Stuck@MiscCmds@@YA_NIABV?$basic_string@GU?$char_traits@G@std@@V?$allocator@G@2@@std@@0PBG@Z
	mov	eax, DWORD PTR fs:0
	push	eax
	sub	esp, 484				; 000001e4H
	mov	eax, DWORD PTR ___security_cookie
	xor	eax, ebp
	mov	DWORD PTR __$ArrayPad$[ebp], eax
	push	esi
	push	edi
	push	eax
	lea	eax, DWORD PTR __$EHRec$[ebp]
	mov	DWORD PTR fs:0, eax
; Line 136
	mov	eax, DWORD PTR _iClientID$[ebp]
	push	eax
	mov	ecx, DWORD PTR __imp_?Players@@3VPlayerDB@@A
	call	DWORD PTR __imp_?GetActiveCharacterName@PlayerDB@@QBEPBGI@Z
	push	eax
	lea	ecx, DWORD PTR _wscCharname$[ebp]
	call	DWORD PTR __imp_??0?$basic_string@GU?$char_traits@G@std@@V?$allocator@G@2@@std@@QAE@PBG@Z
	mov	DWORD PTR __$EHRec$[ebp+8], 0
; Line 138
	lea	ecx, DWORD PTR _p$[ebp]
	call	??0HKPLAYERINFO@@QAE@XZ
	mov	BYTE PTR __$EHRec$[ebp+8], 1
; Line 139
	push	0
	lea	ecx, DWORD PTR _p$[ebp]
	push	ecx
	lea	edx, DWORD PTR _wscCharname$[ebp]
	push	edx
	call	DWORD PTR __imp_?HkGetPlayerInfo@@YA?AW4HK_ERROR@@ABV?$basic_string@GU?$char_traits@G@std@@V?$allocator@G@2@@std@@AAUHKPLAYERINFO@@_N@Z
	add	esp, 12					; 0000000cH
	test	eax, eax
	je	SHORT $LN3@UserCmd_St
; Line 141
	sub	esp, 28					; 0000001cH
	mov	ecx, esp
	mov	DWORD PTR $T146703[ebp], esp
	push	OFFSET $SG140902
	call	DWORD PTR __imp_??0?$basic_string@GU?$char_traits@G@std@@V?$allocator@G@2@@std@@QAE@PBG@Z
	mov	DWORD PTR tv72[ebp], eax
	mov	eax, DWORD PTR tv72[ebp]
	mov	DWORD PTR tv188[ebp], eax
	mov	BYTE PTR __$EHRec$[ebp+8], 2
	mov	ecx, DWORD PTR _iClientID$[ebp]
	push	ecx
	mov	BYTE PTR __$EHRec$[ebp+8], 1
	call	DWORD PTR __imp_?PrintUserCmdText@@YAXIV?$basic_string@GU?$char_traits@G@std@@V?$allocator@G@2@@std@@ZZ
	add	esp, 32					; 00000020H
; Line 142
	mov	BYTE PTR $T146704[ebp], 1
	mov	BYTE PTR __$EHRec$[ebp+8], 0
	lea	ecx, DWORD PTR _p$[ebp]
	call	??1HKPLAYERINFO@@QAE@XZ
	mov	DWORD PTR __$EHRec$[ebp+8], -1
	lea	ecx, DWORD PTR _wscCharname$[ebp]
	call	DWORD PTR __imp_??1?$basic_string@GU?$char_traits@G@std@@V?$allocator@G@2@@std@@QAE@XZ
	mov	al, BYTE PTR $T146704[ebp]
	jmp	$LN4@UserCmd_St
$LN3@UserCmd_St:
; Line 147
	lea	edx, DWORD PTR _dir2$[ebp]
	push	edx
	lea	eax, DWORD PTR _dir1$[ebp]
	push	eax
	mov	ecx, DWORD PTR _p$[ebp+92]
	push	ecx
	call	DWORD PTR __imp_?GetMotion@SpaceObj@pub@@YAHIAAVVector@@0@Z
	add	esp, 12					; 0000000cH
; Line 148
	fld	DWORD PTR _dir1$[ebp]
	fcomp	QWORD PTR __real@4014000000000000
	fnstsw	ax
	test	ah, 65					; 00000041H
	je	SHORT $LN1@UserCmd_St
	fld	DWORD PTR _dir1$[ebp+4]
	fcomp	QWORD PTR __real@4014000000000000
	fnstsw	ax
	test	ah, 65					; 00000041H
	je	SHORT $LN1@UserCmd_St
	fld	DWORD PTR _dir1$[ebp+8]
	fcomp	QWORD PTR __real@4014000000000000
	fnstsw	ax
	test	ah, 65					; 00000041H
	jne	SHORT $LN2@UserCmd_St
$LN1@UserCmd_St:
; Line 150
	sub	esp, 28					; 0000001cH
	mov	ecx, esp
	mov	DWORD PTR $T146705[ebp], esp
	push	OFFSET $SG140909
	call	DWORD PTR __imp_??0?$basic_string@GU?$char_traits@G@std@@V?$allocator@G@2@@std@@QAE@PBG@Z
	mov	DWORD PTR tv202[ebp], eax
	mov	edx, DWORD PTR tv202[ebp]
	mov	DWORD PTR tv192[ebp], edx
	mov	BYTE PTR __$EHRec$[ebp+8], 3
	mov	eax, DWORD PTR _iClientID$[ebp]
	push	eax
	mov	BYTE PTR __$EHRec$[ebp+8], 1
	call	DWORD PTR __imp_?PrintUserCmdText@@YAXIV?$basic_string@GU?$char_traits@G@std@@V?$allocator@G@2@@std@@ZZ
	add	esp, 32					; 00000020H
; Line 151
	mov	BYTE PTR $T146706[ebp], 1
	mov	BYTE PTR __$EHRec$[ebp+8], 0
	lea	ecx, DWORD PTR _p$[ebp]
	call	??1HKPLAYERINFO@@QAE@XZ
	mov	DWORD PTR __$EHRec$[ebp+8], -1
	lea	ecx, DWORD PTR _wscCharname$[ebp]
	call	DWORD PTR __imp_??1?$basic_string@GU?$char_traits@G@std@@V?$allocator@G@2@@std@@QAE@XZ
	mov	al, BYTE PTR $T146706[ebp]
	jmp	$LN4@UserCmd_St
$LN2@UserCmd_St:
; Line 156
	lea	ecx, DWORD PTR _rot$[ebp]
	push	ecx
	lea	edx, DWORD PTR _pos$[ebp]
	push	edx
	mov	eax, DWORD PTR _p$[ebp+92]
	push	eax
	call	DWORD PTR __imp_?GetLocation@SpaceObj@pub@@YAHIAAVVector@@AAVMatrix@@@Z
	add	esp, 12					; 0000000cH
; Line 157
	fld	DWORD PTR _pos$[ebp]
	fadd	QWORD PTR __real@402e000000000000
	fstp	DWORD PTR _pos$[ebp]
; Line 158
	fld	DWORD PTR _pos$[ebp+4]
	fadd	QWORD PTR __real@402e000000000000
	fstp	DWORD PTR _pos$[ebp+4]
; Line 159
	fld	DWORD PTR _pos$[ebp+8]
	fadd	QWORD PTR __real@402e000000000000
	fstp	DWORD PTR _pos$[ebp+8]
; Line 160
	sub	esp, 36					; 00000024H
	mov	ecx, 9
	lea	esi, DWORD PTR _rot$[ebp]
	mov	edi, esp
	rep movsd
	sub	esp, 12					; 0000000cH
	mov	ecx, esp
	mov	edx, DWORD PTR _pos$[ebp]
	mov	DWORD PTR [ecx], edx
	mov	eax, DWORD PTR _pos$[ebp+4]
	mov	DWORD PTR [ecx+4], eax
	mov	edx, DWORD PTR _pos$[ebp+8]
	mov	DWORD PTR [ecx+8], edx
	mov	eax, DWORD PTR _iClientID$[ebp]
	push	eax
	call	?HkRelocateClient@@YAXIVVector@@VMatrix@@@Z ; HkRelocateClient
	add	esp, 52					; 00000034H
; Line 162
	push	OFFSET ?set_wscStuckMsg@MiscCmds@@3V?$basic_string@GU?$char_traits@G@std@@V?$allocator@G@2@@std@@A ; MiscCmds::set_wscStuckMsg
	lea	ecx, DWORD PTR _wscMsg$[ebp]
	call	DWORD PTR __imp_??0?$basic_string@GU?$char_traits@G@std@@V?$allocator@G@2@@std@@QAE@ABV01@@Z
	mov	BYTE PTR __$EHRec$[ebp+8], 4
; Line 163
	push	OFFSET $SG140916
	lea	ecx, DWORD PTR $T146707[ebp]
	call	DWORD PTR __imp_??0?$basic_string@GU?$char_traits@G@std@@V?$allocator@G@2@@std@@QAE@PBG@Z
	mov	BYTE PTR __$EHRec$[ebp+8], 5
	lea	ecx, DWORD PTR _wscCharname$[ebp]
	push	ecx
	lea	edx, DWORD PTR $T146707[ebp]
	push	edx
	lea	eax, DWORD PTR _wscMsg$[ebp]
	push	eax
	lea	ecx, DWORD PTR $T146708[ebp]
	push	ecx
	call	DWORD PTR __imp_?ReplaceStr@@YA?AV?$basic_string@GU?$char_traits@G@std@@V?$allocator@G@2@@std@@ABV12@00@Z
	add	esp, 16					; 00000010H
	mov	DWORD PTR tv174[ebp], eax
	mov	edx, DWORD PTR tv174[ebp]
	mov	DWORD PTR tv198[ebp], edx
	mov	BYTE PTR __$EHRec$[ebp+8], 6
	mov	eax, DWORD PTR tv198[ebp]
	push	eax
	lea	ecx, DWORD PTR _wscMsg$[ebp]
	call	DWORD PTR __imp_??4?$basic_string@GU?$char_traits@G@std@@V?$allocator@G@2@@std@@QAEAAV01@ABV01@@Z
	mov	BYTE PTR __$EHRec$[ebp+8], 5
	lea	ecx, DWORD PTR $T146708[ebp]
	call	DWORD PTR __imp_??1?$basic_string@GU?$char_traits@G@std@@V?$allocator@G@2@@std@@QAE@XZ
	mov	BYTE PTR __$EHRec$[ebp+8], 4
	lea	ecx, DWORD PTR $T146707[ebp]
	call	DWORD PTR __imp_??1?$basic_string@GU?$char_traits@G@std@@V?$allocator@G@2@@std@@QAE@XZ
; Line 164
	push	ecx
	fld	DWORD PTR __real@45bb8000
	fstp	DWORD PTR [esp]
	lea	ecx, DWORD PTR _wscMsg$[ebp]
	push	ecx
	mov	edx, DWORD PTR _iClientID$[ebp]
	push	edx
	call	?PrintLocalUserCmdText@@YAXIABV?$basic_string@GU?$char_traits@G@std@@V?$allocator@G@2@@std@@M@Z ; PrintLocalUserCmdText
	add	esp, 12					; 0000000cH
; Line 166
	mov	BYTE PTR $T146709[ebp], 1
	mov	BYTE PTR __$EHRec$[ebp+8], 1
	lea	ecx, DWORD PTR _wscMsg$[ebp]
	call	DWORD PTR __imp_??1?$basic_string@GU?$char_traits@G@std@@V?$allocator@G@2@@std@@QAE@XZ
	mov	BYTE PTR __$EHRec$[ebp+8], 0
	lea	ecx, DWORD PTR _p$[ebp]
	call	??1HKPLAYERINFO@@QAE@XZ
	mov	DWORD PTR __$EHRec$[ebp+8], -1
	lea	ecx, DWORD PTR _wscCharname$[ebp]
	call	DWORD PTR __imp_??1?$basic_string@GU?$char_traits@G@std@@V?$allocator@G@2@@std@@QAE@XZ
	mov	al, BYTE PTR $T146709[ebp]
$LN4@UserCmd_St:
; Line 167
	mov	ecx, DWORD PTR __$EHRec$[ebp]
	mov	DWORD PTR fs:0, ecx
	pop	ecx
	pop	edi
	pop	esi
	mov	ecx, DWORD PTR __$ArrayPad$[ebp]
	xor	ecx, ebp
	call	@__security_check_cookie@4
	mov	esp, ebp
	pop	ebp
	ret	0
_TEXT	ENDS
text$x	SEGMENT
__unwindfunclet$?UserCmd_Stuck@MiscCmds@@YA_NIABV?$basic_string@GU?$char_traits@G@std@@V?$allocator@G@2@@std@@0PBG@Z$0:
	lea	ecx, DWORD PTR _wscCharname$[ebp]
	jmp	DWORD PTR __imp_??1?$basic_string@GU?$char_traits@G@std@@V?$allocator@G@2@@std@@QAE@XZ
__unwindfunclet$?UserCmd_Stuck@MiscCmds@@YA_NIABV?$basic_string@GU?$char_traits@G@std@@V?$allocator@G@2@@std@@0PBG@Z$1:
	lea	ecx, DWORD PTR _p$[ebp]
	jmp	??1HKPLAYERINFO@@QAE@XZ
__unwindfunclet$?UserCmd_Stuck@MiscCmds@@YA_NIABV?$basic_string@GU?$char_traits@G@std@@V?$allocator@G@2@@std@@0PBG@Z$2:
	mov	ecx, DWORD PTR $T146703[ebp]
	jmp	DWORD PTR __imp_??1?$basic_string@GU?$char_traits@G@std@@V?$allocator@G@2@@std@@QAE@XZ
__unwindfunclet$?UserCmd_Stuck@MiscCmds@@YA_NIABV?$basic_string@GU?$char_traits@G@std@@V?$allocator@G@2@@std@@0PBG@Z$3:
	mov	ecx, DWORD PTR $T146705[ebp]
	jmp	DWORD PTR __imp_??1?$basic_string@GU?$char_traits@G@std@@V?$allocator@G@2@@std@@QAE@XZ
__unwindfunclet$?UserCmd_Stuck@MiscCmds@@YA_NIABV?$basic_string@GU?$char_traits@G@std@@V?$allocator@G@2@@std@@0PBG@Z$4:
	lea	ecx, DWORD PTR _wscMsg$[ebp]
	jmp	DWORD PTR __imp_??1?$basic_string@GU?$char_traits@G@std@@V?$allocator@G@2@@std@@QAE@XZ
__unwindfunclet$?UserCmd_Stuck@MiscCmds@@YA_NIABV?$basic_string@GU?$char_traits@G@std@@V?$allocator@G@2@@std@@0PBG@Z$5:
	lea	ecx, DWORD PTR $T146707[ebp]
	jmp	DWORD PTR __imp_??1?$basic_string@GU?$char_traits@G@std@@V?$allocator@G@2@@std@@QAE@XZ
__unwindfunclet$?UserCmd_Stuck@MiscCmds@@YA_NIABV?$basic_string@GU?$char_traits@G@std@@V?$allocator@G@2@@std@@0PBG@Z$6:
	lea	ecx, DWORD PTR $T146708[ebp]
	jmp	DWORD PTR __imp_??1?$basic_string@GU?$char_traits@G@std@@V?$allocator@G@2@@std@@QAE@XZ
__ehhandler$?UserCmd_Stuck@MiscCmds@@YA_NIABV?$basic_string@GU?$char_traits@G@std@@V?$allocator@G@2@@std@@0PBG@Z:
	mov	edx, DWORD PTR [esp+8]
	lea	eax, DWORD PTR [edx+12]
	mov	ecx, DWORD PTR [edx-496]
	xor	ecx, eax
	call	@__security_check_cookie@4
	mov	ecx, DWORD PTR [edx-4]
	xor	ecx, eax
	call	@__security_check_cookie@4
	mov	eax, OFFSET __ehfuncinfo$?UserCmd_Stuck@MiscCmds@@YA_NIABV?$basic_string@GU?$char_traits@G@std@@V?$allocator@G@2@@std@@0PBG@Z
	jmp	___CxxFrameHandler3
text$x	ENDS
?UserCmd_Stuck@MiscCmds@@YA_NIABV?$basic_string@GU?$char_traits@G@std@@V?$allocator@G@2@@std@@0PBG@Z ENDP ; MiscCmds::UserCmd_Stuck
PUBLIC	__real@3f195810
PUBLIC	__real@00000000
PUBLIC	__$ArrayPad$
PUBLIC	?UserCmd_DropRep@MiscCmds@@YA_NIABV?$basic_string@GU?$char_traits@G@std@@V?$allocator@G@2@@std@@0PBG@Z ; MiscCmds::UserCmd_DropRep
EXTRN	__imp_?HkAddCash@@YA?AW4HK_ERROR@@ABV?$basic_string@GU?$char_traits@G@std@@V?$allocator@G@2@@std@@H@Z:PROC
EXTRN	__imp_?HkSetRep@@YA?AW4HK_ERROR@@ABV?$basic_string@GU?$char_traits@G@std@@V?$allocator@G@2@@std@@0M@Z:PROC
EXTRN	__imp_?HkGetRep@@YA?AW4HK_ERROR@@ABV?$basic_string@GU?$char_traits@G@std@@V?$allocator@G@2@@std@@0AAM@Z:PROC
EXTRN	__imp_?c_str@?$basic_string@GU?$char_traits@G@std@@V?$allocator@G@2@@std@@QBEPBGXZ:PROC
EXTRN	__imp_?HkErrGetText@@YA?AV?$basic_string@GU?$char_traits@G@std@@V?$allocator@G@2@@std@@W4HK_ERROR@@@Z:PROC
EXTRN	__imp_?HkGetCash@@YA?AW4HK_ERROR@@ABV?$basic_string@GU?$char_traits@G@std@@V?$allocator@G@2@@std@@AAH@Z:PROC
EXTRN	__imp_?length@?$basic_string@GU?$char_traits@G@std@@V?$allocator@G@2@@std@@QBEIXZ:PROC
EXTRN	__imp_?HkFLIniGet@@YA?AW4HK_ERROR@@ABV?$basic_string@GU?$char_traits@G@std@@V?$allocator@G@2@@std@@0AAV23@@Z:PROC
;	COMDAT __real@3f195810
CONST	SEGMENT
__real@3f195810 DD 03f195810r			; 0.599
CONST	ENDS
;	COMDAT __real@00000000
CONST	SEGMENT
__real@00000000 DD 000000000r			; 0
CONST	ENDS
xdata$x	SEGMENT
__ehfuncinfo$?UserCmd_DropRep@MiscCmds@@YA_NIABV?$basic_string@GU?$char_traits@G@std@@V?$allocator@G@2@@std@@0PBG@Z DD 019930522H
	DD	0aH
	DD	FLAT:__unwindtable$?UserCmd_DropRep@MiscCmds@@YA_NIABV?$basic_string@GU?$char_traits@G@std@@V?$allocator@G@2@@std@@0PBG@Z
	DD	2 DUP(00H)
	DD	2 DUP(00H)
	DD	00H
	DD	00H
__unwindtable$?UserCmd_DropRep@MiscCmds@@YA_NIABV?$basic_string@GU?$char_traits@G@std@@V?$allocator@G@2@@std@@0PBG@Z DD 0ffffffffH
	DD	FLAT:__unwindfunclet$?UserCmd_DropRep@MiscCmds@@YA_NIABV?$basic_string@GU?$char_traits@G@std@@V?$allocator@G@2@@std@@0PBG@Z$0
	DD	00H
	DD	FLAT:__unwindfunclet$?UserCmd_DropRep@MiscCmds@@YA_NIABV?$basic_string@GU?$char_traits@G@std@@V?$allocator@G@2@@std@@0PBG@Z$1
	DD	01H
	DD	FLAT:__unwindfunclet$?UserCmd_DropRep@MiscCmds@@YA_NIABV?$basic_string@GU?$char_traits@G@std@@V?$allocator@G@2@@std@@0PBG@Z$2
	DD	01H
	DD	FLAT:__unwindfunclet$?UserCmd_DropRep@MiscCmds@@YA_NIABV?$basic_string@GU?$char_traits@G@std@@V?$allocator@G@2@@std@@0PBG@Z$3
	DD	01H
	DD	FLAT:__unwindfunclet$?UserCmd_DropRep@MiscCmds@@YA_NIABV?$basic_string@GU?$char_traits@G@std@@V?$allocator@G@2@@std@@0PBG@Z$4
	DD	04H
	DD	FLAT:__unwindfunclet$?UserCmd_DropRep@MiscCmds@@YA_NIABV?$basic_string@GU?$char_traits@G@std@@V?$allocator@G@2@@std@@0PBG@Z$5
	DD	01H
	DD	FLAT:__unwindfunclet$?UserCmd_DropRep@MiscCmds@@YA_NIABV?$basic_string@GU?$char_traits@G@std@@V?$allocator@G@2@@std@@0PBG@Z$6
	DD	01H
	DD	FLAT:__unwindfunclet$?UserCmd_DropRep@MiscCmds@@YA_NIABV?$basic_string@GU?$char_traits@G@std@@V?$allocator@G@2@@std@@0PBG@Z$7
	DD	07H
	DD	FLAT:__unwindfunclet$?UserCmd_DropRep@MiscCmds@@YA_NIABV?$basic_string@GU?$char_traits@G@std@@V?$allocator@G@2@@std@@0PBG@Z$8
	DD	01H
	DD	FLAT:__unwindfunclet$?UserCmd_DropRep@MiscCmds@@YA_NIABV?$basic_string@GU?$char_traits@G@std@@V?$allocator@G@2@@std@@0PBG@Z$9
; Function compile flags: /Odtp
xdata$x	ENDS
_TEXT	SEGMENT
tv262 = -276						; size = 4
tv273 = -272						; size = 4
tv258 = -268						; size = 4
tv271 = -264						; size = 4
tv255 = -260						; size = 4
tv270 = -256						; size = 4
tv251 = -252						; size = 4
tv268 = -248						; size = 4
tv247 = -244						; size = 4
tv266 = -240						; size = 4
tv244 = -236						; size = 4
tv265 = -232						; size = 4
tv240 = -228						; size = 4
tv72 = -224						; size = 4
tv86 = -220						; size = 4
$T146747 = -216						; size = 4
$T146744 = -209						; size = 1
$T146743 = -208						; size = 4
$T146742 = -201						; size = 1
$T146741 = -200						; size = 4
$T146740 = -196						; size = 28
$T146739 = -165						; size = 1
$T146738 = -164						; size = 4
$T146737 = -157						; size = 1
$T146736 = -156						; size = 4
$T146735 = -152						; size = 28
$T146734 = -121						; size = 1
$T146733 = -120						; size = 4
$T146730 = -116						; size = 28
$T146729 = -85						; size = 1
_err$ = -84						; size = 4
_wscCharname$ = -80					; size = 28
_wscRepGroupNick$ = -52					; size = 28
__$ArrayPad$ = -24					; size = 4
_fValue$ = -20						; size = 4
_iCash$ = -16						; size = 4
__$EHRec$ = -12						; size = 12
_iClientID$ = 8						; size = 4
_wscCmd$ = 12						; size = 4
_wscParam$ = 16						; size = 4
_usage$ = 20						; size = 4
?UserCmd_DropRep@MiscCmds@@YA_NIABV?$basic_string@GU?$char_traits@G@std@@V?$allocator@G@2@@std@@0PBG@Z PROC ; MiscCmds::UserCmd_DropRep
; Line 171
	push	ebp
	mov	ebp, esp
	push	-1
	push	__ehhandler$?UserCmd_DropRep@MiscCmds@@YA_NIABV?$basic_string@GU?$char_traits@G@std@@V?$allocator@G@2@@std@@0PBG@Z
	mov	eax, DWORD PTR fs:0
	push	eax
	sub	esp, 264				; 00000108H
	mov	eax, DWORD PTR ___security_cookie
	xor	eax, ebp
	mov	DWORD PTR __$ArrayPad$[ebp], eax
	push	eax
	lea	eax, DWORD PTR __$EHRec$[ebp]
	mov	DWORD PTR fs:0, eax
	mov	DWORD PTR $T146747[ebp], 0
; Line 174
	mov	eax, DWORD PTR _iClientID$[ebp]
	push	eax
	mov	ecx, DWORD PTR __imp_?Players@@3VPlayerDB@@A
	call	DWORD PTR __imp_?GetActiveCharacterName@PlayerDB@@QBEPBGI@Z
	push	eax
	lea	ecx, DWORD PTR _wscCharname$[ebp]
	call	DWORD PTR __imp_??0?$basic_string@GU?$char_traits@G@std@@V?$allocator@G@2@@std@@QAE@PBG@Z
	mov	DWORD PTR __$EHRec$[ebp+8], 0
; Line 176
	lea	ecx, DWORD PTR _wscRepGroupNick$[ebp]
	call	DWORD PTR __imp_??0?$basic_string@GU?$char_traits@G@std@@V?$allocator@G@2@@std@@QAE@XZ
	mov	BYTE PTR __$EHRec$[ebp+8], 1
; Line 177
	push	OFFSET $SG140931
	lea	ecx, DWORD PTR $T146730[ebp]
	call	DWORD PTR __imp_??0?$basic_string@GU?$char_traits@G@std@@V?$allocator@G@2@@std@@QAE@PBG@Z
	mov	BYTE PTR __$EHRec$[ebp+8], 2
	mov	ecx, DWORD PTR $T146747[ebp]
	or	ecx, 1
	mov	DWORD PTR $T146747[ebp], ecx
	lea	edx, DWORD PTR _wscRepGroupNick$[ebp]
	push	edx
	lea	eax, DWORD PTR $T146730[ebp]
	push	eax
	lea	ecx, DWORD PTR _wscCharname$[ebp]
	push	ecx
	call	DWORD PTR __imp_?HkFLIniGet@@YA?AW4HK_ERROR@@ABV?$basic_string@GU?$char_traits@G@std@@V?$allocator@G@2@@std@@0AAV23@@Z
	add	esp, 12					; 0000000cH
	test	eax, eax
	jne	SHORT $LN8@UserCmd_Dr
	lea	ecx, DWORD PTR _wscRepGroupNick$[ebp]
	call	DWORD PTR __imp_?length@?$basic_string@GU?$char_traits@G@std@@V?$allocator@G@2@@std@@QBEIXZ
	test	eax, eax
	je	SHORT $LN8@UserCmd_Dr
	mov	DWORD PTR tv86[ebp], 0
	jmp	SHORT $LN9@UserCmd_Dr
$LN8@UserCmd_Dr:
	mov	DWORD PTR tv86[ebp], 1
$LN9@UserCmd_Dr:
	mov	dl, BYTE PTR tv86[ebp]
	mov	BYTE PTR $T146729[ebp], dl
	mov	DWORD PTR __$EHRec$[ebp+8], 1
	mov	eax, DWORD PTR $T146747[ebp]
	and	eax, 1
	je	SHORT $LN14@UserCmd_Dr
	and	DWORD PTR $T146747[ebp], -2		; fffffffeH
	lea	ecx, DWORD PTR $T146730[ebp]
	call	DWORD PTR __imp_??1?$basic_string@GU?$char_traits@G@std@@V?$allocator@G@2@@std@@QAE@XZ
$LN14@UserCmd_Dr:
	movzx	ecx, BYTE PTR $T146729[ebp]
	test	ecx, ecx
	je	SHORT $LN5@UserCmd_Dr
; Line 179
	sub	esp, 28					; 0000001cH
	mov	ecx, esp
	mov	DWORD PTR $T146733[ebp], esp
	push	OFFSET $SG140933
	call	DWORD PTR __imp_??0?$basic_string@GU?$char_traits@G@std@@V?$allocator@G@2@@std@@QAE@PBG@Z
	mov	DWORD PTR tv72[ebp], eax
	mov	edx, DWORD PTR tv72[ebp]
	mov	DWORD PTR tv240[ebp], edx
	mov	BYTE PTR __$EHRec$[ebp+8], 3
	mov	eax, DWORD PTR _iClientID$[ebp]
	push	eax
	mov	BYTE PTR __$EHRec$[ebp+8], 1
	call	DWORD PTR __imp_?PrintUserCmdText@@YAXIV?$basic_string@GU?$char_traits@G@std@@V?$allocator@G@2@@std@@ZZ
	add	esp, 32					; 00000020H
; Line 180
	mov	BYTE PTR $T146734[ebp], 1
	mov	BYTE PTR __$EHRec$[ebp+8], 0
	lea	ecx, DWORD PTR _wscRepGroupNick$[ebp]
	call	DWORD PTR __imp_??1?$basic_string@GU?$char_traits@G@std@@V?$allocator@G@2@@std@@QAE@XZ
	mov	DWORD PTR __$EHRec$[ebp+8], -1
	lea	ecx, DWORD PTR _wscCharname$[ebp]
	call	DWORD PTR __imp_??1?$basic_string@GU?$char_traits@G@std@@V?$allocator@G@2@@std@@QAE@XZ
	mov	al, BYTE PTR $T146734[ebp]
	jmp	$LN6@UserCmd_Dr
$LN5@UserCmd_Dr:
; Line 185
	mov	DWORD PTR _iCash$[ebp], 0
; Line 186
	lea	ecx, DWORD PTR _iCash$[ebp]
	push	ecx
	lea	edx, DWORD PTR _wscCharname$[ebp]
	push	edx
	call	DWORD PTR __imp_?HkGetCash@@YA?AW4HK_ERROR@@ABV?$basic_string@GU?$char_traits@G@std@@V?$allocator@G@2@@std@@AAH@Z
	add	esp, 8
	mov	DWORD PTR _err$[ebp], eax
	cmp	DWORD PTR _err$[ebp], 0
	je	$LN4@UserCmd_Dr
; Line 188
	mov	eax, DWORD PTR _err$[ebp]
	push	eax
	lea	ecx, DWORD PTR $T146735[ebp]
	push	ecx
	call	DWORD PTR __imp_?HkErrGetText@@YA?AV?$basic_string@GU?$char_traits@G@std@@V?$allocator@G@2@@std@@W4HK_ERROR@@@Z
	add	esp, 8
	mov	DWORD PTR tv265[ebp], eax
	mov	edx, DWORD PTR tv265[ebp]
	mov	DWORD PTR tv244[ebp], edx
	mov	BYTE PTR __$EHRec$[ebp+8], 4
	mov	ecx, DWORD PTR tv244[ebp]
	call	DWORD PTR __imp_?c_str@?$basic_string@GU?$char_traits@G@std@@V?$allocator@G@2@@std@@QBEPBGXZ
	push	eax
	sub	esp, 28					; 0000001cH
	mov	ecx, esp
	mov	DWORD PTR $T146736[ebp], esp
	push	OFFSET $SG140939
	call	DWORD PTR __imp_??0?$basic_string@GU?$char_traits@G@std@@V?$allocator@G@2@@std@@QAE@PBG@Z
	mov	DWORD PTR tv266[ebp], eax
	mov	eax, DWORD PTR tv266[ebp]
	mov	DWORD PTR tv247[ebp], eax
	mov	BYTE PTR __$EHRec$[ebp+8], 5
	mov	ecx, DWORD PTR _iClientID$[ebp]
	push	ecx
	mov	BYTE PTR __$EHRec$[ebp+8], 4
	call	DWORD PTR __imp_?PrintUserCmdText@@YAXIV?$basic_string@GU?$char_traits@G@std@@V?$allocator@G@2@@std@@ZZ
	add	esp, 36					; 00000024H
	mov	BYTE PTR __$EHRec$[ebp+8], 1
	lea	ecx, DWORD PTR $T146735[ebp]
	call	DWORD PTR __imp_??1?$basic_string@GU?$char_traits@G@std@@V?$allocator@G@2@@std@@QAE@XZ
; Line 189
	mov	BYTE PTR $T146737[ebp], 1
	mov	BYTE PTR __$EHRec$[ebp+8], 0
	lea	ecx, DWORD PTR _wscRepGroupNick$[ebp]
	call	DWORD PTR __imp_??1?$basic_string@GU?$char_traits@G@std@@V?$allocator@G@2@@std@@QAE@XZ
	mov	DWORD PTR __$EHRec$[ebp+8], -1
	lea	ecx, DWORD PTR _wscCharname$[ebp]
	call	DWORD PTR __imp_??1?$basic_string@GU?$char_traits@G@std@@V?$allocator@G@2@@std@@QAE@XZ
	mov	al, BYTE PTR $T146737[ebp]
	jmp	$LN6@UserCmd_Dr
$LN4@UserCmd_Dr:
; Line 191
	cmp	DWORD PTR ?set_iRepdropCost@MiscCmds@@3HA, 0 ; MiscCmds::set_iRepdropCost
	jle	SHORT $LN3@UserCmd_Dr
	mov	edx, DWORD PTR _iCash$[ebp]
	cmp	edx, DWORD PTR ?set_iRepdropCost@MiscCmds@@3HA ; MiscCmds::set_iRepdropCost
	jge	SHORT $LN3@UserCmd_Dr
; Line 193
	sub	esp, 28					; 0000001cH
	mov	ecx, esp
	mov	DWORD PTR $T146738[ebp], esp
	push	OFFSET $SG140943
	call	DWORD PTR __imp_??0?$basic_string@GU?$char_traits@G@std@@V?$allocator@G@2@@std@@QAE@PBG@Z
	mov	DWORD PTR tv268[ebp], eax
	mov	eax, DWORD PTR tv268[ebp]
	mov	DWORD PTR tv251[ebp], eax
	mov	BYTE PTR __$EHRec$[ebp+8], 6
	mov	ecx, DWORD PTR _iClientID$[ebp]
	push	ecx
	mov	BYTE PTR __$EHRec$[ebp+8], 1
	call	DWORD PTR __imp_?PrintUserCmdText@@YAXIV?$basic_string@GU?$char_traits@G@std@@V?$allocator@G@2@@std@@ZZ
	add	esp, 32					; 00000020H
; Line 194
	mov	BYTE PTR $T146739[ebp], 1
	mov	BYTE PTR __$EHRec$[ebp+8], 0
	lea	ecx, DWORD PTR _wscRepGroupNick$[ebp]
	call	DWORD PTR __imp_??1?$basic_string@GU?$char_traits@G@std@@V?$allocator@G@2@@std@@QAE@XZ
	mov	DWORD PTR __$EHRec$[ebp+8], -1
	lea	ecx, DWORD PTR _wscCharname$[ebp]
	call	DWORD PTR __imp_??1?$basic_string@GU?$char_traits@G@std@@V?$allocator@G@2@@std@@QAE@XZ
	mov	al, BYTE PTR $T146739[ebp]
	jmp	$LN6@UserCmd_Dr
$LN3@UserCmd_Dr:
; Line 197
	fldz
	fstp	DWORD PTR _fValue$[ebp]
; Line 198
	lea	edx, DWORD PTR _fValue$[ebp]
	push	edx
	lea	eax, DWORD PTR _wscRepGroupNick$[ebp]
	push	eax
	lea	ecx, DWORD PTR _wscCharname$[ebp]
	push	ecx
	call	DWORD PTR __imp_?HkGetRep@@YA?AW4HK_ERROR@@ABV?$basic_string@GU?$char_traits@G@std@@V?$allocator@G@2@@std@@0AAM@Z
	add	esp, 12					; 0000000cH
	mov	DWORD PTR _err$[ebp], eax
	cmp	DWORD PTR _err$[ebp], 0
	je	$LN2@UserCmd_Dr
; Line 200
	mov	edx, DWORD PTR _err$[ebp]
	push	edx
	lea	eax, DWORD PTR $T146740[ebp]
	push	eax
	call	DWORD PTR __imp_?HkErrGetText@@YA?AV?$basic_string@GU?$char_traits@G@std@@V?$allocator@G@2@@std@@W4HK_ERROR@@@Z
	add	esp, 8
	mov	DWORD PTR tv270[ebp], eax
	mov	ecx, DWORD PTR tv270[ebp]
	mov	DWORD PTR tv255[ebp], ecx
	mov	BYTE PTR __$EHRec$[ebp+8], 7
	mov	ecx, DWORD PTR tv255[ebp]
	call	DWORD PTR __imp_?c_str@?$basic_string@GU?$char_traits@G@std@@V?$allocator@G@2@@std@@QBEPBGXZ
	push	eax
	sub	esp, 28					; 0000001cH
	mov	ecx, esp
	mov	DWORD PTR $T146741[ebp], esp
	push	OFFSET $SG140949
	call	DWORD PTR __imp_??0?$basic_string@GU?$char_traits@G@std@@V?$allocator@G@2@@std@@QAE@PBG@Z
	mov	DWORD PTR tv271[ebp], eax
	mov	edx, DWORD PTR tv271[ebp]
	mov	DWORD PTR tv258[ebp], edx
	mov	BYTE PTR __$EHRec$[ebp+8], 8
	mov	eax, DWORD PTR _iClientID$[ebp]
	push	eax
	mov	BYTE PTR __$EHRec$[ebp+8], 7
	call	DWORD PTR __imp_?PrintUserCmdText@@YAXIV?$basic_string@GU?$char_traits@G@std@@V?$allocator@G@2@@std@@ZZ
	add	esp, 36					; 00000024H
	mov	BYTE PTR __$EHRec$[ebp+8], 1
	lea	ecx, DWORD PTR $T146740[ebp]
	call	DWORD PTR __imp_??1?$basic_string@GU?$char_traits@G@std@@V?$allocator@G@2@@std@@QAE@XZ
; Line 201
	mov	BYTE PTR $T146742[ebp], 1
	mov	BYTE PTR __$EHRec$[ebp+8], 0
	lea	ecx, DWORD PTR _wscRepGroupNick$[ebp]
	call	DWORD PTR __imp_??1?$basic_string@GU?$char_traits@G@std@@V?$allocator@G@2@@std@@QAE@XZ
	mov	DWORD PTR __$EHRec$[ebp+8], -1
	lea	ecx, DWORD PTR _wscCharname$[ebp]
	call	DWORD PTR __imp_??1?$basic_string@GU?$char_traits@G@std@@V?$allocator@G@2@@std@@QAE@XZ
	mov	al, BYTE PTR $T146742[ebp]
	jmp	$LN6@UserCmd_Dr
$LN2@UserCmd_Dr:
; Line 204
	push	ecx
	fld	DWORD PTR __real@3f195810
	fstp	DWORD PTR [esp]
	lea	ecx, DWORD PTR _wscRepGroupNick$[ebp]
	push	ecx
	lea	edx, DWORD PTR _wscCharname$[ebp]
	push	edx
	call	DWORD PTR __imp_?HkSetRep@@YA?AW4HK_ERROR@@ABV?$basic_string@GU?$char_traits@G@std@@V?$allocator@G@2@@std@@0M@Z
	add	esp, 12					; 0000000cH
; Line 205
	sub	esp, 28					; 0000001cH
	mov	ecx, esp
	mov	DWORD PTR $T146743[ebp], esp
	push	OFFSET $SG140952
	call	DWORD PTR __imp_??0?$basic_string@GU?$char_traits@G@std@@V?$allocator@G@2@@std@@QAE@PBG@Z
	mov	DWORD PTR tv273[ebp], eax
	mov	eax, DWORD PTR tv273[ebp]
	mov	DWORD PTR tv262[ebp], eax
	mov	BYTE PTR __$EHRec$[ebp+8], 9
	mov	ecx, DWORD PTR _iClientID$[ebp]
	push	ecx
	mov	BYTE PTR __$EHRec$[ebp+8], 1
	call	DWORD PTR __imp_?PrintUserCmdText@@YAXIV?$basic_string@GU?$char_traits@G@std@@V?$allocator@G@2@@std@@ZZ
	add	esp, 32					; 00000020H
; Line 208
	cmp	DWORD PTR ?set_iRepdropCost@MiscCmds@@3HA, 0 ; MiscCmds::set_iRepdropCost
	jle	SHORT $LN1@UserCmd_Dr
; Line 210
	xor	edx, edx
	sub	edx, DWORD PTR ?set_iRepdropCost@MiscCmds@@3HA ; MiscCmds::set_iRepdropCost
	push	edx
	lea	eax, DWORD PTR _wscCharname$[ebp]
	push	eax
	call	DWORD PTR __imp_?HkAddCash@@YA?AW4HK_ERROR@@ABV?$basic_string@GU?$char_traits@G@std@@V?$allocator@G@2@@std@@H@Z
	add	esp, 8
$LN1@UserCmd_Dr:
; Line 213
	mov	BYTE PTR $T146744[ebp], 1
	mov	BYTE PTR __$EHRec$[ebp+8], 0
	lea	ecx, DWORD PTR _wscRepGroupNick$[ebp]
	call	DWORD PTR __imp_??1?$basic_string@GU?$char_traits@G@std@@V?$allocator@G@2@@std@@QAE@XZ
	mov	DWORD PTR __$EHRec$[ebp+8], -1
	lea	ecx, DWORD PTR _wscCharname$[ebp]
	call	DWORD PTR __imp_??1?$basic_string@GU?$char_traits@G@std@@V?$allocator@G@2@@std@@QAE@XZ
	mov	al, BYTE PTR $T146744[ebp]
$LN6@UserCmd_Dr:
; Line 214
	mov	ecx, DWORD PTR __$EHRec$[ebp]
	mov	DWORD PTR fs:0, ecx
	pop	ecx
	mov	ecx, DWORD PTR __$ArrayPad$[ebp]
	xor	ecx, ebp
	call	@__security_check_cookie@4
	mov	esp, ebp
	pop	ebp
	ret	0
_TEXT	ENDS
text$x	SEGMENT
__unwindfunclet$?UserCmd_DropRep@MiscCmds@@YA_NIABV?$basic_string@GU?$char_traits@G@std@@V?$allocator@G@2@@std@@0PBG@Z$0:
	lea	ecx, DWORD PTR _wscCharname$[ebp]
	jmp	DWORD PTR __imp_??1?$basic_string@GU?$char_traits@G@std@@V?$allocator@G@2@@std@@QAE@XZ
__unwindfunclet$?UserCmd_DropRep@MiscCmds@@YA_NIABV?$basic_string@GU?$char_traits@G@std@@V?$allocator@G@2@@std@@0PBG@Z$1:
	lea	ecx, DWORD PTR _wscRepGroupNick$[ebp]
	jmp	DWORD PTR __imp_??1?$basic_string@GU?$char_traits@G@std@@V?$allocator@G@2@@std@@QAE@XZ
__unwindfunclet$?UserCmd_DropRep@MiscCmds@@YA_NIABV?$basic_string@GU?$char_traits@G@std@@V?$allocator@G@2@@std@@0PBG@Z$2:
	mov	eax, DWORD PTR $T146747[ebp]
	and	eax, 1
	je	$LN13@UserCmd_Dr
	and	DWORD PTR $T146747[ebp], -2		; fffffffeH
	lea	ecx, DWORD PTR $T146730[ebp]
	jmp	DWORD PTR __imp_??1?$basic_string@GU?$char_traits@G@std@@V?$allocator@G@2@@std@@QAE@XZ
$LN13@UserCmd_Dr:
	ret	0
__unwindfunclet$?UserCmd_DropRep@MiscCmds@@YA_NIABV?$basic_string@GU?$char_traits@G@std@@V?$allocator@G@2@@std@@0PBG@Z$3:
	mov	ecx, DWORD PTR $T146733[ebp]
	jmp	DWORD PTR __imp_??1?$basic_string@GU?$char_traits@G@std@@V?$allocator@G@2@@std@@QAE@XZ
__unwindfunclet$?UserCmd_DropRep@MiscCmds@@YA_NIABV?$basic_string@GU?$char_traits@G@std@@V?$allocator@G@2@@std@@0PBG@Z$4:
	lea	ecx, DWORD PTR $T146735[ebp]
	jmp	DWORD PTR __imp_??1?$basic_string@GU?$char_traits@G@std@@V?$allocator@G@2@@std@@QAE@XZ
__unwindfunclet$?UserCmd_DropRep@MiscCmds@@YA_NIABV?$basic_string@GU?$char_traits@G@std@@V?$allocator@G@2@@std@@0PBG@Z$5:
	mov	ecx, DWORD PTR $T146736[ebp]
	jmp	DWORD PTR __imp_??1?$basic_string@GU?$char_traits@G@std@@V?$allocator@G@2@@std@@QAE@XZ
__unwindfunclet$?UserCmd_DropRep@MiscCmds@@YA_NIABV?$basic_string@GU?$char_traits@G@std@@V?$allocator@G@2@@std@@0PBG@Z$6:
	mov	ecx, DWORD PTR $T146738[ebp]
	jmp	DWORD PTR __imp_??1?$basic_string@GU?$char_traits@G@std@@V?$allocator@G@2@@std@@QAE@XZ
__unwindfunclet$?UserCmd_DropRep@MiscCmds@@YA_NIABV?$basic_string@GU?$char_traits@G@std@@V?$allocator@G@2@@std@@0PBG@Z$7:
	lea	ecx, DWORD PTR $T146740[ebp]
	jmp	DWORD PTR __imp_??1?$basic_string@GU?$char_traits@G@std@@V?$allocator@G@2@@std@@QAE@XZ
__unwindfunclet$?UserCmd_DropRep@MiscCmds@@YA_NIABV?$basic_string@GU?$char_traits@G@std@@V?$allocator@G@2@@std@@0PBG@Z$8:
	mov	ecx, DWORD PTR $T146741[ebp]
	jmp	DWORD PTR __imp_??1?$basic_string@GU?$char_traits@G@std@@V?$allocator@G@2@@std@@QAE@XZ
__unwindfunclet$?UserCmd_DropRep@MiscCmds@@YA_NIABV?$basic_string@GU?$char_traits@G@std@@V?$allocator@G@2@@std@@0PBG@Z$9:
	mov	ecx, DWORD PTR $T146743[ebp]
	jmp	DWORD PTR __imp_??1?$basic_string@GU?$char_traits@G@std@@V?$allocator@G@2@@std@@QAE@XZ
__ehhandler$?UserCmd_DropRep@MiscCmds@@YA_NIABV?$basic_string@GU?$char_traits@G@std@@V?$allocator@G@2@@std@@0PBG@Z:
	mov	edx, DWORD PTR [esp+8]
	lea	eax, DWORD PTR [edx+12]
	mov	ecx, DWORD PTR [edx-268]
	xor	ecx, eax
	call	@__security_check_cookie@4
	mov	ecx, DWORD PTR [edx-12]
	xor	ecx, eax
	call	@__security_check_cookie@4
	mov	eax, OFFSET __ehfuncinfo$?UserCmd_DropRep@MiscCmds@@YA_NIABV?$basic_string@GU?$char_traits@G@std@@V?$allocator@G@2@@std@@0PBG@Z
	jmp	___CxxFrameHandler3
text$x	ENDS
?UserCmd_DropRep@MiscCmds@@YA_NIABV?$basic_string@GU?$char_traits@G@std@@V?$allocator@G@2@@std@@0PBG@Z ENDP ; MiscCmds::UserCmd_DropRep
PUBLIC	__$ArrayPad$
PUBLIC	?UserCmd_Dice@MiscCmds@@YA_NIABV?$basic_string@GU?$char_traits@G@std@@V?$allocator@G@2@@std@@0PBG@Z ; MiscCmds::UserCmd_Dice
EXTRN	__imp_?itos@@YA?AV?$basic_string@DU?$char_traits@D@std@@V?$allocator@D@2@@std@@H@Z:PROC
EXTRN	__imp__rand:PROC
EXTRN	__imp_?ToInt@@YAHABV?$basic_string@GU?$char_traits@G@std@@V?$allocator@G@2@@std@@@Z:PROC
EXTRN	__imp_?GetParam@@YA?AV?$basic_string@GU?$char_traits@G@std@@V?$allocator@G@2@@std@@ABV12@GI@Z:PROC
xdata$x	SEGMENT
__ehfuncinfo$?UserCmd_Dice@MiscCmds@@YA_NIABV?$basic_string@GU?$char_traits@G@std@@V?$allocator@G@2@@std@@0PBG@Z DD 019930522H
	DD	0dH
	DD	FLAT:__unwindtable$?UserCmd_Dice@MiscCmds@@YA_NIABV?$basic_string@GU?$char_traits@G@std@@V?$allocator@G@2@@std@@0PBG@Z
	DD	2 DUP(00H)
	DD	2 DUP(00H)
	DD	00H
	DD	00H
__unwindtable$?UserCmd_Dice@MiscCmds@@YA_NIABV?$basic_string@GU?$char_traits@G@std@@V?$allocator@G@2@@std@@0PBG@Z DD 0ffffffffH
	DD	FLAT:__unwindfunclet$?UserCmd_Dice@MiscCmds@@YA_NIABV?$basic_string@GU?$char_traits@G@std@@V?$allocator@G@2@@std@@0PBG@Z$0
	DD	00H
	DD	FLAT:__unwindfunclet$?UserCmd_Dice@MiscCmds@@YA_NIABV?$basic_string@GU?$char_traits@G@std@@V?$allocator@G@2@@std@@0PBG@Z$1
	DD	00H
	DD	FLAT:__unwindfunclet$?UserCmd_Dice@MiscCmds@@YA_NIABV?$basic_string@GU?$char_traits@G@std@@V?$allocator@G@2@@std@@0PBG@Z$2
	DD	02H
	DD	FLAT:__unwindfunclet$?UserCmd_Dice@MiscCmds@@YA_NIABV?$basic_string@GU?$char_traits@G@std@@V?$allocator@G@2@@std@@0PBG@Z$3
	DD	03H
	DD	FLAT:__unwindfunclet$?UserCmd_Dice@MiscCmds@@YA_NIABV?$basic_string@GU?$char_traits@G@std@@V?$allocator@G@2@@std@@0PBG@Z$4
	DD	02H
	DD	FLAT:__unwindfunclet$?UserCmd_Dice@MiscCmds@@YA_NIABV?$basic_string@GU?$char_traits@G@std@@V?$allocator@G@2@@std@@0PBG@Z$5
	DD	05H
	DD	FLAT:__unwindfunclet$?UserCmd_Dice@MiscCmds@@YA_NIABV?$basic_string@GU?$char_traits@G@std@@V?$allocator@G@2@@std@@0PBG@Z$6
	DD	06H
	DD	FLAT:__unwindfunclet$?UserCmd_Dice@MiscCmds@@YA_NIABV?$basic_string@GU?$char_traits@G@std@@V?$allocator@G@2@@std@@0PBG@Z$7
	DD	07H
	DD	FLAT:__unwindfunclet$?UserCmd_Dice@MiscCmds@@YA_NIABV?$basic_string@GU?$char_traits@G@std@@V?$allocator@G@2@@std@@0PBG@Z$8
	DD	02H
	DD	FLAT:__unwindfunclet$?UserCmd_Dice@MiscCmds@@YA_NIABV?$basic_string@GU?$char_traits@G@std@@V?$allocator@G@2@@std@@0PBG@Z$9
	DD	09H
	DD	FLAT:__unwindfunclet$?UserCmd_Dice@MiscCmds@@YA_NIABV?$basic_string@GU?$char_traits@G@std@@V?$allocator@G@2@@std@@0PBG@Z$10
	DD	0aH
	DD	FLAT:__unwindfunclet$?UserCmd_Dice@MiscCmds@@YA_NIABV?$basic_string@GU?$char_traits@G@std@@V?$allocator@G@2@@std@@0PBG@Z$11
	DD	0bH
	DD	FLAT:__unwindfunclet$?UserCmd_Dice@MiscCmds@@YA_NIABV?$basic_string@GU?$char_traits@G@std@@V?$allocator@G@2@@std@@0PBG@Z$12
; Function compile flags: /Odtp
xdata$x	ENDS
_TEXT	SEGMENT
tv202 = -456						; size = 4
tv207 = -452						; size = 4
tv200 = -448						; size = 4
tv206 = -444						; size = 4
tv198 = -440						; size = 4
tv171 = -436						; size = 4
tv195 = -432						; size = 4
tv205 = -428						; size = 4
tv193 = -424						; size = 4
tv85 = -420						; size = 4
tv191 = -416						; size = 4
tv148 = -412						; size = 4
tv188 = -408						; size = 4
tv93 = -404						; size = 4
tv184 = -400						; size = 4
tv65 = -396						; size = 4
$T146779 = -389						; size = 1
$T146778 = -388						; size = 28
$T146777 = -360						; size = 28
$T146776 = -332						; size = 28
$T146775 = -304						; size = 28
$T146774 = -276						; size = 28
$T146773 = -248						; size = 28
$T146772 = -220						; size = 28
$T146771 = -192						; size = 28
$T146770 = -164						; size = 28
$T146769 = -136						; size = 28
$T146768 = -108						; size = 28
_max$ = -80						; size = 4
_number$ = -76						; size = 4
_wscCharname$ = -72					; size = 28
_wscMsg$ = -44						; size = 28
__$ArrayPad$ = -16					; size = 4
__$EHRec$ = -12						; size = 12
_iFromClientID$ = 8					; size = 4
_wscCmd$ = 12						; size = 4
_wscParam$ = 16						; size = 4
_usage$ = 20						; size = 4
?UserCmd_Dice@MiscCmds@@YA_NIABV?$basic_string@GU?$char_traits@G@std@@V?$allocator@G@2@@std@@0PBG@Z PROC ; MiscCmds::UserCmd_Dice
; Line 218
	push	ebp
	mov	ebp, esp
	push	-1
	push	__ehhandler$?UserCmd_Dice@MiscCmds@@YA_NIABV?$basic_string@GU?$char_traits@G@std@@V?$allocator@G@2@@std@@0PBG@Z
	mov	eax, DWORD PTR fs:0
	push	eax
	sub	esp, 444				; 000001bcH
	mov	eax, DWORD PTR ___security_cookie
	xor	eax, ebp
	mov	DWORD PTR __$ArrayPad$[ebp], eax
	push	eax
	lea	eax, DWORD PTR __$EHRec$[ebp]
	mov	DWORD PTR fs:0, eax
; Line 219
	mov	eax, DWORD PTR _iFromClientID$[ebp]
	push	eax
	mov	ecx, DWORD PTR __imp_?Players@@3VPlayerDB@@A
	call	DWORD PTR __imp_?GetActiveCharacterName@PlayerDB@@QBEPBGI@Z
	push	eax
	lea	ecx, DWORD PTR _wscCharname$[ebp]
	call	DWORD PTR __imp_??0?$basic_string@GU?$char_traits@G@std@@V?$allocator@G@2@@std@@QAE@PBG@Z
	mov	DWORD PTR __$EHRec$[ebp+8], 0
; Line 221
	push	0
	push	32					; 00000020H
	mov	ecx, DWORD PTR _wscParam$[ebp]
	push	ecx
	lea	edx, DWORD PTR $T146768[ebp]
	push	edx
	call	DWORD PTR __imp_?GetParam@@YA?AV?$basic_string@GU?$char_traits@G@std@@V?$allocator@G@2@@std@@ABV12@GI@Z
	add	esp, 16					; 00000010H
	mov	DWORD PTR tv65[ebp], eax
	mov	eax, DWORD PTR tv65[ebp]
	mov	DWORD PTR tv184[ebp], eax
	mov	BYTE PTR __$EHRec$[ebp+8], 1
	mov	ecx, DWORD PTR tv184[ebp]
	push	ecx
	call	DWORD PTR __imp_?ToInt@@YAHABV?$basic_string@GU?$char_traits@G@std@@V?$allocator@G@2@@std@@@Z
	add	esp, 4
	mov	DWORD PTR _max$[ebp], eax
	mov	BYTE PTR __$EHRec$[ebp+8], 0
	lea	ecx, DWORD PTR $T146768[ebp]
	call	DWORD PTR __imp_??1?$basic_string@GU?$char_traits@G@std@@V?$allocator@G@2@@std@@QAE@XZ
; Line 222
	cmp	DWORD PTR _max$[ebp], 1
	jg	SHORT $LN1@UserCmd_Di
; Line 223
	mov	DWORD PTR _max$[ebp], 6
$LN1@UserCmd_Di:
; Line 225
	call	DWORD PTR __imp__rand
	cdq
	idiv	DWORD PTR _max$[ebp]
	add	edx, 1
	mov	DWORD PTR _number$[ebp], edx
; Line 226
	push	OFFSET ?set_wscDiceMsg@MiscCmds@@3V?$basic_string@GU?$char_traits@G@std@@V?$allocator@G@2@@std@@A ; MiscCmds::set_wscDiceMsg
	lea	ecx, DWORD PTR _wscMsg$[ebp]
	call	DWORD PTR __imp_??0?$basic_string@GU?$char_traits@G@std@@V?$allocator@G@2@@std@@QAE@ABV01@@Z
	mov	BYTE PTR __$EHRec$[ebp+8], 2
; Line 227
	push	OFFSET $SG140970
	lea	ecx, DWORD PTR $T146769[ebp]
	call	DWORD PTR __imp_??0?$basic_string@GU?$char_traits@G@std@@V?$allocator@G@2@@std@@QAE@PBG@Z
	mov	BYTE PTR __$EHRec$[ebp+8], 3
	lea	edx, DWORD PTR _wscCharname$[ebp]
	push	edx
	lea	eax, DWORD PTR $T146769[ebp]
	push	eax
	lea	ecx, DWORD PTR _wscMsg$[ebp]
	push	ecx
	lea	edx, DWORD PTR $T146770[ebp]
	push	edx
	call	DWORD PTR __imp_?ReplaceStr@@YA?AV?$basic_string@GU?$char_traits@G@std@@V?$allocator@G@2@@std@@ABV12@00@Z
	add	esp, 16					; 00000010H
	mov	DWORD PTR tv93[ebp], eax
	mov	eax, DWORD PTR tv93[ebp]
	mov	DWORD PTR tv188[ebp], eax
	mov	BYTE PTR __$EHRec$[ebp+8], 4
	mov	ecx, DWORD PTR tv188[ebp]
	push	ecx
	lea	ecx, DWORD PTR _wscMsg$[ebp]
	call	DWORD PTR __imp_??4?$basic_string@GU?$char_traits@G@std@@V?$allocator@G@2@@std@@QAEAAV01@ABV01@@Z
	mov	BYTE PTR __$EHRec$[ebp+8], 3
	lea	ecx, DWORD PTR $T146770[ebp]
	call	DWORD PTR __imp_??1?$basic_string@GU?$char_traits@G@std@@V?$allocator@G@2@@std@@QAE@XZ
	mov	BYTE PTR __$EHRec$[ebp+8], 2
	lea	ecx, DWORD PTR $T146769[ebp]
	call	DWORD PTR __imp_??1?$basic_string@GU?$char_traits@G@std@@V?$allocator@G@2@@std@@QAE@XZ
; Line 228
	push	OFFSET $SG140975
	lea	ecx, DWORD PTR $T146773[ebp]
	call	DWORD PTR __imp_??0?$basic_string@GU?$char_traits@G@std@@V?$allocator@G@2@@std@@QAE@PBG@Z
	mov	BYTE PTR __$EHRec$[ebp+8], 5
	mov	edx, DWORD PTR _number$[ebp]
	push	edx
	lea	eax, DWORD PTR $T146771[ebp]
	push	eax
	call	DWORD PTR __imp_?itos@@YA?AV?$basic_string@DU?$char_traits@D@std@@V?$allocator@D@2@@std@@H@Z
	add	esp, 8
	mov	DWORD PTR tv148[ebp], eax
	mov	ecx, DWORD PTR tv148[ebp]
	mov	DWORD PTR tv191[ebp], ecx
	mov	BYTE PTR __$EHRec$[ebp+8], 6
	mov	edx, DWORD PTR tv191[ebp]
	push	edx
	lea	eax, DWORD PTR $T146772[ebp]
	push	eax
	call	DWORD PTR __imp_?stows@@YA?AV?$basic_string@GU?$char_traits@G@std@@V?$allocator@G@2@@std@@ABV?$basic_string@DU?$char_traits@D@std@@V?$allocator@D@2@@2@@Z
	add	esp, 8
	mov	DWORD PTR tv85[ebp], eax
	mov	ecx, DWORD PTR tv85[ebp]
	mov	DWORD PTR tv193[ebp], ecx
	mov	BYTE PTR __$EHRec$[ebp+8], 7
	mov	edx, DWORD PTR tv193[ebp]
	push	edx
	lea	eax, DWORD PTR $T146773[ebp]
	push	eax
	lea	ecx, DWORD PTR _wscMsg$[ebp]
	push	ecx
	lea	edx, DWORD PTR $T146774[ebp]
	push	edx
	call	DWORD PTR __imp_?ReplaceStr@@YA?AV?$basic_string@GU?$char_traits@G@std@@V?$allocator@G@2@@std@@ABV12@00@Z
	add	esp, 16					; 00000010H
	mov	DWORD PTR tv205[ebp], eax
	mov	eax, DWORD PTR tv205[ebp]
	mov	DWORD PTR tv195[ebp], eax
	mov	BYTE PTR __$EHRec$[ebp+8], 8
	mov	ecx, DWORD PTR tv195[ebp]
	push	ecx
	lea	ecx, DWORD PTR _wscMsg$[ebp]
	call	DWORD PTR __imp_??4?$basic_string@GU?$char_traits@G@std@@V?$allocator@G@2@@std@@QAEAAV01@ABV01@@Z
	mov	BYTE PTR __$EHRec$[ebp+8], 7
	lea	ecx, DWORD PTR $T146774[ebp]
	call	DWORD PTR __imp_??1?$basic_string@GU?$char_traits@G@std@@V?$allocator@G@2@@std@@QAE@XZ
	mov	BYTE PTR __$EHRec$[ebp+8], 6
	lea	ecx, DWORD PTR $T146772[ebp]
	call	DWORD PTR __imp_??1?$basic_string@GU?$char_traits@G@std@@V?$allocator@G@2@@std@@QAE@XZ
	mov	BYTE PTR __$EHRec$[ebp+8], 5
	lea	ecx, DWORD PTR $T146771[ebp]
	call	DWORD PTR __imp_??1?$basic_string@DU?$char_traits@D@std@@V?$allocator@D@2@@std@@QAE@XZ
	mov	BYTE PTR __$EHRec$[ebp+8], 2
	lea	ecx, DWORD PTR $T146773[ebp]
	call	DWORD PTR __imp_??1?$basic_string@GU?$char_traits@G@std@@V?$allocator@G@2@@std@@QAE@XZ
; Line 229
	push	OFFSET $SG140980
	lea	ecx, DWORD PTR $T146777[ebp]
	call	DWORD PTR __imp_??0?$basic_string@GU?$char_traits@G@std@@V?$allocator@G@2@@std@@QAE@PBG@Z
	mov	BYTE PTR __$EHRec$[ebp+8], 9
	mov	edx, DWORD PTR _max$[ebp]
	push	edx
	lea	eax, DWORD PTR $T146775[ebp]
	push	eax
	call	DWORD PTR __imp_?itos@@YA?AV?$basic_string@DU?$char_traits@D@std@@V?$allocator@D@2@@std@@H@Z
	add	esp, 8
	mov	DWORD PTR tv171[ebp], eax
	mov	ecx, DWORD PTR tv171[ebp]
	mov	DWORD PTR tv198[ebp], ecx
	mov	BYTE PTR __$EHRec$[ebp+8], 10		; 0000000aH
	mov	edx, DWORD PTR tv198[ebp]
	push	edx
	lea	eax, DWORD PTR $T146776[ebp]
	push	eax
	call	DWORD PTR __imp_?stows@@YA?AV?$basic_string@GU?$char_traits@G@std@@V?$allocator@G@2@@std@@ABV?$basic_string@DU?$char_traits@D@std@@V?$allocator@D@2@@2@@Z
	add	esp, 8
	mov	DWORD PTR tv206[ebp], eax
	mov	ecx, DWORD PTR tv206[ebp]
	mov	DWORD PTR tv200[ebp], ecx
	mov	BYTE PTR __$EHRec$[ebp+8], 11		; 0000000bH
	mov	edx, DWORD PTR tv200[ebp]
	push	edx
	lea	eax, DWORD PTR $T146777[ebp]
	push	eax
	lea	ecx, DWORD PTR _wscMsg$[ebp]
	push	ecx
	lea	edx, DWORD PTR $T146778[ebp]
	push	edx
	call	DWORD PTR __imp_?ReplaceStr@@YA?AV?$basic_string@GU?$char_traits@G@std@@V?$allocator@G@2@@std@@ABV12@00@Z
	add	esp, 16					; 00000010H
	mov	DWORD PTR tv207[ebp], eax
	mov	eax, DWORD PTR tv207[ebp]
	mov	DWORD PTR tv202[ebp], eax
	mov	BYTE PTR __$EHRec$[ebp+8], 12		; 0000000cH
	mov	ecx, DWORD PTR tv202[ebp]
	push	ecx
	lea	ecx, DWORD PTR _wscMsg$[ebp]
	call	DWORD PTR __imp_??4?$basic_string@GU?$char_traits@G@std@@V?$allocator@G@2@@std@@QAEAAV01@ABV01@@Z
	mov	BYTE PTR __$EHRec$[ebp+8], 11		; 0000000bH
	lea	ecx, DWORD PTR $T146778[ebp]
	call	DWORD PTR __imp_??1?$basic_string@GU?$char_traits@G@std@@V?$allocator@G@2@@std@@QAE@XZ
	mov	BYTE PTR __$EHRec$[ebp+8], 10		; 0000000aH
	lea	ecx, DWORD PTR $T146776[ebp]
	call	DWORD PTR __imp_??1?$basic_string@GU?$char_traits@G@std@@V?$allocator@G@2@@std@@QAE@XZ
	mov	BYTE PTR __$EHRec$[ebp+8], 9
	lea	ecx, DWORD PTR $T146775[ebp]
	call	DWORD PTR __imp_??1?$basic_string@DU?$char_traits@D@std@@V?$allocator@D@2@@std@@QAE@XZ
	mov	BYTE PTR __$EHRec$[ebp+8], 2
	lea	ecx, DWORD PTR $T146777[ebp]
	call	DWORD PTR __imp_??1?$basic_string@GU?$char_traits@G@std@@V?$allocator@G@2@@std@@QAE@XZ
; Line 230
	push	ecx
	fld	DWORD PTR __real@45bb8000
	fstp	DWORD PTR [esp]
	lea	edx, DWORD PTR _wscMsg$[ebp]
	push	edx
	mov	eax, DWORD PTR _iFromClientID$[ebp]
	push	eax
	call	?PrintLocalUserCmdText@@YAXIABV?$basic_string@GU?$char_traits@G@std@@V?$allocator@G@2@@std@@M@Z ; PrintLocalUserCmdText
	add	esp, 12					; 0000000cH
; Line 231
	mov	BYTE PTR $T146779[ebp], 1
	mov	BYTE PTR __$EHRec$[ebp+8], 0
	lea	ecx, DWORD PTR _wscMsg$[ebp]
	call	DWORD PTR __imp_??1?$basic_string@GU?$char_traits@G@std@@V?$allocator@G@2@@std@@QAE@XZ
	mov	DWORD PTR __$EHRec$[ebp+8], -1
	lea	ecx, DWORD PTR _wscCharname$[ebp]
	call	DWORD PTR __imp_??1?$basic_string@GU?$char_traits@G@std@@V?$allocator@G@2@@std@@QAE@XZ
	mov	al, BYTE PTR $T146779[ebp]
; Line 232
	mov	ecx, DWORD PTR __$EHRec$[ebp]
	mov	DWORD PTR fs:0, ecx
	pop	ecx
	mov	ecx, DWORD PTR __$ArrayPad$[ebp]
	xor	ecx, ebp
	call	@__security_check_cookie@4
	mov	esp, ebp
	pop	ebp
	ret	0
_TEXT	ENDS
text$x	SEGMENT
__unwindfunclet$?UserCmd_Dice@MiscCmds@@YA_NIABV?$basic_string@GU?$char_traits@G@std@@V?$allocator@G@2@@std@@0PBG@Z$0:
	lea	ecx, DWORD PTR _wscCharname$[ebp]
	jmp	DWORD PTR __imp_??1?$basic_string@GU?$char_traits@G@std@@V?$allocator@G@2@@std@@QAE@XZ
__unwindfunclet$?UserCmd_Dice@MiscCmds@@YA_NIABV?$basic_string@GU?$char_traits@G@std@@V?$allocator@G@2@@std@@0PBG@Z$1:
	lea	ecx, DWORD PTR $T146768[ebp]
	jmp	DWORD PTR __imp_??1?$basic_string@GU?$char_traits@G@std@@V?$allocator@G@2@@std@@QAE@XZ
__unwindfunclet$?UserCmd_Dice@MiscCmds@@YA_NIABV?$basic_string@GU?$char_traits@G@std@@V?$allocator@G@2@@std@@0PBG@Z$2:
	lea	ecx, DWORD PTR _wscMsg$[ebp]
	jmp	DWORD PTR __imp_??1?$basic_string@GU?$char_traits@G@std@@V?$allocator@G@2@@std@@QAE@XZ
__unwindfunclet$?UserCmd_Dice@MiscCmds@@YA_NIABV?$basic_string@GU?$char_traits@G@std@@V?$allocator@G@2@@std@@0PBG@Z$3:
	lea	ecx, DWORD PTR $T146769[ebp]
	jmp	DWORD PTR __imp_??1?$basic_string@GU?$char_traits@G@std@@V?$allocator@G@2@@std@@QAE@XZ
__unwindfunclet$?UserCmd_Dice@MiscCmds@@YA_NIABV?$basic_string@GU?$char_traits@G@std@@V?$allocator@G@2@@std@@0PBG@Z$4:
	lea	ecx, DWORD PTR $T146770[ebp]
	jmp	DWORD PTR __imp_??1?$basic_string@GU?$char_traits@G@std@@V?$allocator@G@2@@std@@QAE@XZ
__unwindfunclet$?UserCmd_Dice@MiscCmds@@YA_NIABV?$basic_string@GU?$char_traits@G@std@@V?$allocator@G@2@@std@@0PBG@Z$5:
	lea	ecx, DWORD PTR $T146773[ebp]
	jmp	DWORD PTR __imp_??1?$basic_string@GU?$char_traits@G@std@@V?$allocator@G@2@@std@@QAE@XZ
__unwindfunclet$?UserCmd_Dice@MiscCmds@@YA_NIABV?$basic_string@GU?$char_traits@G@std@@V?$allocator@G@2@@std@@0PBG@Z$6:
	lea	ecx, DWORD PTR $T146771[ebp]
	jmp	DWORD PTR __imp_??1?$basic_string@DU?$char_traits@D@std@@V?$allocator@D@2@@std@@QAE@XZ
__unwindfunclet$?UserCmd_Dice@MiscCmds@@YA_NIABV?$basic_string@GU?$char_traits@G@std@@V?$allocator@G@2@@std@@0PBG@Z$7:
	lea	ecx, DWORD PTR $T146772[ebp]
	jmp	DWORD PTR __imp_??1?$basic_string@GU?$char_traits@G@std@@V?$allocator@G@2@@std@@QAE@XZ
__unwindfunclet$?UserCmd_Dice@MiscCmds@@YA_NIABV?$basic_string@GU?$char_traits@G@std@@V?$allocator@G@2@@std@@0PBG@Z$8:
	lea	ecx, DWORD PTR $T146774[ebp]
	jmp	DWORD PTR __imp_??1?$basic_string@GU?$char_traits@G@std@@V?$allocator@G@2@@std@@QAE@XZ
__unwindfunclet$?UserCmd_Dice@MiscCmds@@YA_NIABV?$basic_string@GU?$char_traits@G@std@@V?$allocator@G@2@@std@@0PBG@Z$9:
	lea	ecx, DWORD PTR $T146777[ebp]
	jmp	DWORD PTR __imp_??1?$basic_string@GU?$char_traits@G@std@@V?$allocator@G@2@@std@@QAE@XZ
__unwindfunclet$?UserCmd_Dice@MiscCmds@@YA_NIABV?$basic_string@GU?$char_traits@G@std@@V?$allocator@G@2@@std@@0PBG@Z$10:
	lea	ecx, DWORD PTR $T146775[ebp]
	jmp	DWORD PTR __imp_??1?$basic_string@DU?$char_traits@D@std@@V?$allocator@D@2@@std@@QAE@XZ
__unwindfunclet$?UserCmd_Dice@MiscCmds@@YA_NIABV?$basic_string@GU?$char_traits@G@std@@V?$allocator@G@2@@std@@0PBG@Z$11:
	lea	ecx, DWORD PTR $T146776[ebp]
	jmp	DWORD PTR __imp_??1?$basic_string@GU?$char_traits@G@std@@V?$allocator@G@2@@std@@QAE@XZ
__unwindfunclet$?UserCmd_Dice@MiscCmds@@YA_NIABV?$basic_string@GU?$char_traits@G@std@@V?$allocator@G@2@@std@@0PBG@Z$12:
	lea	ecx, DWORD PTR $T146778[ebp]
	jmp	DWORD PTR __imp_??1?$basic_string@GU?$char_traits@G@std@@V?$allocator@G@2@@std@@QAE@XZ
__ehhandler$?UserCmd_Dice@MiscCmds@@YA_NIABV?$basic_string@GU?$char_traits@G@std@@V?$allocator@G@2@@std@@0PBG@Z:
	mov	edx, DWORD PTR [esp+8]
	lea	eax, DWORD PTR [edx+12]
	mov	ecx, DWORD PTR [edx-448]
	xor	ecx, eax
	call	@__security_check_cookie@4
	mov	ecx, DWORD PTR [edx-4]
	xor	ecx, eax
	call	@__security_check_cookie@4
	mov	eax, OFFSET __ehfuncinfo$?UserCmd_Dice@MiscCmds@@YA_NIABV?$basic_string@GU?$char_traits@G@std@@V?$allocator@G@2@@std@@0PBG@Z
	jmp	___CxxFrameHandler3
text$x	ENDS
?UserCmd_Dice@MiscCmds@@YA_NIABV?$basic_string@GU?$char_traits@G@std@@V?$allocator@G@2@@std@@0PBG@Z ENDP ; MiscCmds::UserCmd_Dice
PUBLIC	__$ArrayPad$
PUBLIC	?UserCmd_Coin@MiscCmds@@YA_NIABV?$basic_string@GU?$char_traits@G@std@@V?$allocator@G@2@@std@@0PBG@Z ; MiscCmds::UserCmd_Coin
xdata$x	SEGMENT
__ehfuncinfo$?UserCmd_Coin@MiscCmds@@YA_NIABV?$basic_string@GU?$char_traits@G@std@@V?$allocator@G@2@@std@@0PBG@Z DD 019930522H
	DD	07H
	DD	FLAT:__unwindtable$?UserCmd_Coin@MiscCmds@@YA_NIABV?$basic_string@GU?$char_traits@G@std@@V?$allocator@G@2@@std@@0PBG@Z
	DD	2 DUP(00H)
	DD	2 DUP(00H)
	DD	00H
	DD	00H
__unwindtable$?UserCmd_Coin@MiscCmds@@YA_NIABV?$basic_string@GU?$char_traits@G@std@@V?$allocator@G@2@@std@@0PBG@Z DD 0ffffffffH
	DD	FLAT:__unwindfunclet$?UserCmd_Coin@MiscCmds@@YA_NIABV?$basic_string@GU?$char_traits@G@std@@V?$allocator@G@2@@std@@0PBG@Z$0
	DD	00H
	DD	FLAT:__unwindfunclet$?UserCmd_Coin@MiscCmds@@YA_NIABV?$basic_string@GU?$char_traits@G@std@@V?$allocator@G@2@@std@@0PBG@Z$1
	DD	01H
	DD	FLAT:__unwindfunclet$?UserCmd_Coin@MiscCmds@@YA_NIABV?$basic_string@GU?$char_traits@G@std@@V?$allocator@G@2@@std@@0PBG@Z$2
	DD	02H
	DD	FLAT:__unwindfunclet$?UserCmd_Coin@MiscCmds@@YA_NIABV?$basic_string@GU?$char_traits@G@std@@V?$allocator@G@2@@std@@0PBG@Z$3
	DD	01H
	DD	FLAT:__unwindfunclet$?UserCmd_Coin@MiscCmds@@YA_NIABV?$basic_string@GU?$char_traits@G@std@@V?$allocator@G@2@@std@@0PBG@Z$4
	DD	04H
	DD	FLAT:__unwindfunclet$?UserCmd_Coin@MiscCmds@@YA_NIABV?$basic_string@GU?$char_traits@G@std@@V?$allocator@G@2@@std@@0PBG@Z$5
	DD	05H
	DD	FLAT:__unwindfunclet$?UserCmd_Coin@MiscCmds@@YA_NIABV?$basic_string@GU?$char_traits@G@std@@V?$allocator@G@2@@std@@0PBG@Z$6
; Function compile flags: /Odtp
xdata$x	ENDS
_TEXT	SEGMENT
tv152 = -240						; size = 4
tv133 = -236						; size = 4
tv128 = -232						; size = 4
tv148 = -228						; size = 4
tv82 = -224						; size = 4
$T146806 = -217						; size = 1
$T146805 = -216						; size = 28
$T146804 = -188						; size = 28
$T146801 = -160						; size = 28
$T146800 = -132						; size = 28
$T146799 = -104						; size = 28
_number$ = -76						; size = 4
_wscCharname$ = -72					; size = 28
_wscMsg$ = -44						; size = 28
__$ArrayPad$ = -16					; size = 4
__$EHRec$ = -12						; size = 12
_iFromClientID$ = 8					; size = 4
_wscCmd$ = 12						; size = 4
_wscParam$ = 16						; size = 4
_usage$ = 20						; size = 4
?UserCmd_Coin@MiscCmds@@YA_NIABV?$basic_string@GU?$char_traits@G@std@@V?$allocator@G@2@@std@@0PBG@Z PROC ; MiscCmds::UserCmd_Coin
; Line 236
	push	ebp
	mov	ebp, esp
	push	-1
	push	__ehhandler$?UserCmd_Coin@MiscCmds@@YA_NIABV?$basic_string@GU?$char_traits@G@std@@V?$allocator@G@2@@std@@0PBG@Z
	mov	eax, DWORD PTR fs:0
	push	eax
	sub	esp, 228				; 000000e4H
	mov	eax, DWORD PTR ___security_cookie
	xor	eax, ebp
	mov	DWORD PTR __$ArrayPad$[ebp], eax
	push	eax
	lea	eax, DWORD PTR __$EHRec$[ebp]
	mov	DWORD PTR fs:0, eax
; Line 237
	mov	eax, DWORD PTR _iFromClientID$[ebp]
	push	eax
	mov	ecx, DWORD PTR __imp_?Players@@3VPlayerDB@@A
	call	DWORD PTR __imp_?GetActiveCharacterName@PlayerDB@@QBEPBGI@Z
	push	eax
	lea	ecx, DWORD PTR _wscCharname$[ebp]
	call	DWORD PTR __imp_??0?$basic_string@GU?$char_traits@G@std@@V?$allocator@G@2@@std@@QAE@PBG@Z
	mov	DWORD PTR __$EHRec$[ebp+8], 0
; Line 239
	call	DWORD PTR __imp__rand
	and	eax, -2147483647			; 80000001H
	jns	SHORT $LN13@UserCmd_Co
	dec	eax
	or	eax, -2					; fffffffeH
	inc	eax
$LN13@UserCmd_Co:
	mov	DWORD PTR _number$[ebp], eax
; Line 240
	push	OFFSET ?set_wscCoinMsg@MiscCmds@@3V?$basic_string@GU?$char_traits@G@std@@V?$allocator@G@2@@std@@A ; MiscCmds::set_wscCoinMsg
	lea	ecx, DWORD PTR _wscMsg$[ebp]
	call	DWORD PTR __imp_??0?$basic_string@GU?$char_traits@G@std@@V?$allocator@G@2@@std@@QAE@ABV01@@Z
	mov	BYTE PTR __$EHRec$[ebp+8], 1
; Line 241
	push	OFFSET $SG140994
	lea	ecx, DWORD PTR $T146799[ebp]
	call	DWORD PTR __imp_??0?$basic_string@GU?$char_traits@G@std@@V?$allocator@G@2@@std@@QAE@PBG@Z
	mov	BYTE PTR __$EHRec$[ebp+8], 2
	lea	ecx, DWORD PTR _wscCharname$[ebp]
	push	ecx
	lea	edx, DWORD PTR $T146799[ebp]
	push	edx
	lea	eax, DWORD PTR _wscMsg$[ebp]
	push	eax
	lea	ecx, DWORD PTR $T146800[ebp]
	push	ecx
	call	DWORD PTR __imp_?ReplaceStr@@YA?AV?$basic_string@GU?$char_traits@G@std@@V?$allocator@G@2@@std@@ABV12@00@Z
	add	esp, 16					; 00000010H
	mov	DWORD PTR tv82[ebp], eax
	mov	edx, DWORD PTR tv82[ebp]
	mov	DWORD PTR tv148[ebp], edx
	mov	BYTE PTR __$EHRec$[ebp+8], 3
	mov	eax, DWORD PTR tv148[ebp]
	push	eax
	lea	ecx, DWORD PTR _wscMsg$[ebp]
	call	DWORD PTR __imp_??4?$basic_string@GU?$char_traits@G@std@@V?$allocator@G@2@@std@@QAEAAV01@ABV01@@Z
	mov	BYTE PTR __$EHRec$[ebp+8], 2
	lea	ecx, DWORD PTR $T146800[ebp]
	call	DWORD PTR __imp_??1?$basic_string@GU?$char_traits@G@std@@V?$allocator@G@2@@std@@QAE@XZ
	mov	BYTE PTR __$EHRec$[ebp+8], 1
	lea	ecx, DWORD PTR $T146799[ebp]
	call	DWORD PTR __imp_??1?$basic_string@GU?$char_traits@G@std@@V?$allocator@G@2@@std@@QAE@XZ
; Line 242
	cmp	DWORD PTR _number$[ebp], 1
	jne	SHORT $LN3@UserCmd_Co
	mov	DWORD PTR tv128[ebp], OFFSET $SG140998
	jmp	SHORT $LN4@UserCmd_Co
$LN3@UserCmd_Co:
	mov	DWORD PTR tv128[ebp], OFFSET $SG140999
$LN4@UserCmd_Co:
	mov	ecx, DWORD PTR tv128[ebp]
	push	ecx
	lea	ecx, DWORD PTR $T146801[ebp]
	call	DWORD PTR __imp_??0?$basic_string@GU?$char_traits@G@std@@V?$allocator@G@2@@std@@QAE@PBG@Z
	mov	BYTE PTR __$EHRec$[ebp+8], 4
	push	OFFSET $SG141000
	lea	ecx, DWORD PTR $T146804[ebp]
	call	DWORD PTR __imp_??0?$basic_string@GU?$char_traits@G@std@@V?$allocator@G@2@@std@@QAE@PBG@Z
	mov	BYTE PTR __$EHRec$[ebp+8], 5
	lea	edx, DWORD PTR $T146801[ebp]
	push	edx
	lea	eax, DWORD PTR $T146804[ebp]
	push	eax
	lea	ecx, DWORD PTR _wscMsg$[ebp]
	push	ecx
	lea	edx, DWORD PTR $T146805[ebp]
	push	edx
	call	DWORD PTR __imp_?ReplaceStr@@YA?AV?$basic_string@GU?$char_traits@G@std@@V?$allocator@G@2@@std@@ABV12@00@Z
	add	esp, 16					; 00000010H
	mov	DWORD PTR tv133[ebp], eax
	mov	eax, DWORD PTR tv133[ebp]
	mov	DWORD PTR tv152[ebp], eax
	mov	BYTE PTR __$EHRec$[ebp+8], 6
	mov	ecx, DWORD PTR tv152[ebp]
	push	ecx
	lea	ecx, DWORD PTR _wscMsg$[ebp]
	call	DWORD PTR __imp_??4?$basic_string@GU?$char_traits@G@std@@V?$allocator@G@2@@std@@QAEAAV01@ABV01@@Z
	mov	BYTE PTR __$EHRec$[ebp+8], 5
	lea	ecx, DWORD PTR $T146805[ebp]
	call	DWORD PTR __imp_??1?$basic_string@GU?$char_traits@G@std@@V?$allocator@G@2@@std@@QAE@XZ
	mov	BYTE PTR __$EHRec$[ebp+8], 4
	lea	ecx, DWORD PTR $T146804[ebp]
	call	DWORD PTR __imp_??1?$basic_string@GU?$char_traits@G@std@@V?$allocator@G@2@@std@@QAE@XZ
	mov	BYTE PTR __$EHRec$[ebp+8], 1
	lea	ecx, DWORD PTR $T146801[ebp]
	call	DWORD PTR __imp_??1?$basic_string@GU?$char_traits@G@std@@V?$allocator@G@2@@std@@QAE@XZ
; Line 243
	push	ecx
	fld	DWORD PTR __real@45bb8000
	fstp	DWORD PTR [esp]
	lea	edx, DWORD PTR _wscMsg$[ebp]
	push	edx
	mov	eax, DWORD PTR _iFromClientID$[ebp]
	push	eax
	call	?PrintLocalUserCmdText@@YAXIABV?$basic_string@GU?$char_traits@G@std@@V?$allocator@G@2@@std@@M@Z ; PrintLocalUserCmdText
	add	esp, 12					; 0000000cH
; Line 244
	mov	BYTE PTR $T146806[ebp], 1
	mov	BYTE PTR __$EHRec$[ebp+8], 0
	lea	ecx, DWORD PTR _wscMsg$[ebp]
	call	DWORD PTR __imp_??1?$basic_string@GU?$char_traits@G@std@@V?$allocator@G@2@@std@@QAE@XZ
	mov	DWORD PTR __$EHRec$[ebp+8], -1
	lea	ecx, DWORD PTR _wscCharname$[ebp]
	call	DWORD PTR __imp_??1?$basic_string@GU?$char_traits@G@std@@V?$allocator@G@2@@std@@QAE@XZ
	mov	al, BYTE PTR $T146806[ebp]
; Line 245
	mov	ecx, DWORD PTR __$EHRec$[ebp]
	mov	DWORD PTR fs:0, ecx
	pop	ecx
	mov	ecx, DWORD PTR __$ArrayPad$[ebp]
	xor	ecx, ebp
	call	@__security_check_cookie@4
	mov	esp, ebp
	pop	ebp
	ret	0
_TEXT	ENDS
text$x	SEGMENT
__unwindfunclet$?UserCmd_Coin@MiscCmds@@YA_NIABV?$basic_string@GU?$char_traits@G@std@@V?$allocator@G@2@@std@@0PBG@Z$0:
	lea	ecx, DWORD PTR _wscCharname$[ebp]
	jmp	DWORD PTR __imp_??1?$basic_string@GU?$char_traits@G@std@@V?$allocator@G@2@@std@@QAE@XZ
__unwindfunclet$?UserCmd_Coin@MiscCmds@@YA_NIABV?$basic_string@GU?$char_traits@G@std@@V?$allocator@G@2@@std@@0PBG@Z$1:
	lea	ecx, DWORD PTR _wscMsg$[ebp]
	jmp	DWORD PTR __imp_??1?$basic_string@GU?$char_traits@G@std@@V?$allocator@G@2@@std@@QAE@XZ
__unwindfunclet$?UserCmd_Coin@MiscCmds@@YA_NIABV?$basic_string@GU?$char_traits@G@std@@V?$allocator@G@2@@std@@0PBG@Z$2:
	lea	ecx, DWORD PTR $T146799[ebp]
	jmp	DWORD PTR __imp_??1?$basic_string@GU?$char_traits@G@std@@V?$allocator@G@2@@std@@QAE@XZ
__unwindfunclet$?UserCmd_Coin@MiscCmds@@YA_NIABV?$basic_string@GU?$char_traits@G@std@@V?$allocator@G@2@@std@@0PBG@Z$3:
	lea	ecx, DWORD PTR $T146800[ebp]
	jmp	DWORD PTR __imp_??1?$basic_string@GU?$char_traits@G@std@@V?$allocator@G@2@@std@@QAE@XZ
__unwindfunclet$?UserCmd_Coin@MiscCmds@@YA_NIABV?$basic_string@GU?$char_traits@G@std@@V?$allocator@G@2@@std@@0PBG@Z$4:
	lea	ecx, DWORD PTR $T146801[ebp]
	jmp	DWORD PTR __imp_??1?$basic_string@GU?$char_traits@G@std@@V?$allocator@G@2@@std@@QAE@XZ
__unwindfunclet$?UserCmd_Coin@MiscCmds@@YA_NIABV?$basic_string@GU?$char_traits@G@std@@V?$allocator@G@2@@std@@0PBG@Z$5:
	lea	ecx, DWORD PTR $T146804[ebp]
	jmp	DWORD PTR __imp_??1?$basic_string@GU?$char_traits@G@std@@V?$allocator@G@2@@std@@QAE@XZ
__unwindfunclet$?UserCmd_Coin@MiscCmds@@YA_NIABV?$basic_string@GU?$char_traits@G@std@@V?$allocator@G@2@@std@@0PBG@Z$6:
	lea	ecx, DWORD PTR $T146805[ebp]
	jmp	DWORD PTR __imp_??1?$basic_string@GU?$char_traits@G@std@@V?$allocator@G@2@@std@@QAE@XZ
__ehhandler$?UserCmd_Coin@MiscCmds@@YA_NIABV?$basic_string@GU?$char_traits@G@std@@V?$allocator@G@2@@std@@0PBG@Z:
	mov	edx, DWORD PTR [esp+8]
	lea	eax, DWORD PTR [edx+12]
	mov	ecx, DWORD PTR [edx-232]
	xor	ecx, eax
	call	@__security_check_cookie@4
	mov	ecx, DWORD PTR [edx-4]
	xor	ecx, eax
	call	@__security_check_cookie@4
	mov	eax, OFFSET __ehfuncinfo$?UserCmd_Coin@MiscCmds@@YA_NIABV?$basic_string@GU?$char_traits@G@std@@V?$allocator@G@2@@std@@0PBG@Z
	jmp	___CxxFrameHandler3
text$x	ENDS
?UserCmd_Coin@MiscCmds@@YA_NIABV?$basic_string@GU?$char_traits@G@std@@V?$allocator@G@2@@std@@0PBG@Z ENDP ; MiscCmds::UserCmd_Coin
PUBLIC	__real@40cd4b8000000000
PUBLIC	__$ArrayPad$
PUBLIC	?AdminCmd_SmiteAll@MiscCmds@@YAXPAVCCmds@@@Z	; MiscCmds::AdminCmd_SmiteAll
EXTRN	?HkLightFuse@@YGXPAUIObjRW@@IMMM@Z:PROC		; HkLightFuse
EXTRN	__imp_?HkGetInspect@@YAPAUIObjInspectImpl@@I@Z:PROC
EXTRN	?HkDistance3D@@YAMVVector@@0@Z:PROC		; HkDistance3D
EXTRN	__imp_?GetShip@Player@pub@@YAHABIAAI@Z:PROC
EXTRN	__imp_?GetSystem@Player@pub@@YAHABIAAI@Z:PROC
EXTRN	__imp_?HkGetClientIdFromPD@@YAIPAUPlayerData@@@Z:PROC
EXTRN	__imp_?traverse_active@PlayerDB@@QBEPAUPlayerData@@PAU2@@Z:PROC
EXTRN	__imp_?SetMusic@Audio@pub@@YAHIABUTryptich@12@@Z:PROC
EXTRN	__imp_??$?8GU?$char_traits@G@std@@V?$allocator@G@1@@std@@YA_NABV?$basic_string@GU?$char_traits@G@std@@V?$allocator@G@2@@0@PBG@Z:PROC
EXTRN	__imp_?ArgStr@CCmds@@QAE?AV?$basic_string@GU?$char_traits@G@std@@V?$allocator@G@2@@std@@I@Z:PROC
EXTRN	__imp_?Print@CCmds@@QAAXV?$basic_string@GU?$char_traits@G@std@@V?$allocator@G@2@@std@@ZZ:PROC
;	COMDAT __real@40cd4b8000000000
CONST	SEGMENT
__real@40cd4b8000000000 DQ 040cd4b8000000000r	; 14999
CONST	ENDS
xdata$x	SEGMENT
__ehfuncinfo$?AdminCmd_SmiteAll@MiscCmds@@YAXPAVCCmds@@@Z DD 019930522H
	DD	06H
	DD	FLAT:__unwindtable$?AdminCmd_SmiteAll@MiscCmds@@YAXPAVCCmds@@@Z
	DD	2 DUP(00H)
	DD	2 DUP(00H)
	DD	00H
	DD	00H
__unwindtable$?AdminCmd_SmiteAll@MiscCmds@@YAXPAVCCmds@@@Z DD 0ffffffffH
	DD	FLAT:__unwindfunclet$?AdminCmd_SmiteAll@MiscCmds@@YAXPAVCCmds@@@Z$0
	DD	0ffffffffH
	DD	FLAT:__unwindfunclet$?AdminCmd_SmiteAll@MiscCmds@@YAXPAVCCmds@@@Z$1
	DD	01H
	DD	FLAT:__unwindfunclet$?AdminCmd_SmiteAll@MiscCmds@@YAXPAVCCmds@@@Z$2
	DD	01H
	DD	FLAT:__unwindfunclet$?AdminCmd_SmiteAll@MiscCmds@@YAXPAVCCmds@@@Z$3
	DD	01H
	DD	FLAT:__unwindfunclet$?AdminCmd_SmiteAll@MiscCmds@@YAXPAVCCmds@@@Z$4
	DD	01H
	DD	FLAT:__unwindfunclet$?AdminCmd_SmiteAll@MiscCmds@@YAXPAVCCmds@@@Z$5
; Function compile flags: /Odtp
xdata$x	ENDS
_TEXT	SEGMENT
tv263 = -544						; size = 4
tv270 = -540						; size = 4
tv261 = -536						; size = 4
tv269 = -532						; size = 4
tv258 = -528						; size = 4
tv267 = -524						; size = 4
tv129 = -520						; size = 4
tv254 = -516						; size = 4
tv82 = -512						; size = 4
tv248 = -508						; size = 4
tv265 = -504						; size = 4
$T146831 = -500						; size = 4
$T146828 = -496						; size = 4
$T146827 = -492						; size = 28
$T146826 = -464						; size = 4
$T146823 = -460						; size = 28
$T146822 = -429						; size = 1
$T146821 = -428						; size = 4
_obj$141035 = -424					; size = 4
_iClientID$141024 = -420				; size = 4
_mShipDir$141030 = -416					; size = 36
_music$141033 = -380					; size = 16
_vShipLoc$141029 = -364					; size = 12
_iClientSystem$141026 = -352				; size = 4
_iShip$141028 = -348					; size = 4
_fDistance$141031 = -344				; size = 4
_adminPlyr$ = -340					; size = 244
__$ArrayPad$ = -88					; size = 4
_vFromShipLoc$ = -84					; size = 12
_music$ = -72						; size = 16
_bKillAll$ = -53					; size = 1
_pPD$ = -52						; size = 4
_mFromShipDir$ = -48					; size = 36
__$EHRec$ = -12						; size = 12
_cmds$ = 8						; size = 4
?AdminCmd_SmiteAll@MiscCmds@@YAXPAVCCmds@@@Z PROC	; MiscCmds::AdminCmd_SmiteAll
; Line 249
	push	ebp
	mov	ebp, esp
	push	-1
	push	__ehhandler$?AdminCmd_SmiteAll@MiscCmds@@YAXPAVCCmds@@@Z
	mov	eax, DWORD PTR fs:0
	push	eax
	sub	esp, 532				; 00000214H
	mov	eax, DWORD PTR ___security_cookie
	xor	eax, ebp
	mov	DWORD PTR __$ArrayPad$[ebp], eax
	push	eax
	lea	eax, DWORD PTR __$EHRec$[ebp]
	mov	DWORD PTR fs:0, eax
	mov	DWORD PTR $T146831[ebp], 0
; Line 250
	mov	eax, DWORD PTR _cmds$[ebp]
	cmp	DWORD PTR [eax+8], 0
	jne	SHORT $LN9@AdminCmd_S
; Line 252
	sub	esp, 28					; 0000001cH
	mov	ecx, esp
	mov	DWORD PTR $T146821[ebp], esp
	push	OFFSET $SG141007
	call	DWORD PTR __imp_??0?$basic_string@GU?$char_traits@G@std@@V?$allocator@G@2@@std@@QAE@PBG@Z
	mov	DWORD PTR tv265[ebp], eax
	mov	ecx, DWORD PTR tv265[ebp]
	mov	DWORD PTR tv248[ebp], ecx
	mov	DWORD PTR __$EHRec$[ebp+8], 0
	mov	edx, DWORD PTR _cmds$[ebp]
	push	edx
	mov	DWORD PTR __$EHRec$[ebp+8], -1
	call	DWORD PTR __imp_?Print@CCmds@@QAAXV?$basic_string@GU?$char_traits@G@std@@V?$allocator@G@2@@std@@ZZ
	add	esp, 32					; 00000020H
; Line 253
	jmp	$LN10@AdminCmd_S
$LN9@AdminCmd_S:
; Line 256
	lea	ecx, DWORD PTR _adminPlyr$[ebp]
	call	??0HKPLAYERINFO@@QAE@XZ
	mov	DWORD PTR __$EHRec$[ebp+8], 1
; Line 257
	push	0
	lea	eax, DWORD PTR _adminPlyr$[ebp]
	push	eax
	lea	ecx, DWORD PTR $T146823[ebp]
	push	ecx
	mov	edx, DWORD PTR _cmds$[ebp]
	mov	eax, DWORD PTR [edx]
	mov	ecx, DWORD PTR _cmds$[ebp]
	mov	edx, DWORD PTR [eax+4]
	call	edx
	mov	DWORD PTR tv82[ebp], eax
	mov	eax, DWORD PTR tv82[ebp]
	mov	DWORD PTR tv254[ebp], eax
	mov	BYTE PTR __$EHRec$[ebp+8], 2
	mov	ecx, DWORD PTR $T146831[ebp]
	or	ecx, 1
	mov	DWORD PTR $T146831[ebp], ecx
	mov	edx, DWORD PTR tv254[ebp]
	push	edx
	call	DWORD PTR __imp_?HkGetPlayerInfo@@YA?AW4HK_ERROR@@ABV?$basic_string@GU?$char_traits@G@std@@V?$allocator@G@2@@std@@AAUHKPLAYERINFO@@_N@Z
	add	esp, 12					; 0000000cH
	test	eax, eax
	jne	SHORT $LN12@AdminCmd_S
	cmp	DWORD PTR _adminPlyr$[ebp+92], 0
	je	SHORT $LN12@AdminCmd_S
	mov	DWORD PTR tv129[ebp], 0
	jmp	SHORT $LN13@AdminCmd_S
$LN12@AdminCmd_S:
	mov	DWORD PTR tv129[ebp], 1
$LN13@AdminCmd_S:
	mov	al, BYTE PTR tv129[ebp]
	mov	BYTE PTR $T146822[ebp], al
	mov	DWORD PTR __$EHRec$[ebp+8], 1
	mov	ecx, DWORD PTR $T146831[ebp]
	and	ecx, 1
	je	SHORT $LN18@AdminCmd_S
	and	DWORD PTR $T146831[ebp], -2		; fffffffeH
	lea	ecx, DWORD PTR $T146823[ebp]
	call	DWORD PTR __imp_??1?$basic_string@GU?$char_traits@G@std@@V?$allocator@G@2@@std@@QAE@XZ
$LN18@AdminCmd_S:
	movzx	edx, BYTE PTR $T146822[ebp]
	test	edx, edx
	je	SHORT $LN8@AdminCmd_S
; Line 259
	sub	esp, 28					; 0000001cH
	mov	ecx, esp
	mov	DWORD PTR $T146826[ebp], esp
	push	OFFSET $SG141013
	call	DWORD PTR __imp_??0?$basic_string@GU?$char_traits@G@std@@V?$allocator@G@2@@std@@QAE@PBG@Z
	mov	DWORD PTR tv267[ebp], eax
	mov	eax, DWORD PTR tv267[ebp]
	mov	DWORD PTR tv258[ebp], eax
	mov	BYTE PTR __$EHRec$[ebp+8], 3
	mov	ecx, DWORD PTR _cmds$[ebp]
	push	ecx
	mov	BYTE PTR __$EHRec$[ebp+8], 1
	call	DWORD PTR __imp_?Print@CCmds@@QAAXV?$basic_string@GU?$char_traits@G@std@@V?$allocator@G@2@@std@@ZZ
	add	esp, 32					; 00000020H
; Line 260
	mov	DWORD PTR __$EHRec$[ebp+8], -1
	lea	ecx, DWORD PTR _adminPlyr$[ebp]
	call	??1HKPLAYERINFO@@QAE@XZ
	jmp	$LN10@AdminCmd_S
$LN8@AdminCmd_S:
; Line 263
	push	OFFSET $SG141016
	push	1
	lea	edx, DWORD PTR $T146827[ebp]
	push	edx
	mov	ecx, DWORD PTR _cmds$[ebp]
	call	DWORD PTR __imp_?ArgStr@CCmds@@QAE?AV?$basic_string@GU?$char_traits@G@std@@V?$allocator@G@2@@std@@I@Z
	mov	DWORD PTR tv269[ebp], eax
	mov	eax, DWORD PTR tv269[ebp]
	mov	DWORD PTR tv261[ebp], eax
	mov	BYTE PTR __$EHRec$[ebp+8], 4
	mov	ecx, DWORD PTR tv261[ebp]
	push	ecx
	call	DWORD PTR __imp_??$?8GU?$char_traits@G@std@@V?$allocator@G@1@@std@@YA_NABV?$basic_string@GU?$char_traits@G@std@@V?$allocator@G@2@@0@PBG@Z
	add	esp, 8
	mov	BYTE PTR _bKillAll$[ebp], al
	mov	BYTE PTR __$EHRec$[ebp+8], 1
	lea	ecx, DWORD PTR $T146827[ebp]
	call	DWORD PTR __imp_??1?$basic_string@GU?$char_traits@G@std@@V?$allocator@G@2@@std@@QAE@XZ
; Line 267
	lea	edx, DWORD PTR _mFromShipDir$[ebp]
	push	edx
	lea	eax, DWORD PTR _vFromShipLoc$[ebp]
	push	eax
	mov	ecx, DWORD PTR _adminPlyr$[ebp+92]
	push	ecx
	call	DWORD PTR __imp_?GetLocation@SpaceObj@pub@@YAHIAAVVector@@AAVMatrix@@@Z
	add	esp, 12					; 0000000cH
; Line 270
	mov	DWORD PTR _music$[ebp], 0
; Line 271
	mov	DWORD PTR _music$[ebp+4], 0
; Line 272
	mov	DWORD PTR _music$[ebp+8], 0
; Line 273
	mov	edx, DWORD PTR ?set_iSmiteMusicID@MiscCmds@@3IA ; MiscCmds::set_iSmiteMusicID
	mov	DWORD PTR _music$[ebp+12], edx
; Line 274
	lea	eax, DWORD PTR _music$[ebp]
	push	eax
	mov	ecx, DWORD PTR _adminPlyr$[ebp]
	push	ecx
	call	DWORD PTR __imp_?SetMusic@Audio@pub@@YAHIABUTryptich@12@@Z
	add	esp, 8
; Line 277
	mov	DWORD PTR _pPD$[ebp], 0
$LN24@AdminCmd_S:
; Line 278
	mov	edx, DWORD PTR _pPD$[ebp]
	push	edx
	mov	ecx, DWORD PTR __imp_?Players@@3VPlayerDB@@A
	call	DWORD PTR __imp_?traverse_active@PlayerDB@@QBEPAUPlayerData@@PAU2@@Z
	mov	DWORD PTR _pPD$[ebp], eax
	cmp	DWORD PTR _pPD$[ebp], 0
	je	$LN6@AdminCmd_S
; Line 281
	mov	eax, DWORD PTR _pPD$[ebp]
	push	eax
	call	DWORD PTR __imp_?HkGetClientIdFromPD@@YAIPAUPlayerData@@@Z
	add	esp, 4
	mov	DWORD PTR _iClientID$141024[ebp], eax
; Line 282
	mov	ecx, DWORD PTR _iClientID$141024[ebp]
	cmp	ecx, DWORD PTR _adminPlyr$[ebp]
	jne	SHORT $LN5@AdminCmd_S
; Line 283
	jmp	SHORT $LN24@AdminCmd_S
$LN5@AdminCmd_S:
; Line 285
	mov	DWORD PTR _iClientSystem$141026[ebp], 0
; Line 286
	lea	edx, DWORD PTR _iClientSystem$141026[ebp]
	push	edx
	lea	eax, DWORD PTR _iClientID$141024[ebp]
	push	eax
	call	DWORD PTR __imp_?GetSystem@Player@pub@@YAHABIAAI@Z
	add	esp, 8
; Line 287
	mov	ecx, DWORD PTR _adminPlyr$[ebp+88]
	cmp	ecx, DWORD PTR _iClientSystem$141026[ebp]
	je	SHORT $LN4@AdminCmd_S
; Line 288
	jmp	SHORT $LN24@AdminCmd_S
$LN4@AdminCmd_S:
; Line 291
	lea	edx, DWORD PTR _iShip$141028[ebp]
	push	edx
	lea	eax, DWORD PTR _iClientID$141024[ebp]
	push	eax
	call	DWORD PTR __imp_?GetShip@Player@pub@@YAHABIAAI@Z
	add	esp, 8
; Line 295
	lea	ecx, DWORD PTR _mShipDir$141030[ebp]
	push	ecx
	lea	edx, DWORD PTR _vShipLoc$141029[ebp]
	push	edx
	mov	eax, DWORD PTR _iShip$141028[ebp]
	push	eax
	call	DWORD PTR __imp_?GetLocation@SpaceObj@pub@@YAHIAAVVector@@AAVMatrix@@@Z
; Line 298
	mov	ecx, esp
	mov	edx, DWORD PTR _vFromShipLoc$[ebp]
	mov	DWORD PTR [ecx], edx
	mov	eax, DWORD PTR _vFromShipLoc$[ebp+4]
	mov	DWORD PTR [ecx+4], eax
	mov	edx, DWORD PTR _vFromShipLoc$[ebp+8]
	mov	DWORD PTR [ecx+8], edx
	sub	esp, 12					; 0000000cH
	mov	eax, esp
	mov	ecx, DWORD PTR _vShipLoc$141029[ebp]
	mov	DWORD PTR [eax], ecx
	mov	edx, DWORD PTR _vShipLoc$141029[ebp+4]
	mov	DWORD PTR [eax+4], edx
	mov	ecx, DWORD PTR _vShipLoc$141029[ebp+8]
	mov	DWORD PTR [eax+8], ecx
	call	?HkDistance3D@@YAMVVector@@0@Z		; HkDistance3D
	add	esp, 24					; 00000018H
	fstp	DWORD PTR _fDistance$141031[ebp]
; Line 299
	fld	DWORD PTR _fDistance$141031[ebp]
	fcomp	QWORD PTR __real@40cd4b8000000000
	fnstsw	ax
	test	ah, 65					; 00000041H
	jne	SHORT $LN3@AdminCmd_S
; Line 300
	jmp	$LN24@AdminCmd_S
$LN3@AdminCmd_S:
; Line 303
	mov	DWORD PTR _music$141033[ebp], 0
; Line 304
	mov	DWORD PTR _music$141033[ebp+4], 0
; Line 305
	mov	DWORD PTR _music$141033[ebp+8], 0
; Line 306
	mov	edx, DWORD PTR ?set_iSmiteMusicID@MiscCmds@@3IA ; MiscCmds::set_iSmiteMusicID
	mov	DWORD PTR _music$141033[ebp+12], edx
; Line 307
	lea	eax, DWORD PTR _music$141033[ebp]
	push	eax
	mov	ecx, DWORD PTR _iClientID$141024[ebp]
	push	ecx
	call	DWORD PTR __imp_?SetMusic@Audio@pub@@YAHIABUTryptich@12@@Z
	add	esp, 8
; Line 309
	lea	edx, DWORD PTR _iClientID$141024[ebp]
	push	edx
	mov	ecx, OFFSET ?mapInfo@MiscCmds@@3V?$map@IUINFO@MiscCmds@@U?$less@I@std@@V?$allocator@U?$pair@$$CBIUINFO@MiscCmds@@@std@@@4@@std@@A ; MiscCmds::mapInfo
	call	??A?$map@IUINFO@MiscCmds@@U?$less@I@std@@V?$allocator@U?$pair@$$CBIUINFO@MiscCmds@@@std@@@4@@std@@QAEAAUINFO@MiscCmds@@ABI@Z ; std::map<unsigned int,MiscCmds::INFO,std::less<unsigned int>,std::allocator<std::pair<unsigned int const ,MiscCmds::INFO> > >::operator[]
	mov	BYTE PTR [eax+1], 1
; Line 311
	movzx	eax, BYTE PTR _bKillAll$[ebp]
	test	eax, eax
	je	SHORT $LN1@AdminCmd_S
; Line 313
	mov	ecx, DWORD PTR _iClientID$141024[ebp]
	push	ecx
	call	DWORD PTR __imp_?HkGetInspect@@YAPAUIObjInspectImpl@@I@Z
	add	esp, 4
	mov	DWORD PTR _obj$141035[ebp], eax
; Line 314
	cmp	DWORD PTR _obj$141035[ebp], 0
	je	SHORT $LN1@AdminCmd_S
; Line 316
	push	ecx
	fldz
	fstp	DWORD PTR [esp]
	push	ecx
	fldz
	fstp	DWORD PTR [esp]
	push	ecx
	fldz
	fstp	DWORD PTR [esp]
	push	OFFSET $SG141038
	call	DWORD PTR __imp_?CreateID@@YAIPBD@Z
	add	esp, 4
	push	eax
	mov	edx, DWORD PTR _obj$141035[ebp]
	push	edx
	call	?HkLightFuse@@YGXPAUIObjRW@@IMMM@Z	; HkLightFuse
$LN1@AdminCmd_S:
; Line 319
	jmp	$LN24@AdminCmd_S
$LN6@AdminCmd_S:
; Line 321
	sub	esp, 28					; 0000001cH
	mov	ecx, esp
	mov	DWORD PTR $T146828[ebp], esp
	push	OFFSET $SG141040
	call	DWORD PTR __imp_??0?$basic_string@GU?$char_traits@G@std@@V?$allocator@G@2@@std@@QAE@PBG@Z
	mov	DWORD PTR tv270[ebp], eax
	mov	eax, DWORD PTR tv270[ebp]
	mov	DWORD PTR tv263[ebp], eax
	mov	BYTE PTR __$EHRec$[ebp+8], 5
	mov	ecx, DWORD PTR _cmds$[ebp]
	push	ecx
	mov	BYTE PTR __$EHRec$[ebp+8], 1
	call	DWORD PTR __imp_?Print@CCmds@@QAAXV?$basic_string@GU?$char_traits@G@std@@V?$allocator@G@2@@std@@ZZ
	add	esp, 32					; 00000020H
; Line 322
	mov	DWORD PTR __$EHRec$[ebp+8], -1
	lea	ecx, DWORD PTR _adminPlyr$[ebp]
	call	??1HKPLAYERINFO@@QAE@XZ
$LN10@AdminCmd_S:
; Line 323
	mov	ecx, DWORD PTR __$EHRec$[ebp]
	mov	DWORD PTR fs:0, ecx
	pop	ecx
	mov	ecx, DWORD PTR __$ArrayPad$[ebp]
	xor	ecx, ebp
	call	@__security_check_cookie@4
	mov	esp, ebp
	pop	ebp
	ret	0
_TEXT	ENDS
text$x	SEGMENT
__unwindfunclet$?AdminCmd_SmiteAll@MiscCmds@@YAXPAVCCmds@@@Z$0:
	mov	ecx, DWORD PTR $T146821[ebp]
	jmp	DWORD PTR __imp_??1?$basic_string@GU?$char_traits@G@std@@V?$allocator@G@2@@std@@QAE@XZ
__unwindfunclet$?AdminCmd_SmiteAll@MiscCmds@@YAXPAVCCmds@@@Z$1:
	lea	ecx, DWORD PTR _adminPlyr$[ebp]
	jmp	??1HKPLAYERINFO@@QAE@XZ
__unwindfunclet$?AdminCmd_SmiteAll@MiscCmds@@YAXPAVCCmds@@@Z$2:
	mov	eax, DWORD PTR $T146831[ebp]
	and	eax, 1
	je	$LN17@AdminCmd_S
	and	DWORD PTR $T146831[ebp], -2		; fffffffeH
	lea	ecx, DWORD PTR $T146823[ebp]
	jmp	DWORD PTR __imp_??1?$basic_string@GU?$char_traits@G@std@@V?$allocator@G@2@@std@@QAE@XZ
$LN17@AdminCmd_S:
	ret	0
__unwindfunclet$?AdminCmd_SmiteAll@MiscCmds@@YAXPAVCCmds@@@Z$3:
	mov	ecx, DWORD PTR $T146826[ebp]
	jmp	DWORD PTR __imp_??1?$basic_string@GU?$char_traits@G@std@@V?$allocator@G@2@@std@@QAE@XZ
__unwindfunclet$?AdminCmd_SmiteAll@MiscCmds@@YAXPAVCCmds@@@Z$4:
	lea	ecx, DWORD PTR $T146827[ebp]
	jmp	DWORD PTR __imp_??1?$basic_string@GU?$char_traits@G@std@@V?$allocator@G@2@@std@@QAE@XZ
__unwindfunclet$?AdminCmd_SmiteAll@MiscCmds@@YAXPAVCCmds@@@Z$5:
	mov	ecx, DWORD PTR $T146828[ebp]
	jmp	DWORD PTR __imp_??1?$basic_string@GU?$char_traits@G@std@@V?$allocator@G@2@@std@@QAE@XZ
__ehhandler$?AdminCmd_SmiteAll@MiscCmds@@YAXPAVCCmds@@@Z:
	mov	edx, DWORD PTR [esp+8]
	lea	eax, DWORD PTR [edx+12]
	mov	ecx, DWORD PTR [edx-536]
	xor	ecx, eax
	call	@__security_check_cookie@4
	mov	ecx, DWORD PTR [edx-76]
	xor	ecx, eax
	call	@__security_check_cookie@4
	mov	eax, OFFSET __ehfuncinfo$?AdminCmd_SmiteAll@MiscCmds@@YAXPAVCCmds@@@Z
	jmp	___CxxFrameHandler3
text$x	ENDS
?AdminCmd_SmiteAll@MiscCmds@@YAXPAVCCmds@@@Z ENDP	; MiscCmds::AdminCmd_SmiteAll
PUBLIC	?UserCmd_Lights@MiscCmds@@YA_NIABV?$basic_string@GU?$char_traits@G@std@@V?$allocator@G@2@@std@@0PBG@Z ; MiscCmds::UserCmd_Lights
; Function compile flags: /Odtp
_TEXT	SEGMENT
_iClientID$ = 8						; size = 4
_wscCmd$ = 12						; size = 4
_wscParam$ = 16						; size = 4
_usage$ = 20						; size = 4
?UserCmd_Lights@MiscCmds@@YA_NIABV?$basic_string@GU?$char_traits@G@std@@V?$allocator@G@2@@std@@0PBG@Z PROC ; MiscCmds::UserCmd_Lights
; Line 358
	push	ebp
	mov	ebp, esp
	push	ebx
; Line 359
	lea	eax, DWORD PTR _iClientID$[ebp]
	push	eax
	mov	ecx, OFFSET ?mapInfo@MiscCmds@@3V?$map@IUINFO@MiscCmds@@U?$less@I@std@@V?$allocator@U?$pair@$$CBIUINFO@MiscCmds@@@std@@@4@@std@@A ; MiscCmds::mapInfo
	call	??A?$map@IUINFO@MiscCmds@@U?$less@I@std@@V?$allocator@U?$pair@$$CBIUINFO@MiscCmds@@@std@@@4@@std@@QAEAAUINFO@MiscCmds@@ABI@Z ; std::map<unsigned int,MiscCmds::INFO,std::less<unsigned int>,std::allocator<std::pair<unsigned int const ,MiscCmds::INFO> > >::operator[]
	movzx	ebx, BYTE PTR [eax]
	neg	ebx
	sbb	ebx, ebx
	add	ebx, 1
	lea	ecx, DWORD PTR _iClientID$[ebp]
	push	ecx
	mov	ecx, OFFSET ?mapInfo@MiscCmds@@3V?$map@IUINFO@MiscCmds@@U?$less@I@std@@V?$allocator@U?$pair@$$CBIUINFO@MiscCmds@@@std@@@4@@std@@A ; MiscCmds::mapInfo
	call	??A?$map@IUINFO@MiscCmds@@U?$less@I@std@@V?$allocator@U?$pair@$$CBIUINFO@MiscCmds@@@std@@@4@@std@@QAEAAUINFO@MiscCmds@@ABI@Z ; std::map<unsigned int,MiscCmds::INFO,std::less<unsigned int>,std::allocator<std::pair<unsigned int const ,MiscCmds::INFO> > >::operator[]
	mov	BYTE PTR [eax], bl
; Line 360
	lea	edx, DWORD PTR _iClientID$[ebp]
	push	edx
	mov	ecx, OFFSET ?mapInfo@MiscCmds@@3V?$map@IUINFO@MiscCmds@@U?$less@I@std@@V?$allocator@U?$pair@$$CBIUINFO@MiscCmds@@@std@@@4@@std@@A ; MiscCmds::mapInfo
	call	??A?$map@IUINFO@MiscCmds@@U?$less@I@std@@V?$allocator@U?$pair@$$CBIUINFO@MiscCmds@@@std@@@4@@std@@QAEAAUINFO@MiscCmds@@ABI@Z ; std::map<unsigned int,MiscCmds::INFO,std::less<unsigned int>,std::allocator<std::pair<unsigned int const ,MiscCmds::INFO> > >::operator[]
	movzx	eax, BYTE PTR [eax]
	push	eax
	mov	ecx, DWORD PTR _iClientID$[ebp]
	push	ecx
	call	?SetLights@MiscCmds@@YAXI_N@Z		; MiscCmds::SetLights
	add	esp, 8
; Line 361
	mov	al, 1
; Line 362
	pop	ebx
	pop	ebp
	ret	0
?UserCmd_Lights@MiscCmds@@YA_NIABV?$basic_string@GU?$char_traits@G@std@@V?$allocator@G@2@@std@@0PBG@Z ENDP ; MiscCmds::UserCmd_Lights
_TEXT	ENDS
PUBLIC	??C?$_Iterator@$00@?$list@UEquipDesc@@V?$allocator@UEquipDesc@@@std@@@std@@QBEPAUEquipDesc@@XZ ; std::list<EquipDesc,std::allocator<EquipDesc> >::_Iterator<1>::operator->
PUBLIC	??9?$_Const_iterator@$00@?$list@UEquipDesc@@V?$allocator@UEquipDesc@@@std@@@std@@QBE_NABV012@@Z ; std::list<EquipDesc,std::allocator<EquipDesc> >::_Const_iterator<1>::operator!=
PUBLIC	?end@?$list@UEquipDesc@@V?$allocator@UEquipDesc@@@std@@@std@@QAE?AV?$_Iterator@$00@12@XZ ; std::list<EquipDesc,std::allocator<EquipDesc> >::end
PUBLIC	??E?$_Iterator@$00@?$list@UEquipDesc@@V?$allocator@UEquipDesc@@@std@@@std@@QAE?AV012@H@Z ; std::list<EquipDesc,std::allocator<EquipDesc> >::_Iterator<1>::operator++
PUBLIC	?begin@?$list@UEquipDesc@@V?$allocator@UEquipDesc@@@std@@@std@@QAE?AV?$_Iterator@$00@12@XZ ; std::list<EquipDesc,std::allocator<EquipDesc> >::begin
PUBLIC	__$ArrayPad$
EXTRN	__imp_?ActivateEquip@IServerImpl@@UAEXIABUXActivateEquip@@@Z:PROC
EXTRN	__imp__Server:BYTE
EXTRN	__imp_?npos@?$basic_string@DU?$char_traits@D@std@@V?$allocator@D@2@@std@@2IB:DWORD
EXTRN	__imp_?find@?$basic_string@DU?$char_traits@D@std@@V?$allocator@D@2@@std@@QBEIPBDI@Z:PROC
EXTRN	__imp_?ToLower@@YA?AV?$basic_string@DU?$char_traits@D@std@@V?$allocator@D@2@@std@@ABV12@@Z:PROC
EXTRN	__imp_??APlayerDB@@QAEAAUPlayerData@@ABI@Z:PROC
xdata$x	SEGMENT
__ehfuncinfo$?SetLights@MiscCmds@@YAXI_N@Z DD 019930522H
	DD	06H
	DD	FLAT:__unwindtable$?SetLights@MiscCmds@@YAXI_N@Z
	DD	2 DUP(00H)
	DD	2 DUP(00H)
	DD	00H
	DD	00H
__unwindtable$?SetLights@MiscCmds@@YAXI_N@Z DD 0ffffffffH
	DD	FLAT:__unwindfunclet$?SetLights@MiscCmds@@YAXI_N@Z$0
	DD	0ffffffffH
	DD	FLAT:__unwindfunclet$?SetLights@MiscCmds@@YAXI_N@Z$1
	DD	01H
	DD	FLAT:__unwindfunclet$?SetLights@MiscCmds@@YAXI_N@Z$2
	DD	0ffffffffH
	DD	FLAT:__unwindfunclet$?SetLights@MiscCmds@@YAXI_N@Z$2
	DD	0ffffffffH
	DD	FLAT:__unwindfunclet$?SetLights@MiscCmds@@YAXI_N@Z$3
	DD	0ffffffffH
	DD	FLAT:__unwindfunclet$?SetLights@MiscCmds@@YAXI_N@Z$4
; Function compile flags: /Odtp
xdata$x	ENDS
_TEXT	SEGMENT
tv207 = -156						; size = 4
tv142 = -152						; size = 4
tv205 = -148						; size = 4
tv140 = -144						; size = 4
tv167 = -140						; size = 4
tv200 = -136						; size = 4
tv208 = -132						; size = 4
$T146857 = -128						; size = 4
$T146856 = -124						; size = 4
$T146853 = -120						; size = 28
$T146852 = -92						; size = 8
$T146851 = -84						; size = 8
$T146850 = -76						; size = 4
_ActivateEq$141206 = -72				; size = 8
_hp$141201 = -64					; size = 28
__$ArrayPad$ = -36					; size = 4
_eq$141194 = -32					; size = 8
_bLights$ = -21						; size = 1
_iShip$ = -20						; size = 4
_eqLst$ = -16						; size = 4
__$EHRec$ = -12						; size = 12
_iClientID$ = 8						; size = 4
_bOn$ = 12						; size = 1
?SetLights@MiscCmds@@YAXI_N@Z PROC			; MiscCmds::SetLights
; Line 326
	push	ebp
	mov	ebp, esp
	push	-1
	push	__ehhandler$?SetLights@MiscCmds@@YAXI_N@Z
	mov	eax, DWORD PTR fs:0
	push	eax
	sub	esp, 144				; 00000090H
	mov	eax, DWORD PTR ___security_cookie
	xor	eax, ebp
	mov	DWORD PTR __$ArrayPad$[ebp], eax
	push	eax
	lea	eax, DWORD PTR __$EHRec$[ebp]
	mov	DWORD PTR fs:0, eax
; Line 328
	lea	eax, DWORD PTR _iShip$[ebp]
	push	eax
	lea	ecx, DWORD PTR _iClientID$[ebp]
	push	ecx
	call	DWORD PTR __imp_?GetShip@Player@pub@@YAHABIAAI@Z
	add	esp, 8
; Line 329
	cmp	DWORD PTR _iShip$[ebp], 0
	jne	SHORT $LN7@SetLights
; Line 331
	sub	esp, 28					; 0000001cH
	mov	ecx, esp
	mov	DWORD PTR $T146850[ebp], esp
	push	OFFSET $SG141048
	call	DWORD PTR __imp_??0?$basic_string@GU?$char_traits@G@std@@V?$allocator@G@2@@std@@QAE@PBG@Z
	mov	DWORD PTR tv208[ebp], eax
	mov	edx, DWORD PTR tv208[ebp]
	mov	DWORD PTR tv200[ebp], edx
	mov	DWORD PTR __$EHRec$[ebp+8], 0
	mov	eax, DWORD PTR _iClientID$[ebp]
	push	eax
	mov	DWORD PTR __$EHRec$[ebp+8], -1
	call	DWORD PTR __imp_?PrintUserCmdText@@YAXIV?$basic_string@GU?$char_traits@G@std@@V?$allocator@G@2@@std@@ZZ
	add	esp, 32					; 00000020H
; Line 332
	jmp	$LN8@SetLights
$LN7@SetLights:
; Line 335
	mov	BYTE PTR _bLights$[ebp], 0
; Line 336
	lea	ecx, DWORD PTR _iClientID$[ebp]
	push	ecx
	mov	ecx, DWORD PTR __imp_?Players@@3VPlayerDB@@A
	call	DWORD PTR __imp_??APlayerDB@@QAEAAUPlayerData@@ABI@Z
	add	eax, 636				; 0000027cH
	mov	DWORD PTR _eqLst$[ebp], eax
; Line 337
	lea	edx, DWORD PTR _eq$141194[ebp]
	push	edx
	mov	ecx, DWORD PTR _eqLst$[ebp]
	call	?begin@?$list@UEquipDesc@@V?$allocator@UEquipDesc@@@std@@@std@@QAE?AV?$_Iterator@$00@12@XZ ; std::list<EquipDesc,std::allocator<EquipDesc> >::begin
	jmp	SHORT $LN6@SetLights
$LN5@SetLights:
	push	0
	lea	eax, DWORD PTR $T146851[ebp]
	push	eax
	lea	ecx, DWORD PTR _eq$141194[ebp]
	call	??E?$_Iterator@$00@?$list@UEquipDesc@@V?$allocator@UEquipDesc@@@std@@@std@@QAE?AV012@H@Z ; std::list<EquipDesc,std::allocator<EquipDesc> >::_Iterator<1>::operator++
$LN6@SetLights:
	lea	ecx, DWORD PTR $T146852[ebp]
	push	ecx
	mov	ecx, DWORD PTR _eqLst$[ebp]
	call	?end@?$list@UEquipDesc@@V?$allocator@UEquipDesc@@@std@@@std@@QAE?AV?$_Iterator@$00@12@XZ ; std::list<EquipDesc,std::allocator<EquipDesc> >::end
	push	eax
	lea	ecx, DWORD PTR _eq$141194[ebp]
	call	??9?$_Const_iterator@$00@?$list@UEquipDesc@@V?$allocator@UEquipDesc@@@std@@@std@@QBE_NABV012@@Z ; std::list<EquipDesc,std::allocator<EquipDesc> >::_Const_iterator<1>::operator!=
	movzx	edx, al
	test	edx, edx
	je	$LN4@SetLights
; Line 339
	lea	ecx, DWORD PTR _eq$141194[ebp]
	call	??C?$_Iterator@$00@?$list@UEquipDesc@@V?$allocator@UEquipDesc@@@std@@@std@@QBEPAUEquipDesc@@XZ ; std::list<EquipDesc,std::allocator<EquipDesc> >::_Iterator<1>::operator->
	mov	eax, DWORD PTR [eax+8]
	push	eax
	lea	ecx, DWORD PTR $T146853[ebp]
	call	DWORD PTR __imp_??0?$basic_string@DU?$char_traits@D@std@@V?$allocator@D@2@@std@@QAE@PBD@Z
	mov	DWORD PTR __$EHRec$[ebp+8], 1
	lea	ecx, DWORD PTR $T146853[ebp]
	push	ecx
	lea	edx, DWORD PTR _hp$141201[ebp]
	push	edx
	call	DWORD PTR __imp_?ToLower@@YA?AV?$basic_string@DU?$char_traits@D@std@@V?$allocator@D@2@@std@@ABV12@@Z
	add	esp, 8
	mov	BYTE PTR __$EHRec$[ebp+8], 3
	lea	ecx, DWORD PTR $T146853[ebp]
	call	DWORD PTR __imp_??1?$basic_string@DU?$char_traits@D@std@@V?$allocator@D@2@@std@@QAE@XZ
; Line 340
	push	0
	push	OFFSET $SG141205
	lea	ecx, DWORD PTR _hp$141201[ebp]
	call	DWORD PTR __imp_?find@?$basic_string@DU?$char_traits@D@std@@V?$allocator@D@2@@std@@QBEIPBDI@Z
	mov	ecx, DWORD PTR __imp_?npos@?$basic_string@DU?$char_traits@D@std@@V?$allocator@D@2@@std@@2IB
	cmp	eax, DWORD PTR [ecx]
	je	SHORT $LN3@SetLights
; Line 343
	mov	dl, BYTE PTR _bOn$[ebp]
	mov	BYTE PTR _ActivateEq$141206[ebp+6], dl
; Line 344
	mov	eax, DWORD PTR _iShip$[ebp]
	mov	DWORD PTR _ActivateEq$141206[ebp], eax
; Line 345
	lea	ecx, DWORD PTR _eq$141194[ebp]
	call	??C?$_Iterator@$00@?$list@UEquipDesc@@V?$allocator@UEquipDesc@@@std@@@std@@QBEPAUEquipDesc@@XZ ; std::list<EquipDesc,std::allocator<EquipDesc> >::_Iterator<1>::operator->
	mov	cx, WORD PTR [eax+2]
	mov	WORD PTR _ActivateEq$141206[ebp+4], cx
; Line 346
	lea	edx, DWORD PTR _ActivateEq$141206[ebp]
	push	edx
	mov	eax, DWORD PTR _iClientID$[ebp]
	push	eax
	mov	ecx, DWORD PTR __imp__Server
	call	DWORD PTR __imp_?ActivateEquip@IServerImpl@@UAEXIABUXActivateEquip@@@Z
; Line 347
	mov	BYTE PTR _bLights$[ebp], 1
$LN3@SetLights:
; Line 349
	mov	DWORD PTR __$EHRec$[ebp+8], -1
	lea	ecx, DWORD PTR _hp$141201[ebp]
	call	DWORD PTR __imp_??1?$basic_string@DU?$char_traits@D@std@@V?$allocator@D@2@@std@@QAE@XZ
	jmp	$LN5@SetLights
$LN4@SetLights:
; Line 351
	movzx	ecx, BYTE PTR _bLights$[ebp]
	test	ecx, ecx
	je	SHORT $LN2@SetLights
; Line 352
	movzx	edx, BYTE PTR _bOn$[ebp]
	test	edx, edx
	je	SHORT $LN10@SetLights
	mov	DWORD PTR tv167[ebp], OFFSET $SG141209
	jmp	SHORT $LN11@SetLights
$LN10@SetLights:
	mov	DWORD PTR tv167[ebp], OFFSET $SG141210
$LN11@SetLights:
	mov	eax, DWORD PTR tv167[ebp]
	push	eax
	sub	esp, 28					; 0000001cH
	mov	ecx, esp
	mov	DWORD PTR $T146856[ebp], esp
	push	OFFSET $SG141211
	call	DWORD PTR __imp_??0?$basic_string@GU?$char_traits@G@std@@V?$allocator@G@2@@std@@QAE@PBG@Z
	mov	DWORD PTR tv140[ebp], eax
	mov	ecx, DWORD PTR tv140[ebp]
	mov	DWORD PTR tv205[ebp], ecx
	mov	DWORD PTR __$EHRec$[ebp+8], 4
	mov	edx, DWORD PTR _iClientID$[ebp]
	push	edx
	mov	DWORD PTR __$EHRec$[ebp+8], -1
	call	DWORD PTR __imp_?PrintUserCmdText@@YAXIV?$basic_string@GU?$char_traits@G@std@@V?$allocator@G@2@@std@@ZZ
	add	esp, 36					; 00000024H
; Line 353
	jmp	SHORT $LN8@SetLights
$LN2@SetLights:
; Line 354
	sub	esp, 28					; 0000001cH
	mov	ecx, esp
	mov	DWORD PTR $T146857[ebp], esp
	push	OFFSET $SG141214
	call	DWORD PTR __imp_??0?$basic_string@GU?$char_traits@G@std@@V?$allocator@G@2@@std@@QAE@PBG@Z
	mov	DWORD PTR tv142[ebp], eax
	mov	eax, DWORD PTR tv142[ebp]
	mov	DWORD PTR tv207[ebp], eax
	mov	DWORD PTR __$EHRec$[ebp+8], 5
	mov	ecx, DWORD PTR _iClientID$[ebp]
	push	ecx
	mov	DWORD PTR __$EHRec$[ebp+8], -1
	call	DWORD PTR __imp_?PrintUserCmdText@@YAXIV?$basic_string@GU?$char_traits@G@std@@V?$allocator@G@2@@std@@ZZ
	add	esp, 32					; 00000020H
$LN8@SetLights:
; Line 355
	mov	ecx, DWORD PTR __$EHRec$[ebp]
	mov	DWORD PTR fs:0, ecx
	pop	ecx
	mov	ecx, DWORD PTR __$ArrayPad$[ebp]
	xor	ecx, ebp
	call	@__security_check_cookie@4
	mov	esp, ebp
	pop	ebp
	ret	0
_TEXT	ENDS
text$x	SEGMENT
__unwindfunclet$?SetLights@MiscCmds@@YAXI_N@Z$0:
	mov	ecx, DWORD PTR $T146850[ebp]
	jmp	DWORD PTR __imp_??1?$basic_string@GU?$char_traits@G@std@@V?$allocator@G@2@@std@@QAE@XZ
__unwindfunclet$?SetLights@MiscCmds@@YAXI_N@Z$1:
	lea	ecx, DWORD PTR $T146853[ebp]
	jmp	DWORD PTR __imp_??1?$basic_string@DU?$char_traits@D@std@@V?$allocator@D@2@@std@@QAE@XZ
__unwindfunclet$?SetLights@MiscCmds@@YAXI_N@Z$2:
	lea	ecx, DWORD PTR _hp$141201[ebp]
	jmp	DWORD PTR __imp_??1?$basic_string@DU?$char_traits@D@std@@V?$allocator@D@2@@std@@QAE@XZ
__unwindfunclet$?SetLights@MiscCmds@@YAXI_N@Z$3:
	mov	ecx, DWORD PTR $T146856[ebp]
	jmp	DWORD PTR __imp_??1?$basic_string@GU?$char_traits@G@std@@V?$allocator@G@2@@std@@QAE@XZ
__unwindfunclet$?SetLights@MiscCmds@@YAXI_N@Z$4:
	mov	ecx, DWORD PTR $T146857[ebp]
	jmp	DWORD PTR __imp_??1?$basic_string@GU?$char_traits@G@std@@V?$allocator@G@2@@std@@QAE@XZ
__ehhandler$?SetLights@MiscCmds@@YAXI_N@Z:
	mov	edx, DWORD PTR [esp+8]
	lea	eax, DWORD PTR [edx+12]
	mov	ecx, DWORD PTR [edx-148]
	xor	ecx, eax
	call	@__security_check_cookie@4
	mov	ecx, DWORD PTR [edx-24]
	xor	ecx, eax
	call	@__security_check_cookie@4
	mov	eax, OFFSET __ehfuncinfo$?SetLights@MiscCmds@@YAXI_N@Z
	jmp	___CxxFrameHandler3
text$x	ENDS
?SetLights@MiscCmds@@YAXI_N@Z ENDP			; MiscCmds::SetLights
PUBLIC	?BaseEnter@MiscCmds@@YAXII@Z			; MiscCmds::BaseEnter
; Function compile flags: /Odtp
_TEXT	SEGMENT
_iBaseID$ = 8						; size = 4
_iClientID$ = 12					; size = 4
?BaseEnter@MiscCmds@@YAXII@Z PROC			; MiscCmds::BaseEnter
; Line 365
	push	ebp
	mov	ebp, esp
; Line 366
	pop	ebp
	ret	0
?BaseEnter@MiscCmds@@YAXII@Z ENDP			; MiscCmds::BaseEnter
_TEXT	ENDS
PUBLIC	?UserCmd_SelfDestruct@MiscCmds@@YA_NIABV?$basic_string@GU?$char_traits@G@std@@V?$allocator@G@2@@std@@0PBG@Z ; MiscCmds::UserCmd_SelfDestruct
xdata$x	SEGMENT
__ehfuncinfo$?UserCmd_SelfDestruct@MiscCmds@@YA_NIABV?$basic_string@GU?$char_traits@G@std@@V?$allocator@G@2@@std@@0PBG@Z DD 019930522H
	DD	06H
	DD	FLAT:__unwindtable$?UserCmd_SelfDestruct@MiscCmds@@YA_NIABV?$basic_string@GU?$char_traits@G@std@@V?$allocator@G@2@@std@@0PBG@Z
	DD	2 DUP(00H)
	DD	2 DUP(00H)
	DD	00H
	DD	00H
__unwindtable$?UserCmd_SelfDestruct@MiscCmds@@YA_NIABV?$basic_string@GU?$char_traits@G@std@@V?$allocator@G@2@@std@@0PBG@Z DD 0ffffffffH
	DD	FLAT:__unwindfunclet$?UserCmd_SelfDestruct@MiscCmds@@YA_NIABV?$basic_string@GU?$char_traits@G@std@@V?$allocator@G@2@@std@@0PBG@Z$0
	DD	0ffffffffH
	DD	FLAT:__unwindfunclet$?UserCmd_SelfDestruct@MiscCmds@@YA_NIABV?$basic_string@GU?$char_traits@G@std@@V?$allocator@G@2@@std@@0PBG@Z$1
	DD	0ffffffffH
	DD	FLAT:__unwindfunclet$?UserCmd_SelfDestruct@MiscCmds@@YA_NIABV?$basic_string@GU?$char_traits@G@std@@V?$allocator@G@2@@std@@0PBG@Z$2
	DD	0ffffffffH
	DD	FLAT:__unwindfunclet$?UserCmd_SelfDestruct@MiscCmds@@YA_NIABV?$basic_string@GU?$char_traits@G@std@@V?$allocator@G@2@@std@@0PBG@Z$3
	DD	0ffffffffH
	DD	FLAT:__unwindfunclet$?UserCmd_SelfDestruct@MiscCmds@@YA_NIABV?$basic_string@GU?$char_traits@G@std@@V?$allocator@G@2@@std@@0PBG@Z$4
	DD	0ffffffffH
	DD	FLAT:__unwindfunclet$?UserCmd_SelfDestruct@MiscCmds@@YA_NIABV?$basic_string@GU?$char_traits@G@std@@V?$allocator@G@2@@std@@0PBG@Z$5
; Function compile flags: /Odtp
xdata$x	ENDS
_TEXT	SEGMENT
tv216 = -88						; size = 4
tv222 = -84						; size = 4
tv214 = -80						; size = 4
tv221 = -76						; size = 4
tv212 = -72						; size = 4
tv220 = -68						; size = 4
tv210 = -64						; size = 4
tv219 = -60						; size = 4
tv208 = -56						; size = 4
tv218 = -52						; size = 4
tv206 = -48						; size = 4
tv217 = -44						; size = 4
$T146874 = -40						; size = 4
$T146873 = -36						; size = 4
$T146872 = -32						; size = 4
$T146871 = -28						; size = 4
$T146870 = -24						; size = 4
$T146869 = -20						; size = 4
_obj$ = -16						; size = 4
__$EHRec$ = -12						; size = 12
_iClientID$ = 8						; size = 4
_wscCmd$ = 12						; size = 4
_wscParam$ = 16						; size = 4
_usage$ = 20						; size = 4
?UserCmd_SelfDestruct@MiscCmds@@YA_NIABV?$basic_string@GU?$char_traits@G@std@@V?$allocator@G@2@@std@@0PBG@Z PROC ; MiscCmds::UserCmd_SelfDestruct
; Line 369
	push	ebp
	mov	ebp, esp
	push	-1
	push	__ehhandler$?UserCmd_SelfDestruct@MiscCmds@@YA_NIABV?$basic_string@GU?$char_traits@G@std@@V?$allocator@G@2@@std@@0PBG@Z
	mov	eax, DWORD PTR fs:0
	push	eax
	sub	esp, 76					; 0000004cH
	mov	eax, DWORD PTR ___security_cookie
	xor	eax, ebp
	push	eax
	lea	eax, DWORD PTR __$EHRec$[ebp]
	mov	DWORD PTR fs:0, eax
; Line 370
	mov	eax, DWORD PTR _iClientID$[ebp]
	push	eax
	call	DWORD PTR __imp_?HkGetInspect@@YAPAUIObjInspectImpl@@I@Z
	add	esp, 4
	mov	DWORD PTR _obj$[ebp], eax
; Line 371
	cmp	DWORD PTR _obj$[ebp], 0
	jne	SHORT $LN3@UserCmd_Se
; Line 373
	sub	esp, 28					; 0000001cH
	mov	ecx, esp
	mov	DWORD PTR $T146869[ebp], esp
	push	OFFSET $SG141234
	call	DWORD PTR __imp_??0?$basic_string@GU?$char_traits@G@std@@V?$allocator@G@2@@std@@QAE@PBG@Z
	mov	DWORD PTR tv217[ebp], eax
	mov	ecx, DWORD PTR tv217[ebp]
	mov	DWORD PTR tv206[ebp], ecx
	mov	DWORD PTR __$EHRec$[ebp+8], 0
	mov	edx, DWORD PTR _iClientID$[ebp]
	push	edx
	mov	DWORD PTR __$EHRec$[ebp+8], -1
	call	DWORD PTR __imp_?PrintUserCmdText@@YAXIV?$basic_string@GU?$char_traits@G@std@@V?$allocator@G@2@@std@@ZZ
	add	esp, 32					; 00000020H
; Line 374
	mov	al, 1
	jmp	$LN4@UserCmd_Se
$LN3@UserCmd_Se:
; Line 377
	push	OFFSET $SG141236
	mov	eax, DWORD PTR _wscParam$[ebp]
	push	eax
	call	DWORD PTR __imp_??$?8GU?$char_traits@G@std@@V?$allocator@G@1@@std@@YA_NABV?$basic_string@GU?$char_traits@G@std@@V?$allocator@G@2@@0@PBG@Z
	add	esp, 8
	movzx	ecx, al
	test	ecx, ecx
	je	$LN2@UserCmd_Se
; Line 379
	sub	esp, 28					; 0000001cH
	mov	ecx, esp
	mov	DWORD PTR $T146870[ebp], esp
	push	OFFSET $SG141238
	call	DWORD PTR __imp_??0?$basic_string@GU?$char_traits@G@std@@V?$allocator@G@2@@std@@QAE@PBG@Z
	mov	DWORD PTR tv218[ebp], eax
	mov	edx, DWORD PTR tv218[ebp]
	mov	DWORD PTR tv208[ebp], edx
	mov	DWORD PTR __$EHRec$[ebp+8], 1
	mov	eax, DWORD PTR _iClientID$[ebp]
	push	eax
	mov	DWORD PTR __$EHRec$[ebp+8], -1
	call	DWORD PTR __imp_?PrintUserCmdText@@YAXIV?$basic_string@GU?$char_traits@G@std@@V?$allocator@G@2@@std@@ZZ
	add	esp, 32					; 00000020H
; Line 380
	sub	esp, 28					; 0000001cH
	mov	ecx, esp
	mov	DWORD PTR $T146871[ebp], esp
	push	OFFSET $SG141240
	call	DWORD PTR __imp_??0?$basic_string@GU?$char_traits@G@std@@V?$allocator@G@2@@std@@QAE@PBG@Z
	mov	DWORD PTR tv219[ebp], eax
	mov	ecx, DWORD PTR tv219[ebp]
	mov	DWORD PTR tv210[ebp], ecx
	mov	DWORD PTR __$EHRec$[ebp+8], 2
	mov	edx, DWORD PTR _iClientID$[ebp]
	push	edx
	mov	DWORD PTR __$EHRec$[ebp+8], -1
	call	DWORD PTR __imp_?PrintUserCmdText@@YAXIV?$basic_string@GU?$char_traits@G@std@@V?$allocator@G@2@@std@@ZZ
	add	esp, 32					; 00000020H
; Line 381
	push	ecx
	fldz
	fstp	DWORD PTR [esp]
	push	ecx
	fldz
	fstp	DWORD PTR [esp]
	push	ecx
	fldz
	fstp	DWORD PTR [esp]
	push	OFFSET $SG141242
	call	DWORD PTR __imp_?CreateID@@YAIPBD@Z
	add	esp, 4
	push	eax
	mov	eax, DWORD PTR _obj$[ebp]
	push	eax
	call	?HkLightFuse@@YGXPAUIObjRW@@IMMM@Z	; HkLightFuse
; Line 382
	lea	ecx, DWORD PTR _iClientID$[ebp]
	push	ecx
	mov	ecx, OFFSET ?mapInfo@MiscCmds@@3V?$map@IUINFO@MiscCmds@@U?$less@I@std@@V?$allocator@U?$pair@$$CBIUINFO@MiscCmds@@@std@@@4@@std@@A ; MiscCmds::mapInfo
	call	??A?$map@IUINFO@MiscCmds@@U?$less@I@std@@V?$allocator@U?$pair@$$CBIUINFO@MiscCmds@@@std@@@4@@std@@QAEAAUINFO@MiscCmds@@ABI@Z ; std::map<unsigned int,MiscCmds::INFO,std::less<unsigned int>,std::allocator<std::pair<unsigned int const ,MiscCmds::INFO> > >::operator[]
	mov	BYTE PTR [eax+2], 1
; Line 384
	jmp	$LN1@UserCmd_Se
$LN2@UserCmd_Se:
; Line 386
	sub	esp, 28					; 0000001cH
	mov	ecx, esp
	mov	DWORD PTR $T146872[ebp], esp
	push	OFFSET $SG141245
	call	DWORD PTR __imp_??0?$basic_string@GU?$char_traits@G@std@@V?$allocator@G@2@@std@@QAE@PBG@Z
	mov	DWORD PTR tv220[ebp], eax
	mov	edx, DWORD PTR tv220[ebp]
	mov	DWORD PTR tv212[ebp], edx
	mov	DWORD PTR __$EHRec$[ebp+8], 3
	mov	eax, DWORD PTR _iClientID$[ebp]
	push	eax
	mov	DWORD PTR __$EHRec$[ebp+8], -1
	call	DWORD PTR __imp_?PrintUserCmdText@@YAXIV?$basic_string@GU?$char_traits@G@std@@V?$allocator@G@2@@std@@ZZ
	add	esp, 32					; 00000020H
; Line 387
	sub	esp, 28					; 0000001cH
	mov	ecx, esp
	mov	DWORD PTR $T146873[ebp], esp
	push	OFFSET $SG141247
	call	DWORD PTR __imp_??0?$basic_string@GU?$char_traits@G@std@@V?$allocator@G@2@@std@@QAE@PBG@Z
	mov	DWORD PTR tv221[ebp], eax
	mov	ecx, DWORD PTR tv221[ebp]
	mov	DWORD PTR tv214[ebp], ecx
	mov	DWORD PTR __$EHRec$[ebp+8], 4
	mov	edx, DWORD PTR _iClientID$[ebp]
	push	edx
	mov	DWORD PTR __$EHRec$[ebp+8], -1
	call	DWORD PTR __imp_?PrintUserCmdText@@YAXIV?$basic_string@GU?$char_traits@G@std@@V?$allocator@G@2@@std@@ZZ
	add	esp, 32					; 00000020H
; Line 388
	sub	esp, 28					; 0000001cH
	mov	ecx, esp
	mov	DWORD PTR $T146874[ebp], esp
	push	OFFSET $SG141249
	call	DWORD PTR __imp_??0?$basic_string@GU?$char_traits@G@std@@V?$allocator@G@2@@std@@QAE@PBG@Z
	mov	DWORD PTR tv222[ebp], eax
	mov	eax, DWORD PTR tv222[ebp]
	mov	DWORD PTR tv216[ebp], eax
	mov	DWORD PTR __$EHRec$[ebp+8], 5
	mov	ecx, DWORD PTR _iClientID$[ebp]
	push	ecx
	mov	DWORD PTR __$EHRec$[ebp+8], -1
	call	DWORD PTR __imp_?PrintUserCmdText@@YAXIV?$basic_string@GU?$char_traits@G@std@@V?$allocator@G@2@@std@@ZZ
	add	esp, 32					; 00000020H
$LN1@UserCmd_Se:
; Line 390
	mov	al, 1
$LN4@UserCmd_Se:
; Line 391
	mov	ecx, DWORD PTR __$EHRec$[ebp]
	mov	DWORD PTR fs:0, ecx
	pop	ecx
	mov	esp, ebp
	pop	ebp
	ret	0
_TEXT	ENDS
text$x	SEGMENT
__unwindfunclet$?UserCmd_SelfDestruct@MiscCmds@@YA_NIABV?$basic_string@GU?$char_traits@G@std@@V?$allocator@G@2@@std@@0PBG@Z$0:
	mov	ecx, DWORD PTR $T146869[ebp]
	jmp	DWORD PTR __imp_??1?$basic_string@GU?$char_traits@G@std@@V?$allocator@G@2@@std@@QAE@XZ
__unwindfunclet$?UserCmd_SelfDestruct@MiscCmds@@YA_NIABV?$basic_string@GU?$char_traits@G@std@@V?$allocator@G@2@@std@@0PBG@Z$1:
	mov	ecx, DWORD PTR $T146870[ebp]
	jmp	DWORD PTR __imp_??1?$basic_string@GU?$char_traits@G@std@@V?$allocator@G@2@@std@@QAE@XZ
__unwindfunclet$?UserCmd_SelfDestruct@MiscCmds@@YA_NIABV?$basic_string@GU?$char_traits@G@std@@V?$allocator@G@2@@std@@0PBG@Z$2:
	mov	ecx, DWORD PTR $T146871[ebp]
	jmp	DWORD PTR __imp_??1?$basic_string@GU?$char_traits@G@std@@V?$allocator@G@2@@std@@QAE@XZ
__unwindfunclet$?UserCmd_SelfDestruct@MiscCmds@@YA_NIABV?$basic_string@GU?$char_traits@G@std@@V?$allocator@G@2@@std@@0PBG@Z$3:
	mov	ecx, DWORD PTR $T146872[ebp]
	jmp	DWORD PTR __imp_??1?$basic_string@GU?$char_traits@G@std@@V?$allocator@G@2@@std@@QAE@XZ
__unwindfunclet$?UserCmd_SelfDestruct@MiscCmds@@YA_NIABV?$basic_string@GU?$char_traits@G@std@@V?$allocator@G@2@@std@@0PBG@Z$4:
	mov	ecx, DWORD PTR $T146873[ebp]
	jmp	DWORD PTR __imp_??1?$basic_string@GU?$char_traits@G@std@@V?$allocator@G@2@@std@@QAE@XZ
__unwindfunclet$?UserCmd_SelfDestruct@MiscCmds@@YA_NIABV?$basic_string@GU?$char_traits@G@std@@V?$allocator@G@2@@std@@0PBG@Z$5:
	mov	ecx, DWORD PTR $T146874[ebp]
	jmp	DWORD PTR __imp_??1?$basic_string@GU?$char_traits@G@std@@V?$allocator@G@2@@std@@QAE@XZ
__ehhandler$?UserCmd_SelfDestruct@MiscCmds@@YA_NIABV?$basic_string@GU?$char_traits@G@std@@V?$allocator@G@2@@std@@0PBG@Z:
	mov	edx, DWORD PTR [esp+8]
	lea	eax, DWORD PTR [edx+12]
	mov	ecx, DWORD PTR [edx-80]
	xor	ecx, eax
	call	@__security_check_cookie@4
	mov	eax, OFFSET __ehfuncinfo$?UserCmd_SelfDestruct@MiscCmds@@YA_NIABV?$basic_string@GU?$char_traits@G@std@@V?$allocator@G@2@@std@@0PBG@Z
	jmp	___CxxFrameHandler3
text$x	ENDS
?UserCmd_SelfDestruct@MiscCmds@@YA_NIABV?$basic_string@GU?$char_traits@G@std@@V?$allocator@G@2@@std@@0PBG@Z ENDP ; MiscCmds::UserCmd_SelfDestruct
PUBLIC	?UserCmd_Screenshot@MiscCmds@@YA_NIABV?$basic_string@GU?$char_traits@G@std@@V?$allocator@G@2@@std@@0PBG@Z ; MiscCmds::UserCmd_Screenshot
EXTRN	?UserCmd_Time@Message@@YA_NIABV?$basic_string@GU?$char_traits@G@std@@V?$allocator@G@2@@std@@0PBG@Z:PROC ; Message::UserCmd_Time
xdata$x	SEGMENT
__unwindtable$?UserCmd_Screenshot@MiscCmds@@YA_NIABV?$basic_string@GU?$char_traits@G@std@@V?$allocator@G@2@@std@@0PBG@Z DD 0ffffffffH
	DD	FLAT:__unwindfunclet$?UserCmd_Screenshot@MiscCmds@@YA_NIABV?$basic_string@GU?$char_traits@G@std@@V?$allocator@G@2@@std@@0PBG@Z$0
	DD	00H
	DD	FLAT:__unwindfunclet$?UserCmd_Screenshot@MiscCmds@@YA_NIABV?$basic_string@GU?$char_traits@G@std@@V?$allocator@G@2@@std@@0PBG@Z$1
	DD	0ffffffffH
	DD	FLAT:__unwindfunclet$?UserCmd_Screenshot@MiscCmds@@YA_NIABV?$basic_string@GU?$char_traits@G@std@@V?$allocator@G@2@@std@@0PBG@Z$2
__ehfuncinfo$?UserCmd_Screenshot@MiscCmds@@YA_NIABV?$basic_string@GU?$char_traits@G@std@@V?$allocator@G@2@@std@@0PBG@Z DD 019930522H
	DD	03H
	DD	FLAT:__unwindtable$?UserCmd_Screenshot@MiscCmds@@YA_NIABV?$basic_string@GU?$char_traits@G@std@@V?$allocator@G@2@@std@@0PBG@Z
	DD	2 DUP(00H)
	DD	2 DUP(00H)
	DD	00H
	DD	00H
; Function compile flags: /Odtp
xdata$x	ENDS
_TEXT	SEGMENT
tv94 = -80						; size = 4
tv72 = -76						; size = 4
$T146888 = -72						; size = 4
$T146887 = -68						; size = 28
$T146886 = -40						; size = 28
__$EHRec$ = -12						; size = 12
_iClientID$ = 8						; size = 4
_wscCmd$ = 12						; size = 4
_wscParam$ = 16						; size = 4
_usage$ = 20						; size = 4
?UserCmd_Screenshot@MiscCmds@@YA_NIABV?$basic_string@GU?$char_traits@G@std@@V?$allocator@G@2@@std@@0PBG@Z PROC ; MiscCmds::UserCmd_Screenshot
; Line 394
	push	ebp
	mov	ebp, esp
	push	-1
	push	__ehhandler$?UserCmd_Screenshot@MiscCmds@@YA_NIABV?$basic_string@GU?$char_traits@G@std@@V?$allocator@G@2@@std@@0PBG@Z
	mov	eax, DWORD PTR fs:0
	push	eax
	sub	esp, 68					; 00000044H
	mov	eax, DWORD PTR ___security_cookie
	xor	eax, ebp
	push	eax
	lea	eax, DWORD PTR __$EHRec$[ebp]
	mov	DWORD PTR fs:0, eax
; Line 395
	push	OFFSET $SG141259
	lea	ecx, DWORD PTR $T146886[ebp]
	call	DWORD PTR __imp_??0?$basic_string@GU?$char_traits@G@std@@V?$allocator@G@2@@std@@QAE@PBG@Z
	mov	DWORD PTR __$EHRec$[ebp+8], 0
	push	OFFSET $SG141260
	lea	ecx, DWORD PTR $T146887[ebp]
	call	DWORD PTR __imp_??0?$basic_string@GU?$char_traits@G@std@@V?$allocator@G@2@@std@@QAE@PBG@Z
	mov	BYTE PTR __$EHRec$[ebp+8], 1
	push	OFFSET $SG141258
	lea	eax, DWORD PTR $T146886[ebp]
	push	eax
	lea	ecx, DWORD PTR $T146887[ebp]
	push	ecx
	mov	edx, DWORD PTR _iClientID$[ebp]
	push	edx
	call	?UserCmd_Time@Message@@YA_NIABV?$basic_string@GU?$char_traits@G@std@@V?$allocator@G@2@@std@@0PBG@Z ; Message::UserCmd_Time
	add	esp, 16					; 00000010H
	mov	BYTE PTR __$EHRec$[ebp+8], 0
	lea	ecx, DWORD PTR $T146887[ebp]
	call	DWORD PTR __imp_??1?$basic_string@GU?$char_traits@G@std@@V?$allocator@G@2@@std@@QAE@XZ
	mov	DWORD PTR __$EHRec$[ebp+8], -1
	lea	ecx, DWORD PTR $T146886[ebp]
	call	DWORD PTR __imp_??1?$basic_string@GU?$char_traits@G@std@@V?$allocator@G@2@@std@@QAE@XZ
; Line 396
	sub	esp, 28					; 0000001cH
	mov	ecx, esp
	mov	DWORD PTR $T146888[ebp], esp
	push	OFFSET $SG141262
	call	DWORD PTR __imp_??0?$basic_string@GU?$char_traits@G@std@@V?$allocator@G@2@@std@@QAE@PBG@Z
	mov	DWORD PTR tv72[ebp], eax
	mov	eax, DWORD PTR tv72[ebp]
	mov	DWORD PTR tv94[ebp], eax
	mov	DWORD PTR __$EHRec$[ebp+8], 2
	mov	ecx, DWORD PTR _iClientID$[ebp]
	push	ecx
	mov	DWORD PTR __$EHRec$[ebp+8], -1
	call	DWORD PTR __imp_?PrintUserCmdText@@YAXIV?$basic_string@GU?$char_traits@G@std@@V?$allocator@G@2@@std@@ZZ
	add	esp, 32					; 00000020H
; Line 397
	mov	al, 1
; Line 398
	mov	ecx, DWORD PTR __$EHRec$[ebp]
	mov	DWORD PTR fs:0, ecx
	pop	ecx
	mov	esp, ebp
	pop	ebp
	ret	0
_TEXT	ENDS
text$x	SEGMENT
__unwindfunclet$?UserCmd_Screenshot@MiscCmds@@YA_NIABV?$basic_string@GU?$char_traits@G@std@@V?$allocator@G@2@@std@@0PBG@Z$0:
	lea	ecx, DWORD PTR $T146886[ebp]
	jmp	DWORD PTR __imp_??1?$basic_string@GU?$char_traits@G@std@@V?$allocator@G@2@@std@@QAE@XZ
__unwindfunclet$?UserCmd_Screenshot@MiscCmds@@YA_NIABV?$basic_string@GU?$char_traits@G@std@@V?$allocator@G@2@@std@@0PBG@Z$1:
	lea	ecx, DWORD PTR $T146887[ebp]
	jmp	DWORD PTR __imp_??1?$basic_string@GU?$char_traits@G@std@@V?$allocator@G@2@@std@@QAE@XZ
__unwindfunclet$?UserCmd_Screenshot@MiscCmds@@YA_NIABV?$basic_string@GU?$char_traits@G@std@@V?$allocator@G@2@@std@@0PBG@Z$2:
	mov	ecx, DWORD PTR $T146888[ebp]
	jmp	DWORD PTR __imp_??1?$basic_string@GU?$char_traits@G@std@@V?$allocator@G@2@@std@@QAE@XZ
__ehhandler$?UserCmd_Screenshot@MiscCmds@@YA_NIABV?$basic_string@GU?$char_traits@G@std@@V?$allocator@G@2@@std@@0PBG@Z:
	mov	edx, DWORD PTR [esp+8]
	lea	eax, DWORD PTR [edx+12]
	mov	ecx, DWORD PTR [edx-72]
	xor	ecx, eax
	call	@__security_check_cookie@4
	mov	eax, OFFSET __ehfuncinfo$?UserCmd_Screenshot@MiscCmds@@YA_NIABV?$basic_string@GU?$char_traits@G@std@@V?$allocator@G@2@@std@@0PBG@Z
	jmp	___CxxFrameHandler3
text$x	ENDS
?UserCmd_Screenshot@MiscCmds@@YA_NIABV?$basic_string@GU?$char_traits@G@std@@V?$allocator@G@2@@std@@0PBG@Z ENDP ; MiscCmds::UserCmd_Screenshot
PUBLIC	?UserCmd_Shields@MiscCmds@@YA_NIABV?$basic_string@GU?$char_traits@G@std@@V?$allocator@G@2@@std@@0PBG@Z ; MiscCmds::UserCmd_Shields
xdata$x	SEGMENT
__unwindtable$?UserCmd_Shields@MiscCmds@@YA_NIABV?$basic_string@GU?$char_traits@G@std@@V?$allocator@G@2@@std@@0PBG@Z DD 0ffffffffH
	DD	FLAT:__unwindfunclet$?UserCmd_Shields@MiscCmds@@YA_NIABV?$basic_string@GU?$char_traits@G@std@@V?$allocator@G@2@@std@@0PBG@Z$0
__ehfuncinfo$?UserCmd_Shields@MiscCmds@@YA_NIABV?$basic_string@GU?$char_traits@G@std@@V?$allocator@G@2@@std@@0PBG@Z DD 019930522H
	DD	01H
	DD	FLAT:__unwindtable$?UserCmd_Shields@MiscCmds@@YA_NIABV?$basic_string@GU?$char_traits@G@std@@V?$allocator@G@2@@std@@0PBG@Z
	DD	2 DUP(00H)
	DD	2 DUP(00H)
	DD	00H
	DD	00H
; Function compile flags: /Odtp
xdata$x	ENDS
_TEXT	SEGMENT
tv133 = -28						; size = 4
tv134 = -24						; size = 4
tv82 = -20						; size = 4
$T146899 = -16						; size = 4
__$EHRec$ = -12						; size = 12
_iClientID$ = 8						; size = 4
_wscCmd$ = 12						; size = 4
_wscParam$ = 16						; size = 4
_usage$ = 20						; size = 4
?UserCmd_Shields@MiscCmds@@YA_NIABV?$basic_string@GU?$char_traits@G@std@@V?$allocator@G@2@@std@@0PBG@Z PROC ; MiscCmds::UserCmd_Shields
; Line 401
	push	ebp
	mov	ebp, esp
	push	-1
	push	__ehhandler$?UserCmd_Shields@MiscCmds@@YA_NIABV?$basic_string@GU?$char_traits@G@std@@V?$allocator@G@2@@std@@0PBG@Z
	mov	eax, DWORD PTR fs:0
	push	eax
	sub	esp, 16					; 00000010H
	push	ebx
	mov	eax, DWORD PTR ___security_cookie
	xor	eax, ebp
	push	eax
	lea	eax, DWORD PTR __$EHRec$[ebp]
	mov	DWORD PTR fs:0, eax
; Line 402
	lea	eax, DWORD PTR _iClientID$[ebp]
	push	eax
	mov	ecx, OFFSET ?mapInfo@MiscCmds@@3V?$map@IUINFO@MiscCmds@@U?$less@I@std@@V?$allocator@U?$pair@$$CBIUINFO@MiscCmds@@@std@@@4@@std@@A ; MiscCmds::mapInfo
	call	??A?$map@IUINFO@MiscCmds@@U?$less@I@std@@V?$allocator@U?$pair@$$CBIUINFO@MiscCmds@@@std@@@4@@std@@QAEAAUINFO@MiscCmds@@ABI@Z ; std::map<unsigned int,MiscCmds::INFO,std::less<unsigned int>,std::allocator<std::pair<unsigned int const ,MiscCmds::INFO> > >::operator[]
	movzx	ebx, BYTE PTR [eax+1]
	neg	ebx
	sbb	ebx, ebx
	add	ebx, 1
	lea	ecx, DWORD PTR _iClientID$[ebp]
	push	ecx
	mov	ecx, OFFSET ?mapInfo@MiscCmds@@3V?$map@IUINFO@MiscCmds@@U?$less@I@std@@V?$allocator@U?$pair@$$CBIUINFO@MiscCmds@@@std@@@4@@std@@A ; MiscCmds::mapInfo
	call	??A?$map@IUINFO@MiscCmds@@U?$less@I@std@@V?$allocator@U?$pair@$$CBIUINFO@MiscCmds@@@std@@@4@@std@@QAEAAUINFO@MiscCmds@@ABI@Z ; std::map<unsigned int,MiscCmds::INFO,std::less<unsigned int>,std::allocator<std::pair<unsigned int const ,MiscCmds::INFO> > >::operator[]
	mov	BYTE PTR [eax+1], bl
; Line 403
	lea	edx, DWORD PTR _iClientID$[ebp]
	push	edx
	mov	ecx, OFFSET ?mapInfo@MiscCmds@@3V?$map@IUINFO@MiscCmds@@U?$less@I@std@@V?$allocator@U?$pair@$$CBIUINFO@MiscCmds@@@std@@@4@@std@@A ; MiscCmds::mapInfo
	call	??A?$map@IUINFO@MiscCmds@@U?$less@I@std@@V?$allocator@U?$pair@$$CBIUINFO@MiscCmds@@@std@@@4@@std@@QAEAAUINFO@MiscCmds@@ABI@Z ; std::map<unsigned int,MiscCmds::INFO,std::less<unsigned int>,std::allocator<std::pair<unsigned int const ,MiscCmds::INFO> > >::operator[]
	movzx	eax, BYTE PTR [eax+1]
	test	eax, eax
	je	SHORT $LN3@UserCmd_Sh
	mov	DWORD PTR tv82[ebp], OFFSET $SG141270
	jmp	SHORT $LN4@UserCmd_Sh
$LN3@UserCmd_Sh:
	mov	DWORD PTR tv82[ebp], OFFSET $SG141271
$LN4@UserCmd_Sh:
	mov	ecx, DWORD PTR tv82[ebp]
	push	ecx
	sub	esp, 28					; 0000001cH
	mov	ecx, esp
	mov	DWORD PTR $T146899[ebp], esp
	push	OFFSET $SG141272
	call	DWORD PTR __imp_??0?$basic_string@GU?$char_traits@G@std@@V?$allocator@G@2@@std@@QAE@PBG@Z
	mov	DWORD PTR tv134[ebp], eax
	mov	edx, DWORD PTR tv134[ebp]
	mov	DWORD PTR tv133[ebp], edx
	mov	DWORD PTR __$EHRec$[ebp+8], 0
	mov	eax, DWORD PTR _iClientID$[ebp]
	push	eax
	mov	DWORD PTR __$EHRec$[ebp+8], -1
	call	DWORD PTR __imp_?PrintUserCmdText@@YAXIV?$basic_string@GU?$char_traits@G@std@@V?$allocator@G@2@@std@@ZZ
	add	esp, 36					; 00000024H
; Line 404
	mov	al, 1
; Line 405
	mov	ecx, DWORD PTR __$EHRec$[ebp]
	mov	DWORD PTR fs:0, ecx
	pop	ecx
	pop	ebx
	mov	esp, ebp
	pop	ebp
	ret	0
_TEXT	ENDS
text$x	SEGMENT
__unwindfunclet$?UserCmd_Shields@MiscCmds@@YA_NIABV?$basic_string@GU?$char_traits@G@std@@V?$allocator@G@2@@std@@0PBG@Z$0:
	mov	ecx, DWORD PTR $T146899[ebp]
	jmp	DWORD PTR __imp_??1?$basic_string@GU?$char_traits@G@std@@V?$allocator@G@2@@std@@QAE@XZ
__ehhandler$?UserCmd_Shields@MiscCmds@@YA_NIABV?$basic_string@GU?$char_traits@G@std@@V?$allocator@G@2@@std@@0PBG@Z:
	mov	edx, DWORD PTR [esp+8]
	lea	eax, DWORD PTR [edx+12]
	mov	ecx, DWORD PTR [edx-24]
	xor	ecx, eax
	call	@__security_check_cookie@4
	mov	eax, OFFSET __ehfuncinfo$?UserCmd_Shields@MiscCmds@@YA_NIABV?$basic_string@GU?$char_traits@G@std@@V?$allocator@G@2@@std@@0PBG@Z
	jmp	___CxxFrameHandler3
text$x	ENDS
?UserCmd_Shields@MiscCmds@@YA_NIABV?$basic_string@GU?$char_traits@G@std@@V?$allocator@G@2@@std@@0PBG@Z ENDP ; MiscCmds::UserCmd_Shields
PUBLIC	??0?$_Iterator@$00@?$list@UEquipDesc@@V?$allocator@UEquipDesc@@@std@@@std@@QAE@PAU_Node@?$_List_nod@UEquipDesc@@V?$allocator@UEquipDesc@@@std@@@2@PBV12@@Z ; std::list<EquipDesc,std::allocator<EquipDesc> >::_Iterator<1>::_Iterator<1>
PUBLIC	?_Nextnode@?$list@UEquipDesc@@V?$allocator@UEquipDesc@@@std@@@std@@KAAAPAU_Node@?$_List_nod@UEquipDesc@@V?$allocator@UEquipDesc@@@std@@@2@PAU342@@Z ; std::list<EquipDesc,std::allocator<EquipDesc> >::_Nextnode
; Function compile flags: /Odtp
;	COMDAT ?begin@?$list@UEquipDesc@@V?$allocator@UEquipDesc@@@std@@@std@@QAE?AV?$_Iterator@$00@12@XZ
_TEXT	SEGMENT
_this$ = -4						; size = 4
___$ReturnUdt$ = 8					; size = 4
?begin@?$list@UEquipDesc@@V?$allocator@UEquipDesc@@@std@@@std@@QAE?AV?$_Iterator@$00@12@XZ PROC ; std::list<EquipDesc,std::allocator<EquipDesc> >::begin, COMDAT
; _this$ = ecx
; File c:\program files (x86)\microsoft visual studio 9.0\vc\include\list
; Line 533
	push	ebp
	mov	ebp, esp
	push	ecx
	mov	DWORD PTR _this$[ebp], ecx
; Line 534
	mov	eax, DWORD PTR _this$[ebp]
	push	eax
	mov	ecx, DWORD PTR _this$[ebp]
	mov	edx, DWORD PTR [ecx+20]
	push	edx
	call	?_Nextnode@?$list@UEquipDesc@@V?$allocator@UEquipDesc@@@std@@@std@@KAAAPAU_Node@?$_List_nod@UEquipDesc@@V?$allocator@UEquipDesc@@@std@@@2@PAU342@@Z ; std::list<EquipDesc,std::allocator<EquipDesc> >::_Nextnode
	add	esp, 4
	mov	eax, DWORD PTR [eax]
	push	eax
	mov	ecx, DWORD PTR ___$ReturnUdt$[ebp]
	call	??0?$_Iterator@$00@?$list@UEquipDesc@@V?$allocator@UEquipDesc@@@std@@@std@@QAE@PAU_Node@?$_List_nod@UEquipDesc@@V?$allocator@UEquipDesc@@@std@@@2@PBV12@@Z ; std::list<EquipDesc,std::allocator<EquipDesc> >::_Iterator<1>::_Iterator<1>
	mov	eax, DWORD PTR ___$ReturnUdt$[ebp]
; Line 535
	mov	esp, ebp
	pop	ebp
	ret	4
?begin@?$list@UEquipDesc@@V?$allocator@UEquipDesc@@@std@@@std@@QAE?AV?$_Iterator@$00@12@XZ ENDP ; std::list<EquipDesc,std::allocator<EquipDesc> >::begin
; Function compile flags: /Odtp
_TEXT	ENDS
;	COMDAT ?end@?$list@UEquipDesc@@V?$allocator@UEquipDesc@@@std@@@std@@QAE?AV?$_Iterator@$00@12@XZ
_TEXT	SEGMENT
_this$ = -4						; size = 4
___$ReturnUdt$ = 8					; size = 4
?end@?$list@UEquipDesc@@V?$allocator@UEquipDesc@@@std@@@std@@QAE?AV?$_Iterator@$00@12@XZ PROC ; std::list<EquipDesc,std::allocator<EquipDesc> >::end, COMDAT
; _this$ = ecx
; Line 543
	push	ebp
	mov	ebp, esp
	push	ecx
	mov	DWORD PTR _this$[ebp], ecx
; Line 544
	mov	eax, DWORD PTR _this$[ebp]
	push	eax
	mov	ecx, DWORD PTR _this$[ebp]
	mov	edx, DWORD PTR [ecx+20]
	push	edx
	mov	ecx, DWORD PTR ___$ReturnUdt$[ebp]
	call	??0?$_Iterator@$00@?$list@UEquipDesc@@V?$allocator@UEquipDesc@@@std@@@std@@QAE@PAU_Node@?$_List_nod@UEquipDesc@@V?$allocator@UEquipDesc@@@std@@@2@PBV12@@Z ; std::list<EquipDesc,std::allocator<EquipDesc> >::_Iterator<1>::_Iterator<1>
	mov	eax, DWORD PTR ___$ReturnUdt$[ebp]
; Line 545
	mov	esp, ebp
	pop	ebp
	ret	4
?end@?$list@UEquipDesc@@V?$allocator@UEquipDesc@@@std@@@std@@QAE?AV?$_Iterator@$00@12@XZ ENDP ; std::list<EquipDesc,std::allocator<EquipDesc> >::end
_TEXT	ENDS
PUBLIC	??Diterator@?$_Tree@V?$_Tmap_traits@IUINFO@MiscCmds@@U?$less@I@std@@V?$allocator@U?$pair@$$CBIUINFO@MiscCmds@@@std@@@4@$0A@@std@@@std@@QBEAAU?$pair@$$CBIUINFO@MiscCmds@@@2@XZ ; std::_Tree<std::_Tmap_traits<unsigned int,MiscCmds::INFO,std::less<unsigned int>,std::allocator<std::pair<unsigned int const ,MiscCmds::INFO> >,0> >::iterator::operator*
PUBLIC	?insert@?$_Tree@V?$_Tmap_traits@IUINFO@MiscCmds@@U?$less@I@std@@V?$allocator@U?$pair@$$CBIUINFO@MiscCmds@@@std@@@4@$0A@@std@@@std@@QAE?AViterator@12@Vconst_iterator@12@ABU?$pair@$$CBIUINFO@MiscCmds@@@2@@Z ; std::_Tree<std::_Tmap_traits<unsigned int,MiscCmds::INFO,std::less<unsigned int>,std::allocator<std::pair<unsigned int const ,MiscCmds::INFO> >,0> >::insert
PUBLIC	??0?$pair@$$CBIUINFO@MiscCmds@@@std@@QAE@ABIABUINFO@MiscCmds@@@Z ; std::pair<unsigned int const ,MiscCmds::INFO>::pair<unsigned int const ,MiscCmds::INFO>
PUBLIC	??0INFO@MiscCmds@@QAE@XZ			; MiscCmds::INFO::INFO
PUBLIC	??R?$less@I@std@@QBE_NABI0@Z			; std::less<unsigned int>::operator()
PUBLIC	?_Key@?$_Tree@V?$_Tmap_traits@IUINFO@MiscCmds@@U?$less@I@std@@V?$allocator@U?$pair@$$CBIUINFO@MiscCmds@@@std@@@4@$0A@@std@@@std@@KAABIPAU_Node@?$_Tree_nod@V?$_Tmap_traits@IUINFO@MiscCmds@@U?$less@I@std@@V?$allocator@U?$pair@$$CBIUINFO@MiscCmds@@@std@@@4@$0A@@std@@@2@@Z ; std::_Tree<std::_Tmap_traits<unsigned int,MiscCmds::INFO,std::less<unsigned int>,std::allocator<std::pair<unsigned int const ,MiscCmds::INFO> >,0> >::_Key
PUBLIC	?_Mynode@const_iterator@?$_Tree@V?$_Tmap_traits@IUINFO@MiscCmds@@U?$less@I@std@@V?$allocator@U?$pair@$$CBIUINFO@MiscCmds@@@std@@@4@$0A@@std@@@std@@QBEPAU_Node@?$_Tree_nod@V?$_Tmap_traits@IUINFO@MiscCmds@@U?$less@I@std@@V?$allocator@U?$pair@$$CBIUINFO@MiscCmds@@@std@@@4@$0A@@std@@@3@XZ ; std::_Tree<std::_Tmap_traits<unsigned int,MiscCmds::INFO,std::less<unsigned int>,std::allocator<std::pair<unsigned int const ,MiscCmds::INFO> >,0> >::const_iterator::_Mynode
PUBLIC	??8const_iterator@?$_Tree@V?$_Tmap_traits@IUINFO@MiscCmds@@U?$less@I@std@@V?$allocator@U?$pair@$$CBIUINFO@MiscCmds@@@std@@@4@$0A@@std@@@std@@QBE_NABV012@@Z ; std::_Tree<std::_Tmap_traits<unsigned int,MiscCmds::INFO,std::less<unsigned int>,std::allocator<std::pair<unsigned int const ,MiscCmds::INFO> >,0> >::const_iterator::operator==
PUBLIC	?lower_bound@?$_Tree@V?$_Tmap_traits@IUINFO@MiscCmds@@U?$less@I@std@@V?$allocator@U?$pair@$$CBIUINFO@MiscCmds@@@std@@@4@$0A@@std@@@std@@QAE?AViterator@12@ABI@Z ; std::_Tree<std::_Tmap_traits<unsigned int,MiscCmds::INFO,std::less<unsigned int>,std::allocator<std::pair<unsigned int const ,MiscCmds::INFO> >,0> >::lower_bound
; Function compile flags: /Odtp
;	COMDAT ??A?$map@IUINFO@MiscCmds@@U?$less@I@std@@V?$allocator@U?$pair@$$CBIUINFO@MiscCmds@@@std@@@4@@std@@QAEAAUINFO@MiscCmds@@ABI@Z
_TEXT	SEGMENT
_this$ = -48						; size = 4
$T146914 = -44						; size = 8
$T146913 = -36						; size = 8
$T146912 = -27						; size = 3
$T146911 = -24						; size = 8
$T146910 = -16						; size = 8
__Where$ = -8						; size = 8
__Keyval$ = 8						; size = 4
??A?$map@IUINFO@MiscCmds@@U?$less@I@std@@V?$allocator@U?$pair@$$CBIUINFO@MiscCmds@@@std@@@4@@std@@QAEAAUINFO@MiscCmds@@ABI@Z PROC ; std::map<unsigned int,MiscCmds::INFO,std::less<unsigned int>,std::allocator<std::pair<unsigned int const ,MiscCmds::INFO> > >::operator[], COMDAT
; _this$ = ecx
; File c:\program files (x86)\microsoft visual studio 9.0\vc\include\map
; Line 168
	push	ebp
	mov	ebp, esp
	sub	esp, 48					; 00000030H
	mov	DWORD PTR _this$[ebp], ecx
; Line 169
	mov	eax, DWORD PTR __Keyval$[ebp]
	push	eax
	lea	ecx, DWORD PTR __Where$[ebp]
	push	ecx
	mov	ecx, DWORD PTR _this$[ebp]
	call	?lower_bound@?$_Tree@V?$_Tmap_traits@IUINFO@MiscCmds@@U?$less@I@std@@V?$allocator@U?$pair@$$CBIUINFO@MiscCmds@@@std@@@4@$0A@@std@@@std@@QAE?AViterator@12@ABI@Z ; std::_Tree<std::_Tmap_traits<unsigned int,MiscCmds::INFO,std::less<unsigned int>,std::allocator<std::pair<unsigned int const ,MiscCmds::INFO> >,0> >::lower_bound
; Line 171
	lea	edx, DWORD PTR $T146910[ebp]
	push	edx
	mov	ecx, DWORD PTR _this$[ebp]
	call	?end@?$_Tree@V?$_Tmap_traits@IUINFO@MiscCmds@@U?$less@I@std@@V?$allocator@U?$pair@$$CBIUINFO@MiscCmds@@@std@@@4@$0A@@std@@@std@@QAE?AViterator@12@XZ ; std::_Tree<std::_Tmap_traits<unsigned int,MiscCmds::INFO,std::less<unsigned int>,std::allocator<std::pair<unsigned int const ,MiscCmds::INFO> >,0> >::end
	push	eax
	lea	ecx, DWORD PTR __Where$[ebp]
	call	??8const_iterator@?$_Tree@V?$_Tmap_traits@IUINFO@MiscCmds@@U?$less@I@std@@V?$allocator@U?$pair@$$CBIUINFO@MiscCmds@@@std@@@4@$0A@@std@@@std@@QBE_NABV012@@Z ; std::_Tree<std::_Tmap_traits<unsigned int,MiscCmds::INFO,std::less<unsigned int>,std::allocator<std::pair<unsigned int const ,MiscCmds::INFO> >,0> >::const_iterator::operator==
	movzx	eax, al
	test	eax, eax
	jne	SHORT $LN1@operator
	lea	ecx, DWORD PTR __Where$[ebp]
	call	?_Mynode@const_iterator@?$_Tree@V?$_Tmap_traits@IUINFO@MiscCmds@@U?$less@I@std@@V?$allocator@U?$pair@$$CBIUINFO@MiscCmds@@@std@@@4@$0A@@std@@@std@@QBEPAU_Node@?$_Tree_nod@V?$_Tmap_traits@IUINFO@MiscCmds@@U?$less@I@std@@V?$allocator@U?$pair@$$CBIUINFO@MiscCmds@@@std@@@4@$0A@@std@@@3@XZ ; std::_Tree<std::_Tmap_traits<unsigned int,MiscCmds::INFO,std::less<unsigned int>,std::allocator<std::pair<unsigned int const ,MiscCmds::INFO> >,0> >::const_iterator::_Mynode
	push	eax
	call	?_Key@?$_Tree@V?$_Tmap_traits@IUINFO@MiscCmds@@U?$less@I@std@@V?$allocator@U?$pair@$$CBIUINFO@MiscCmds@@@std@@@4@$0A@@std@@@std@@KAABIPAU_Node@?$_Tree_nod@V?$_Tmap_traits@IUINFO@MiscCmds@@U?$less@I@std@@V?$allocator@U?$pair@$$CBIUINFO@MiscCmds@@@std@@@4@$0A@@std@@@2@@Z ; std::_Tree<std::_Tmap_traits<unsigned int,MiscCmds::INFO,std::less<unsigned int>,std::allocator<std::pair<unsigned int const ,MiscCmds::INFO> >,0> >::_Key
	add	esp, 4
	push	eax
	mov	ecx, DWORD PTR __Keyval$[ebp]
	push	ecx
	mov	ecx, DWORD PTR _this$[ebp]
	add	ecx, 8
	call	??R?$less@I@std@@QBE_NABI0@Z		; std::less<unsigned int>::operator()
	movzx	edx, al
	test	edx, edx
	je	SHORT $LN2@operator
$LN1@operator:
; Line 173
	mov	eax, DWORD PTR __Where$[ebp]
	mov	DWORD PTR $T146913[ebp], eax
	mov	ecx, DWORD PTR __Where$[ebp+4]
	mov	DWORD PTR $T146913[ebp+4], ecx
	lea	ecx, DWORD PTR $T146912[ebp]
	call	??0INFO@MiscCmds@@QAE@XZ		; MiscCmds::INFO::INFO
	push	eax
	mov	edx, DWORD PTR __Keyval$[ebp]
	push	edx
	lea	ecx, DWORD PTR $T146911[ebp]
	call	??0?$pair@$$CBIUINFO@MiscCmds@@@std@@QAE@ABIABUINFO@MiscCmds@@@Z ; std::pair<unsigned int const ,MiscCmds::INFO>::pair<unsigned int const ,MiscCmds::INFO>
	push	eax
	mov	eax, DWORD PTR $T146913[ebp+4]
	push	eax
	mov	ecx, DWORD PTR $T146913[ebp]
	push	ecx
	lea	edx, DWORD PTR $T146914[ebp]
	push	edx
	mov	ecx, DWORD PTR _this$[ebp]
	call	?insert@?$_Tree@V?$_Tmap_traits@IUINFO@MiscCmds@@U?$less@I@std@@V?$allocator@U?$pair@$$CBIUINFO@MiscCmds@@@std@@@4@$0A@@std@@@std@@QAE?AViterator@12@Vconst_iterator@12@ABU?$pair@$$CBIUINFO@MiscCmds@@@2@@Z ; std::_Tree<std::_Tmap_traits<unsigned int,MiscCmds::INFO,std::less<unsigned int>,std::allocator<std::pair<unsigned int const ,MiscCmds::INFO> >,0> >::insert
	mov	ecx, DWORD PTR [eax]
	mov	edx, DWORD PTR [eax+4]
	mov	DWORD PTR __Where$[ebp], ecx
	mov	DWORD PTR __Where$[ebp+4], edx
$LN2@operator:
; Line 174
	lea	ecx, DWORD PTR __Where$[ebp]
	call	??Diterator@?$_Tree@V?$_Tmap_traits@IUINFO@MiscCmds@@U?$less@I@std@@V?$allocator@U?$pair@$$CBIUINFO@MiscCmds@@@std@@@4@$0A@@std@@@std@@QBEAAU?$pair@$$CBIUINFO@MiscCmds@@@2@XZ ; std::_Tree<std::_Tmap_traits<unsigned int,MiscCmds::INFO,std::less<unsigned int>,std::allocator<std::pair<unsigned int const ,MiscCmds::INFO> >,0> >::iterator::operator*
	add	eax, 4
; Line 175
	mov	esp, ebp
	pop	ebp
	ret	4
??A?$map@IUINFO@MiscCmds@@U?$less@I@std@@V?$allocator@U?$pair@$$CBIUINFO@MiscCmds@@@std@@@4@@std@@QAEAAUINFO@MiscCmds@@ABI@Z ENDP ; std::map<unsigned int,MiscCmds::INFO,std::less<unsigned int>,std::allocator<std::pair<unsigned int const ,MiscCmds::INFO> > >::operator[]
; Function compile flags: /Odtp
_TEXT	ENDS
;	COMDAT ??0INFO@MiscCmds@@QAE@XZ
_TEXT	SEGMENT
_this$ = -4						; size = 4
??0INFO@MiscCmds@@QAE@XZ PROC				; MiscCmds::INFO::INFO, COMDAT
; _this$ = ecx
; File g:\max\bastelstube\github\fl-mod-flhook\plugins\playercntl_plugin\src\misccmds.cpp
; Line 31
	push	ebp
	mov	ebp, esp
	push	ecx
	mov	DWORD PTR _this$[ebp], ecx
	mov	eax, DWORD PTR _this$[ebp]
	mov	BYTE PTR [eax], 0
	mov	ecx, DWORD PTR _this$[ebp]
	mov	BYTE PTR [ecx+1], 0
	mov	edx, DWORD PTR _this$[ebp]
	mov	BYTE PTR [edx+2], 0
	mov	eax, DWORD PTR _this$[ebp]
	mov	esp, ebp
	pop	ebp
	ret	0
??0INFO@MiscCmds@@QAE@XZ ENDP				; MiscCmds::INFO::INFO
_TEXT	ENDS
PUBLIC	??0iterator@?$_Tree@V?$_Tmap_traits@IUINFO@MiscCmds@@U?$less@I@std@@V?$allocator@U?$pair@$$CBIUINFO@MiscCmds@@@std@@@4@$0A@@std@@@std@@QAE@PAU_Node@?$_Tree_nod@V?$_Tmap_traits@IUINFO@MiscCmds@@U?$less@I@std@@V?$allocator@U?$pair@$$CBIUINFO@MiscCmds@@@std@@@4@$0A@@std@@@2@PBV12@@Z ; std::_Tree<std::_Tmap_traits<unsigned int,MiscCmds::INFO,std::less<unsigned int>,std::allocator<std::pair<unsigned int const ,MiscCmds::INFO> >,0> >::iterator::iterator
PUBLIC	?_Lmost@?$_Tree@V?$_Tmap_traits@IUINFO@MiscCmds@@U?$less@I@std@@V?$allocator@U?$pair@$$CBIUINFO@MiscCmds@@@std@@@4@$0A@@std@@@std@@IBEAAPAU_Node@?$_Tree_nod@V?$_Tmap_traits@IUINFO@MiscCmds@@U?$less@I@std@@V?$allocator@U?$pair@$$CBIUINFO@MiscCmds@@@std@@@4@$0A@@std@@@2@XZ ; std::_Tree<std::_Tmap_traits<unsigned int,MiscCmds::INFO,std::less<unsigned int>,std::allocator<std::pair<unsigned int const ,MiscCmds::INFO> >,0> >::_Lmost
; Function compile flags: /Odtp
;	COMDAT ?begin@?$_Tree@V?$_Tmap_traits@IUINFO@MiscCmds@@U?$less@I@std@@V?$allocator@U?$pair@$$CBIUINFO@MiscCmds@@@std@@@4@$0A@@std@@@std@@QAE?AViterator@12@XZ
_TEXT	SEGMENT
_this$ = -4						; size = 4
___$ReturnUdt$ = 8					; size = 4
?begin@?$_Tree@V?$_Tmap_traits@IUINFO@MiscCmds@@U?$less@I@std@@V?$allocator@U?$pair@$$CBIUINFO@MiscCmds@@@std@@@4@$0A@@std@@@std@@QAE?AViterator@12@XZ PROC ; std::_Tree<std::_Tmap_traits<unsigned int,MiscCmds::INFO,std::less<unsigned int>,std::allocator<std::pair<unsigned int const ,MiscCmds::INFO> >,0> >::begin, COMDAT
; _this$ = ecx
; File c:\program files (x86)\microsoft visual studio 9.0\vc\include\xtree
; Line 555
	push	ebp
	mov	ebp, esp
	push	ecx
	mov	DWORD PTR _this$[ebp], ecx
; Line 556
	mov	eax, DWORD PTR _this$[ebp]
	push	eax
	mov	ecx, DWORD PTR _this$[ebp]
	call	?_Lmost@?$_Tree@V?$_Tmap_traits@IUINFO@MiscCmds@@U?$less@I@std@@V?$allocator@U?$pair@$$CBIUINFO@MiscCmds@@@std@@@4@$0A@@std@@@std@@IBEAAPAU_Node@?$_Tree_nod@V?$_Tmap_traits@IUINFO@MiscCmds@@U?$less@I@std@@V?$allocator@U?$pair@$$CBIUINFO@MiscCmds@@@std@@@4@$0A@@std@@@2@XZ ; std::_Tree<std::_Tmap_traits<unsigned int,MiscCmds::INFO,std::less<unsigned int>,std::allocator<std::pair<unsigned int const ,MiscCmds::INFO> >,0> >::_Lmost
	mov	ecx, DWORD PTR [eax]
	push	ecx
	mov	ecx, DWORD PTR ___$ReturnUdt$[ebp]
	call	??0iterator@?$_Tree@V?$_Tmap_traits@IUINFO@MiscCmds@@U?$less@I@std@@V?$allocator@U?$pair@$$CBIUINFO@MiscCmds@@@std@@@4@$0A@@std@@@std@@QAE@PAU_Node@?$_Tree_nod@V?$_Tmap_traits@IUINFO@MiscCmds@@U?$less@I@std@@V?$allocator@U?$pair@$$CBIUINFO@MiscCmds@@@std@@@4@$0A@@std@@@2@PBV12@@Z ; std::_Tree<std::_Tmap_traits<unsigned int,MiscCmds::INFO,std::less<unsigned int>,std::allocator<std::pair<unsigned int const ,MiscCmds::INFO> >,0> >::iterator::iterator
	mov	eax, DWORD PTR ___$ReturnUdt$[ebp]
; Line 557
	mov	esp, ebp
	pop	ebp
	ret	4
?begin@?$_Tree@V?$_Tmap_traits@IUINFO@MiscCmds@@U?$less@I@std@@V?$allocator@U?$pair@$$CBIUINFO@MiscCmds@@@std@@@4@$0A@@std@@@std@@QAE?AViterator@12@XZ ENDP ; std::_Tree<std::_Tmap_traits<unsigned int,MiscCmds::INFO,std::less<unsigned int>,std::allocator<std::pair<unsigned int const ,MiscCmds::INFO> >,0> >::begin
; Function compile flags: /Odtp
_TEXT	ENDS
;	COMDAT ?end@?$_Tree@V?$_Tmap_traits@IUINFO@MiscCmds@@U?$less@I@std@@V?$allocator@U?$pair@$$CBIUINFO@MiscCmds@@@std@@@4@$0A@@std@@@std@@QAE?AViterator@12@XZ
_TEXT	SEGMENT
_this$ = -4						; size = 4
___$ReturnUdt$ = 8					; size = 4
?end@?$_Tree@V?$_Tmap_traits@IUINFO@MiscCmds@@U?$less@I@std@@V?$allocator@U?$pair@$$CBIUINFO@MiscCmds@@@std@@@4@$0A@@std@@@std@@QAE?AViterator@12@XZ PROC ; std::_Tree<std::_Tmap_traits<unsigned int,MiscCmds::INFO,std::less<unsigned int>,std::allocator<std::pair<unsigned int const ,MiscCmds::INFO> >,0> >::end, COMDAT
; _this$ = ecx
; Line 565
	push	ebp
	mov	ebp, esp
	push	ecx
	mov	DWORD PTR _this$[ebp], ecx
; Line 566
	mov	eax, DWORD PTR _this$[ebp]
	push	eax
	mov	ecx, DWORD PTR _this$[ebp]
	mov	edx, DWORD PTR [ecx+24]
	push	edx
	mov	ecx, DWORD PTR ___$ReturnUdt$[ebp]
	call	??0iterator@?$_Tree@V?$_Tmap_traits@IUINFO@MiscCmds@@U?$less@I@std@@V?$allocator@U?$pair@$$CBIUINFO@MiscCmds@@@std@@@4@$0A@@std@@@std@@QAE@PAU_Node@?$_Tree_nod@V?$_Tmap_traits@IUINFO@MiscCmds@@U?$less@I@std@@V?$allocator@U?$pair@$$CBIUINFO@MiscCmds@@@std@@@4@$0A@@std@@@2@PBV12@@Z ; std::_Tree<std::_Tmap_traits<unsigned int,MiscCmds::INFO,std::less<unsigned int>,std::allocator<std::pair<unsigned int const ,MiscCmds::INFO> >,0> >::iterator::iterator
	mov	eax, DWORD PTR ___$ReturnUdt$[ebp]
; Line 567
	mov	esp, ebp
	pop	ebp
	ret	4
?end@?$_Tree@V?$_Tmap_traits@IUINFO@MiscCmds@@U?$less@I@std@@V?$allocator@U?$pair@$$CBIUINFO@MiscCmds@@@std@@@4@$0A@@std@@@std@@QAE?AViterator@12@XZ ENDP ; std::_Tree<std::_Tmap_traits<unsigned int,MiscCmds::INFO,std::less<unsigned int>,std::allocator<std::pair<unsigned int const ,MiscCmds::INFO> >,0> >::end
_TEXT	ENDS
PUBLIC	?erase@?$_Tree@V?$_Tmap_traits@IUINFO@MiscCmds@@U?$less@I@std@@V?$allocator@U?$pair@$$CBIUINFO@MiscCmds@@@std@@@4@$0A@@std@@@std@@QAE?AViterator@12@Vconst_iterator@12@0@Z ; std::_Tree<std::_Tmap_traits<unsigned int,MiscCmds::INFO,std::less<unsigned int>,std::allocator<std::pair<unsigned int const ,MiscCmds::INFO> >,0> >::erase
PUBLIC	??$_Distance@Viterator@?$_Tree@V?$_Tmap_traits@IUINFO@MiscCmds@@U?$less@I@std@@V?$allocator@U?$pair@$$CBIUINFO@MiscCmds@@@std@@@4@$0A@@std@@@std@@I@std@@YAXViterator@?$_Tree@V?$_Tmap_traits@IUINFO@MiscCmds@@U?$less@I@std@@V?$allocator@U?$pair@$$CBIUINFO@MiscCmds@@@std@@@4@$0A@@std@@@0@0AAI@Z ; std::_Distance<std::_Tree<std::_Tmap_traits<unsigned int,MiscCmds::INFO,std::less<unsigned int>,std::allocator<std::pair<unsigned int const ,MiscCmds::INFO> >,0> >::iterator,unsigned int>
PUBLIC	?equal_range@?$_Tree@V?$_Tmap_traits@IUINFO@MiscCmds@@U?$less@I@std@@V?$allocator@U?$pair@$$CBIUINFO@MiscCmds@@@std@@@4@$0A@@std@@@std@@QAE?AU?$pair@Viterator@?$_Tree@V?$_Tmap_traits@IUINFO@MiscCmds@@U?$less@I@std@@V?$allocator@U?$pair@$$CBIUINFO@MiscCmds@@@std@@@4@$0A@@std@@@std@@V123@@2@ABI@Z ; std::_Tree<std::_Tmap_traits<unsigned int,MiscCmds::INFO,std::less<unsigned int>,std::allocator<std::pair<unsigned int const ,MiscCmds::INFO> >,0> >::equal_range
; Function compile flags: /Odtp
;	COMDAT ?erase@?$_Tree@V?$_Tmap_traits@IUINFO@MiscCmds@@U?$less@I@std@@V?$allocator@U?$pair@$$CBIUINFO@MiscCmds@@@std@@@4@$0A@@std@@@std@@QAEIABI@Z
_TEXT	SEGMENT
_this$ = -48						; size = 4
$T146925 = -44						; size = 8
$T146924 = -36						; size = 8
$T146923 = -28						; size = 8
__Where$ = -20						; size = 16
__Num$ = -4						; size = 4
__Keyval$ = 8						; size = 4
?erase@?$_Tree@V?$_Tmap_traits@IUINFO@MiscCmds@@U?$less@I@std@@V?$allocator@U?$pair@$$CBIUINFO@MiscCmds@@@std@@@4@$0A@@std@@@std@@QAEIABI@Z PROC ; std::_Tree<std::_Tmap_traits<unsigned int,MiscCmds::INFO,std::less<unsigned int>,std::allocator<std::pair<unsigned int const ,MiscCmds::INFO> >,0> >::erase, COMDAT
; _this$ = ecx
; Line 949
	push	ebp
	mov	ebp, esp
	sub	esp, 48					; 00000030H
	mov	DWORD PTR _this$[ebp], ecx
; Line 950
	mov	eax, DWORD PTR __Keyval$[ebp]
	push	eax
	lea	ecx, DWORD PTR __Where$[ebp]
	push	ecx
	mov	ecx, DWORD PTR _this$[ebp]
	call	?equal_range@?$_Tree@V?$_Tmap_traits@IUINFO@MiscCmds@@U?$less@I@std@@V?$allocator@U?$pair@$$CBIUINFO@MiscCmds@@@std@@@4@$0A@@std@@@std@@QAE?AU?$pair@Viterator@?$_Tree@V?$_Tmap_traits@IUINFO@MiscCmds@@U?$less@I@std@@V?$allocator@U?$pair@$$CBIUINFO@MiscCmds@@@std@@@4@$0A@@std@@@std@@V123@@2@ABI@Z ; std::_Tree<std::_Tmap_traits<unsigned int,MiscCmds::INFO,std::less<unsigned int>,std::allocator<std::pair<unsigned int const ,MiscCmds::INFO> >,0> >::equal_range
; Line 951
	mov	DWORD PTR __Num$[ebp], 0
; Line 952
	lea	edx, DWORD PTR __Num$[ebp]
	push	edx
	mov	eax, DWORD PTR __Where$[ebp+12]
	push	eax
	mov	ecx, DWORD PTR __Where$[ebp+8]
	push	ecx
	mov	edx, DWORD PTR __Where$[ebp+4]
	push	edx
	mov	eax, DWORD PTR __Where$[ebp]
	push	eax
	call	??$_Distance@Viterator@?$_Tree@V?$_Tmap_traits@IUINFO@MiscCmds@@U?$less@I@std@@V?$allocator@U?$pair@$$CBIUINFO@MiscCmds@@@std@@@4@$0A@@std@@@std@@I@std@@YAXViterator@?$_Tree@V?$_Tmap_traits@IUINFO@MiscCmds@@U?$less@I@std@@V?$allocator@U?$pair@$$CBIUINFO@MiscCmds@@@std@@@4@$0A@@std@@@0@0AAI@Z ; std::_Distance<std::_Tree<std::_Tmap_traits<unsigned int,MiscCmds::INFO,std::less<unsigned int>,std::allocator<std::pair<unsigned int const ,MiscCmds::INFO> >,0> >::iterator,unsigned int>
	add	esp, 20					; 00000014H
; Line 953
	mov	ecx, DWORD PTR __Where$[ebp+8]
	mov	DWORD PTR $T146923[ebp], ecx
	mov	edx, DWORD PTR __Where$[ebp+12]
	mov	DWORD PTR $T146923[ebp+4], edx
	mov	eax, DWORD PTR __Where$[ebp]
	mov	DWORD PTR $T146924[ebp], eax
	mov	ecx, DWORD PTR __Where$[ebp+4]
	mov	DWORD PTR $T146924[ebp+4], ecx
	mov	edx, DWORD PTR $T146923[ebp+4]
	push	edx
	mov	eax, DWORD PTR $T146923[ebp]
	push	eax
	mov	ecx, DWORD PTR $T146924[ebp+4]
	push	ecx
	mov	edx, DWORD PTR $T146924[ebp]
	push	edx
	lea	eax, DWORD PTR $T146925[ebp]
	push	eax
	mov	ecx, DWORD PTR _this$[ebp]
	call	?erase@?$_Tree@V?$_Tmap_traits@IUINFO@MiscCmds@@U?$less@I@std@@V?$allocator@U?$pair@$$CBIUINFO@MiscCmds@@@std@@@4@$0A@@std@@@std@@QAE?AViterator@12@Vconst_iterator@12@0@Z ; std::_Tree<std::_Tmap_traits<unsigned int,MiscCmds::INFO,std::less<unsigned int>,std::allocator<std::pair<unsigned int const ,MiscCmds::INFO> >,0> >::erase
; Line 954
	mov	eax, DWORD PTR __Num$[ebp]
; Line 955
	mov	esp, ebp
	pop	ebp
	ret	4
?erase@?$_Tree@V?$_Tmap_traits@IUINFO@MiscCmds@@U?$less@I@std@@V?$allocator@U?$pair@$$CBIUINFO@MiscCmds@@@std@@@4@$0A@@std@@@std@@QAEIABI@Z ENDP ; std::_Tree<std::_Tmap_traits<unsigned int,MiscCmds::INFO,std::less<unsigned int>,std::allocator<std::pair<unsigned int const ,MiscCmds::INFO> >,0> >::erase
; Function compile flags: /Odtp
_TEXT	ENDS
;	COMDAT ??9const_iterator@?$_Tree@V?$_Tmap_traits@IUINFO@MiscCmds@@U?$less@I@std@@V?$allocator@U?$pair@$$CBIUINFO@MiscCmds@@@std@@@4@$0A@@std@@@std@@QBE_NABV012@@Z
_TEXT	SEGMENT
_this$ = -4						; size = 4
__Right$ = 8						; size = 4
??9const_iterator@?$_Tree@V?$_Tmap_traits@IUINFO@MiscCmds@@U?$less@I@std@@V?$allocator@U?$pair@$$CBIUINFO@MiscCmds@@@std@@@4@$0A@@std@@@std@@QBE_NABV012@@Z PROC ; std::_Tree<std::_Tmap_traits<unsigned int,MiscCmds::INFO,std::less<unsigned int>,std::allocator<std::pair<unsigned int const ,MiscCmds::INFO> >,0> >::const_iterator::operator!=, COMDAT
; _this$ = ecx
; Line 315
	push	ebp
	mov	ebp, esp
	push	ecx
	mov	DWORD PTR _this$[ebp], ecx
; Line 316
	mov	eax, DWORD PTR __Right$[ebp]
	push	eax
	mov	ecx, DWORD PTR _this$[ebp]
	call	??8const_iterator@?$_Tree@V?$_Tmap_traits@IUINFO@MiscCmds@@U?$less@I@std@@V?$allocator@U?$pair@$$CBIUINFO@MiscCmds@@@std@@@4@$0A@@std@@@std@@QBE_NABV012@@Z ; std::_Tree<std::_Tmap_traits<unsigned int,MiscCmds::INFO,std::less<unsigned int>,std::allocator<std::pair<unsigned int const ,MiscCmds::INFO> >,0> >::const_iterator::operator==
	movzx	eax, al
	neg	eax
	sbb	eax, eax
	add	eax, 1
; Line 317
	mov	esp, ebp
	pop	ebp
	ret	4
??9const_iterator@?$_Tree@V?$_Tmap_traits@IUINFO@MiscCmds@@U?$less@I@std@@V?$allocator@U?$pair@$$CBIUINFO@MiscCmds@@@std@@@4@$0A@@std@@@std@@QBE_NABV012@@Z ENDP ; std::_Tree<std::_Tmap_traits<unsigned int,MiscCmds::INFO,std::less<unsigned int>,std::allocator<std::pair<unsigned int const ,MiscCmds::INFO> >,0> >::const_iterator::operator!=
; Function compile flags: /Odtp
_TEXT	ENDS
;	COMDAT ??Citerator@?$_Tree@V?$_Tmap_traits@IUINFO@MiscCmds@@U?$less@I@std@@V?$allocator@U?$pair@$$CBIUINFO@MiscCmds@@@std@@@4@$0A@@std@@@std@@QBEPAU?$pair@$$CBIUINFO@MiscCmds@@@2@XZ
_TEXT	SEGMENT
_this$ = -4						; size = 4
??Citerator@?$_Tree@V?$_Tmap_traits@IUINFO@MiscCmds@@U?$less@I@std@@V?$allocator@U?$pair@$$CBIUINFO@MiscCmds@@@std@@@4@$0A@@std@@@std@@QBEPAU?$pair@$$CBIUINFO@MiscCmds@@@2@XZ PROC ; std::_Tree<std::_Tmap_traits<unsigned int,MiscCmds::INFO,std::less<unsigned int>,std::allocator<std::pair<unsigned int const ,MiscCmds::INFO> >,0> >::iterator::operator->, COMDAT
; _this$ = ecx
; Line 469
	push	ebp
	mov	ebp, esp
	push	ecx
	mov	DWORD PTR _this$[ebp], ecx
; Line 470
	mov	ecx, DWORD PTR _this$[ebp]
	call	??Diterator@?$_Tree@V?$_Tmap_traits@IUINFO@MiscCmds@@U?$less@I@std@@V?$allocator@U?$pair@$$CBIUINFO@MiscCmds@@@std@@@4@$0A@@std@@@std@@QBEAAU?$pair@$$CBIUINFO@MiscCmds@@@2@XZ ; std::_Tree<std::_Tmap_traits<unsigned int,MiscCmds::INFO,std::less<unsigned int>,std::allocator<std::pair<unsigned int const ,MiscCmds::INFO> >,0> >::iterator::operator*
; Line 471
	mov	esp, ebp
	pop	ebp
	ret	0
??Citerator@?$_Tree@V?$_Tmap_traits@IUINFO@MiscCmds@@U?$less@I@std@@V?$allocator@U?$pair@$$CBIUINFO@MiscCmds@@@std@@@4@$0A@@std@@@std@@QBEPAU?$pair@$$CBIUINFO@MiscCmds@@@2@XZ ENDP ; std::_Tree<std::_Tmap_traits<unsigned int,MiscCmds::INFO,std::less<unsigned int>,std::allocator<std::pair<unsigned int const ,MiscCmds::INFO> >,0> >::iterator::operator->
_TEXT	ENDS
PUBLIC	??Eiterator@?$_Tree@V?$_Tmap_traits@IUINFO@MiscCmds@@U?$less@I@std@@V?$allocator@U?$pair@$$CBIUINFO@MiscCmds@@@std@@@4@$0A@@std@@@std@@QAEAAV012@XZ ; std::_Tree<std::_Tmap_traits<unsigned int,MiscCmds::INFO,std::less<unsigned int>,std::allocator<std::pair<unsigned int const ,MiscCmds::INFO> >,0> >::iterator::operator++
; Function compile flags: /Odtp
;	COMDAT ??Eiterator@?$_Tree@V?$_Tmap_traits@IUINFO@MiscCmds@@U?$less@I@std@@V?$allocator@U?$pair@$$CBIUINFO@MiscCmds@@@std@@@4@$0A@@std@@@std@@QAE?AV012@H@Z
_TEXT	SEGMENT
_this$ = -12						; size = 4
__Tmp$ = -8						; size = 8
___$ReturnUdt$ = 8					; size = 4
___formal$ = 12						; size = 4
??Eiterator@?$_Tree@V?$_Tmap_traits@IUINFO@MiscCmds@@U?$less@I@std@@V?$allocator@U?$pair@$$CBIUINFO@MiscCmds@@@std@@@4@$0A@@std@@@std@@QAE?AV012@H@Z PROC ; std::_Tree<std::_Tmap_traits<unsigned int,MiscCmds::INFO,std::less<unsigned int>,std::allocator<std::pair<unsigned int const ,MiscCmds::INFO> >,0> >::iterator::operator++, COMDAT
; _this$ = ecx
; Line 480
	push	ebp
	mov	ebp, esp
	sub	esp, 12					; 0000000cH
	mov	DWORD PTR _this$[ebp], ecx
; Line 481
	mov	eax, DWORD PTR _this$[ebp]
	mov	ecx, DWORD PTR [eax]
	mov	edx, DWORD PTR [eax+4]
	mov	DWORD PTR __Tmp$[ebp], ecx
	mov	DWORD PTR __Tmp$[ebp+4], edx
; Line 482
	mov	ecx, DWORD PTR _this$[ebp]
	call	??Eiterator@?$_Tree@V?$_Tmap_traits@IUINFO@MiscCmds@@U?$less@I@std@@V?$allocator@U?$pair@$$CBIUINFO@MiscCmds@@@std@@@4@$0A@@std@@@std@@QAEAAV012@XZ ; std::_Tree<std::_Tmap_traits<unsigned int,MiscCmds::INFO,std::less<unsigned int>,std::allocator<std::pair<unsigned int const ,MiscCmds::INFO> >,0> >::iterator::operator++
; Line 483
	mov	eax, DWORD PTR ___$ReturnUdt$[ebp]
	mov	ecx, DWORD PTR __Tmp$[ebp]
	mov	DWORD PTR [eax], ecx
	mov	edx, DWORD PTR __Tmp$[ebp+4]
	mov	DWORD PTR [eax+4], edx
	mov	eax, DWORD PTR ___$ReturnUdt$[ebp]
; Line 484
	mov	esp, ebp
	pop	ebp
	ret	8
??Eiterator@?$_Tree@V?$_Tmap_traits@IUINFO@MiscCmds@@U?$less@I@std@@V?$allocator@U?$pair@$$CBIUINFO@MiscCmds@@@std@@@4@$0A@@std@@@std@@QAE?AV012@H@Z ENDP ; std::_Tree<std::_Tmap_traits<unsigned int,MiscCmds::INFO,std::less<unsigned int>,std::allocator<std::pair<unsigned int const ,MiscCmds::INFO> >,0> >::iterator::operator++
_TEXT	ENDS
PUBLIC	??D?$_Iterator@$00@?$list@UEquipDesc@@V?$allocator@UEquipDesc@@@std@@@std@@QBEAAUEquipDesc@@XZ ; std::list<EquipDesc,std::allocator<EquipDesc> >::_Iterator<1>::operator*
; Function compile flags: /Odtp
;	COMDAT ??C?$_Iterator@$00@?$list@UEquipDesc@@V?$allocator@UEquipDesc@@@std@@@std@@QBEPAUEquipDesc@@XZ
_TEXT	SEGMENT
_this$ = -4						; size = 4
??C?$_Iterator@$00@?$list@UEquipDesc@@V?$allocator@UEquipDesc@@@std@@@std@@QBEPAUEquipDesc@@XZ PROC ; std::list<EquipDesc,std::allocator<EquipDesc> >::_Iterator<1>::operator->, COMDAT
; _this$ = ecx
; File c:\program files (x86)\microsoft visual studio 9.0\vc\include\list
; Line 398
	push	ebp
	mov	ebp, esp
	push	ecx
	mov	DWORD PTR _this$[ebp], ecx
; Line 399
	mov	ecx, DWORD PTR _this$[ebp]
	call	??D?$_Iterator@$00@?$list@UEquipDesc@@V?$allocator@UEquipDesc@@@std@@@std@@QBEAAUEquipDesc@@XZ ; std::list<EquipDesc,std::allocator<EquipDesc> >::_Iterator<1>::operator*
; Line 400
	mov	esp, ebp
	pop	ebp
	ret	0
??C?$_Iterator@$00@?$list@UEquipDesc@@V?$allocator@UEquipDesc@@@std@@@std@@QBEPAUEquipDesc@@XZ ENDP ; std::list<EquipDesc,std::allocator<EquipDesc> >::_Iterator<1>::operator->
_TEXT	ENDS
PUBLIC	??E?$_Iterator@$00@?$list@UEquipDesc@@V?$allocator@UEquipDesc@@@std@@@std@@QAEAAV012@XZ ; std::list<EquipDesc,std::allocator<EquipDesc> >::_Iterator<1>::operator++
; Function compile flags: /Odtp
;	COMDAT ??E?$_Iterator@$00@?$list@UEquipDesc@@V?$allocator@UEquipDesc@@@std@@@std@@QAE?AV012@H@Z
_TEXT	SEGMENT
_this$ = -12						; size = 4
__Tmp$ = -8						; size = 8
___$ReturnUdt$ = 8					; size = 4
___formal$ = 12						; size = 4
??E?$_Iterator@$00@?$list@UEquipDesc@@V?$allocator@UEquipDesc@@@std@@@std@@QAE?AV012@H@Z PROC ; std::list<EquipDesc,std::allocator<EquipDesc> >::_Iterator<1>::operator++, COMDAT
; _this$ = ecx
; Line 409
	push	ebp
	mov	ebp, esp
	sub	esp, 12					; 0000000cH
	mov	DWORD PTR _this$[ebp], ecx
; Line 410
	mov	eax, DWORD PTR _this$[ebp]
	mov	ecx, DWORD PTR [eax]
	mov	edx, DWORD PTR [eax+4]
	mov	DWORD PTR __Tmp$[ebp], ecx
	mov	DWORD PTR __Tmp$[ebp+4], edx
; Line 411
	mov	ecx, DWORD PTR _this$[ebp]
	call	??E?$_Iterator@$00@?$list@UEquipDesc@@V?$allocator@UEquipDesc@@@std@@@std@@QAEAAV012@XZ ; std::list<EquipDesc,std::allocator<EquipDesc> >::_Iterator<1>::operator++
; Line 412
	mov	eax, DWORD PTR ___$ReturnUdt$[ebp]
	mov	ecx, DWORD PTR __Tmp$[ebp]
	mov	DWORD PTR [eax], ecx
	mov	edx, DWORD PTR __Tmp$[ebp+4]
	mov	DWORD PTR [eax+4], edx
	mov	eax, DWORD PTR ___$ReturnUdt$[ebp]
; Line 413
	mov	esp, ebp
	pop	ebp
	ret	8
??E?$_Iterator@$00@?$list@UEquipDesc@@V?$allocator@UEquipDesc@@@std@@@std@@QAE?AV012@H@Z ENDP ; std::list<EquipDesc,std::allocator<EquipDesc> >::_Iterator<1>::operator++
_TEXT	ENDS
PUBLIC	??8?$_Const_iterator@$00@?$list@UEquipDesc@@V?$allocator@UEquipDesc@@@std@@@std@@QBE_NABV012@@Z ; std::list<EquipDesc,std::allocator<EquipDesc> >::_Const_iterator<1>::operator==
; Function compile flags: /Odtp
;	COMDAT ??9?$_Const_iterator@$00@?$list@UEquipDesc@@V?$allocator@UEquipDesc@@@std@@@std@@QBE_NABV012@@Z
_TEXT	SEGMENT
_this$ = -4						; size = 4
__Right$ = 8						; size = 4
??9?$_Const_iterator@$00@?$list@UEquipDesc@@V?$allocator@UEquipDesc@@@std@@@std@@QBE_NABV012@@Z PROC ; std::list<EquipDesc,std::allocator<EquipDesc> >::_Const_iterator<1>::operator!=, COMDAT
; _this$ = ecx
; Line 302
	push	ebp
	mov	ebp, esp
	push	ecx
	mov	DWORD PTR _this$[ebp], ecx
; Line 303
	mov	eax, DWORD PTR __Right$[ebp]
	push	eax
	mov	ecx, DWORD PTR _this$[ebp]
	call	??8?$_Const_iterator@$00@?$list@UEquipDesc@@V?$allocator@UEquipDesc@@@std@@@std@@QBE_NABV012@@Z ; std::list<EquipDesc,std::allocator<EquipDesc> >::_Const_iterator<1>::operator==
	movzx	eax, al
	neg	eax
	sbb	eax, eax
	add	eax, 1
; Line 304
	mov	esp, ebp
	pop	ebp
	ret	4
??9?$_Const_iterator@$00@?$list@UEquipDesc@@V?$allocator@UEquipDesc@@@std@@@std@@QBE_NABV012@@Z ENDP ; std::list<EquipDesc,std::allocator<EquipDesc> >::_Const_iterator<1>::operator!=
; Function compile flags: /Odtp
_TEXT	ENDS
;	COMDAT ?_Nextnode@?$list@UEquipDesc@@V?$allocator@UEquipDesc@@@std@@@std@@KAAAPAU_Node@?$_List_nod@UEquipDesc@@V?$allocator@UEquipDesc@@@std@@@2@PAU342@@Z
_TEXT	SEGMENT
__Pnode$ = 8						; size = 4
?_Nextnode@?$list@UEquipDesc@@V?$allocator@UEquipDesc@@@std@@@std@@KAAAPAU_Node@?$_List_nod@UEquipDesc@@V?$allocator@UEquipDesc@@@std@@@2@PAU342@@Z PROC ; std::list<EquipDesc,std::allocator<EquipDesc> >::_Nextnode, COMDAT
; Line 114
	push	ebp
	mov	ebp, esp
; Line 115
	mov	eax, DWORD PTR __Pnode$[ebp]
; Line 116
	pop	ebp
	ret	0
?_Nextnode@?$list@UEquipDesc@@V?$allocator@UEquipDesc@@@std@@@std@@KAAAPAU_Node@?$_List_nod@UEquipDesc@@V?$allocator@UEquipDesc@@@std@@@2@PAU342@@Z ENDP ; std::list<EquipDesc,std::allocator<EquipDesc> >::_Nextnode
; Function compile flags: /Odtp
_TEXT	ENDS
;	COMDAT ??R?$less@I@std@@QBE_NABI0@Z
_TEXT	SEGMENT
_this$ = -4						; size = 4
__Left$ = 8						; size = 4
__Right$ = 12						; size = 4
??R?$less@I@std@@QBE_NABI0@Z PROC			; std::less<unsigned int>::operator(), COMDAT
; _this$ = ecx
; File c:\program files (x86)\microsoft visual studio 9.0\vc\include\functional
; Line 142
	push	ebp
	mov	ebp, esp
	push	ecx
	mov	DWORD PTR _this$[ebp], ecx
; Line 143
	mov	eax, DWORD PTR __Left$[ebp]
	mov	ecx, DWORD PTR __Right$[ebp]
	mov	edx, DWORD PTR [eax]
	cmp	edx, DWORD PTR [ecx]
	sbb	eax, eax
	neg	eax
; Line 144
	mov	esp, ebp
	pop	ebp
	ret	8
??R?$less@I@std@@QBE_NABI0@Z ENDP			; std::less<unsigned int>::operator()
_TEXT	ENDS
PUBLIC	?_Kfn@?$_Tmap_traits@IUINFO@MiscCmds@@U?$less@I@std@@V?$allocator@U?$pair@$$CBIUINFO@MiscCmds@@@std@@@4@$0A@@std@@SAABIABU?$pair@$$CBIUINFO@MiscCmds@@@2@@Z ; std::_Tmap_traits<unsigned int,MiscCmds::INFO,std::less<unsigned int>,std::allocator<std::pair<unsigned int const ,MiscCmds::INFO> >,0>::_Kfn
PUBLIC	?_Myval@?$_Tree@V?$_Tmap_traits@IUINFO@MiscCmds@@U?$less@I@std@@V?$allocator@U?$pair@$$CBIUINFO@MiscCmds@@@std@@@4@$0A@@std@@@std@@KAAAU?$pair@$$CBIUINFO@MiscCmds@@@2@PAU_Node@?$_Tree_nod@V?$_Tmap_traits@IUINFO@MiscCmds@@U?$less@I@std@@V?$allocator@U?$pair@$$CBIUINFO@MiscCmds@@@std@@@4@$0A@@std@@@2@@Z ; std::_Tree<std::_Tmap_traits<unsigned int,MiscCmds::INFO,std::less<unsigned int>,std::allocator<std::pair<unsigned int const ,MiscCmds::INFO> >,0> >::_Myval
; Function compile flags: /Odtp
;	COMDAT ?_Key@?$_Tree@V?$_Tmap_traits@IUINFO@MiscCmds@@U?$less@I@std@@V?$allocator@U?$pair@$$CBIUINFO@MiscCmds@@@std@@@4@$0A@@std@@@std@@KAABIPAU_Node@?$_Tree_nod@V?$_Tmap_traits@IUINFO@MiscCmds@@U?$less@I@std@@V?$allocator@U?$pair@$$CBIUINFO@MiscCmds@@@std@@@4@$0A@@std@@@2@@Z
_TEXT	SEGMENT
__Pnode$ = 8						; size = 4
?_Key@?$_Tree@V?$_Tmap_traits@IUINFO@MiscCmds@@U?$less@I@std@@V?$allocator@U?$pair@$$CBIUINFO@MiscCmds@@@std@@@4@$0A@@std@@@std@@KAABIPAU_Node@?$_Tree_nod@V?$_Tmap_traits@IUINFO@MiscCmds@@U?$less@I@std@@V?$allocator@U?$pair@$$CBIUINFO@MiscCmds@@@std@@@4@$0A@@std@@@2@@Z PROC ; std::_Tree<std::_Tmap_traits<unsigned int,MiscCmds::INFO,std::less<unsigned int>,std::allocator<std::pair<unsigned int const ,MiscCmds::INFO> >,0> >::_Key, COMDAT
; File c:\program files (x86)\microsoft visual studio 9.0\vc\include\xtree
; Line 161
	push	ebp
	mov	ebp, esp
; Line 162
	mov	eax, DWORD PTR __Pnode$[ebp]
	push	eax
	call	?_Myval@?$_Tree@V?$_Tmap_traits@IUINFO@MiscCmds@@U?$less@I@std@@V?$allocator@U?$pair@$$CBIUINFO@MiscCmds@@@std@@@4@$0A@@std@@@std@@KAAAU?$pair@$$CBIUINFO@MiscCmds@@@2@PAU_Node@?$_Tree_nod@V?$_Tmap_traits@IUINFO@MiscCmds@@U?$less@I@std@@V?$allocator@U?$pair@$$CBIUINFO@MiscCmds@@@std@@@4@$0A@@std@@@2@@Z ; std::_Tree<std::_Tmap_traits<unsigned int,MiscCmds::INFO,std::less<unsigned int>,std::allocator<std::pair<unsigned int const ,MiscCmds::INFO> >,0> >::_Myval
	add	esp, 4
	push	eax
	call	?_Kfn@?$_Tmap_traits@IUINFO@MiscCmds@@U?$less@I@std@@V?$allocator@U?$pair@$$CBIUINFO@MiscCmds@@@std@@@4@$0A@@std@@SAABIABU?$pair@$$CBIUINFO@MiscCmds@@@2@@Z ; std::_Tmap_traits<unsigned int,MiscCmds::INFO,std::less<unsigned int>,std::allocator<std::pair<unsigned int const ,MiscCmds::INFO> >,0>::_Kfn
	add	esp, 4
; Line 163
	pop	ebp
	ret	0
?_Key@?$_Tree@V?$_Tmap_traits@IUINFO@MiscCmds@@U?$less@I@std@@V?$allocator@U?$pair@$$CBIUINFO@MiscCmds@@@std@@@4@$0A@@std@@@std@@KAABIPAU_Node@?$_Tree_nod@V?$_Tmap_traits@IUINFO@MiscCmds@@U?$less@I@std@@V?$allocator@U?$pair@$$CBIUINFO@MiscCmds@@@std@@@4@$0A@@std@@@2@@Z ENDP ; std::_Tree<std::_Tmap_traits<unsigned int,MiscCmds::INFO,std::less<unsigned int>,std::allocator<std::pair<unsigned int const ,MiscCmds::INFO> >,0> >::_Key
_TEXT	ENDS
PUBLIC	?insert@?$_Tree@V?$_Tmap_traits@IUINFO@MiscCmds@@U?$less@I@std@@V?$allocator@U?$pair@$$CBIUINFO@MiscCmds@@@std@@@4@$0A@@std@@@std@@QAE?AU?$pair@Viterator@?$_Tree@V?$_Tmap_traits@IUINFO@MiscCmds@@U?$less@I@std@@V?$allocator@U?$pair@$$CBIUINFO@MiscCmds@@@std@@@4@$0A@@std@@@std@@_N@2@ABU?$pair@$$CBIUINFO@MiscCmds@@@2@@Z ; std::_Tree<std::_Tmap_traits<unsigned int,MiscCmds::INFO,std::less<unsigned int>,std::allocator<std::pair<unsigned int const ,MiscCmds::INFO> >,0> >::insert
PUBLIC	??Econst_iterator@?$_Tree@V?$_Tmap_traits@IUINFO@MiscCmds@@U?$less@I@std@@V?$allocator@U?$pair@$$CBIUINFO@MiscCmds@@@std@@@4@$0A@@std@@@std@@QAEAAV012@XZ ; std::_Tree<std::_Tmap_traits<unsigned int,MiscCmds::INFO,std::less<unsigned int>,std::allocator<std::pair<unsigned int const ,MiscCmds::INFO> >,0> >::const_iterator::operator++
PUBLIC	?_Isnil@?$_Tree@V?$_Tmap_traits@IUINFO@MiscCmds@@U?$less@I@std@@V?$allocator@U?$pair@$$CBIUINFO@MiscCmds@@@std@@@4@$0A@@std@@@std@@KAAADPAU_Node@?$_Tree_nod@V?$_Tmap_traits@IUINFO@MiscCmds@@U?$less@I@std@@V?$allocator@U?$pair@$$CBIUINFO@MiscCmds@@@std@@@4@$0A@@std@@@2@@Z ; std::_Tree<std::_Tmap_traits<unsigned int,MiscCmds::INFO,std::less<unsigned int>,std::allocator<std::pair<unsigned int const ,MiscCmds::INFO> >,0> >::_Isnil
PUBLIC	?_Right@?$_Tree@V?$_Tmap_traits@IUINFO@MiscCmds@@U?$less@I@std@@V?$allocator@U?$pair@$$CBIUINFO@MiscCmds@@@std@@@4@$0A@@std@@@std@@KAAAPAU_Node@?$_Tree_nod@V?$_Tmap_traits@IUINFO@MiscCmds@@U?$less@I@std@@V?$allocator@U?$pair@$$CBIUINFO@MiscCmds@@@std@@@4@$0A@@std@@@2@PAU342@@Z ; std::_Tree<std::_Tmap_traits<unsigned int,MiscCmds::INFO,std::less<unsigned int>,std::allocator<std::pair<unsigned int const ,MiscCmds::INFO> >,0> >::_Right
PUBLIC	??Fconst_iterator@?$_Tree@V?$_Tmap_traits@IUINFO@MiscCmds@@U?$less@I@std@@V?$allocator@U?$pair@$$CBIUINFO@MiscCmds@@@std@@@4@$0A@@std@@@std@@QAEAAV012@XZ ; std::_Tree<std::_Tmap_traits<unsigned int,MiscCmds::INFO,std::less<unsigned int>,std::allocator<std::pair<unsigned int const ,MiscCmds::INFO> >,0> >::const_iterator::operator--
PUBLIC	?_Rmost@?$_Tree@V?$_Tmap_traits@IUINFO@MiscCmds@@U?$less@I@std@@V?$allocator@U?$pair@$$CBIUINFO@MiscCmds@@@std@@@4@$0A@@std@@@std@@IBEAAPAU_Node@?$_Tree_nod@V?$_Tmap_traits@IUINFO@MiscCmds@@U?$less@I@std@@V?$allocator@U?$pair@$$CBIUINFO@MiscCmds@@@std@@@4@$0A@@std@@@2@XZ ; std::_Tree<std::_Tmap_traits<unsigned int,MiscCmds::INFO,std::less<unsigned int>,std::allocator<std::pair<unsigned int const ,MiscCmds::INFO> >,0> >::_Rmost
PUBLIC	?_Insert@?$_Tree@V?$_Tmap_traits@IUINFO@MiscCmds@@U?$less@I@std@@V?$allocator@U?$pair@$$CBIUINFO@MiscCmds@@@std@@@4@$0A@@std@@@std@@IAE?AViterator@12@_NPAU_Node@?$_Tree_nod@V?$_Tmap_traits@IUINFO@MiscCmds@@U?$less@I@std@@V?$allocator@U?$pair@$$CBIUINFO@MiscCmds@@@std@@@4@$0A@@std@@@2@ABU?$pair@$$CBIUINFO@MiscCmds@@@2@@Z ; std::_Tree<std::_Tmap_traits<unsigned int,MiscCmds::INFO,std::less<unsigned int>,std::allocator<std::pair<unsigned int const ,MiscCmds::INFO> >,0> >::_Insert
PUBLIC	?size@?$_Tree@V?$_Tmap_traits@IUINFO@MiscCmds@@U?$less@I@std@@V?$allocator@U?$pair@$$CBIUINFO@MiscCmds@@@std@@@4@$0A@@std@@@std@@QBEIXZ ; std::_Tree<std::_Tmap_traits<unsigned int,MiscCmds::INFO,std::less<unsigned int>,std::allocator<std::pair<unsigned int const ,MiscCmds::INFO> >,0> >::size
PUBLIC	??0const_iterator@?$_Tree@V?$_Tmap_traits@IUINFO@MiscCmds@@U?$less@I@std@@V?$allocator@U?$pair@$$CBIUINFO@MiscCmds@@@std@@@4@$0A@@std@@@std@@QAE@XZ ; std::_Tree<std::_Tmap_traits<unsigned int,MiscCmds::INFO,std::less<unsigned int>,std::allocator<std::pair<unsigned int const ,MiscCmds::INFO> >,0> >::const_iterator::const_iterator
; Function compile flags: /Odtp
;	COMDAT ?insert@?$_Tree@V?$_Tmap_traits@IUINFO@MiscCmds@@U?$less@I@std@@V?$allocator@U?$pair@$$CBIUINFO@MiscCmds@@@std@@@4@$0A@@std@@@std@@QAE?AViterator@12@Vconst_iterator@12@ABU?$pair@$$CBIUINFO@MiscCmds@@@2@@Z
_TEXT	SEGMENT
_this$ = -72						; size = 4
$T146952 = -68						; size = 12
$T146951 = -56						; size = 8
$T146950 = -48						; size = 8
$T146949 = -40						; size = 8
$T146948 = -32						; size = 8
$T146947 = -24						; size = 8
$T146946 = -16						; size = 8
__Next$ = -8						; size = 8
___$ReturnUdt$ = 8					; size = 4
__Where$ = 12						; size = 8
__Val$ = 20						; size = 4
?insert@?$_Tree@V?$_Tmap_traits@IUINFO@MiscCmds@@U?$less@I@std@@V?$allocator@U?$pair@$$CBIUINFO@MiscCmds@@@std@@@4@$0A@@std@@@std@@QAE?AViterator@12@Vconst_iterator@12@ABU?$pair@$$CBIUINFO@MiscCmds@@@2@@Z PROC ; std::_Tree<std::_Tmap_traits<unsigned int,MiscCmds::INFO,std::less<unsigned int>,std::allocator<std::pair<unsigned int const ,MiscCmds::INFO> >,0> >::insert, COMDAT
; _this$ = ecx
; Line 664
	push	ebp
	mov	ebp, esp
	sub	esp, 72					; 00000048H
	mov	DWORD PTR _this$[ebp], ecx
; Line 671
	lea	ecx, DWORD PTR __Next$[ebp]
	call	??0const_iterator@?$_Tree@V?$_Tmap_traits@IUINFO@MiscCmds@@U?$less@I@std@@V?$allocator@U?$pair@$$CBIUINFO@MiscCmds@@@std@@@4@$0A@@std@@@std@@QAE@XZ ; std::_Tree<std::_Tmap_traits<unsigned int,MiscCmds::INFO,std::less<unsigned int>,std::allocator<std::pair<unsigned int const ,MiscCmds::INFO> >,0> >::const_iterator::const_iterator
; Line 673
	mov	ecx, DWORD PTR _this$[ebp]
	call	?size@?$_Tree@V?$_Tmap_traits@IUINFO@MiscCmds@@U?$less@I@std@@V?$allocator@U?$pair@$$CBIUINFO@MiscCmds@@@std@@@4@$0A@@std@@@std@@QBEIXZ ; std::_Tree<std::_Tmap_traits<unsigned int,MiscCmds::INFO,std::less<unsigned int>,std::allocator<std::pair<unsigned int const ,MiscCmds::INFO> >,0> >::size
	test	eax, eax
	jne	SHORT $LN32@insert
; Line 674
	mov	eax, DWORD PTR __Val$[ebp]
	push	eax
	mov	ecx, DWORD PTR _this$[ebp]
	mov	edx, DWORD PTR [ecx+24]
	push	edx
	push	1
	mov	eax, DWORD PTR ___$ReturnUdt$[ebp]
	push	eax
	mov	ecx, DWORD PTR _this$[ebp]
	call	?_Insert@?$_Tree@V?$_Tmap_traits@IUINFO@MiscCmds@@U?$less@I@std@@V?$allocator@U?$pair@$$CBIUINFO@MiscCmds@@@std@@@4@$0A@@std@@@std@@IAE?AViterator@12@_NPAU_Node@?$_Tree_nod@V?$_Tmap_traits@IUINFO@MiscCmds@@U?$less@I@std@@V?$allocator@U?$pair@$$CBIUINFO@MiscCmds@@@std@@@4@$0A@@std@@@2@ABU?$pair@$$CBIUINFO@MiscCmds@@@2@@Z ; std::_Tree<std::_Tmap_traits<unsigned int,MiscCmds::INFO,std::less<unsigned int>,std::allocator<std::pair<unsigned int const ,MiscCmds::INFO> >,0> >::_Insert
	mov	eax, DWORD PTR ___$ReturnUdt$[ebp]
	jmp	$LN33@insert
	jmp	$LN31@insert
$LN32@insert:
; Line 675
	xor	ecx, ecx
	je	$LN30@insert
; Line 677
	lea	edx, DWORD PTR $T146946[ebp]
	push	edx
	mov	ecx, DWORD PTR _this$[ebp]
	call	?begin@?$_Tree@V?$_Tmap_traits@IUINFO@MiscCmds@@U?$less@I@std@@V?$allocator@U?$pair@$$CBIUINFO@MiscCmds@@@std@@@4@$0A@@std@@@std@@QAE?AViterator@12@XZ ; std::_Tree<std::_Tmap_traits<unsigned int,MiscCmds::INFO,std::less<unsigned int>,std::allocator<std::pair<unsigned int const ,MiscCmds::INFO> >,0> >::begin
	push	eax
	lea	ecx, DWORD PTR __Where$[ebp]
	call	??8const_iterator@?$_Tree@V?$_Tmap_traits@IUINFO@MiscCmds@@U?$less@I@std@@V?$allocator@U?$pair@$$CBIUINFO@MiscCmds@@@std@@@4@$0A@@std@@@std@@QBE_NABV012@@Z ; std::_Tree<std::_Tmap_traits<unsigned int,MiscCmds::INFO,std::less<unsigned int>,std::allocator<std::pair<unsigned int const ,MiscCmds::INFO> >,0> >::const_iterator::operator==
	movzx	eax, al
	test	eax, eax
	je	SHORT $LN29@insert
; Line 679
	mov	ecx, DWORD PTR __Val$[ebp]
	push	ecx
	call	?_Kfn@?$_Tmap_traits@IUINFO@MiscCmds@@U?$less@I@std@@V?$allocator@U?$pair@$$CBIUINFO@MiscCmds@@@std@@@4@$0A@@std@@SAABIABU?$pair@$$CBIUINFO@MiscCmds@@@2@@Z ; std::_Tmap_traits<unsigned int,MiscCmds::INFO,std::less<unsigned int>,std::allocator<std::pair<unsigned int const ,MiscCmds::INFO> >,0>::_Kfn
	add	esp, 4
	push	eax
	lea	ecx, DWORD PTR __Where$[ebp]
	call	?_Mynode@const_iterator@?$_Tree@V?$_Tmap_traits@IUINFO@MiscCmds@@U?$less@I@std@@V?$allocator@U?$pair@$$CBIUINFO@MiscCmds@@@std@@@4@$0A@@std@@@std@@QBEPAU_Node@?$_Tree_nod@V?$_Tmap_traits@IUINFO@MiscCmds@@U?$less@I@std@@V?$allocator@U?$pair@$$CBIUINFO@MiscCmds@@@std@@@4@$0A@@std@@@3@XZ ; std::_Tree<std::_Tmap_traits<unsigned int,MiscCmds::INFO,std::less<unsigned int>,std::allocator<std::pair<unsigned int const ,MiscCmds::INFO> >,0> >::const_iterator::_Mynode
	push	eax
	call	?_Key@?$_Tree@V?$_Tmap_traits@IUINFO@MiscCmds@@U?$less@I@std@@V?$allocator@U?$pair@$$CBIUINFO@MiscCmds@@@std@@@4@$0A@@std@@@std@@KAABIPAU_Node@?$_Tree_nod@V?$_Tmap_traits@IUINFO@MiscCmds@@U?$less@I@std@@V?$allocator@U?$pair@$$CBIUINFO@MiscCmds@@@std@@@4@$0A@@std@@@2@@Z ; std::_Tree<std::_Tmap_traits<unsigned int,MiscCmds::INFO,std::less<unsigned int>,std::allocator<std::pair<unsigned int const ,MiscCmds::INFO> >,0> >::_Key
	add	esp, 4
	push	eax
	mov	ecx, DWORD PTR _this$[ebp]
	add	ecx, 8
	call	??R?$less@I@std@@QBE_NABI0@Z		; std::less<unsigned int>::operator()
	movzx	edx, al
	test	edx, edx
	jne	SHORT $LN28@insert
; Line 681
	mov	eax, DWORD PTR __Val$[ebp]
	push	eax
	lea	ecx, DWORD PTR __Where$[ebp]
	call	?_Mynode@const_iterator@?$_Tree@V?$_Tmap_traits@IUINFO@MiscCmds@@U?$less@I@std@@V?$allocator@U?$pair@$$CBIUINFO@MiscCmds@@@std@@@4@$0A@@std@@@std@@QBEPAU_Node@?$_Tree_nod@V?$_Tmap_traits@IUINFO@MiscCmds@@U?$less@I@std@@V?$allocator@U?$pair@$$CBIUINFO@MiscCmds@@@std@@@4@$0A@@std@@@3@XZ ; std::_Tree<std::_Tmap_traits<unsigned int,MiscCmds::INFO,std::less<unsigned int>,std::allocator<std::pair<unsigned int const ,MiscCmds::INFO> >,0> >::const_iterator::_Mynode
	push	eax
	push	1
	mov	ecx, DWORD PTR ___$ReturnUdt$[ebp]
	push	ecx
	mov	ecx, DWORD PTR _this$[ebp]
	call	?_Insert@?$_Tree@V?$_Tmap_traits@IUINFO@MiscCmds@@U?$less@I@std@@V?$allocator@U?$pair@$$CBIUINFO@MiscCmds@@@std@@@4@$0A@@std@@@std@@IAE?AViterator@12@_NPAU_Node@?$_Tree_nod@V?$_Tmap_traits@IUINFO@MiscCmds@@U?$less@I@std@@V?$allocator@U?$pair@$$CBIUINFO@MiscCmds@@@std@@@4@$0A@@std@@@2@ABU?$pair@$$CBIUINFO@MiscCmds@@@2@@Z ; std::_Tree<std::_Tmap_traits<unsigned int,MiscCmds::INFO,std::less<unsigned int>,std::allocator<std::pair<unsigned int const ,MiscCmds::INFO> >,0> >::_Insert
	mov	eax, DWORD PTR ___$ReturnUdt$[ebp]
	jmp	$LN33@insert
$LN28@insert:
; Line 682
	jmp	$LN27@insert
$LN29@insert:
; Line 683
	lea	edx, DWORD PTR $T146947[ebp]
	push	edx
	mov	ecx, DWORD PTR _this$[ebp]
	call	?end@?$_Tree@V?$_Tmap_traits@IUINFO@MiscCmds@@U?$less@I@std@@V?$allocator@U?$pair@$$CBIUINFO@MiscCmds@@@std@@@4@$0A@@std@@@std@@QAE?AViterator@12@XZ ; std::_Tree<std::_Tmap_traits<unsigned int,MiscCmds::INFO,std::less<unsigned int>,std::allocator<std::pair<unsigned int const ,MiscCmds::INFO> >,0> >::end
	push	eax
	lea	ecx, DWORD PTR __Where$[ebp]
	call	??8const_iterator@?$_Tree@V?$_Tmap_traits@IUINFO@MiscCmds@@U?$less@I@std@@V?$allocator@U?$pair@$$CBIUINFO@MiscCmds@@@std@@@4@$0A@@std@@@std@@QBE_NABV012@@Z ; std::_Tree<std::_Tmap_traits<unsigned int,MiscCmds::INFO,std::less<unsigned int>,std::allocator<std::pair<unsigned int const ,MiscCmds::INFO> >,0> >::const_iterator::operator==
	movzx	eax, al
	test	eax, eax
	je	SHORT $LN26@insert
; Line 685
	mov	ecx, DWORD PTR _this$[ebp]
	call	?_Rmost@?$_Tree@V?$_Tmap_traits@IUINFO@MiscCmds@@U?$less@I@std@@V?$allocator@U?$pair@$$CBIUINFO@MiscCmds@@@std@@@4@$0A@@std@@@std@@IBEAAPAU_Node@?$_Tree_nod@V?$_Tmap_traits@IUINFO@MiscCmds@@U?$less@I@std@@V?$allocator@U?$pair@$$CBIUINFO@MiscCmds@@@std@@@4@$0A@@std@@@2@XZ ; std::_Tree<std::_Tmap_traits<unsigned int,MiscCmds::INFO,std::less<unsigned int>,std::allocator<std::pair<unsigned int const ,MiscCmds::INFO> >,0> >::_Rmost
	mov	ecx, DWORD PTR [eax]
	push	ecx
	call	?_Key@?$_Tree@V?$_Tmap_traits@IUINFO@MiscCmds@@U?$less@I@std@@V?$allocator@U?$pair@$$CBIUINFO@MiscCmds@@@std@@@4@$0A@@std@@@std@@KAABIPAU_Node@?$_Tree_nod@V?$_Tmap_traits@IUINFO@MiscCmds@@U?$less@I@std@@V?$allocator@U?$pair@$$CBIUINFO@MiscCmds@@@std@@@4@$0A@@std@@@2@@Z ; std::_Tree<std::_Tmap_traits<unsigned int,MiscCmds::INFO,std::less<unsigned int>,std::allocator<std::pair<unsigned int const ,MiscCmds::INFO> >,0> >::_Key
	add	esp, 4
	push	eax
	mov	edx, DWORD PTR __Val$[ebp]
	push	edx
	call	?_Kfn@?$_Tmap_traits@IUINFO@MiscCmds@@U?$less@I@std@@V?$allocator@U?$pair@$$CBIUINFO@MiscCmds@@@std@@@4@$0A@@std@@SAABIABU?$pair@$$CBIUINFO@MiscCmds@@@2@@Z ; std::_Tmap_traits<unsigned int,MiscCmds::INFO,std::less<unsigned int>,std::allocator<std::pair<unsigned int const ,MiscCmds::INFO> >,0>::_Kfn
	add	esp, 4
	push	eax
	mov	ecx, DWORD PTR _this$[ebp]
	add	ecx, 8
	call	??R?$less@I@std@@QBE_NABI0@Z		; std::less<unsigned int>::operator()
	movzx	eax, al
	test	eax, eax
	jne	SHORT $LN25@insert
; Line 687
	mov	ecx, DWORD PTR __Val$[ebp]
	push	ecx
	mov	ecx, DWORD PTR _this$[ebp]
	call	?_Rmost@?$_Tree@V?$_Tmap_traits@IUINFO@MiscCmds@@U?$less@I@std@@V?$allocator@U?$pair@$$CBIUINFO@MiscCmds@@@std@@@4@$0A@@std@@@std@@IBEAAPAU_Node@?$_Tree_nod@V?$_Tmap_traits@IUINFO@MiscCmds@@U?$less@I@std@@V?$allocator@U?$pair@$$CBIUINFO@MiscCmds@@@std@@@4@$0A@@std@@@2@XZ ; std::_Tree<std::_Tmap_traits<unsigned int,MiscCmds::INFO,std::less<unsigned int>,std::allocator<std::pair<unsigned int const ,MiscCmds::INFO> >,0> >::_Rmost
	mov	edx, DWORD PTR [eax]
	push	edx
	push	0
	mov	eax, DWORD PTR ___$ReturnUdt$[ebp]
	push	eax
	mov	ecx, DWORD PTR _this$[ebp]
	call	?_Insert@?$_Tree@V?$_Tmap_traits@IUINFO@MiscCmds@@U?$less@I@std@@V?$allocator@U?$pair@$$CBIUINFO@MiscCmds@@@std@@@4@$0A@@std@@@std@@IAE?AViterator@12@_NPAU_Node@?$_Tree_nod@V?$_Tmap_traits@IUINFO@MiscCmds@@U?$less@I@std@@V?$allocator@U?$pair@$$CBIUINFO@MiscCmds@@@std@@@4@$0A@@std@@@2@ABU?$pair@$$CBIUINFO@MiscCmds@@@2@@Z ; std::_Tree<std::_Tmap_traits<unsigned int,MiscCmds::INFO,std::less<unsigned int>,std::allocator<std::pair<unsigned int const ,MiscCmds::INFO> >,0> >::_Insert
	mov	eax, DWORD PTR ___$ReturnUdt$[ebp]
	jmp	$LN33@insert
$LN25@insert:
; Line 689
	jmp	$LN27@insert
$LN26@insert:
; Line 691
	mov	ecx, DWORD PTR __Val$[ebp]
	push	ecx
	call	?_Kfn@?$_Tmap_traits@IUINFO@MiscCmds@@U?$less@I@std@@V?$allocator@U?$pair@$$CBIUINFO@MiscCmds@@@std@@@4@$0A@@std@@SAABIABU?$pair@$$CBIUINFO@MiscCmds@@@2@@Z ; std::_Tmap_traits<unsigned int,MiscCmds::INFO,std::less<unsigned int>,std::allocator<std::pair<unsigned int const ,MiscCmds::INFO> >,0>::_Kfn
	add	esp, 4
	push	eax
	lea	ecx, DWORD PTR __Where$[ebp]
	call	?_Mynode@const_iterator@?$_Tree@V?$_Tmap_traits@IUINFO@MiscCmds@@U?$less@I@std@@V?$allocator@U?$pair@$$CBIUINFO@MiscCmds@@@std@@@4@$0A@@std@@@std@@QBEPAU_Node@?$_Tree_nod@V?$_Tmap_traits@IUINFO@MiscCmds@@U?$less@I@std@@V?$allocator@U?$pair@$$CBIUINFO@MiscCmds@@@std@@@4@$0A@@std@@@3@XZ ; std::_Tree<std::_Tmap_traits<unsigned int,MiscCmds::INFO,std::less<unsigned int>,std::allocator<std::pair<unsigned int const ,MiscCmds::INFO> >,0> >::const_iterator::_Mynode
	push	eax
	call	?_Key@?$_Tree@V?$_Tmap_traits@IUINFO@MiscCmds@@U?$less@I@std@@V?$allocator@U?$pair@$$CBIUINFO@MiscCmds@@@std@@@4@$0A@@std@@@std@@KAABIPAU_Node@?$_Tree_nod@V?$_Tmap_traits@IUINFO@MiscCmds@@U?$less@I@std@@V?$allocator@U?$pair@$$CBIUINFO@MiscCmds@@@std@@@4@$0A@@std@@@2@@Z ; std::_Tree<std::_Tmap_traits<unsigned int,MiscCmds::INFO,std::less<unsigned int>,std::allocator<std::pair<unsigned int const ,MiscCmds::INFO> >,0> >::_Key
	add	esp, 4
	push	eax
	mov	ecx, DWORD PTR _this$[ebp]
	add	ecx, 8
	call	??R?$less@I@std@@QBE_NABI0@Z		; std::less<unsigned int>::operator()
	movzx	edx, al
	test	edx, edx
	jne	$LN23@insert
	mov	eax, DWORD PTR __Where$[ebp]
	mov	DWORD PTR __Next$[ebp], eax
	mov	ecx, DWORD PTR __Where$[ebp+4]
	mov	DWORD PTR __Next$[ebp+4], ecx
	lea	ecx, DWORD PTR __Next$[ebp]
	call	??Fconst_iterator@?$_Tree@V?$_Tmap_traits@IUINFO@MiscCmds@@U?$less@I@std@@V?$allocator@U?$pair@$$CBIUINFO@MiscCmds@@@std@@@4@$0A@@std@@@std@@QAEAAV012@XZ ; std::_Tree<std::_Tmap_traits<unsigned int,MiscCmds::INFO,std::less<unsigned int>,std::allocator<std::pair<unsigned int const ,MiscCmds::INFO> >,0> >::const_iterator::operator--
	mov	ecx, eax
	call	?_Mynode@const_iterator@?$_Tree@V?$_Tmap_traits@IUINFO@MiscCmds@@U?$less@I@std@@V?$allocator@U?$pair@$$CBIUINFO@MiscCmds@@@std@@@4@$0A@@std@@@std@@QBEPAU_Node@?$_Tree_nod@V?$_Tmap_traits@IUINFO@MiscCmds@@U?$less@I@std@@V?$allocator@U?$pair@$$CBIUINFO@MiscCmds@@@std@@@4@$0A@@std@@@3@XZ ; std::_Tree<std::_Tmap_traits<unsigned int,MiscCmds::INFO,std::less<unsigned int>,std::allocator<std::pair<unsigned int const ,MiscCmds::INFO> >,0> >::const_iterator::_Mynode
	push	eax
	call	?_Key@?$_Tree@V?$_Tmap_traits@IUINFO@MiscCmds@@U?$less@I@std@@V?$allocator@U?$pair@$$CBIUINFO@MiscCmds@@@std@@@4@$0A@@std@@@std@@KAABIPAU_Node@?$_Tree_nod@V?$_Tmap_traits@IUINFO@MiscCmds@@U?$less@I@std@@V?$allocator@U?$pair@$$CBIUINFO@MiscCmds@@@std@@@4@$0A@@std@@@2@@Z ; std::_Tree<std::_Tmap_traits<unsigned int,MiscCmds::INFO,std::less<unsigned int>,std::allocator<std::pair<unsigned int const ,MiscCmds::INFO> >,0> >::_Key
	add	esp, 4
	push	eax
	mov	edx, DWORD PTR __Val$[ebp]
	push	edx
	call	?_Kfn@?$_Tmap_traits@IUINFO@MiscCmds@@U?$less@I@std@@V?$allocator@U?$pair@$$CBIUINFO@MiscCmds@@@std@@@4@$0A@@std@@SAABIABU?$pair@$$CBIUINFO@MiscCmds@@@2@@Z ; std::_Tmap_traits<unsigned int,MiscCmds::INFO,std::less<unsigned int>,std::allocator<std::pair<unsigned int const ,MiscCmds::INFO> >,0>::_Kfn
	add	esp, 4
	push	eax
	mov	ecx, DWORD PTR _this$[ebp]
	add	ecx, 8
	call	??R?$less@I@std@@QBE_NABI0@Z		; std::less<unsigned int>::operator()
	movzx	eax, al
	test	eax, eax
	jne	SHORT $LN23@insert
; Line 694
	lea	ecx, DWORD PTR __Next$[ebp]
	call	?_Mynode@const_iterator@?$_Tree@V?$_Tmap_traits@IUINFO@MiscCmds@@U?$less@I@std@@V?$allocator@U?$pair@$$CBIUINFO@MiscCmds@@@std@@@4@$0A@@std@@@std@@QBEPAU_Node@?$_Tree_nod@V?$_Tmap_traits@IUINFO@MiscCmds@@U?$less@I@std@@V?$allocator@U?$pair@$$CBIUINFO@MiscCmds@@@std@@@4@$0A@@std@@@3@XZ ; std::_Tree<std::_Tmap_traits<unsigned int,MiscCmds::INFO,std::less<unsigned int>,std::allocator<std::pair<unsigned int const ,MiscCmds::INFO> >,0> >::const_iterator::_Mynode
	push	eax
	call	?_Right@?$_Tree@V?$_Tmap_traits@IUINFO@MiscCmds@@U?$less@I@std@@V?$allocator@U?$pair@$$CBIUINFO@MiscCmds@@@std@@@4@$0A@@std@@@std@@KAAAPAU_Node@?$_Tree_nod@V?$_Tmap_traits@IUINFO@MiscCmds@@U?$less@I@std@@V?$allocator@U?$pair@$$CBIUINFO@MiscCmds@@@std@@@4@$0A@@std@@@2@PAU342@@Z ; std::_Tree<std::_Tmap_traits<unsigned int,MiscCmds::INFO,std::less<unsigned int>,std::allocator<std::pair<unsigned int const ,MiscCmds::INFO> >,0> >::_Right
	add	esp, 4
	mov	ecx, DWORD PTR [eax]
	push	ecx
	call	?_Isnil@?$_Tree@V?$_Tmap_traits@IUINFO@MiscCmds@@U?$less@I@std@@V?$allocator@U?$pair@$$CBIUINFO@MiscCmds@@@std@@@4@$0A@@std@@@std@@KAAADPAU_Node@?$_Tree_nod@V?$_Tmap_traits@IUINFO@MiscCmds@@U?$less@I@std@@V?$allocator@U?$pair@$$CBIUINFO@MiscCmds@@@std@@@4@$0A@@std@@@2@@Z ; std::_Tree<std::_Tmap_traits<unsigned int,MiscCmds::INFO,std::less<unsigned int>,std::allocator<std::pair<unsigned int const ,MiscCmds::INFO> >,0> >::_Isnil
	add	esp, 4
	movsx	edx, BYTE PTR [eax]
	test	edx, edx
	je	SHORT $LN22@insert
; Line 695
	mov	eax, DWORD PTR __Val$[ebp]
	push	eax
	lea	ecx, DWORD PTR __Next$[ebp]
	call	?_Mynode@const_iterator@?$_Tree@V?$_Tmap_traits@IUINFO@MiscCmds@@U?$less@I@std@@V?$allocator@U?$pair@$$CBIUINFO@MiscCmds@@@std@@@4@$0A@@std@@@std@@QBEPAU_Node@?$_Tree_nod@V?$_Tmap_traits@IUINFO@MiscCmds@@U?$less@I@std@@V?$allocator@U?$pair@$$CBIUINFO@MiscCmds@@@std@@@4@$0A@@std@@@3@XZ ; std::_Tree<std::_Tmap_traits<unsigned int,MiscCmds::INFO,std::less<unsigned int>,std::allocator<std::pair<unsigned int const ,MiscCmds::INFO> >,0> >::const_iterator::_Mynode
	push	eax
	push	0
	mov	ecx, DWORD PTR ___$ReturnUdt$[ebp]
	push	ecx
	mov	ecx, DWORD PTR _this$[ebp]
	call	?_Insert@?$_Tree@V?$_Tmap_traits@IUINFO@MiscCmds@@U?$less@I@std@@V?$allocator@U?$pair@$$CBIUINFO@MiscCmds@@@std@@@4@$0A@@std@@@std@@IAE?AViterator@12@_NPAU_Node@?$_Tree_nod@V?$_Tmap_traits@IUINFO@MiscCmds@@U?$less@I@std@@V?$allocator@U?$pair@$$CBIUINFO@MiscCmds@@@std@@@4@$0A@@std@@@2@ABU?$pair@$$CBIUINFO@MiscCmds@@@2@@Z ; std::_Tree<std::_Tmap_traits<unsigned int,MiscCmds::INFO,std::less<unsigned int>,std::allocator<std::pair<unsigned int const ,MiscCmds::INFO> >,0> >::_Insert
	mov	eax, DWORD PTR ___$ReturnUdt$[ebp]
	jmp	$LN33@insert
; Line 696
	jmp	SHORT $LN21@insert
$LN22@insert:
; Line 697
	mov	edx, DWORD PTR __Val$[ebp]
	push	edx
	lea	ecx, DWORD PTR __Where$[ebp]
	call	?_Mynode@const_iterator@?$_Tree@V?$_Tmap_traits@IUINFO@MiscCmds@@U?$less@I@std@@V?$allocator@U?$pair@$$CBIUINFO@MiscCmds@@@std@@@4@$0A@@std@@@std@@QBEPAU_Node@?$_Tree_nod@V?$_Tmap_traits@IUINFO@MiscCmds@@U?$less@I@std@@V?$allocator@U?$pair@$$CBIUINFO@MiscCmds@@@std@@@4@$0A@@std@@@3@XZ ; std::_Tree<std::_Tmap_traits<unsigned int,MiscCmds::INFO,std::less<unsigned int>,std::allocator<std::pair<unsigned int const ,MiscCmds::INFO> >,0> >::const_iterator::_Mynode
	push	eax
	push	1
	mov	eax, DWORD PTR ___$ReturnUdt$[ebp]
	push	eax
	mov	ecx, DWORD PTR _this$[ebp]
	call	?_Insert@?$_Tree@V?$_Tmap_traits@IUINFO@MiscCmds@@U?$less@I@std@@V?$allocator@U?$pair@$$CBIUINFO@MiscCmds@@@std@@@4@$0A@@std@@@std@@IAE?AViterator@12@_NPAU_Node@?$_Tree_nod@V?$_Tmap_traits@IUINFO@MiscCmds@@U?$less@I@std@@V?$allocator@U?$pair@$$CBIUINFO@MiscCmds@@@std@@@4@$0A@@std@@@2@ABU?$pair@$$CBIUINFO@MiscCmds@@@2@@Z ; std::_Tree<std::_Tmap_traits<unsigned int,MiscCmds::INFO,std::less<unsigned int>,std::allocator<std::pair<unsigned int const ,MiscCmds::INFO> >,0> >::_Insert
	mov	eax, DWORD PTR ___$ReturnUdt$[ebp]
	jmp	$LN33@insert
$LN21@insert:
; Line 699
	jmp	$LN27@insert
$LN23@insert:
; Line 702
	lea	ecx, DWORD PTR __Where$[ebp]
	call	?_Mynode@const_iterator@?$_Tree@V?$_Tmap_traits@IUINFO@MiscCmds@@U?$less@I@std@@V?$allocator@U?$pair@$$CBIUINFO@MiscCmds@@@std@@@4@$0A@@std@@@std@@QBEPAU_Node@?$_Tree_nod@V?$_Tmap_traits@IUINFO@MiscCmds@@U?$less@I@std@@V?$allocator@U?$pair@$$CBIUINFO@MiscCmds@@@std@@@4@$0A@@std@@@3@XZ ; std::_Tree<std::_Tmap_traits<unsigned int,MiscCmds::INFO,std::less<unsigned int>,std::allocator<std::pair<unsigned int const ,MiscCmds::INFO> >,0> >::const_iterator::_Mynode
	push	eax
	call	?_Key@?$_Tree@V?$_Tmap_traits@IUINFO@MiscCmds@@U?$less@I@std@@V?$allocator@U?$pair@$$CBIUINFO@MiscCmds@@@std@@@4@$0A@@std@@@std@@KAABIPAU_Node@?$_Tree_nod@V?$_Tmap_traits@IUINFO@MiscCmds@@U?$less@I@std@@V?$allocator@U?$pair@$$CBIUINFO@MiscCmds@@@std@@@4@$0A@@std@@@2@@Z ; std::_Tree<std::_Tmap_traits<unsigned int,MiscCmds::INFO,std::less<unsigned int>,std::allocator<std::pair<unsigned int const ,MiscCmds::INFO> >,0> >::_Key
	add	esp, 4
	push	eax
	mov	ecx, DWORD PTR __Val$[ebp]
	push	ecx
	call	?_Kfn@?$_Tmap_traits@IUINFO@MiscCmds@@U?$less@I@std@@V?$allocator@U?$pair@$$CBIUINFO@MiscCmds@@@std@@@4@$0A@@std@@SAABIABU?$pair@$$CBIUINFO@MiscCmds@@@2@@Z ; std::_Tmap_traits<unsigned int,MiscCmds::INFO,std::less<unsigned int>,std::allocator<std::pair<unsigned int const ,MiscCmds::INFO> >,0>::_Kfn
	add	esp, 4
	push	eax
	mov	ecx, DWORD PTR _this$[ebp]
	add	ecx, 8
	call	??R?$less@I@std@@QBE_NABI0@Z		; std::less<unsigned int>::operator()
	movzx	edx, al
	test	edx, edx
	jne	$LN27@insert
	mov	eax, DWORD PTR __Where$[ebp]
	mov	DWORD PTR __Next$[ebp], eax
	mov	ecx, DWORD PTR __Where$[ebp+4]
	mov	DWORD PTR __Next$[ebp+4], ecx
	lea	edx, DWORD PTR $T146948[ebp]
	push	edx
	mov	ecx, DWORD PTR _this$[ebp]
	call	?end@?$_Tree@V?$_Tmap_traits@IUINFO@MiscCmds@@U?$less@I@std@@V?$allocator@U?$pair@$$CBIUINFO@MiscCmds@@@std@@@4@$0A@@std@@@std@@QAE?AViterator@12@XZ ; std::_Tree<std::_Tmap_traits<unsigned int,MiscCmds::INFO,std::less<unsigned int>,std::allocator<std::pair<unsigned int const ,MiscCmds::INFO> >,0> >::end
	push	eax
	lea	ecx, DWORD PTR __Next$[ebp]
	call	??Econst_iterator@?$_Tree@V?$_Tmap_traits@IUINFO@MiscCmds@@U?$less@I@std@@V?$allocator@U?$pair@$$CBIUINFO@MiscCmds@@@std@@@4@$0A@@std@@@std@@QAEAAV012@XZ ; std::_Tree<std::_Tmap_traits<unsigned int,MiscCmds::INFO,std::less<unsigned int>,std::allocator<std::pair<unsigned int const ,MiscCmds::INFO> >,0> >::const_iterator::operator++
	mov	ecx, eax
	call	??8const_iterator@?$_Tree@V?$_Tmap_traits@IUINFO@MiscCmds@@U?$less@I@std@@V?$allocator@U?$pair@$$CBIUINFO@MiscCmds@@@std@@@4@$0A@@std@@@std@@QBE_NABV012@@Z ; std::_Tree<std::_Tmap_traits<unsigned int,MiscCmds::INFO,std::less<unsigned int>,std::allocator<std::pair<unsigned int const ,MiscCmds::INFO> >,0> >::const_iterator::operator==
	movzx	eax, al
	test	eax, eax
	jne	SHORT $LN18@insert
	mov	ecx, DWORD PTR __Val$[ebp]
	push	ecx
	call	?_Kfn@?$_Tmap_traits@IUINFO@MiscCmds@@U?$less@I@std@@V?$allocator@U?$pair@$$CBIUINFO@MiscCmds@@@std@@@4@$0A@@std@@SAABIABU?$pair@$$CBIUINFO@MiscCmds@@@2@@Z ; std::_Tmap_traits<unsigned int,MiscCmds::INFO,std::less<unsigned int>,std::allocator<std::pair<unsigned int const ,MiscCmds::INFO> >,0>::_Kfn
	add	esp, 4
	push	eax
	lea	ecx, DWORD PTR __Next$[ebp]
	call	?_Mynode@const_iterator@?$_Tree@V?$_Tmap_traits@IUINFO@MiscCmds@@U?$less@I@std@@V?$allocator@U?$pair@$$CBIUINFO@MiscCmds@@@std@@@4@$0A@@std@@@std@@QBEPAU_Node@?$_Tree_nod@V?$_Tmap_traits@IUINFO@MiscCmds@@U?$less@I@std@@V?$allocator@U?$pair@$$CBIUINFO@MiscCmds@@@std@@@4@$0A@@std@@@3@XZ ; std::_Tree<std::_Tmap_traits<unsigned int,MiscCmds::INFO,std::less<unsigned int>,std::allocator<std::pair<unsigned int const ,MiscCmds::INFO> >,0> >::const_iterator::_Mynode
	push	eax
	call	?_Key@?$_Tree@V?$_Tmap_traits@IUINFO@MiscCmds@@U?$less@I@std@@V?$allocator@U?$pair@$$CBIUINFO@MiscCmds@@@std@@@4@$0A@@std@@@std@@KAABIPAU_Node@?$_Tree_nod@V?$_Tmap_traits@IUINFO@MiscCmds@@U?$less@I@std@@V?$allocator@U?$pair@$$CBIUINFO@MiscCmds@@@std@@@4@$0A@@std@@@2@@Z ; std::_Tree<std::_Tmap_traits<unsigned int,MiscCmds::INFO,std::less<unsigned int>,std::allocator<std::pair<unsigned int const ,MiscCmds::INFO> >,0> >::_Key
	add	esp, 4
	push	eax
	mov	ecx, DWORD PTR _this$[ebp]
	add	ecx, 8
	call	??R?$less@I@std@@QBE_NABI0@Z		; std::less<unsigned int>::operator()
	movzx	edx, al
	test	edx, edx
	jne	SHORT $LN27@insert
$LN18@insert:
; Line 705
	lea	ecx, DWORD PTR __Where$[ebp]
	call	?_Mynode@const_iterator@?$_Tree@V?$_Tmap_traits@IUINFO@MiscCmds@@U?$less@I@std@@V?$allocator@U?$pair@$$CBIUINFO@MiscCmds@@@std@@@4@$0A@@std@@@std@@QBEPAU_Node@?$_Tree_nod@V?$_Tmap_traits@IUINFO@MiscCmds@@U?$less@I@std@@V?$allocator@U?$pair@$$CBIUINFO@MiscCmds@@@std@@@4@$0A@@std@@@3@XZ ; std::_Tree<std::_Tmap_traits<unsigned int,MiscCmds::INFO,std::less<unsigned int>,std::allocator<std::pair<unsigned int const ,MiscCmds::INFO> >,0> >::const_iterator::_Mynode
	push	eax
	call	?_Right@?$_Tree@V?$_Tmap_traits@IUINFO@MiscCmds@@U?$less@I@std@@V?$allocator@U?$pair@$$CBIUINFO@MiscCmds@@@std@@@4@$0A@@std@@@std@@KAAAPAU_Node@?$_Tree_nod@V?$_Tmap_traits@IUINFO@MiscCmds@@U?$less@I@std@@V?$allocator@U?$pair@$$CBIUINFO@MiscCmds@@@std@@@4@$0A@@std@@@2@PAU342@@Z ; std::_Tree<std::_Tmap_traits<unsigned int,MiscCmds::INFO,std::less<unsigned int>,std::allocator<std::pair<unsigned int const ,MiscCmds::INFO> >,0> >::_Right
	add	esp, 4
	mov	eax, DWORD PTR [eax]
	push	eax
	call	?_Isnil@?$_Tree@V?$_Tmap_traits@IUINFO@MiscCmds@@U?$less@I@std@@V?$allocator@U?$pair@$$CBIUINFO@MiscCmds@@@std@@@4@$0A@@std@@@std@@KAAADPAU_Node@?$_Tree_nod@V?$_Tmap_traits@IUINFO@MiscCmds@@U?$less@I@std@@V?$allocator@U?$pair@$$CBIUINFO@MiscCmds@@@std@@@4@$0A@@std@@@2@@Z ; std::_Tree<std::_Tmap_traits<unsigned int,MiscCmds::INFO,std::less<unsigned int>,std::allocator<std::pair<unsigned int const ,MiscCmds::INFO> >,0> >::_Isnil
	add	esp, 4
	movsx	ecx, BYTE PTR [eax]
	test	ecx, ecx
	je	SHORT $LN17@insert
; Line 706
	mov	edx, DWORD PTR __Val$[ebp]
	push	edx
	lea	ecx, DWORD PTR __Where$[ebp]
	call	?_Mynode@const_iterator@?$_Tree@V?$_Tmap_traits@IUINFO@MiscCmds@@U?$less@I@std@@V?$allocator@U?$pair@$$CBIUINFO@MiscCmds@@@std@@@4@$0A@@std@@@std@@QBEPAU_Node@?$_Tree_nod@V?$_Tmap_traits@IUINFO@MiscCmds@@U?$less@I@std@@V?$allocator@U?$pair@$$CBIUINFO@MiscCmds@@@std@@@4@$0A@@std@@@3@XZ ; std::_Tree<std::_Tmap_traits<unsigned int,MiscCmds::INFO,std::less<unsigned int>,std::allocator<std::pair<unsigned int const ,MiscCmds::INFO> >,0> >::const_iterator::_Mynode
	push	eax
	push	0
	mov	eax, DWORD PTR ___$ReturnUdt$[ebp]
	push	eax
	mov	ecx, DWORD PTR _this$[ebp]
	call	?_Insert@?$_Tree@V?$_Tmap_traits@IUINFO@MiscCmds@@U?$less@I@std@@V?$allocator@U?$pair@$$CBIUINFO@MiscCmds@@@std@@@4@$0A@@std@@@std@@IAE?AViterator@12@_NPAU_Node@?$_Tree_nod@V?$_Tmap_traits@IUINFO@MiscCmds@@U?$less@I@std@@V?$allocator@U?$pair@$$CBIUINFO@MiscCmds@@@std@@@4@$0A@@std@@@2@ABU?$pair@$$CBIUINFO@MiscCmds@@@2@@Z ; std::_Tree<std::_Tmap_traits<unsigned int,MiscCmds::INFO,std::less<unsigned int>,std::allocator<std::pair<unsigned int const ,MiscCmds::INFO> >,0> >::_Insert
	mov	eax, DWORD PTR ___$ReturnUdt$[ebp]
	jmp	$LN33@insert
; Line 707
	jmp	SHORT $LN27@insert
$LN17@insert:
; Line 708
	mov	ecx, DWORD PTR __Val$[ebp]
	push	ecx
	lea	ecx, DWORD PTR __Next$[ebp]
	call	?_Mynode@const_iterator@?$_Tree@V?$_Tmap_traits@IUINFO@MiscCmds@@U?$less@I@std@@V?$allocator@U?$pair@$$CBIUINFO@MiscCmds@@@std@@@4@$0A@@std@@@std@@QBEPAU_Node@?$_Tree_nod@V?$_Tmap_traits@IUINFO@MiscCmds@@U?$less@I@std@@V?$allocator@U?$pair@$$CBIUINFO@MiscCmds@@@std@@@4@$0A@@std@@@3@XZ ; std::_Tree<std::_Tmap_traits<unsigned int,MiscCmds::INFO,std::less<unsigned int>,std::allocator<std::pair<unsigned int const ,MiscCmds::INFO> >,0> >::const_iterator::_Mynode
	push	eax
	push	1
	mov	edx, DWORD PTR ___$ReturnUdt$[ebp]
	push	edx
	mov	ecx, DWORD PTR _this$[ebp]
	call	?_Insert@?$_Tree@V?$_Tmap_traits@IUINFO@MiscCmds@@U?$less@I@std@@V?$allocator@U?$pair@$$CBIUINFO@MiscCmds@@@std@@@4@$0A@@std@@@std@@IAE?AViterator@12@_NPAU_Node@?$_Tree_nod@V?$_Tmap_traits@IUINFO@MiscCmds@@U?$less@I@std@@V?$allocator@U?$pair@$$CBIUINFO@MiscCmds@@@std@@@4@$0A@@std@@@2@ABU?$pair@$$CBIUINFO@MiscCmds@@@2@@Z ; std::_Tree<std::_Tmap_traits<unsigned int,MiscCmds::INFO,std::less<unsigned int>,std::allocator<std::pair<unsigned int const ,MiscCmds::INFO> >,0> >::_Insert
	mov	eax, DWORD PTR ___$ReturnUdt$[ebp]
	jmp	$LN33@insert
$LN27@insert:
; Line 711
	jmp	$LN31@insert
$LN30@insert:
; Line 713
	lea	eax, DWORD PTR $T146949[ebp]
	push	eax
	mov	ecx, DWORD PTR _this$[ebp]
	call	?begin@?$_Tree@V?$_Tmap_traits@IUINFO@MiscCmds@@U?$less@I@std@@V?$allocator@U?$pair@$$CBIUINFO@MiscCmds@@@std@@@4@$0A@@std@@@std@@QAE?AViterator@12@XZ ; std::_Tree<std::_Tmap_traits<unsigned int,MiscCmds::INFO,std::less<unsigned int>,std::allocator<std::pair<unsigned int const ,MiscCmds::INFO> >,0> >::begin
	push	eax
	lea	ecx, DWORD PTR __Where$[ebp]
	call	??8const_iterator@?$_Tree@V?$_Tmap_traits@IUINFO@MiscCmds@@U?$less@I@std@@V?$allocator@U?$pair@$$CBIUINFO@MiscCmds@@@std@@@4@$0A@@std@@@std@@QBE_NABV012@@Z ; std::_Tree<std::_Tmap_traits<unsigned int,MiscCmds::INFO,std::less<unsigned int>,std::allocator<std::pair<unsigned int const ,MiscCmds::INFO> >,0> >::const_iterator::operator==
	movzx	ecx, al
	test	ecx, ecx
	je	SHORT $LN14@insert
; Line 715
	lea	ecx, DWORD PTR __Where$[ebp]
	call	?_Mynode@const_iterator@?$_Tree@V?$_Tmap_traits@IUINFO@MiscCmds@@U?$less@I@std@@V?$allocator@U?$pair@$$CBIUINFO@MiscCmds@@@std@@@4@$0A@@std@@@std@@QBEPAU_Node@?$_Tree_nod@V?$_Tmap_traits@IUINFO@MiscCmds@@U?$less@I@std@@V?$allocator@U?$pair@$$CBIUINFO@MiscCmds@@@std@@@4@$0A@@std@@@3@XZ ; std::_Tree<std::_Tmap_traits<unsigned int,MiscCmds::INFO,std::less<unsigned int>,std::allocator<std::pair<unsigned int const ,MiscCmds::INFO> >,0> >::const_iterator::_Mynode
	push	eax
	call	?_Key@?$_Tree@V?$_Tmap_traits@IUINFO@MiscCmds@@U?$less@I@std@@V?$allocator@U?$pair@$$CBIUINFO@MiscCmds@@@std@@@4@$0A@@std@@@std@@KAABIPAU_Node@?$_Tree_nod@V?$_Tmap_traits@IUINFO@MiscCmds@@U?$less@I@std@@V?$allocator@U?$pair@$$CBIUINFO@MiscCmds@@@std@@@4@$0A@@std@@@2@@Z ; std::_Tree<std::_Tmap_traits<unsigned int,MiscCmds::INFO,std::less<unsigned int>,std::allocator<std::pair<unsigned int const ,MiscCmds::INFO> >,0> >::_Key
	add	esp, 4
	push	eax
	mov	edx, DWORD PTR __Val$[ebp]
	push	edx
	call	?_Kfn@?$_Tmap_traits@IUINFO@MiscCmds@@U?$less@I@std@@V?$allocator@U?$pair@$$CBIUINFO@MiscCmds@@@std@@@4@$0A@@std@@SAABIABU?$pair@$$CBIUINFO@MiscCmds@@@2@@Z ; std::_Tmap_traits<unsigned int,MiscCmds::INFO,std::less<unsigned int>,std::allocator<std::pair<unsigned int const ,MiscCmds::INFO> >,0>::_Kfn
	add	esp, 4
	push	eax
	mov	ecx, DWORD PTR _this$[ebp]
	add	ecx, 8
	call	??R?$less@I@std@@QBE_NABI0@Z		; std::less<unsigned int>::operator()
	movzx	eax, al
	test	eax, eax
	je	SHORT $LN13@insert
; Line 717
	mov	ecx, DWORD PTR __Val$[ebp]
	push	ecx
	lea	ecx, DWORD PTR __Where$[ebp]
	call	?_Mynode@const_iterator@?$_Tree@V?$_Tmap_traits@IUINFO@MiscCmds@@U?$less@I@std@@V?$allocator@U?$pair@$$CBIUINFO@MiscCmds@@@std@@@4@$0A@@std@@@std@@QBEPAU_Node@?$_Tree_nod@V?$_Tmap_traits@IUINFO@MiscCmds@@U?$less@I@std@@V?$allocator@U?$pair@$$CBIUINFO@MiscCmds@@@std@@@4@$0A@@std@@@3@XZ ; std::_Tree<std::_Tmap_traits<unsigned int,MiscCmds::INFO,std::less<unsigned int>,std::allocator<std::pair<unsigned int const ,MiscCmds::INFO> >,0> >::const_iterator::_Mynode
	push	eax
	push	1
	mov	edx, DWORD PTR ___$ReturnUdt$[ebp]
	push	edx
	mov	ecx, DWORD PTR _this$[ebp]
	call	?_Insert@?$_Tree@V?$_Tmap_traits@IUINFO@MiscCmds@@U?$less@I@std@@V?$allocator@U?$pair@$$CBIUINFO@MiscCmds@@@std@@@4@$0A@@std@@@std@@IAE?AViterator@12@_NPAU_Node@?$_Tree_nod@V?$_Tmap_traits@IUINFO@MiscCmds@@U?$less@I@std@@V?$allocator@U?$pair@$$CBIUINFO@MiscCmds@@@std@@@4@$0A@@std@@@2@ABU?$pair@$$CBIUINFO@MiscCmds@@@2@@Z ; std::_Tree<std::_Tmap_traits<unsigned int,MiscCmds::INFO,std::less<unsigned int>,std::allocator<std::pair<unsigned int const ,MiscCmds::INFO> >,0> >::_Insert
	mov	eax, DWORD PTR ___$ReturnUdt$[ebp]
	jmp	$LN33@insert
$LN13@insert:
; Line 718
	jmp	$LN31@insert
$LN14@insert:
; Line 719
	lea	eax, DWORD PTR $T146950[ebp]
	push	eax
	mov	ecx, DWORD PTR _this$[ebp]
	call	?end@?$_Tree@V?$_Tmap_traits@IUINFO@MiscCmds@@U?$less@I@std@@V?$allocator@U?$pair@$$CBIUINFO@MiscCmds@@@std@@@4@$0A@@std@@@std@@QAE?AViterator@12@XZ ; std::_Tree<std::_Tmap_traits<unsigned int,MiscCmds::INFO,std::less<unsigned int>,std::allocator<std::pair<unsigned int const ,MiscCmds::INFO> >,0> >::end
	push	eax
	lea	ecx, DWORD PTR __Where$[ebp]
	call	??8const_iterator@?$_Tree@V?$_Tmap_traits@IUINFO@MiscCmds@@U?$less@I@std@@V?$allocator@U?$pair@$$CBIUINFO@MiscCmds@@@std@@@4@$0A@@std@@@std@@QBE_NABV012@@Z ; std::_Tree<std::_Tmap_traits<unsigned int,MiscCmds::INFO,std::less<unsigned int>,std::allocator<std::pair<unsigned int const ,MiscCmds::INFO> >,0> >::const_iterator::operator==
	movzx	ecx, al
	test	ecx, ecx
	je	SHORT $LN11@insert
; Line 721
	mov	edx, DWORD PTR __Val$[ebp]
	push	edx
	call	?_Kfn@?$_Tmap_traits@IUINFO@MiscCmds@@U?$less@I@std@@V?$allocator@U?$pair@$$CBIUINFO@MiscCmds@@@std@@@4@$0A@@std@@SAABIABU?$pair@$$CBIUINFO@MiscCmds@@@2@@Z ; std::_Tmap_traits<unsigned int,MiscCmds::INFO,std::less<unsigned int>,std::allocator<std::pair<unsigned int const ,MiscCmds::INFO> >,0>::_Kfn
	add	esp, 4
	push	eax
	mov	ecx, DWORD PTR _this$[ebp]
	call	?_Rmost@?$_Tree@V?$_Tmap_traits@IUINFO@MiscCmds@@U?$less@I@std@@V?$allocator@U?$pair@$$CBIUINFO@MiscCmds@@@std@@@4@$0A@@std@@@std@@IBEAAPAU_Node@?$_Tree_nod@V?$_Tmap_traits@IUINFO@MiscCmds@@U?$less@I@std@@V?$allocator@U?$pair@$$CBIUINFO@MiscCmds@@@std@@@4@$0A@@std@@@2@XZ ; std::_Tree<std::_Tmap_traits<unsigned int,MiscCmds::INFO,std::less<unsigned int>,std::allocator<std::pair<unsigned int const ,MiscCmds::INFO> >,0> >::_Rmost
	mov	eax, DWORD PTR [eax]
	push	eax
	call	?_Key@?$_Tree@V?$_Tmap_traits@IUINFO@MiscCmds@@U?$less@I@std@@V?$allocator@U?$pair@$$CBIUINFO@MiscCmds@@@std@@@4@$0A@@std@@@std@@KAABIPAU_Node@?$_Tree_nod@V?$_Tmap_traits@IUINFO@MiscCmds@@U?$less@I@std@@V?$allocator@U?$pair@$$CBIUINFO@MiscCmds@@@std@@@4@$0A@@std@@@2@@Z ; std::_Tree<std::_Tmap_traits<unsigned int,MiscCmds::INFO,std::less<unsigned int>,std::allocator<std::pair<unsigned int const ,MiscCmds::INFO> >,0> >::_Key
	add	esp, 4
	push	eax
	mov	ecx, DWORD PTR _this$[ebp]
	add	ecx, 8
	call	??R?$less@I@std@@QBE_NABI0@Z		; std::less<unsigned int>::operator()
	movzx	ecx, al
	test	ecx, ecx
	je	SHORT $LN10@insert
; Line 723
	mov	edx, DWORD PTR __Val$[ebp]
	push	edx
	mov	ecx, DWORD PTR _this$[ebp]
	call	?_Rmost@?$_Tree@V?$_Tmap_traits@IUINFO@MiscCmds@@U?$less@I@std@@V?$allocator@U?$pair@$$CBIUINFO@MiscCmds@@@std@@@4@$0A@@std@@@std@@IBEAAPAU_Node@?$_Tree_nod@V?$_Tmap_traits@IUINFO@MiscCmds@@U?$less@I@std@@V?$allocator@U?$pair@$$CBIUINFO@MiscCmds@@@std@@@4@$0A@@std@@@2@XZ ; std::_Tree<std::_Tmap_traits<unsigned int,MiscCmds::INFO,std::less<unsigned int>,std::allocator<std::pair<unsigned int const ,MiscCmds::INFO> >,0> >::_Rmost
	mov	eax, DWORD PTR [eax]
	push	eax
	push	0
	mov	ecx, DWORD PTR ___$ReturnUdt$[ebp]
	push	ecx
	mov	ecx, DWORD PTR _this$[ebp]
	call	?_Insert@?$_Tree@V?$_Tmap_traits@IUINFO@MiscCmds@@U?$less@I@std@@V?$allocator@U?$pair@$$CBIUINFO@MiscCmds@@@std@@@4@$0A@@std@@@std@@IAE?AViterator@12@_NPAU_Node@?$_Tree_nod@V?$_Tmap_traits@IUINFO@MiscCmds@@U?$less@I@std@@V?$allocator@U?$pair@$$CBIUINFO@MiscCmds@@@std@@@4@$0A@@std@@@2@ABU?$pair@$$CBIUINFO@MiscCmds@@@2@@Z ; std::_Tree<std::_Tmap_traits<unsigned int,MiscCmds::INFO,std::less<unsigned int>,std::allocator<std::pair<unsigned int const ,MiscCmds::INFO> >,0> >::_Insert
	mov	eax, DWORD PTR ___$ReturnUdt$[ebp]
	jmp	$LN33@insert
$LN10@insert:
; Line 725
	jmp	$LN31@insert
$LN11@insert:
; Line 727
	lea	ecx, DWORD PTR __Where$[ebp]
