; Listing generated by Microsoft (R) Optimizing Compiler Version 15.00.30729.01 

	TITLE	g:\Max\Bastelstube\GitHub\FL-MoD-FLHook\plugins\playercntl_plugin\src\PimpShip.cpp
	.686P
	.XMM
	include listing.inc
	.model	flat

INCLUDELIB MSVCRT
INCLUDELIB OLDNAMES

PUBLIC	?_Value@?$_Is_swap_move@U_Swap_move_tag@std@@@std@@2_NB ; std::_Is_swap_move<std::_Swap_move_tag>::_Value
PUBLIC	?collate@?$_Locbase@H@std@@2HB			; std::_Locbase<int>::collate
PUBLIC	?ctype@?$_Locbase@H@std@@2HB			; std::_Locbase<int>::ctype
PUBLIC	?monetary@?$_Locbase@H@std@@2HB			; std::_Locbase<int>::monetary
PUBLIC	?numeric@?$_Locbase@H@std@@2HB			; std::_Locbase<int>::numeric
PUBLIC	?time@?$_Locbase@H@std@@2HB			; std::_Locbase<int>::time
PUBLIC	?messages@?$_Locbase@H@std@@2HB			; std::_Locbase<int>::messages
PUBLIC	?all@?$_Locbase@H@std@@2HB			; std::_Locbase<int>::all
PUBLIC	?none@?$_Locbase@H@std@@2HB			; std::_Locbase<int>::none
PUBLIC	?skipws@?$_Iosb@H@std@@2W4_Fmtflags@12@B	; std::_Iosb<int>::skipws
PUBLIC	?unitbuf@?$_Iosb@H@std@@2W4_Fmtflags@12@B	; std::_Iosb<int>::unitbuf
PUBLIC	?uppercase@?$_Iosb@H@std@@2W4_Fmtflags@12@B	; std::_Iosb<int>::uppercase
PUBLIC	?showbase@?$_Iosb@H@std@@2W4_Fmtflags@12@B	; std::_Iosb<int>::showbase
PUBLIC	?showpoint@?$_Iosb@H@std@@2W4_Fmtflags@12@B	; std::_Iosb<int>::showpoint
PUBLIC	?showpos@?$_Iosb@H@std@@2W4_Fmtflags@12@B	; std::_Iosb<int>::showpos
PUBLIC	?left@?$_Iosb@H@std@@2W4_Fmtflags@12@B		; std::_Iosb<int>::left
PUBLIC	?right@?$_Iosb@H@std@@2W4_Fmtflags@12@B		; std::_Iosb<int>::right
PUBLIC	?internal@?$_Iosb@H@std@@2W4_Fmtflags@12@B	; std::_Iosb<int>::internal
PUBLIC	?dec@?$_Iosb@H@std@@2W4_Fmtflags@12@B		; std::_Iosb<int>::dec
PUBLIC	?oct@?$_Iosb@H@std@@2W4_Fmtflags@12@B		; std::_Iosb<int>::oct
PUBLIC	?hex@?$_Iosb@H@std@@2W4_Fmtflags@12@B		; std::_Iosb<int>::hex
PUBLIC	?scientific@?$_Iosb@H@std@@2W4_Fmtflags@12@B	; std::_Iosb<int>::scientific
PUBLIC	?fixed@?$_Iosb@H@std@@2W4_Fmtflags@12@B		; std::_Iosb<int>::fixed
PUBLIC	?hexfloat@?$_Iosb@H@std@@2W4_Fmtflags@12@B	; std::_Iosb<int>::hexfloat
PUBLIC	?boolalpha@?$_Iosb@H@std@@2W4_Fmtflags@12@B	; std::_Iosb<int>::boolalpha
PUBLIC	?_Stdio@?$_Iosb@H@std@@2W4_Fmtflags@12@B	; std::_Iosb<int>::_Stdio
PUBLIC	?adjustfield@?$_Iosb@H@std@@2W4_Fmtflags@12@B	; std::_Iosb<int>::adjustfield
PUBLIC	?basefield@?$_Iosb@H@std@@2W4_Fmtflags@12@B	; std::_Iosb<int>::basefield
PUBLIC	?floatfield@?$_Iosb@H@std@@2W4_Fmtflags@12@B	; std::_Iosb<int>::floatfield
PUBLIC	?goodbit@?$_Iosb@H@std@@2W4_Iostate@12@B	; std::_Iosb<int>::goodbit
PUBLIC	?eofbit@?$_Iosb@H@std@@2W4_Iostate@12@B		; std::_Iosb<int>::eofbit
PUBLIC	?failbit@?$_Iosb@H@std@@2W4_Iostate@12@B	; std::_Iosb<int>::failbit
PUBLIC	?badbit@?$_Iosb@H@std@@2W4_Iostate@12@B		; std::_Iosb<int>::badbit
PUBLIC	?_Hardfail@?$_Iosb@H@std@@2W4_Iostate@12@B	; std::_Iosb<int>::_Hardfail
PUBLIC	?in@?$_Iosb@H@std@@2W4_Openmode@12@B		; std::_Iosb<int>::in
PUBLIC	?out@?$_Iosb@H@std@@2W4_Openmode@12@B		; std::_Iosb<int>::out
PUBLIC	?ate@?$_Iosb@H@std@@2W4_Openmode@12@B		; std::_Iosb<int>::ate
PUBLIC	?app@?$_Iosb@H@std@@2W4_Openmode@12@B		; std::_Iosb<int>::app
PUBLIC	?trunc@?$_Iosb@H@std@@2W4_Openmode@12@B		; std::_Iosb<int>::trunc
PUBLIC	?_Nocreate@?$_Iosb@H@std@@2W4_Openmode@12@B	; std::_Iosb<int>::_Nocreate
PUBLIC	?_Noreplace@?$_Iosb@H@std@@2W4_Openmode@12@B	; std::_Iosb<int>::_Noreplace
PUBLIC	?binary@?$_Iosb@H@std@@2W4_Openmode@12@B	; std::_Iosb<int>::binary
PUBLIC	?beg@?$_Iosb@H@std@@2W4_Seekdir@12@B		; std::_Iosb<int>::beg
PUBLIC	?cur@?$_Iosb@H@std@@2W4_Seekdir@12@B		; std::_Iosb<int>::cur
PUBLIC	?end@?$_Iosb@H@std@@2W4_Seekdir@12@B		; std::_Iosb<int>::end
PUBLIC	?value@?$integral_constant@_N$0A@@tr1@std@@2_NB	; std::tr1::integral_constant<bool,0>::value
PUBLIC	?value@?$integral_constant@_N$00@tr1@std@@2_NB	; std::tr1::integral_constant<bool,1>::value
_BSS	SEGMENT
_set_iCost DD	01H DUP (?)
_BSS	ENDS
;	COMDAT ?value@?$integral_constant@_N$00@tr1@std@@2_NB
CONST	SEGMENT
?value@?$integral_constant@_N$00@tr1@std@@2_NB DB 01H	; std::tr1::integral_constant<bool,1>::value
CONST	ENDS
;	COMDAT ?value@?$integral_constant@_N$0A@@tr1@std@@2_NB
CONST	SEGMENT
?value@?$integral_constant@_N$0A@@tr1@std@@2_NB DB 00H	; std::tr1::integral_constant<bool,0>::value
CONST	ENDS
;	COMDAT ?end@?$_Iosb@H@std@@2W4_Seekdir@12@B
CONST	SEGMENT
?end@?$_Iosb@H@std@@2W4_Seekdir@12@B DD 02H		; std::_Iosb<int>::end
CONST	ENDS
;	COMDAT ?cur@?$_Iosb@H@std@@2W4_Seekdir@12@B
CONST	SEGMENT
?cur@?$_Iosb@H@std@@2W4_Seekdir@12@B DD 01H		; std::_Iosb<int>::cur
CONST	ENDS
;	COMDAT ?beg@?$_Iosb@H@std@@2W4_Seekdir@12@B
CONST	SEGMENT
?beg@?$_Iosb@H@std@@2W4_Seekdir@12@B DD 00H		; std::_Iosb<int>::beg
CONST	ENDS
;	COMDAT ?binary@?$_Iosb@H@std@@2W4_Openmode@12@B
CONST	SEGMENT
?binary@?$_Iosb@H@std@@2W4_Openmode@12@B DD 020H	; std::_Iosb<int>::binary
CONST	ENDS
;	COMDAT ?_Noreplace@?$_Iosb@H@std@@2W4_Openmode@12@B
CONST	SEGMENT
?_Noreplace@?$_Iosb@H@std@@2W4_Openmode@12@B DD 080H	; std::_Iosb<int>::_Noreplace
CONST	ENDS
;	COMDAT ?_Nocreate@?$_Iosb@H@std@@2W4_Openmode@12@B
CONST	SEGMENT
?_Nocreate@?$_Iosb@H@std@@2W4_Openmode@12@B DD 040H	; std::_Iosb<int>::_Nocreate
CONST	ENDS
;	COMDAT ?trunc@?$_Iosb@H@std@@2W4_Openmode@12@B
CONST	SEGMENT
?trunc@?$_Iosb@H@std@@2W4_Openmode@12@B DD 010H		; std::_Iosb<int>::trunc
CONST	ENDS
;	COMDAT ?app@?$_Iosb@H@std@@2W4_Openmode@12@B
CONST	SEGMENT
?app@?$_Iosb@H@std@@2W4_Openmode@12@B DD 08H		; std::_Iosb<int>::app
CONST	ENDS
;	COMDAT ?ate@?$_Iosb@H@std@@2W4_Openmode@12@B
CONST	SEGMENT
?ate@?$_Iosb@H@std@@2W4_Openmode@12@B DD 04H		; std::_Iosb<int>::ate
CONST	ENDS
;	COMDAT ?out@?$_Iosb@H@std@@2W4_Openmode@12@B
CONST	SEGMENT
?out@?$_Iosb@H@std@@2W4_Openmode@12@B DD 02H		; std::_Iosb<int>::out
CONST	ENDS
;	COMDAT ?in@?$_Iosb@H@std@@2W4_Openmode@12@B
CONST	SEGMENT
?in@?$_Iosb@H@std@@2W4_Openmode@12@B DD 01H		; std::_Iosb<int>::in
CONST	ENDS
;	COMDAT ?_Hardfail@?$_Iosb@H@std@@2W4_Iostate@12@B
CONST	SEGMENT
?_Hardfail@?$_Iosb@H@std@@2W4_Iostate@12@B DD 010H	; std::_Iosb<int>::_Hardfail
CONST	ENDS
;	COMDAT ?badbit@?$_Iosb@H@std@@2W4_Iostate@12@B
CONST	SEGMENT
?badbit@?$_Iosb@H@std@@2W4_Iostate@12@B DD 04H		; std::_Iosb<int>::badbit
CONST	ENDS
;	COMDAT ?failbit@?$_Iosb@H@std@@2W4_Iostate@12@B
CONST	SEGMENT
?failbit@?$_Iosb@H@std@@2W4_Iostate@12@B DD 02H		; std::_Iosb<int>::failbit
CONST	ENDS
;	COMDAT ?eofbit@?$_Iosb@H@std@@2W4_Iostate@12@B
CONST	SEGMENT
?eofbit@?$_Iosb@H@std@@2W4_Iostate@12@B DD 01H		; std::_Iosb<int>::eofbit
CONST	ENDS
;	COMDAT ?goodbit@?$_Iosb@H@std@@2W4_Iostate@12@B
CONST	SEGMENT
?goodbit@?$_Iosb@H@std@@2W4_Iostate@12@B DD 00H		; std::_Iosb<int>::goodbit
CONST	ENDS
;	COMDAT ?floatfield@?$_Iosb@H@std@@2W4_Fmtflags@12@B
CONST	SEGMENT
?floatfield@?$_Iosb@H@std@@2W4_Fmtflags@12@B DD 03000H	; std::_Iosb<int>::floatfield
CONST	ENDS
;	COMDAT ?basefield@?$_Iosb@H@std@@2W4_Fmtflags@12@B
CONST	SEGMENT
?basefield@?$_Iosb@H@std@@2W4_Fmtflags@12@B DD 0e00H	; std::_Iosb<int>::basefield
CONST	ENDS
;	COMDAT ?adjustfield@?$_Iosb@H@std@@2W4_Fmtflags@12@B
CONST	SEGMENT
?adjustfield@?$_Iosb@H@std@@2W4_Fmtflags@12@B DD 01c0H	; std::_Iosb<int>::adjustfield
CONST	ENDS
;	COMDAT ?_Stdio@?$_Iosb@H@std@@2W4_Fmtflags@12@B
CONST	SEGMENT
?_Stdio@?$_Iosb@H@std@@2W4_Fmtflags@12@B DD 08000H	; std::_Iosb<int>::_Stdio
CONST	ENDS
;	COMDAT ?boolalpha@?$_Iosb@H@std@@2W4_Fmtflags@12@B
CONST	SEGMENT
?boolalpha@?$_Iosb@H@std@@2W4_Fmtflags@12@B DD 04000H	; std::_Iosb<int>::boolalpha
CONST	ENDS
;	COMDAT ?hexfloat@?$_Iosb@H@std@@2W4_Fmtflags@12@B
CONST	SEGMENT
?hexfloat@?$_Iosb@H@std@@2W4_Fmtflags@12@B DD 03000H	; std::_Iosb<int>::hexfloat
CONST	ENDS
;	COMDAT ?fixed@?$_Iosb@H@std@@2W4_Fmtflags@12@B
CONST	SEGMENT
?fixed@?$_Iosb@H@std@@2W4_Fmtflags@12@B DD 02000H	; std::_Iosb<int>::fixed
CONST	ENDS
;	COMDAT ?scientific@?$_Iosb@H@std@@2W4_Fmtflags@12@B
CONST	SEGMENT
?scientific@?$_Iosb@H@std@@2W4_Fmtflags@12@B DD 01000H	; std::_Iosb<int>::scientific
CONST	ENDS
;	COMDAT ?hex@?$_Iosb@H@std@@2W4_Fmtflags@12@B
CONST	SEGMENT
?hex@?$_Iosb@H@std@@2W4_Fmtflags@12@B DD 0800H		; std::_Iosb<int>::hex
CONST	ENDS
;	COMDAT ?oct@?$_Iosb@H@std@@2W4_Fmtflags@12@B
CONST	SEGMENT
?oct@?$_Iosb@H@std@@2W4_Fmtflags@12@B DD 0400H		; std::_Iosb<int>::oct
CONST	ENDS
;	COMDAT ?dec@?$_Iosb@H@std@@2W4_Fmtflags@12@B
CONST	SEGMENT
?dec@?$_Iosb@H@std@@2W4_Fmtflags@12@B DD 0200H		; std::_Iosb<int>::dec
CONST	ENDS
;	COMDAT ?internal@?$_Iosb@H@std@@2W4_Fmtflags@12@B
CONST	SEGMENT
?internal@?$_Iosb@H@std@@2W4_Fmtflags@12@B DD 0100H	; std::_Iosb<int>::internal
CONST	ENDS
;	COMDAT ?right@?$_Iosb@H@std@@2W4_Fmtflags@12@B
CONST	SEGMENT
?right@?$_Iosb@H@std@@2W4_Fmtflags@12@B DD 080H		; std::_Iosb<int>::right
CONST	ENDS
;	COMDAT ?left@?$_Iosb@H@std@@2W4_Fmtflags@12@B
CONST	SEGMENT
?left@?$_Iosb@H@std@@2W4_Fmtflags@12@B DD 040H		; std::_Iosb<int>::left
CONST	ENDS
;	COMDAT ?showpos@?$_Iosb@H@std@@2W4_Fmtflags@12@B
CONST	SEGMENT
?showpos@?$_Iosb@H@std@@2W4_Fmtflags@12@B DD 020H	; std::_Iosb<int>::showpos
CONST	ENDS
;	COMDAT ?showpoint@?$_Iosb@H@std@@2W4_Fmtflags@12@B
CONST	SEGMENT
?showpoint@?$_Iosb@H@std@@2W4_Fmtflags@12@B DD 010H	; std::_Iosb<int>::showpoint
CONST	ENDS
;	COMDAT ?showbase@?$_Iosb@H@std@@2W4_Fmtflags@12@B
CONST	SEGMENT
?showbase@?$_Iosb@H@std@@2W4_Fmtflags@12@B DD 08H	; std::_Iosb<int>::showbase
CONST	ENDS
;	COMDAT ?uppercase@?$_Iosb@H@std@@2W4_Fmtflags@12@B
CONST	SEGMENT
?uppercase@?$_Iosb@H@std@@2W4_Fmtflags@12@B DD 04H	; std::_Iosb<int>::uppercase
CONST	ENDS
;	COMDAT ?unitbuf@?$_Iosb@H@std@@2W4_Fmtflags@12@B
CONST	SEGMENT
?unitbuf@?$_Iosb@H@std@@2W4_Fmtflags@12@B DD 02H	; std::_Iosb<int>::unitbuf
CONST	ENDS
;	COMDAT ?skipws@?$_Iosb@H@std@@2W4_Fmtflags@12@B
CONST	SEGMENT
?skipws@?$_Iosb@H@std@@2W4_Fmtflags@12@B DD 01H		; std::_Iosb<int>::skipws
CONST	ENDS
;	COMDAT ?none@?$_Locbase@H@std@@2HB
CONST	SEGMENT
?none@?$_Locbase@H@std@@2HB DD 00H			; std::_Locbase<int>::none
CONST	ENDS
;	COMDAT ?all@?$_Locbase@H@std@@2HB
CONST	SEGMENT
?all@?$_Locbase@H@std@@2HB DD 03fH			; std::_Locbase<int>::all
CONST	ENDS
;	COMDAT ?messages@?$_Locbase@H@std@@2HB
CONST	SEGMENT
?messages@?$_Locbase@H@std@@2HB DD 020H			; std::_Locbase<int>::messages
CONST	ENDS
;	COMDAT ?time@?$_Locbase@H@std@@2HB
CONST	SEGMENT
?time@?$_Locbase@H@std@@2HB DD 010H			; std::_Locbase<int>::time
CONST	ENDS
;	COMDAT ?numeric@?$_Locbase@H@std@@2HB
CONST	SEGMENT
?numeric@?$_Locbase@H@std@@2HB DD 08H			; std::_Locbase<int>::numeric
CONST	ENDS
;	COMDAT ?monetary@?$_Locbase@H@std@@2HB
CONST	SEGMENT
?monetary@?$_Locbase@H@std@@2HB DD 04H			; std::_Locbase<int>::monetary
CONST	ENDS
;	COMDAT ?ctype@?$_Locbase@H@std@@2HB
CONST	SEGMENT
?ctype@?$_Locbase@H@std@@2HB DD 02H			; std::_Locbase<int>::ctype
CONST	ENDS
;	COMDAT ?collate@?$_Locbase@H@std@@2HB
CONST	SEGMENT
?collate@?$_Locbase@H@std@@2HB DD 01H			; std::_Locbase<int>::collate
CONST	ENDS
;	COMDAT ?_Value@?$_Is_swap_move@U_Swap_move_tag@std@@@std@@2_NB
CONST	SEGMENT
?_Value@?$_Is_swap_move@U_Swap_move_tag@std@@@std@@2_NB DB 01H ; std::_Is_swap_move<std::_Swap_move_tag>::_Value
CONST	ENDS
_DATA	SEGMENT
__bad_alloc_Message DD FLAT:$SG63979
_DATA	ENDS
CONST	SEGMENT
$SG63979 DB	'bad allocation', 00H
	ORG $+1
$SG139979 DB	'P', 00H, 'i', 00H, 'm', 00H, 'p', 00H, '-', 00H, 'm', 00H
	DB	'y', 00H, '-', 00H, 's', 00H, 'h', 00H, 'i', 00H, 'p', 00H, ' '
	DB	00H, 'f', 00H, 'a', 00H, 'c', 00H, 'i', 00H, 'l', 00H, 'i', 00H
	DB	't', 00H, 'i', 00H, 'e', 00H, 's', 00H, ' ', 00H, 'a', 00H, 'r'
	DB	00H, 'e', 00H, ' ', 00H, 'a', 00H, 'v', 00H, 'a', 00H, 'i', 00H
	DB	'l', 00H, 'a', 00H, 'b', 00H, 'l', 00H, 'e', 00H, ' ', 00H, 'h'
	DB	00H, 'e', 00H, 'r', 00H, 'e', 00H, '.', 00H, 00H, 00H
$SG140011 DB	'T', 00H, 'y', 00H, 'p', 00H, 'e', 00H, ' ', 00H, '/', 00H
	DB	'p', 00H, 'i', 00H, 'm', 00H, 'p', 00H, 's', 00H, 'h', 00H, 'i'
	DB	00H, 'p', 00H, ' ', 00H, 'o', 00H, 'n', 00H, ' ', 00H, 'y', 00H
	DB	'o', 00H, 'u', 00H, 'r', 00H, ' ', 00H, 'c', 00H, 'o', 00H, 'n'
	DB	00H, 's', 00H, 'o', 00H, 'l', 00H, 'e', 00H, ' ', 00H, 't', 00H
	DB	'o', 00H, ' ', 00H, 's', 00H, 'e', 00H, 'e', 00H, ' ', 00H, 'o'
	DB	00H, 'p', 00H, 't', 00H, 'i', 00H, 'o', 00H, 'n', 00H, 's', 00H
	DB	'.', 00H, 00H, 00H
	ORG $+2
$SG142708 DB	00H, 00H
	ORG $+2
$SG142721 DB	'ShipPimper', 00H
	ORG $+1
$SG142726 DB	'cost', 00H
	ORG $+3
$SG142729 DB	'equip', 00H
	ORG $+2
$SG142744 DB	'room', 00H
	ORG $+3
$SG142751 DB	'N', 00H, 'O', 00H, 'T', 00H, 'I', 00H, 'C', 00H, 'E', 00H
	DB	':', 00H, ' ', 00H, 'R', 00H, 'o', 00H, 'o', 00H, 'm', 00H, ' '
	DB	00H, '%', 00H, 's', 00H, ' ', 00H, 'd', 00H, 'o', 00H, 'e', 00H
	DB	's', 00H, ' ', 00H, 'n', 00H, 'o', 00H, 't', 00H, ' ', 00H, 'e'
	DB	00H, 'x', 00H, 'i', 00H, 's', 00H, 't', 00H, 0aH, 00H, 00H, 00H
$SG142867 DB	'%', 00H, 's', 00H, 00H, 00H
	ORG $+2
$SG142870 DB	'%', 00H, 's', 00H, 00H, 00H
	ORG $+2
$SG142887 DB	'A', 00H, 'v', 00H, 'a', 00H, 'i', 00H, 'l', 00H, 'a', 00H
	DB	'b', 00H, 'l', 00H, 'e', 00H, ' ', 00H, 's', 00H, 'h', 00H, 'i'
	DB	00H, 'p', 00H, ' ', 00H, 'p', 00H, 'i', 00H, 'm', 00H, 'p', 00H
	DB	'i', 00H, 'n', 00H, 'g', 00H, ' ', 00H, 'c', 00H, 'o', 00H, 'm'
	DB	00H, 'm', 00H, 'a', 00H, 'n', 00H, 'd', 00H, 's', 00H, ':', 00H
	DB	00H, 00H
	ORG $+2
$SG142889 DB	'/', 00H, 's', 00H, 'h', 00H, 'o', 00H, 'w', 00H, 's', 00H
	DB	'e', 00H, 't', 00H, 'u', 00H, 'p', 00H, 00H, 00H
	ORG $+6
$SG142891 DB	'|', 00H, ' ', 00H, ' ', 00H, ' ', 00H, ' ', 00H, ' ', 00H
	DB	'D', 00H, 'i', 00H, 's', 00H, 'p', 00H, 'l', 00H, 'a', 00H, 'y'
	DB	00H, ' ', 00H, 'c', 00H, 'u', 00H, 'r', 00H, 'r', 00H, 'e', 00H
	DB	'n', 00H, 't', 00H, ' ', 00H, 's', 00H, 'h', 00H, 'i', 00H, 'p'
	DB	00H, ' ', 00H, 's', 00H, 'e', 00H, 't', 00H, 'u', 00H, 'p', 00H
	DB	'.', 00H, 00H, 00H
$SG142893 DB	'/', 00H, 's', 00H, 'h', 00H, 'o', 00H, 'w', 00H, 'i', 00H
	DB	't', 00H, 'e', 00H, 'm', 00H, 's', 00H, 00H, 00H
	ORG $+6
$SG142895 DB	'|', 00H, ' ', 00H, ' ', 00H, ' ', 00H, ' ', 00H, ' ', 00H
	DB	'D', 00H, 'i', 00H, 's', 00H, 'p', 00H, 'l', 00H, 'a', 00H, 'y'
	DB	00H, ' ', 00H, 'i', 00H, 't', 00H, 'e', 00H, 'm', 00H, 's', 00H
	DB	' ', 00H, 't', 00H, 'h', 00H, 'a', 00H, 't', 00H, ' ', 00H, 'm'
	DB	00H, 'a', 00H, 'y', 00H, ' ', 00H, 'b', 00H, 'e', 00H, ' ', 00H
	DB	'a', 00H, 'd', 00H, 'd', 00H, 'e', 00H, 'd', 00H, ' ', 00H, 't'
	DB	00H, 'o', 00H, ' ', 00H, 'y', 00H, 'o', 00H, 'u', 00H, 'r', 00H
	DB	' ', 00H, 's', 00H, 'h', 00H, 'i', 00H, 'p', 00H, '.', 00H, 00H
	DB	00H
$SG142897 DB	'/', 00H, 's', 00H, 'e', 00H, 't', 00H, 'i', 00H, 't', 00H
	DB	'e', 00H, 'm', 00H, ' ', 00H, '<', 00H, 'h', 00H, 'a', 00H, 'r'
	DB	00H, 'd', 00H, 'p', 00H, 'o', 00H, 'i', 00H, 'n', 00H, 't', 00H
	DB	' ', 00H, 'i', 00H, 'd', 00H, '>', 00H, ' ', 00H, '<', 00H, 'n'
	DB	00H, 'e', 00H, 'w', 00H, ' ', 00H, 'i', 00H, 't', 00H, 'e', 00H
	DB	'm', 00H, ' ', 00H, 'i', 00H, 'd', 00H, '>', 00H, 00H, 00H
	ORG $+4
$SG142899 DB	'|', 00H, ' ', 00H, ' ', 00H, ' ', 00H, ' ', 00H, ' ', 00H
	DB	'C', 00H, 'h', 00H, 'a', 00H, 'n', 00H, 'g', 00H, 'e', 00H, ' '
	DB	00H, 't', 00H, 'h', 00H, 'e', 00H, ' ', 00H, 'i', 00H, 't', 00H
	DB	'e', 00H, 'm', 00H, ' ', 00H, 'a', 00H, 't', 00H, ' ', 00H, '<'
	DB	00H, 'h', 00H, 'p', 00H, ' ', 00H, 'i', 00H, 'd', 00H, '>', 00H
	DB	' ', 00H, 't', 00H, 'o', 00H, ' ', 00H, '<', 00H, 'i', 00H, 't'
	DB	00H, 'e', 00H, 'm', 00H, ' ', 00H, 'i', 00H, 'd', 00H, '>', 00H
	DB	'.', 00H, 00H, 00H
	ORG $+2
$SG142901 DB	'|', 00H, ' ', 00H, ' ', 00H, ' ', 00H, ' ', 00H, ' ', 00H
	DB	'<', 00H, 'h', 00H, 'i', 00H, ' ', 00H, 'i', 00H, 'd', 00H, '>'
	DB	00H, 's', 00H, ' ', 00H, 'a', 00H, 'r', 00H, 'e', 00H, ' ', 00H
	DB	's', 00H, 'h', 00H, 'o', 00H, 'w', 00H, 'n', 00H, ' ', 00H, 'b'
	DB	00H, 'y', 00H, ' ', 00H, 't', 00H, 'y', 00H, 'p', 00H, 'i', 00H
	DB	'n', 00H, 'g', 00H, ' ', 00H, '/', 00H, 's', 00H, 'h', 00H, 'o'
	DB	00H, 'w', 00H, ' ', 00H, 's', 00H, 'e', 00H, 't', 00H, 'u', 00H
	DB	'p', 00H, '.', 00H, 00H, 00H
$SG142903 DB	'|', 00H, ' ', 00H, ' ', 00H, ' ', 00H, ' ', 00H, ' ', 00H
	DB	'<', 00H, 'i', 00H, 't', 00H, 'e', 00H, 'm', 00H, ' ', 00H, 'i'
	DB	00H, 'd', 00H, '>', 00H, 's', 00H, ' ', 00H, 'a', 00H, 'r', 00H
	DB	'e', 00H, ' ', 00H, 's', 00H, 'h', 00H, 'o', 00H, 'w', 00H, 'n'
	DB	00H, ' ', 00H, 'b', 00H, 'y', 00H, ' ', 00H, 't', 00H, 'y', 00H
	DB	'p', 00H, 'i', 00H, 'n', 00H, 'g', 00H, ' ', 00H, '/', 00H, 's'
	DB	00H, 'h', 00H, 'o', 00H, 'w', 00H, ' ', 00H, 'i', 00H, 't', 00H
	DB	'e', 00H, 'm', 00H, 's', 00H, '.', 00H, 00H, 00H
$SG142905 DB	'/', 00H, 'b', 00H, 'u', 00H, 'y', 00H, 'n', 00H, 'o', 00H
	DB	'w', 00H, 00H, 00H
$SG142907 DB	'|', 00H, ' ', 00H, ' ', 00H, ' ', 00H, ' ', 00H, ' ', 00H
	DB	'C', 00H, 'o', 00H, 'n', 00H, 'f', 00H, 'i', 00H, 'r', 00H, 'm'
	DB	00H, 's', 00H, ' ', 00H, 't', 00H, 'h', 00H, 'e', 00H, ' ', 00H
	DB	'c', 00H, 'h', 00H, 'a', 00H, 'n', 00H, 'g', 00H, 'e', 00H, 's'
	DB	00H, '.', 00H, 00H, 00H
$SG142912 DB	' ', 00H, 'c', 00H, 'r', 00H, 'e', 00H, 'd', 00H, 'i', 00H
	DB	't', 00H, 's', 00H, ' ', 00H, 't', 00H, 'o', 00H, ' ', 00H, 'u'
	DB	00H, 's', 00H, 'e', 00H, '.', 00H, 00H, 00H
	ORG $+2
$SG142913 DB	'T', 00H, 'h', 00H, 'i', 00H, 's', 00H, ' ', 00H, 'f', 00H
	DB	'a', 00H, 'c', 00H, 'i', 00H, 'l', 00H, 'i', 00H, 't', 00H, 'y'
	DB	00H, ' ', 00H, 'c', 00H, 'o', 00H, 's', 00H, 't', 00H, 's', 00H
	DB	' ', 00H, 00H, 00H
	ORG $+2
$SG143085 DB	'C', 00H, 'u', 00H, 'r', 00H, 'r', 00H, 'e', 00H, 'n', 00H
	DB	't', 00H, ' ', 00H, 's', 00H, 'h', 00H, 'i', 00H, 'p', 00H, ' '
	DB	00H, 's', 00H, 'e', 00H, 't', 00H, 'u', 00H, 'p', 00H, ':', 00H
	DB	' ', 00H, '%', 00H, 'd', 00H, 00H, 00H
	ORG $+2
$SG143233 DB	'|', 00H, ' ', 00H, ' ', 00H, ' ', 00H, ' ', 00H, ' ', 00H
	DB	'%', 00H, '.', 00H, '2', 00H, 'd', 00H, ' ', 00H, '|', 00H, ' '
	DB	00H, '%', 00H, 's', 00H, ' ', 00H, ':', 00H, ' ', 00H, '%', 00H
	DB	's', 00H, 00H, 00H
	ORG $+2
$SG143235 DB	'O', 00H, 'K', 00H, 00H, 00H
	ORG $+2
$SG143245 DB	'A', 00H, 'v', 00H, 'a', 00H, 'i', 00H, 'l', 00H, 'a', 00H
	DB	'b', 00H, 'l', 00H, 'e', 00H, ' ', 00H, 'i', 00H, 't', 00H, 'e'
	DB	00H, 'm', 00H, 's', 00H, ':', 00H, ' ', 00H, '%', 00H, 'd', 00H
	DB	00H, 00H
$SG143267 DB	'|', 00H, ' ', 00H, ' ', 00H, ' ', 00H, ' ', 00H, ' ', 00H
	DB	'%', 00H, '.', 00H, '2', 00H, 'd', 00H, ':', 00H, ' ', 00H, ' '
	DB	00H, '%', 00H, 's', 00H, 00H, 00H
$SG143269 DB	'O', 00H, 'K', 00H, 00H, 00H
	ORG $+2
$SG143287 DB	'E', 00H, 'R', 00H, 'R', 00H, ' ', 00H, 'I', 00H, 'n', 00H
	DB	'v', 00H, 'a', 00H, 'l', 00H, 'i', 00H, 'd', 00H, ' ', 00H, 'h'
	DB	00H, 'a', 00H, 'r', 00H, 'd', 00H, ' ', 00H, 'p', 00H, 'o', 00H
	DB	'i', 00H, 'n', 00H, 't', 00H, ' ', 00H, 'I', 00H, 'D', 00H, 00H
	DB	00H
$SG143293 DB	'E', 00H, 'R', 00H, 'R', 00H, ' ', 00H, 'I', 00H, 'n', 00H
	DB	'v', 00H, 'a', 00H, 'l', 00H, 'i', 00H, 'd', 00H, ' ', 00H, 'i'
	DB	00H, 't', 00H, 'e', 00H, 'm', 00H, ' ', 00H, 'I', 00H, 'D', 00H
	DB	00H, 00H
$SG143312 DB	'E', 00H, 'R', 00H, 'R', 00H, ' ', 00H, '%', 00H, 's', 00H
	DB	00H, 00H
	ORG $+2
$SG143316 DB	'E', 00H, 'R', 00H, 'R', 00H, ' ', 00H, 'I', 00H, 'n', 00H
	DB	's', 00H, 'u', 00H, 'f', 00H, 'f', 00H, 'i', 00H, 'c', 00H, 'i'
	DB	00H, 'e', 00H, 'n', 00H, 't', 00H, ' ', 00H, 'c', 00H, 'r', 00H
	DB	'e', 00H, 'd', 00H, 'i', 00H, 't', 00H, 's', 00H, 00H, 00H
	ORG $+2
$SG143358 DB	'O', 00H, 'K', 00H, ' ', 00H, 'S', 00H, 'h', 00H, 'i', 00H
	DB	'p', 00H, ' ', 00H, 'p', 00H, 'i', 00H, 'm', 00H, 'p', 00H, ' '
	DB	00H, 'c', 00H, 'o', 00H, 'm', 00H, 'p', 00H, 'l', 00H, 'e', 00H
	DB	't', 00H, 'e', 00H, '.', 00H, ' ', 00H, 'P', 00H, 'l', 00H, 'e'
	DB	00H, 'a', 00H, 's', 00H, 'e', 00H, ' ', 00H, 'w', 00H, 'a', 00H
	DB	'i', 00H, 't', 00H, ' ', 00H, '1', 00H, '0', 00H, ' ', 00H, 's'
	DB	00H, 'e', 00H, 'c', 00H, 'o', 00H, 'n', 00H, 'd', 00H, 's', 00H
	DB	' ', 00H, 'a', 00H, 'n', 00H, 'd', 00H, ' ', 00H, 'r', 00H, 'e'
	DB	00H, 'c', 00H, 'o', 00H, 'n', 00H, 'n', 00H, 'e', 00H, 'c', 00H
	DB	't', 00H, '.', 00H, 00H, 00H
CONST	ENDS
PUBLIC	??Citerator@?$_Tree@V?$_Tmap_traits@IUITEM_INFO@PimpShip@@U?$less@I@std@@V?$allocator@U?$pair@$$CBIUITEM_INFO@PimpShip@@@std@@@4@$0A@@std@@@std@@QBEPAU?$pair@$$CBIUITEM_INFO@PimpShip@@@2@XZ ; std::_Tree<std::_Tmap_traits<unsigned int,PimpShip::ITEM_INFO,std::less<unsigned int>,std::allocator<std::pair<unsigned int const ,PimpShip::ITEM_INFO> >,0> >::iterator::operator->
PUBLIC	??9const_iterator@?$_Tree@V?$_Tmap_traits@IUITEM_INFO@PimpShip@@U?$less@I@std@@V?$allocator@U?$pair@$$CBIUITEM_INFO@PimpShip@@@std@@@4@$0A@@std@@@std@@QBE_NABV012@@Z ; std::_Tree<std::_Tmap_traits<unsigned int,PimpShip::ITEM_INFO,std::less<unsigned int>,std::allocator<std::pair<unsigned int const ,PimpShip::ITEM_INFO> >,0> >::const_iterator::operator!=
PUBLIC	?end@?$_Tree@V?$_Tmap_traits@IUITEM_INFO@PimpShip@@U?$less@I@std@@V?$allocator@U?$pair@$$CBIUITEM_INFO@PimpShip@@@std@@@4@$0A@@std@@@std@@QAE?AViterator@12@XZ ; std::_Tree<std::_Tmap_traits<unsigned int,PimpShip::ITEM_INFO,std::less<unsigned int>,std::allocator<std::pair<unsigned int const ,PimpShip::ITEM_INFO> >,0> >::end
PUBLIC	??Eiterator@?$_Tree@V?$_Tmap_traits@IUITEM_INFO@PimpShip@@U?$less@I@std@@V?$allocator@U?$pair@$$CBIUITEM_INFO@PimpShip@@@std@@@4@$0A@@std@@@std@@QAE?AV012@H@Z ; std::_Tree<std::_Tmap_traits<unsigned int,PimpShip::ITEM_INFO,std::less<unsigned int>,std::allocator<std::pair<unsigned int const ,PimpShip::ITEM_INFO> >,0> >::iterator::operator++
PUBLIC	?begin@?$_Tree@V?$_Tmap_traits@IUITEM_INFO@PimpShip@@U?$less@I@std@@V?$allocator@U?$pair@$$CBIUITEM_INFO@PimpShip@@@std@@@4@$0A@@std@@@std@@QAE?AViterator@12@XZ ; std::_Tree<std::_Tmap_traits<unsigned int,PimpShip::ITEM_INFO,std::less<unsigned int>,std::allocator<std::pair<unsigned int const ,PimpShip::ITEM_INFO> >,0> >::begin
PUBLIC	?IsItemArchIDAvailable@PimpShip@@YA_NI@Z	; PimpShip::IsItemArchIDAvailable
; Function compile flags: /Odtp
_TEXT	SEGMENT
$T150805 = -24						; size = 8
$T150804 = -16						; size = 8
_iter$142647 = -8					; size = 8
_iArchID$ = 8						; size = 4
?IsItemArchIDAvailable@PimpShip@@YA_NI@Z PROC		; PimpShip::IsItemArchIDAvailable
; File g:\max\bastelstube\github\fl-mod-flhook\plugins\playercntl_plugin\src\pimpship.cpp
; Line 77
	push	ebp
	mov	ebp, esp
	sub	esp, 24					; 00000018H
; Line 78
	lea	eax, DWORD PTR _iter$142647[ebp]
	push	eax
	mov	ecx, OFFSET ?mapAvailableItems@PimpShip@@3V?$map@IUITEM_INFO@PimpShip@@U?$less@I@std@@V?$allocator@U?$pair@$$CBIUITEM_INFO@PimpShip@@@std@@@4@@std@@A ; PimpShip::mapAvailableItems
	call	?begin@?$_Tree@V?$_Tmap_traits@IUITEM_INFO@PimpShip@@U?$less@I@std@@V?$allocator@U?$pair@$$CBIUITEM_INFO@PimpShip@@@std@@@4@$0A@@std@@@std@@QAE?AViterator@12@XZ ; std::_Tree<std::_Tmap_traits<unsigned int,PimpShip::ITEM_INFO,std::less<unsigned int>,std::allocator<std::pair<unsigned int const ,PimpShip::ITEM_INFO> >,0> >::begin
; Line 79
	jmp	SHORT $LN4@IsItemArch
$LN3@IsItemArch:
; Line 80
	push	0
	lea	ecx, DWORD PTR $T150804[ebp]
	push	ecx
	lea	ecx, DWORD PTR _iter$142647[ebp]
	call	??Eiterator@?$_Tree@V?$_Tmap_traits@IUITEM_INFO@PimpShip@@U?$less@I@std@@V?$allocator@U?$pair@$$CBIUITEM_INFO@PimpShip@@@std@@@4@$0A@@std@@@std@@QAE?AV012@H@Z ; std::_Tree<std::_Tmap_traits<unsigned int,PimpShip::ITEM_INFO,std::less<unsigned int>,std::allocator<std::pair<unsigned int const ,PimpShip::ITEM_INFO> >,0> >::iterator::operator++
$LN4@IsItemArch:
	lea	edx, DWORD PTR $T150805[ebp]
	push	edx
	mov	ecx, OFFSET ?mapAvailableItems@PimpShip@@3V?$map@IUITEM_INFO@PimpShip@@U?$less@I@std@@V?$allocator@U?$pair@$$CBIUITEM_INFO@PimpShip@@@std@@@4@@std@@A ; PimpShip::mapAvailableItems
	call	?end@?$_Tree@V?$_Tmap_traits@IUITEM_INFO@PimpShip@@U?$less@I@std@@V?$allocator@U?$pair@$$CBIUITEM_INFO@PimpShip@@@std@@@4@$0A@@std@@@std@@QAE?AViterator@12@XZ ; std::_Tree<std::_Tmap_traits<unsigned int,PimpShip::ITEM_INFO,std::less<unsigned int>,std::allocator<std::pair<unsigned int const ,PimpShip::ITEM_INFO> >,0> >::end
	push	eax
	lea	ecx, DWORD PTR _iter$142647[ebp]
	call	??9const_iterator@?$_Tree@V?$_Tmap_traits@IUITEM_INFO@PimpShip@@U?$less@I@std@@V?$allocator@U?$pair@$$CBIUITEM_INFO@PimpShip@@@std@@@4@$0A@@std@@@std@@QBE_NABV012@@Z ; std::_Tree<std::_Tmap_traits<unsigned int,PimpShip::ITEM_INFO,std::less<unsigned int>,std::allocator<std::pair<unsigned int const ,PimpShip::ITEM_INFO> >,0> >::const_iterator::operator!=
	movzx	eax, al
	test	eax, eax
	je	SHORT $LN2@IsItemArch
; Line 82
	lea	ecx, DWORD PTR _iter$142647[ebp]
	call	??Citerator@?$_Tree@V?$_Tmap_traits@IUITEM_INFO@PimpShip@@U?$less@I@std@@V?$allocator@U?$pair@$$CBIUITEM_INFO@PimpShip@@@std@@@4@$0A@@std@@@std@@QBEPAU?$pair@$$CBIUITEM_INFO@PimpShip@@@2@XZ ; std::_Tree<std::_Tmap_traits<unsigned int,PimpShip::ITEM_INFO,std::less<unsigned int>,std::allocator<std::pair<unsigned int const ,PimpShip::ITEM_INFO> >,0> >::iterator::operator->
	mov	ecx, DWORD PTR [eax+4]
	cmp	ecx, DWORD PTR _iArchID$[ebp]
	jne	SHORT $LN1@IsItemArch
; Line 83
	mov	al, 1
	jmp	SHORT $LN5@IsItemArch
$LN1@IsItemArch:
; Line 84
	jmp	SHORT $LN3@IsItemArch
$LN2@IsItemArch:
; Line 85
	xor	al, al
$LN5@IsItemArch:
; Line 86
	mov	esp, ebp
	pop	ebp
	ret	0
?IsItemArchIDAvailable@PimpShip@@YA_NI@Z ENDP		; PimpShip::IsItemArchIDAvailable
_TEXT	ENDS
PUBLIC	?GetItemDescription@PimpShip@@YA?AV?$basic_string@GU?$char_traits@G@std@@V?$allocator@G@2@@std@@I@Z ; PimpShip::GetItemDescription
EXTRN	__imp_??1?$basic_string@GU?$char_traits@G@std@@V?$allocator@G@2@@std@@QAE@XZ:PROC
EXTRN	__imp_??0?$basic_string@GU?$char_traits@G@std@@V?$allocator@G@2@@std@@QAE@PBG@Z:PROC
EXTRN	__imp_??0?$basic_string@GU?$char_traits@G@std@@V?$allocator@G@2@@std@@QAE@ABV01@@Z:PROC
EXTRN	___security_cookie:DWORD
EXTRN	___CxxFrameHandler3:PROC
EXTRN	@__security_check_cookie@4:PROC
xdata$x	SEGMENT
__unwindtable$?GetItemDescription@PimpShip@@YA?AV?$basic_string@GU?$char_traits@G@std@@V?$allocator@G@2@@std@@I@Z DD 0ffffffffH
	DD	FLAT:__unwindfunclet$?GetItemDescription@PimpShip@@YA?AV?$basic_string@GU?$char_traits@G@std@@V?$allocator@G@2@@std@@I@Z$0
__ehfuncinfo$?GetItemDescription@PimpShip@@YA?AV?$basic_string@GU?$char_traits@G@std@@V?$allocator@G@2@@std@@I@Z DD 019930522H
	DD	01H
	DD	FLAT:__unwindtable$?GetItemDescription@PimpShip@@YA?AV?$basic_string@GU?$char_traits@G@std@@V?$allocator@G@2@@std@@I@Z
	DD	2 DUP(00H)
	DD	2 DUP(00H)
	DD	00H
	DD	00H
; Function compile flags: /Odtp
xdata$x	ENDS
_TEXT	SEGMENT
$T150810 = -40						; size = 4
$T150808 = -36						; size = 8
$T150807 = -28						; size = 8
_iter$142700 = -20					; size = 8
__$EHRec$ = -12						; size = 12
___$ReturnUdt$ = 8					; size = 4
_iArchID$ = 12						; size = 4
?GetItemDescription@PimpShip@@YA?AV?$basic_string@GU?$char_traits@G@std@@V?$allocator@G@2@@std@@I@Z PROC ; PimpShip::GetItemDescription
; Line 89
	push	ebp
	mov	ebp, esp
	push	-1
	push	__ehhandler$?GetItemDescription@PimpShip@@YA?AV?$basic_string@GU?$char_traits@G@std@@V?$allocator@G@2@@std@@I@Z
	mov	eax, DWORD PTR fs:0
	push	eax
	sub	esp, 28					; 0000001cH
	mov	eax, DWORD PTR ___security_cookie
	xor	eax, ebp
	push	eax
	lea	eax, DWORD PTR __$EHRec$[ebp]
	mov	DWORD PTR fs:0, eax
	mov	DWORD PTR $T150810[ebp], 0
; Line 90
	lea	eax, DWORD PTR _iter$142700[ebp]
	push	eax
	mov	ecx, OFFSET ?mapAvailableItems@PimpShip@@3V?$map@IUITEM_INFO@PimpShip@@U?$less@I@std@@V?$allocator@U?$pair@$$CBIUITEM_INFO@PimpShip@@@std@@@4@@std@@A ; PimpShip::mapAvailableItems
	call	?begin@?$_Tree@V?$_Tmap_traits@IUITEM_INFO@PimpShip@@U?$less@I@std@@V?$allocator@U?$pair@$$CBIUITEM_INFO@PimpShip@@@std@@@4@$0A@@std@@@std@@QAE?AViterator@12@XZ ; std::_Tree<std::_Tmap_traits<unsigned int,PimpShip::ITEM_INFO,std::less<unsigned int>,std::allocator<std::pair<unsigned int const ,PimpShip::ITEM_INFO> >,0> >::begin
; Line 91
	jmp	SHORT $LN4@GetItemDes
$LN3@GetItemDes:
; Line 92
	push	0
	lea	ecx, DWORD PTR $T150807[ebp]
	push	ecx
	lea	ecx, DWORD PTR _iter$142700[ebp]
	call	??Eiterator@?$_Tree@V?$_Tmap_traits@IUITEM_INFO@PimpShip@@U?$less@I@std@@V?$allocator@U?$pair@$$CBIUITEM_INFO@PimpShip@@@std@@@4@$0A@@std@@@std@@QAE?AV012@H@Z ; std::_Tree<std::_Tmap_traits<unsigned int,PimpShip::ITEM_INFO,std::less<unsigned int>,std::allocator<std::pair<unsigned int const ,PimpShip::ITEM_INFO> >,0> >::iterator::operator++
$LN4@GetItemDes:
	lea	edx, DWORD PTR $T150808[ebp]
	push	edx
	mov	ecx, OFFSET ?mapAvailableItems@PimpShip@@3V?$map@IUITEM_INFO@PimpShip@@U?$less@I@std@@V?$allocator@U?$pair@$$CBIUITEM_INFO@PimpShip@@@std@@@4@@std@@A ; PimpShip::mapAvailableItems
	call	?end@?$_Tree@V?$_Tmap_traits@IUITEM_INFO@PimpShip@@U?$less@I@std@@V?$allocator@U?$pair@$$CBIUITEM_INFO@PimpShip@@@std@@@4@$0A@@std@@@std@@QAE?AViterator@12@XZ ; std::_Tree<std::_Tmap_traits<unsigned int,PimpShip::ITEM_INFO,std::less<unsigned int>,std::allocator<std::pair<unsigned int const ,PimpShip::ITEM_INFO> >,0> >::end
	push	eax
	lea	ecx, DWORD PTR _iter$142700[ebp]
	call	??9const_iterator@?$_Tree@V?$_Tmap_traits@IUITEM_INFO@PimpShip@@U?$less@I@std@@V?$allocator@U?$pair@$$CBIUITEM_INFO@PimpShip@@@std@@@4@$0A@@std@@@std@@QBE_NABV012@@Z ; std::_Tree<std::_Tmap_traits<unsigned int,PimpShip::ITEM_INFO,std::less<unsigned int>,std::allocator<std::pair<unsigned int const ,PimpShip::ITEM_INFO> >,0> >::const_iterator::operator!=
	movzx	eax, al
	test	eax, eax
	je	SHORT $LN2@GetItemDes
; Line 94
	lea	ecx, DWORD PTR _iter$142700[ebp]
	call	??Citerator@?$_Tree@V?$_Tmap_traits@IUITEM_INFO@PimpShip@@U?$less@I@std@@V?$allocator@U?$pair@$$CBIUITEM_INFO@PimpShip@@@std@@@4@$0A@@std@@@std@@QBEPAU?$pair@$$CBIUITEM_INFO@PimpShip@@@2@XZ ; std::_Tree<std::_Tmap_traits<unsigned int,PimpShip::ITEM_INFO,std::less<unsigned int>,std::allocator<std::pair<unsigned int const ,PimpShip::ITEM_INFO> >,0> >::iterator::operator->
	mov	ecx, DWORD PTR [eax+4]
	cmp	ecx, DWORD PTR _iArchID$[ebp]
	jne	SHORT $LN1@GetItemDes
; Line 95
	lea	ecx, DWORD PTR _iter$142700[ebp]
	call	??Citerator@?$_Tree@V?$_Tmap_traits@IUITEM_INFO@PimpShip@@U?$less@I@std@@V?$allocator@U?$pair@$$CBIUITEM_INFO@PimpShip@@@std@@@4@$0A@@std@@@std@@QBEPAU?$pair@$$CBIUITEM_INFO@PimpShip@@@2@XZ ; std::_Tree<std::_Tmap_traits<unsigned int,PimpShip::ITEM_INFO,std::less<unsigned int>,std::allocator<std::pair<unsigned int const ,PimpShip::ITEM_INFO> >,0> >::iterator::operator->
	add	eax, 36					; 00000024H
	push	eax
	mov	ecx, DWORD PTR ___$ReturnUdt$[ebp]
	call	DWORD PTR __imp_??0?$basic_string@GU?$char_traits@G@std@@V?$allocator@G@2@@std@@QAE@ABV01@@Z
	mov	DWORD PTR __$EHRec$[ebp+8], 0
	mov	edx, DWORD PTR $T150810[ebp]
	or	edx, 1
	mov	DWORD PTR $T150810[ebp], edx
	mov	eax, DWORD PTR ___$ReturnUdt$[ebp]
	jmp	SHORT $LN5@GetItemDes
$LN1@GetItemDes:
; Line 96
	jmp	SHORT $LN3@GetItemDes
$LN2@GetItemDes:
; Line 97
	push	OFFSET $SG142708
	mov	ecx, DWORD PTR ___$ReturnUdt$[ebp]
	call	DWORD PTR __imp_??0?$basic_string@GU?$char_traits@G@std@@V?$allocator@G@2@@std@@QAE@PBG@Z
	mov	DWORD PTR __$EHRec$[ebp+8], 0
	mov	eax, DWORD PTR $T150810[ebp]
	or	eax, 1
	mov	DWORD PTR $T150810[ebp], eax
	mov	eax, DWORD PTR ___$ReturnUdt$[ebp]
$LN5@GetItemDes:
; Line 98
	mov	ecx, DWORD PTR __$EHRec$[ebp]
	mov	DWORD PTR fs:0, ecx
	pop	ecx
	mov	esp, ebp
	pop	ebp
	ret	0
_TEXT	ENDS
text$x	SEGMENT
__unwindfunclet$?GetItemDescription@PimpShip@@YA?AV?$basic_string@GU?$char_traits@G@std@@V?$allocator@G@2@@std@@I@Z$0:
	mov	eax, DWORD PTR $T150810[ebp]
	and	eax, 1
	je	$LN8@GetItemDes
	and	DWORD PTR $T150810[ebp], -2		; fffffffeH
	mov	ecx, DWORD PTR ___$ReturnUdt$[ebp]
	jmp	DWORD PTR __imp_??1?$basic_string@GU?$char_traits@G@std@@V?$allocator@G@2@@std@@QAE@XZ
$LN8@GetItemDes:
	ret	0
__ehhandler$?GetItemDescription@PimpShip@@YA?AV?$basic_string@GU?$char_traits@G@std@@V?$allocator@G@2@@std@@I@Z:
	mov	edx, DWORD PTR [esp+8]
	lea	eax, DWORD PTR [edx+12]
	mov	ecx, DWORD PTR [edx-32]
	xor	ecx, eax
	call	@__security_check_cookie@4
	mov	eax, OFFSET __ehfuncinfo$?GetItemDescription@PimpShip@@YA?AV?$basic_string@GU?$char_traits@G@std@@V?$allocator@G@2@@std@@I@Z
	jmp	___CxxFrameHandler3
text$x	ENDS
?GetItemDescription@PimpShip@@YA?AV?$basic_string@GU?$char_traits@G@std@@V?$allocator@G@2@@std@@I@Z ENDP ; PimpShip::GetItemDescription
PUBLIC	??A?$map@IV?$basic_string@GU?$char_traits@G@std@@V?$allocator@G@2@@std@@U?$less@I@2@V?$allocator@U?$pair@$$CBIV?$basic_string@GU?$char_traits@G@std@@V?$allocator@G@2@@std@@@std@@@2@@std@@QAEAAV?$basic_string@GU?$char_traits@G@std@@V?$allocator@G@2@@1@ABI@Z ; std::map<unsigned int,std::basic_string<unsigned short,std::char_traits<unsigned short>,std::allocator<unsigned short> >,std::less<unsigned int>,std::allocator<std::pair<unsigned int const ,std::basic_string<unsigned short,std::char_traits<unsigned short>,std::allocator<unsigned short> > > > >::operator[]
PUBLIC	??A?$map@IUITEM_INFO@PimpShip@@U?$less@I@std@@V?$allocator@U?$pair@$$CBIUITEM_INFO@PimpShip@@@std@@@4@@std@@QAEAAUITEM_INFO@PimpShip@@ABI@Z ; std::map<unsigned int,PimpShip::ITEM_INFO,std::less<unsigned int>,std::allocator<std::pair<unsigned int const ,PimpShip::ITEM_INFO> > >::operator[]
PUBLIC	?clear@?$_Tree@V?$_Tmap_traits@IV?$basic_string@GU?$char_traits@G@std@@V?$allocator@G@2@@std@@U?$less@I@2@V?$allocator@U?$pair@$$CBIV?$basic_string@GU?$char_traits@G@std@@V?$allocator@G@2@@std@@@std@@@2@$0A@@std@@@std@@QAEXXZ ; std::_Tree<std::_Tmap_traits<unsigned int,std::basic_string<unsigned short,std::char_traits<unsigned short>,std::allocator<unsigned short> >,std::less<unsigned int>,std::allocator<std::pair<unsigned int const ,std::basic_string<unsigned short,std::char_traits<unsigned short>,std::allocator<unsigned short> > > >,0> >::clear
PUBLIC	?clear@?$_Tree@V?$_Tmap_traits@IUITEM_INFO@PimpShip@@U?$less@I@std@@V?$allocator@U?$pair@$$CBIUITEM_INFO@PimpShip@@@std@@@4@$0A@@std@@@std@@QAEXXZ ; std::_Tree<std::_Tmap_traits<unsigned int,PimpShip::ITEM_INFO,std::less<unsigned int>,std::allocator<std::pair<unsigned int const ,PimpShip::ITEM_INFO> >,0> >::clear
PUBLIC	__$ArrayPad$
PUBLIC	?LoadSettings@PimpShip@@YAXABV?$basic_string@DU?$char_traits@D@std@@V?$allocator@D@2@@std@@@Z ; PimpShip::LoadSettings
EXTRN	__imp_??1INI_Reader@@QAE@XZ:PROC
EXTRN	__imp_?close@INI_Reader@@QAEXXZ:PROC
EXTRN	__imp_?ConPrint@@YAXV?$basic_string@GU?$char_traits@G@std@@V?$allocator@G@2@@std@@ZZ:PROC
EXTRN	__imp_?c_str@?$basic_string@GU?$char_traits@G@std@@V?$allocator@G@2@@std@@QBEPBGXZ:PROC
EXTRN	?set_iPluginDebug@@3HA:DWORD			; set_iPluginDebug
EXTRN	__imp_?get_room_data@BaseDataList@@QBEPAVRoomData@@I@Z:PROC
EXTRN	__imp_?BaseDataList_get@@YAPAVBaseDataList@@XZ:PROC
EXTRN	__imp_??1?$basic_string@DU?$char_traits@D@std@@V?$allocator@D@2@@std@@QAE@XZ:PROC
EXTRN	__imp_?length@?$basic_string@GU?$char_traits@G@std@@V?$allocator@G@2@@std@@QBEIXZ:PROC
EXTRN	__imp_??4?$basic_string@GU?$char_traits@G@std@@V?$allocator@G@2@@std@@QAEAAV01@ABV01@@Z:PROC
EXTRN	__imp_?stows@@YA?AV?$basic_string@GU?$char_traits@G@std@@V?$allocator@G@2@@std@@ABV?$basic_string@DU?$char_traits@D@std@@V?$allocator@D@2@@2@@Z:PROC
EXTRN	__imp_?CreateID@@YAIPBD@Z:PROC
EXTRN	__imp_??0?$basic_string@DU?$char_traits@D@std@@V?$allocator@D@2@@std@@QAE@PBD@Z:PROC
EXTRN	__imp_?get_value_string@INI_Reader@@QAEPBDI@Z:PROC
EXTRN	__imp_?get_value_int@INI_Reader@@QAEHI@Z:PROC
EXTRN	__imp_?is_value@INI_Reader@@QAE_NPBD@Z:PROC
EXTRN	__imp_?read_value@INI_Reader@@QAE_NXZ:PROC
EXTRN	__imp_?is_header@INI_Reader@@QAE_NPBD@Z:PROC
EXTRN	__imp_?read_header@INI_Reader@@QAE_NXZ:PROC
EXTRN	__imp_?open@INI_Reader@@QAE_NPBD_N@Z:PROC
EXTRN	__imp_?c_str@?$basic_string@DU?$char_traits@D@std@@V?$allocator@D@2@@std@@QBEPBDXZ:PROC
EXTRN	__imp_??0INI_Reader@@QAE@XZ:PROC
EXTRN	__imp_?WriteProcMem@@YAXPAX0H@Z:PROC
EXTRN	__chkstk:PROC
xdata$x	SEGMENT
__ehfuncinfo$?LoadSettings@PimpShip@@YAXABV?$basic_string@DU?$char_traits@D@std@@V?$allocator@D@2@@std@@@Z DD 019930522H
	DD	09H
	DD	FLAT:__unwindtable$?LoadSettings@PimpShip@@YAXABV?$basic_string@DU?$char_traits@D@std@@V?$allocator@D@2@@std@@@Z
	DD	2 DUP(00H)
	DD	2 DUP(00H)
	DD	00H
	DD	00H
__unwindtable$?LoadSettings@PimpShip@@YAXABV?$basic_string@DU?$char_traits@D@std@@V?$allocator@D@2@@std@@@Z DD 0ffffffffH
	DD	FLAT:__unwindfunclet$?LoadSettings@PimpShip@@YAXABV?$basic_string@DU?$char_traits@D@std@@V?$allocator@D@2@@std@@@Z$0
	DD	00H
	DD	FLAT:__unwindfunclet$?LoadSettings@PimpShip@@YAXABV?$basic_string@DU?$char_traits@D@std@@V?$allocator@D@2@@std@@@Z$1
	DD	01H
	DD	FLAT:__unwindfunclet$?LoadSettings@PimpShip@@YAXABV?$basic_string@DU?$char_traits@D@std@@V?$allocator@D@2@@std@@@Z$2
	DD	02H
	DD	FLAT:__unwindfunclet$?LoadSettings@PimpShip@@YAXABV?$basic_string@DU?$char_traits@D@std@@V?$allocator@D@2@@std@@@Z$3
	DD	02H
	DD	FLAT:__unwindfunclet$?LoadSettings@PimpShip@@YAXABV?$basic_string@DU?$char_traits@D@std@@V?$allocator@D@2@@std@@@Z$4
	DD	00H
	DD	FLAT:__unwindfunclet$?LoadSettings@PimpShip@@YAXABV?$basic_string@DU?$char_traits@D@std@@V?$allocator@D@2@@std@@@Z$5
	DD	05H
	DD	FLAT:__unwindfunclet$?LoadSettings@PimpShip@@YAXABV?$basic_string@DU?$char_traits@D@std@@V?$allocator@D@2@@std@@@Z$6
	DD	06H
	DD	FLAT:__unwindfunclet$?LoadSettings@PimpShip@@YAXABV?$basic_string@DU?$char_traits@D@std@@V?$allocator@D@2@@std@@@Z$7
	DD	05H
	DD	FLAT:__unwindfunclet$?LoadSettings@PimpShip@@YAXABV?$basic_string@DU?$char_traits@D@std@@V?$allocator@D@2@@std@@@Z$8
; Function compile flags: /Odtp
xdata$x	ENDS
_TEXT	SEGMENT
tv311 = -5780						; size = 4
tv313 = -5776						; size = 4
tv309 = -5772						; size = 4
tv78 = -5768						; size = 4
tv306 = -5764						; size = 4
tv213 = -5760						; size = 4
tv303 = -5756						; size = 4
tv147 = -5752						; size = 4
tv301 = -5748						; size = 4
tv154 = -5744						; size = 4
$T150833 = -5740					; size = 28
$T150832 = -5712					; size = 4
$T150831 = -5708					; size = 28
$T150830 = -5680					; size = 4
$T150829 = -5676					; size = 4
$T150828 = -5672					; size = 4
$T150827 = -5668					; size = 28
$T150826 = -5640					; size = 4
$T150825 = -5636					; size = 28
$T150824 = -5608					; size = 4
$T150823 = -5604					; size = 4
_nickname$142745 = -5600				; size = 28
_iLocationID$142746 = -5572				; size = 4
_nickname$142730 = -5568				; size = 28
_description$142731 = -5540				; size = 28
_iArchID$142732 = -5512					; size = 4
_ini$ = -5508						; size = 5480
__$ArrayPad$ = -28					; size = 4
_iItemID$ = -24						; size = 4
_unpatch1$ = -20					; size = 2
_patch1$ = -16						; size = 2
__$EHRec$ = -12						; size = 12
_scPluginCfgFile$ = 8					; size = 4
?LoadSettings@PimpShip@@YAXABV?$basic_string@DU?$char_traits@D@std@@V?$allocator@D@2@@std@@@Z PROC ; PimpShip::LoadSettings
; Line 101
	push	ebp
	mov	ebp, esp
	push	-1
	push	__ehhandler$?LoadSettings@PimpShip@@YAXABV?$basic_string@DU?$char_traits@D@std@@V?$allocator@D@2@@std@@@Z
	mov	eax, DWORD PTR fs:0
	push	eax
	mov	eax, 5768				; 00001688H
	call	__chkstk
	mov	eax, DWORD PTR ___security_cookie
	xor	eax, ebp
	mov	DWORD PTR __$ArrayPad$[ebp], eax
	push	eax
	lea	eax, DWORD PTR __$EHRec$[ebp]
	mov	DWORD PTR fs:0, eax
; Line 102
	mov	DWORD PTR _set_iCost, 0
; Line 103
	mov	ecx, OFFSET ?mapAvailableItems@PimpShip@@3V?$map@IUITEM_INFO@PimpShip@@U?$less@I@std@@V?$allocator@U?$pair@$$CBIUITEM_INFO@PimpShip@@@std@@@4@@std@@A ; PimpShip::mapAvailableItems
	call	?clear@?$_Tree@V?$_Tmap_traits@IUITEM_INFO@PimpShip@@U?$less@I@std@@V?$allocator@U?$pair@$$CBIUITEM_INFO@PimpShip@@@std@@@4@$0A@@std@@@std@@QAEXXZ ; std::_Tree<std::_Tmap_traits<unsigned int,PimpShip::ITEM_INFO,std::less<unsigned int>,std::allocator<std::pair<unsigned int const ,PimpShip::ITEM_INFO> >,0> >::clear
; Line 104
	mov	ecx, OFFSET _set_mapDealers
	call	?clear@?$_Tree@V?$_Tmap_traits@IV?$basic_string@GU?$char_traits@G@std@@V?$allocator@G@2@@std@@U?$less@I@2@V?$allocator@U?$pair@$$CBIV?$basic_string@GU?$char_traits@G@std@@V?$allocator@G@2@@std@@@std@@@2@$0A@@std@@@std@@QAEXXZ ; std::_Tree<std::_Tmap_traits<unsigned int,std::basic_string<unsigned short,std::char_traits<unsigned short>,std::allocator<unsigned short> >,std::less<unsigned int>,std::allocator<std::pair<unsigned int const ,std::basic_string<unsigned short,std::char_traits<unsigned short>,std::allocator<unsigned short> > > >,0> >::clear
; Line 107
	mov	BYTE PTR _patch1$[ebp], 144		; 00000090H
	mov	BYTE PTR _patch1$[ebp+1], 144		; 00000090H
; Line 108
	push	2
	lea	eax, DWORD PTR _patch1$[ebp]
	push	eax
	push	103178482				; 062660f2H
	call	DWORD PTR __imp_?WriteProcMem@@YAXPAX0H@Z
	add	esp, 12					; 0000000cH
; Line 110
	mov	DWORD PTR _iItemID$[ebp], 1
; Line 111
	lea	ecx, DWORD PTR _ini$[ebp]
	call	DWORD PTR __imp_??0INI_Reader@@QAE@XZ
	mov	DWORD PTR __$EHRec$[ebp+8], 0
; Line 112
	push	0
	mov	ecx, DWORD PTR _scPluginCfgFile$[ebp]
	call	DWORD PTR __imp_?c_str@?$basic_string@DU?$char_traits@D@std@@V?$allocator@D@2@@std@@QBEPBDXZ
	push	eax
	lea	ecx, DWORD PTR _ini$[ebp]
	call	DWORD PTR __imp_?open@INI_Reader@@QAE_NPBD_N@Z
	movzx	ecx, al
	test	ecx, ecx
	je	$LN15@LoadSettin
$LN14@LoadSettin:
; Line 114
	lea	ecx, DWORD PTR _ini$[ebp]
	call	DWORD PTR __imp_?read_header@INI_Reader@@QAE_NXZ
	movzx	edx, al
	test	edx, edx
	je	$LN13@LoadSettin
; Line 116
	push	OFFSET $SG142721
	lea	ecx, DWORD PTR _ini$[ebp]
	call	DWORD PTR __imp_?is_header@INI_Reader@@QAE_NPBD@Z
	movzx	eax, al
	test	eax, eax
	je	$LN12@LoadSettin
$LN11@LoadSettin:
; Line 118
	lea	ecx, DWORD PTR _ini$[ebp]
	call	DWORD PTR __imp_?read_value@INI_Reader@@QAE_NXZ
	movzx	ecx, al
	test	ecx, ecx
	je	$LN12@LoadSettin
; Line 120
	push	OFFSET $SG142726
	lea	ecx, DWORD PTR _ini$[ebp]
	call	DWORD PTR __imp_?is_value@INI_Reader@@QAE_NPBD@Z
	movzx	edx, al
	test	edx, edx
	je	SHORT $LN9@LoadSettin
; Line 122
	push	0
	lea	ecx, DWORD PTR _ini$[ebp]
	call	DWORD PTR __imp_?get_value_int@INI_Reader@@QAEHI@Z
	mov	DWORD PTR _set_iCost, eax
	jmp	$LN8@LoadSettin
$LN9@LoadSettin:
; Line 124
	push	OFFSET $SG142729
	lea	ecx, DWORD PTR _ini$[ebp]
	call	DWORD PTR __imp_?is_value@INI_Reader@@QAE_NPBD@Z
	movzx	eax, al
	test	eax, eax
	je	$LN7@LoadSettin
; Line 126
	push	0
	lea	ecx, DWORD PTR _ini$[ebp]
	call	DWORD PTR __imp_?get_value_string@INI_Reader@@QAEPBDI@Z
	push	eax
	lea	ecx, DWORD PTR _nickname$142730[ebp]
	call	DWORD PTR __imp_??0?$basic_string@DU?$char_traits@D@std@@V?$allocator@D@2@@std@@QAE@PBD@Z
	mov	BYTE PTR __$EHRec$[ebp+8], 1
; Line 127
	push	1
	lea	ecx, DWORD PTR _ini$[ebp]
	call	DWORD PTR __imp_?get_value_string@INI_Reader@@QAEPBDI@Z
	push	eax
	lea	ecx, DWORD PTR _description$142731[ebp]
	call	DWORD PTR __imp_??0?$basic_string@DU?$char_traits@D@std@@V?$allocator@D@2@@std@@QAE@PBD@Z
	mov	BYTE PTR __$EHRec$[ebp+8], 2
; Line 128
	lea	ecx, DWORD PTR _nickname$142730[ebp]
	call	DWORD PTR __imp_?c_str@?$basic_string@DU?$char_traits@D@std@@V?$allocator@D@2@@std@@QBEPBDXZ
	push	eax
	call	DWORD PTR __imp_?CreateID@@YAIPBD@Z
	add	esp, 4
	mov	DWORD PTR _iArchID$142732[ebp], eax
; Line 129
	mov	ecx, DWORD PTR _iItemID$[ebp]
	mov	DWORD PTR $T150823[ebp], ecx
	lea	edx, DWORD PTR $T150823[ebp]
	push	edx
	mov	ecx, OFFSET ?mapAvailableItems@PimpShip@@3V?$map@IUITEM_INFO@PimpShip@@U?$less@I@std@@V?$allocator@U?$pair@$$CBIUITEM_INFO@PimpShip@@@std@@@4@@std@@A ; PimpShip::mapAvailableItems
	call	??A?$map@IUITEM_INFO@PimpShip@@U?$less@I@std@@V?$allocator@U?$pair@$$CBIUITEM_INFO@PimpShip@@@std@@@4@@std@@QAEAAUITEM_INFO@PimpShip@@ABI@Z ; std::map<unsigned int,PimpShip::ITEM_INFO,std::less<unsigned int>,std::allocator<std::pair<unsigned int const ,PimpShip::ITEM_INFO> > >::operator[]
	mov	ecx, DWORD PTR _iArchID$142732[ebp]
	mov	DWORD PTR [eax], ecx
; Line 130
	mov	edx, DWORD PTR _iItemID$[ebp]
	mov	DWORD PTR $T150824[ebp], edx
	lea	eax, DWORD PTR _nickname$142730[ebp]
	push	eax
	lea	ecx, DWORD PTR $T150825[ebp]
	push	ecx
	call	DWORD PTR __imp_?stows@@YA?AV?$basic_string@GU?$char_traits@G@std@@V?$allocator@G@2@@std@@ABV?$basic_string@DU?$char_traits@D@std@@V?$allocator@D@2@@2@@Z
	add	esp, 8
	mov	DWORD PTR tv154[ebp], eax
	mov	edx, DWORD PTR tv154[ebp]
	mov	DWORD PTR tv301[ebp], edx
	mov	BYTE PTR __$EHRec$[ebp+8], 3
	mov	eax, DWORD PTR tv301[ebp]
	push	eax
	lea	ecx, DWORD PTR $T150824[ebp]
	push	ecx
	mov	ecx, OFFSET ?mapAvailableItems@PimpShip@@3V?$map@IUITEM_INFO@PimpShip@@U?$less@I@std@@V?$allocator@U?$pair@$$CBIUITEM_INFO@PimpShip@@@std@@@4@@std@@A ; PimpShip::mapAvailableItems
	call	??A?$map@IUITEM_INFO@PimpShip@@U?$less@I@std@@V?$allocator@U?$pair@$$CBIUITEM_INFO@PimpShip@@@std@@@4@@std@@QAEAAUITEM_INFO@PimpShip@@ABI@Z ; std::map<unsigned int,PimpShip::ITEM_INFO,std::less<unsigned int>,std::allocator<std::pair<unsigned int const ,PimpShip::ITEM_INFO> > >::operator[]
	add	eax, 4
	mov	ecx, eax
	call	DWORD PTR __imp_??4?$basic_string@GU?$char_traits@G@std@@V?$allocator@G@2@@std@@QAEAAV01@ABV01@@Z
	mov	BYTE PTR __$EHRec$[ebp+8], 2
	lea	ecx, DWORD PTR $T150825[ebp]
	call	DWORD PTR __imp_??1?$basic_string@GU?$char_traits@G@std@@V?$allocator@G@2@@std@@QAE@XZ
; Line 131
	mov	edx, DWORD PTR _iItemID$[ebp]
	mov	DWORD PTR $T150826[ebp], edx
	lea	eax, DWORD PTR _description$142731[ebp]
	push	eax
	lea	ecx, DWORD PTR $T150827[ebp]
	push	ecx
	call	DWORD PTR __imp_?stows@@YA?AV?$basic_string@GU?$char_traits@G@std@@V?$allocator@G@2@@std@@ABV?$basic_string@DU?$char_traits@D@std@@V?$allocator@D@2@@2@@Z
	add	esp, 8
	mov	DWORD PTR tv147[ebp], eax
	mov	edx, DWORD PTR tv147[ebp]
	mov	DWORD PTR tv303[ebp], edx
	mov	BYTE PTR __$EHRec$[ebp+8], 4
	mov	eax, DWORD PTR tv303[ebp]
	push	eax
	lea	ecx, DWORD PTR $T150826[ebp]
	push	ecx
	mov	ecx, OFFSET ?mapAvailableItems@PimpShip@@3V?$map@IUITEM_INFO@PimpShip@@U?$less@I@std@@V?$allocator@U?$pair@$$CBIUITEM_INFO@PimpShip@@@std@@@4@@std@@A ; PimpShip::mapAvailableItems
	call	??A?$map@IUITEM_INFO@PimpShip@@U?$less@I@std@@V?$allocator@U?$pair@$$CBIUITEM_INFO@PimpShip@@@std@@@4@@std@@QAEAAUITEM_INFO@PimpShip@@ABI@Z ; std::map<unsigned int,PimpShip::ITEM_INFO,std::less<unsigned int>,std::allocator<std::pair<unsigned int const ,PimpShip::ITEM_INFO> > >::operator[]
	add	eax, 32					; 00000020H
	mov	ecx, eax
	call	DWORD PTR __imp_??4?$basic_string@GU?$char_traits@G@std@@V?$allocator@G@2@@std@@QAEAAV01@ABV01@@Z
	mov	BYTE PTR __$EHRec$[ebp+8], 2
	lea	ecx, DWORD PTR $T150827[ebp]
	call	DWORD PTR __imp_??1?$basic_string@GU?$char_traits@G@std@@V?$allocator@G@2@@std@@QAE@XZ
; Line 132
	mov	edx, DWORD PTR _iItemID$[ebp]
	mov	DWORD PTR $T150828[ebp], edx
	lea	eax, DWORD PTR $T150828[ebp]
	push	eax
	mov	ecx, OFFSET ?mapAvailableItems@PimpShip@@3V?$map@IUITEM_INFO@PimpShip@@U?$less@I@std@@V?$allocator@U?$pair@$$CBIUITEM_INFO@PimpShip@@@std@@@4@@std@@A ; PimpShip::mapAvailableItems
	call	??A?$map@IUITEM_INFO@PimpShip@@U?$less@I@std@@V?$allocator@U?$pair@$$CBIUITEM_INFO@PimpShip@@@std@@@4@@std@@QAEAAUITEM_INFO@PimpShip@@ABI@Z ; std::map<unsigned int,PimpShip::ITEM_INFO,std::less<unsigned int>,std::allocator<std::pair<unsigned int const ,PimpShip::ITEM_INFO> > >::operator[]
	add	eax, 32					; 00000020H
	mov	ecx, eax
	call	DWORD PTR __imp_?length@?$basic_string@GU?$char_traits@G@std@@V?$allocator@G@2@@std@@QBEIXZ
	test	eax, eax
	jne	SHORT $LN6@LoadSettin
; Line 133
	mov	ecx, DWORD PTR _iItemID$[ebp]
	mov	DWORD PTR $T150830[ebp], ecx
	mov	edx, DWORD PTR _iItemID$[ebp]
	mov	DWORD PTR $T150829[ebp], edx
	lea	eax, DWORD PTR $T150830[ebp]
	push	eax
	mov	ecx, OFFSET ?mapAvailableItems@PimpShip@@3V?$map@IUITEM_INFO@PimpShip@@U?$less@I@std@@V?$allocator@U?$pair@$$CBIUITEM_INFO@PimpShip@@@std@@@4@@std@@A ; PimpShip::mapAvailableItems
	call	??A?$map@IUITEM_INFO@PimpShip@@U?$less@I@std@@V?$allocator@U?$pair@$$CBIUITEM_INFO@PimpShip@@@std@@@4@@std@@QAEAAUITEM_INFO@PimpShip@@ABI@Z ; std::map<unsigned int,PimpShip::ITEM_INFO,std::less<unsigned int>,std::allocator<std::pair<unsigned int const ,PimpShip::ITEM_INFO> > >::operator[]
	add	eax, 4
	push	eax
	lea	ecx, DWORD PTR $T150829[ebp]
	push	ecx
	mov	ecx, OFFSET ?mapAvailableItems@PimpShip@@3V?$map@IUITEM_INFO@PimpShip@@U?$less@I@std@@V?$allocator@U?$pair@$$CBIUITEM_INFO@PimpShip@@@std@@@4@@std@@A ; PimpShip::mapAvailableItems
	call	??A?$map@IUITEM_INFO@PimpShip@@U?$less@I@std@@V?$allocator@U?$pair@$$CBIUITEM_INFO@PimpShip@@@std@@@4@@std@@QAEAAUITEM_INFO@PimpShip@@ABI@Z ; std::map<unsigned int,PimpShip::ITEM_INFO,std::less<unsigned int>,std::allocator<std::pair<unsigned int const ,PimpShip::ITEM_INFO> > >::operator[]
	add	eax, 32					; 00000020H
	mov	ecx, eax
	call	DWORD PTR __imp_??4?$basic_string@GU?$char_traits@G@std@@V?$allocator@G@2@@std@@QAEAAV01@ABV01@@Z
$LN6@LoadSettin:
; Line 134
	mov	edx, DWORD PTR _iItemID$[ebp]
	add	edx, 1
	mov	DWORD PTR _iItemID$[ebp], edx
; Line 135
	mov	BYTE PTR __$EHRec$[ebp+8], 1
	lea	ecx, DWORD PTR _description$142731[ebp]
	call	DWORD PTR __imp_??1?$basic_string@DU?$char_traits@D@std@@V?$allocator@D@2@@std@@QAE@XZ
	mov	BYTE PTR __$EHRec$[ebp+8], 0
	lea	ecx, DWORD PTR _nickname$142730[ebp]
	call	DWORD PTR __imp_??1?$basic_string@DU?$char_traits@D@std@@V?$allocator@D@2@@std@@QAE@XZ
	jmp	$LN8@LoadSettin
$LN7@LoadSettin:
; Line 136
	push	OFFSET $SG142744
	lea	ecx, DWORD PTR _ini$[ebp]
	call	DWORD PTR __imp_?is_value@INI_Reader@@QAE_NPBD@Z
	movzx	eax, al
	test	eax, eax
	je	$LN8@LoadSettin
; Line 138
	push	0
	lea	ecx, DWORD PTR _ini$[ebp]
	call	DWORD PTR __imp_?get_value_string@INI_Reader@@QAEPBDI@Z
	push	eax
	lea	ecx, DWORD PTR _nickname$142745[ebp]
	call	DWORD PTR __imp_??0?$basic_string@DU?$char_traits@D@std@@V?$allocator@D@2@@std@@QAE@PBD@Z
	mov	BYTE PTR __$EHRec$[ebp+8], 5
; Line 139
	lea	ecx, DWORD PTR _nickname$142745[ebp]
	call	DWORD PTR __imp_?c_str@?$basic_string@DU?$char_traits@D@std@@V?$allocator@D@2@@std@@QBEPBDXZ
	push	eax
	call	DWORD PTR __imp_?CreateID@@YAIPBD@Z
	add	esp, 4
	mov	DWORD PTR _iLocationID$142746[ebp], eax
; Line 140
	mov	ecx, DWORD PTR _iLocationID$142746[ebp]
	push	ecx
	call	DWORD PTR __imp_?BaseDataList_get@@YAPAVBaseDataList@@XZ
	mov	ecx, eax
	call	DWORD PTR __imp_?get_room_data@BaseDataList@@QBEPAVRoomData@@I@Z
	test	eax, eax
	jne	$LN3@LoadSettin
; Line 142
	cmp	DWORD PTR ?set_iPluginDebug@@3HA, 0	; set_iPluginDebug
	jle	$LN2@LoadSettin
; Line 144
	lea	edx, DWORD PTR _nickname$142745[ebp]
	push	edx
	lea	eax, DWORD PTR $T150831[ebp]
	push	eax
	call	DWORD PTR __imp_?stows@@YA?AV?$basic_string@GU?$char_traits@G@std@@V?$allocator@G@2@@std@@ABV?$basic_string@DU?$char_traits@D@std@@V?$allocator@D@2@@2@@Z
	add	esp, 8
	mov	DWORD PTR tv213[ebp], eax
	mov	ecx, DWORD PTR tv213[ebp]
	mov	DWORD PTR tv306[ebp], ecx
	mov	BYTE PTR __$EHRec$[ebp+8], 6
	mov	ecx, DWORD PTR tv306[ebp]
	call	DWORD PTR __imp_?c_str@?$basic_string@GU?$char_traits@G@std@@V?$allocator@G@2@@std@@QBEPBGXZ
	push	eax
	sub	esp, 28					; 0000001cH
	mov	ecx, esp
	mov	DWORD PTR $T150832[ebp], esp
	push	OFFSET $SG142751
	call	DWORD PTR __imp_??0?$basic_string@GU?$char_traits@G@std@@V?$allocator@G@2@@std@@QAE@PBG@Z
	mov	DWORD PTR tv78[ebp], eax
	mov	edx, DWORD PTR tv78[ebp]
	mov	DWORD PTR tv309[ebp], edx
	mov	BYTE PTR __$EHRec$[ebp+8], 7
	mov	BYTE PTR __$EHRec$[ebp+8], 6
	call	DWORD PTR __imp_?ConPrint@@YAXV?$basic_string@GU?$char_traits@G@std@@V?$allocator@G@2@@std@@ZZ
	add	esp, 32					; 00000020H
	mov	BYTE PTR __$EHRec$[ebp+8], 5
	lea	ecx, DWORD PTR $T150831[ebp]
	call	DWORD PTR __imp_??1?$basic_string@GU?$char_traits@G@std@@V?$allocator@G@2@@std@@QAE@XZ
$LN2@LoadSettin:
; Line 147
	jmp	SHORT $LN1@LoadSettin
$LN3@LoadSettin:
; Line 149
	lea	eax, DWORD PTR _nickname$142745[ebp]
	push	eax
	lea	ecx, DWORD PTR $T150833[ebp]
	push	ecx
	call	DWORD PTR __imp_?stows@@YA?AV?$basic_string@GU?$char_traits@G@std@@V?$allocator@G@2@@std@@ABV?$basic_string@DU?$char_traits@D@std@@V?$allocator@D@2@@2@@Z
	add	esp, 8
	mov	DWORD PTR tv313[ebp], eax
	mov	edx, DWORD PTR tv313[ebp]
	mov	DWORD PTR tv311[ebp], edx
	mov	BYTE PTR __$EHRec$[ebp+8], 8
	mov	eax, DWORD PTR tv311[ebp]
	push	eax
	lea	ecx, DWORD PTR _iLocationID$142746[ebp]
	push	ecx
	mov	ecx, OFFSET _set_mapDealers
	call	??A?$map@IV?$basic_string@GU?$char_traits@G@std@@V?$allocator@G@2@@std@@U?$less@I@2@V?$allocator@U?$pair@$$CBIV?$basic_string@GU?$char_traits@G@std@@V?$allocator@G@2@@std@@@std@@@2@@std@@QAEAAV?$basic_string@GU?$char_traits@G@std@@V?$allocator@G@2@@1@ABI@Z ; std::map<unsigned int,std::basic_string<unsigned short,std::char_traits<unsigned short>,std::allocator<unsigned short> >,std::less<unsigned int>,std::allocator<std::pair<unsigned int const ,std::basic_string<unsigned short,std::char_traits<unsigned short>,std::allocator<unsigned short> > > > >::operator[]
	mov	ecx, eax
	call	DWORD PTR __imp_??4?$basic_string@GU?$char_traits@G@std@@V?$allocator@G@2@@std@@QAEAAV01@ABV01@@Z
	mov	BYTE PTR __$EHRec$[ebp+8], 5
	lea	ecx, DWORD PTR $T150833[ebp]
	call	DWORD PTR __imp_??1?$basic_string@GU?$char_traits@G@std@@V?$allocator@G@2@@std@@QAE@XZ
$LN1@LoadSettin:
; Line 151
	mov	BYTE PTR __$EHRec$[ebp+8], 0
	lea	ecx, DWORD PTR _nickname$142745[ebp]
	call	DWORD PTR __imp_??1?$basic_string@DU?$char_traits@D@std@@V?$allocator@D@2@@std@@QAE@XZ
$LN8@LoadSettin:
; Line 152
	jmp	$LN11@LoadSettin
$LN12@LoadSettin:
; Line 154
	jmp	$LN14@LoadSettin
$LN13@LoadSettin:
; Line 155
	lea	ecx, DWORD PTR _ini$[ebp]
	call	DWORD PTR __imp_?close@INI_Reader@@QAEXXZ
$LN15@LoadSettin:
; Line 159
	mov	BYTE PTR _unpatch1$[ebp], 255		; 000000ffH
	mov	BYTE PTR _unpatch1$[ebp+1], 18		; 00000012H
; Line 160
	push	2
	lea	edx, DWORD PTR _patch1$[ebp]
	push	edx
	push	103178482				; 062660f2H
	call	DWORD PTR __imp_?WriteProcMem@@YAXPAX0H@Z
	add	esp, 12					; 0000000cH
; Line 161
	mov	DWORD PTR __$EHRec$[ebp+8], -1
	lea	ecx, DWORD PTR _ini$[ebp]
	call	DWORD PTR __imp_??1INI_Reader@@QAE@XZ
	mov	ecx, DWORD PTR __$EHRec$[ebp]
	mov	DWORD PTR fs:0, ecx
	pop	ecx
	mov	ecx, DWORD PTR __$ArrayPad$[ebp]
	xor	ecx, ebp
	call	@__security_check_cookie@4
	mov	esp, ebp
	pop	ebp
	ret	0
_TEXT	ENDS
text$x	SEGMENT
__unwindfunclet$?LoadSettings@PimpShip@@YAXABV?$basic_string@DU?$char_traits@D@std@@V?$allocator@D@2@@std@@@Z$0:
	lea	ecx, DWORD PTR _ini$[ebp]
	jmp	DWORD PTR __imp_??1INI_Reader@@QAE@XZ
__unwindfunclet$?LoadSettings@PimpShip@@YAXABV?$basic_string@DU?$char_traits@D@std@@V?$allocator@D@2@@std@@@Z$1:
	lea	ecx, DWORD PTR _nickname$142730[ebp]
	jmp	DWORD PTR __imp_??1?$basic_string@DU?$char_traits@D@std@@V?$allocator@D@2@@std@@QAE@XZ
__unwindfunclet$?LoadSettings@PimpShip@@YAXABV?$basic_string@DU?$char_traits@D@std@@V?$allocator@D@2@@std@@@Z$2:
	lea	ecx, DWORD PTR _description$142731[ebp]
	jmp	DWORD PTR __imp_??1?$basic_string@DU?$char_traits@D@std@@V?$allocator@D@2@@std@@QAE@XZ
__unwindfunclet$?LoadSettings@PimpShip@@YAXABV?$basic_string@DU?$char_traits@D@std@@V?$allocator@D@2@@std@@@Z$3:
	lea	ecx, DWORD PTR $T150825[ebp]
	jmp	DWORD PTR __imp_??1?$basic_string@GU?$char_traits@G@std@@V?$allocator@G@2@@std@@QAE@XZ
__unwindfunclet$?LoadSettings@PimpShip@@YAXABV?$basic_string@DU?$char_traits@D@std@@V?$allocator@D@2@@std@@@Z$4:
	lea	ecx, DWORD PTR $T150827[ebp]
	jmp	DWORD PTR __imp_??1?$basic_string@GU?$char_traits@G@std@@V?$allocator@G@2@@std@@QAE@XZ
__unwindfunclet$?LoadSettings@PimpShip@@YAXABV?$basic_string@DU?$char_traits@D@std@@V?$allocator@D@2@@std@@@Z$5:
	lea	ecx, DWORD PTR _nickname$142745[ebp]
	jmp	DWORD PTR __imp_??1?$basic_string@DU?$char_traits@D@std@@V?$allocator@D@2@@std@@QAE@XZ
__unwindfunclet$?LoadSettings@PimpShip@@YAXABV?$basic_string@DU?$char_traits@D@std@@V?$allocator@D@2@@std@@@Z$6:
	lea	ecx, DWORD PTR $T150831[ebp]
	jmp	DWORD PTR __imp_??1?$basic_string@GU?$char_traits@G@std@@V?$allocator@G@2@@std@@QAE@XZ
__unwindfunclet$?LoadSettings@PimpShip@@YAXABV?$basic_string@DU?$char_traits@D@std@@V?$allocator@D@2@@std@@@Z$7:
	mov	ecx, DWORD PTR $T150832[ebp]
	jmp	DWORD PTR __imp_??1?$basic_string@GU?$char_traits@G@std@@V?$allocator@G@2@@std@@QAE@XZ
__unwindfunclet$?LoadSettings@PimpShip@@YAXABV?$basic_string@DU?$char_traits@D@std@@V?$allocator@D@2@@std@@@Z$8:
	lea	ecx, DWORD PTR $T150833[ebp]
	jmp	DWORD PTR __imp_??1?$basic_string@GU?$char_traits@G@std@@V?$allocator@G@2@@std@@QAE@XZ
__ehhandler$?LoadSettings@PimpShip@@YAXABV?$basic_string@DU?$char_traits@D@std@@V?$allocator@D@2@@std@@@Z:
	mov	edx, DWORD PTR [esp+8]
	lea	eax, DWORD PTR [edx+12]
	mov	ecx, DWORD PTR [edx-5772]
	xor	ecx, eax
	call	@__security_check_cookie@4
	mov	ecx, DWORD PTR [edx-16]
	xor	ecx, eax
	call	@__security_check_cookie@4
	mov	eax, OFFSET __ehfuncinfo$?LoadSettings@PimpShip@@YAXABV?$basic_string@DU?$char_traits@D@std@@V?$allocator@D@2@@std@@@Z
	jmp	___CxxFrameHandler3
text$x	ENDS
?LoadSettings@PimpShip@@YAXABV?$basic_string@DU?$char_traits@D@std@@V?$allocator@D@2@@std@@@Z ENDP ; PimpShip::LoadSettings
PUBLIC	?clear@?$_Tree@V?$_Tmap_traits@IUEQ_HARDPOINT@PimpShip@@U?$less@I@std@@V?$allocator@U?$pair@$$CBIUEQ_HARDPOINT@PimpShip@@@std@@@4@$0A@@std@@@std@@QAEXXZ ; std::_Tree<std::_Tmap_traits<unsigned int,PimpShip::EQ_HARDPOINT,std::less<unsigned int>,std::allocator<std::pair<unsigned int const ,PimpShip::EQ_HARDPOINT> >,0> >::clear
PUBLIC	??A?$map@IUINFO@PimpShip@@U?$less@I@std@@V?$allocator@U?$pair@$$CBIUINFO@PimpShip@@@std@@@4@@std@@QAEAAUINFO@PimpShip@@ABI@Z ; std::map<unsigned int,PimpShip::INFO,std::less<unsigned int>,std::allocator<std::pair<unsigned int const ,PimpShip::INFO> > >::operator[]
PUBLIC	??8const_iterator@?$_Tree@V?$_Tmap_traits@IV?$basic_string@GU?$char_traits@G@std@@V?$allocator@G@2@@std@@U?$less@I@2@V?$allocator@U?$pair@$$CBIV?$basic_string@GU?$char_traits@G@std@@V?$allocator@G@2@@std@@@std@@@2@$0A@@std@@@std@@QBE_NABV012@@Z ; std::_Tree<std::_Tmap_traits<unsigned int,std::basic_string<unsigned short,std::char_traits<unsigned short>,std::allocator<unsigned short> >,std::less<unsigned int>,std::allocator<std::pair<unsigned int const ,std::basic_string<unsigned short,std::char_traits<unsigned short>,std::allocator<unsigned short> > > >,0> >::const_iterator::operator==
PUBLIC	?find@?$_Tree@V?$_Tmap_traits@IV?$basic_string@GU?$char_traits@G@std@@V?$allocator@G@2@@std@@U?$less@I@2@V?$allocator@U?$pair@$$CBIV?$basic_string@GU?$char_traits@G@std@@V?$allocator@G@2@@std@@@std@@@2@$0A@@std@@@std@@QAE?AViterator@12@ABI@Z ; std::_Tree<std::_Tmap_traits<unsigned int,std::basic_string<unsigned short,std::char_traits<unsigned short>,std::allocator<unsigned short> >,std::less<unsigned int>,std::allocator<std::pair<unsigned int const ,std::basic_string<unsigned short,std::char_traits<unsigned short>,std::allocator<unsigned short> > > >,0> >::find
PUBLIC	?end@?$_Tree@V?$_Tmap_traits@IV?$basic_string@GU?$char_traits@G@std@@V?$allocator@G@2@@std@@U?$less@I@2@V?$allocator@U?$pair@$$CBIV?$basic_string@GU?$char_traits@G@std@@V?$allocator@G@2@@std@@@std@@@2@$0A@@std@@@std@@QAE?AViterator@12@XZ ; std::_Tree<std::_Tmap_traits<unsigned int,std::basic_string<unsigned short,std::char_traits<unsigned short>,std::allocator<unsigned short> >,std::less<unsigned int>,std::allocator<std::pair<unsigned int const ,std::basic_string<unsigned short,std::char_traits<unsigned short>,std::allocator<unsigned short> > > >,0> >::end
PUBLIC	?LocationEnter@PimpShip@@YAXII@Z		; PimpShip::LocationEnter
EXTRN	__imp_?PrintUserCmdText@@YAXIV?$basic_string@GU?$char_traits@G@std@@V?$allocator@G@2@@std@@ZZ:PROC
EXTRN	__imp_?GetBase@Player@pub@@YAHABIAAI@Z:PROC
EXTRN	?set_bEnablePimpShip@@3_NA:BYTE			; set_bEnablePimpShip
xdata$x	SEGMENT
__unwindtable$?LocationEnter@PimpShip@@YAXII@Z DD 0ffffffffH
	DD	FLAT:__unwindfunclet$?LocationEnter@PimpShip@@YAXII@Z$0
	DD	0ffffffffH
	DD	FLAT:__unwindfunclet$?LocationEnter@PimpShip@@YAXII@Z$1
__ehfuncinfo$?LocationEnter@PimpShip@@YAXII@Z DD 019930522H
	DD	02H
	DD	FLAT:__unwindtable$?LocationEnter@PimpShip@@YAXII@Z
	DD	2 DUP(00H)
	DD	2 DUP(00H)
	DD	00H
	DD	00H
; Function compile flags: /Odtp
xdata$x	ENDS
_TEXT	SEGMENT
tv215 = -72						; size = 4
tv217 = -68						; size = 4
tv212 = -64						; size = 4
tv216 = -60						; size = 4
$T150854 = -56						; size = 4
$T150853 = -52						; size = 4
$T150852 = -48						; size = 8
$T150851 = -40						; size = 8
$T150850 = -32						; size = 8
$T150849 = -24						; size = 8
_iBaseID$142861 = -16					; size = 4
__$EHRec$ = -12						; size = 12
_iLocationID$ = 8					; size = 4
_iClientID$ = 12					; size = 4
?LocationEnter@PimpShip@@YAXII@Z PROC			; PimpShip::LocationEnter
; Line 167
	push	ebp
	mov	ebp, esp
	push	-1
	push	__ehhandler$?LocationEnter@PimpShip@@YAXII@Z
	mov	eax, DWORD PTR fs:0
	push	eax
	sub	esp, 60					; 0000003cH
	mov	eax, DWORD PTR ___security_cookie
	xor	eax, ebp
	push	eax
	lea	eax, DWORD PTR __$EHRec$[ebp]
	mov	DWORD PTR fs:0, eax
; Line 168
	movzx	eax, BYTE PTR ?set_bEnablePimpShip@@3_NA ; set_bEnablePimpShip
	test	eax, eax
	jne	SHORT $LN5@LocationEn
; Line 169
	jmp	$LN6@LocationEn
$LN5@LocationEn:
; Line 171
	lea	ecx, DWORD PTR $T150850[ebp]
	push	ecx
	mov	ecx, OFFSET _set_mapDealers
	call	?end@?$_Tree@V?$_Tmap_traits@IV?$basic_string@GU?$char_traits@G@std@@V?$allocator@G@2@@std@@U?$less@I@2@V?$allocator@U?$pair@$$CBIV?$basic_string@GU?$char_traits@G@std@@V?$allocator@G@2@@std@@@std@@@2@$0A@@std@@@std@@QAE?AViterator@12@XZ ; std::_Tree<std::_Tmap_traits<unsigned int,std::basic_string<unsigned short,std::char_traits<unsigned short>,std::allocator<unsigned short> >,std::less<unsigned int>,std::allocator<std::pair<unsigned int const ,std::basic_string<unsigned short,std::char_traits<unsigned short>,std::allocator<unsigned short> > > >,0> >::end
	push	eax
	lea	edx, DWORD PTR _iLocationID$[ebp]
	push	edx
	lea	eax, DWORD PTR $T150849[ebp]
	push	eax
	mov	ecx, OFFSET _set_mapDealers
	call	?find@?$_Tree@V?$_Tmap_traits@IV?$basic_string@GU?$char_traits@G@std@@V?$allocator@G@2@@std@@U?$less@I@2@V?$allocator@U?$pair@$$CBIV?$basic_string@GU?$char_traits@G@std@@V?$allocator@G@2@@std@@@std@@@2@$0A@@std@@@std@@QAE?AViterator@12@ABI@Z ; std::_Tree<std::_Tmap_traits<unsigned int,std::basic_string<unsigned short,std::char_traits<unsigned short>,std::allocator<unsigned short> >,std::less<unsigned int>,std::allocator<std::pair<unsigned int const ,std::basic_string<unsigned short,std::char_traits<unsigned short>,std::allocator<unsigned short> > > >,0> >::find
	mov	ecx, eax
	call	??8const_iterator@?$_Tree@V?$_Tmap_traits@IV?$basic_string@GU?$char_traits@G@std@@V?$allocator@G@2@@std@@U?$less@I@2@V?$allocator@U?$pair@$$CBIV?$basic_string@GU?$char_traits@G@std@@V?$allocator@G@2@@std@@@std@@@2@$0A@@std@@@std@@QBE_NABV012@@Z ; std::_Tree<std::_Tmap_traits<unsigned int,std::basic_string<unsigned short,std::char_traits<unsigned short>,std::allocator<unsigned short> >,std::less<unsigned int>,std::allocator<std::pair<unsigned int const ,std::basic_string<unsigned short,std::char_traits<unsigned short>,std::allocator<unsigned short> > > >,0> >::const_iterator::operator==
	movzx	ecx, al
	test	ecx, ecx
	je	SHORT $LN4@LocationEn
; Line 173
	mov	DWORD PTR _iBaseID$142861[ebp], 0
; Line 174
	lea	edx, DWORD PTR _iBaseID$142861[ebp]
	push	edx
	lea	eax, DWORD PTR _iClientID$[ebp]
	push	eax
	call	DWORD PTR __imp_?GetBase@Player@pub@@YAHABIAAI@Z
	add	esp, 8
; Line 175
	lea	ecx, DWORD PTR $T150852[ebp]
	push	ecx
	mov	ecx, OFFSET _set_mapDealers
	call	?end@?$_Tree@V?$_Tmap_traits@IV?$basic_string@GU?$char_traits@G@std@@V?$allocator@G@2@@std@@U?$less@I@2@V?$allocator@U?$pair@$$CBIV?$basic_string@GU?$char_traits@G@std@@V?$allocator@G@2@@std@@@std@@@2@$0A@@std@@@std@@QAE?AViterator@12@XZ ; std::_Tree<std::_Tmap_traits<unsigned int,std::basic_string<unsigned short,std::char_traits<unsigned short>,std::allocator<unsigned short> >,std::less<unsigned int>,std::allocator<std::pair<unsigned int const ,std::basic_string<unsigned short,std::char_traits<unsigned short>,std::allocator<unsigned short> > > >,0> >::end
	push	eax
	lea	edx, DWORD PTR _iBaseID$142861[ebp]
	push	edx
	lea	eax, DWORD PTR $T150851[ebp]
	push	eax
	mov	ecx, OFFSET _set_mapDealers
	call	?find@?$_Tree@V?$_Tmap_traits@IV?$basic_string@GU?$char_traits@G@std@@V?$allocator@G@2@@std@@U?$less@I@2@V?$allocator@U?$pair@$$CBIV?$basic_string@GU?$char_traits@G@std@@V?$allocator@G@2@@std@@@std@@@2@$0A@@std@@@std@@QAE?AViterator@12@ABI@Z ; std::_Tree<std::_Tmap_traits<unsigned int,std::basic_string<unsigned short,std::char_traits<unsigned short>,std::allocator<unsigned short> >,std::less<unsigned int>,std::allocator<std::pair<unsigned int const ,std::basic_string<unsigned short,std::char_traits<unsigned short>,std::allocator<unsigned short> > > >,0> >::find
	mov	ecx, eax
	call	??8const_iterator@?$_Tree@V?$_Tmap_traits@IV?$basic_string@GU?$char_traits@G@std@@V?$allocator@G@2@@std@@U?$less@I@2@V?$allocator@U?$pair@$$CBIV?$basic_string@GU?$char_traits@G@std@@V?$allocator@G@2@@std@@@std@@@2@$0A@@std@@@std@@QBE_NABV012@@Z ; std::_Tree<std::_Tmap_traits<unsigned int,std::basic_string<unsigned short,std::char_traits<unsigned short>,std::allocator<unsigned short> >,std::less<unsigned int>,std::allocator<std::pair<unsigned int const ,std::basic_string<unsigned short,std::char_traits<unsigned short>,std::allocator<unsigned short> > > >,0> >::const_iterator::operator==
	movzx	ecx, al
	test	ecx, ecx
	je	SHORT $LN4@LocationEn
; Line 177
	lea	edx, DWORD PTR _iClientID$[ebp]
	push	edx
	mov	ecx, OFFSET _mapInfo
	call	??A?$map@IUINFO@PimpShip@@U?$less@I@std@@V?$allocator@U?$pair@$$CBIUINFO@PimpShip@@@std@@@4@@std@@QAEAAUINFO@PimpShip@@ABI@Z ; std::map<unsigned int,PimpShip::INFO,std::less<unsigned int>,std::allocator<std::pair<unsigned int const ,PimpShip::INFO> > >::operator[]
	mov	BYTE PTR [eax+32], 0
; Line 178
	lea	eax, DWORD PTR _iClientID$[ebp]
	push	eax
	mov	ecx, OFFSET _mapInfo
	call	??A?$map@IUINFO@PimpShip@@U?$less@I@std@@V?$allocator@U?$pair@$$CBIUINFO@PimpShip@@@std@@@4@@std@@QAEAAUINFO@PimpShip@@ABI@Z ; std::map<unsigned int,PimpShip::INFO,std::less<unsigned int>,std::allocator<std::pair<unsigned int const ,PimpShip::INFO> > >::operator[]
	mov	ecx, eax
	call	?clear@?$_Tree@V?$_Tmap_traits@IUEQ_HARDPOINT@PimpShip@@U?$less@I@std@@V?$allocator@U?$pair@$$CBIUEQ_HARDPOINT@PimpShip@@@std@@@4@$0A@@std@@@std@@QAEXXZ ; std::_Tree<std::_Tmap_traits<unsigned int,PimpShip::EQ_HARDPOINT,std::less<unsigned int>,std::allocator<std::pair<unsigned int const ,PimpShip::EQ_HARDPOINT> >,0> >::clear
; Line 179
	jmp	$LN6@LocationEn
$LN4@LocationEn:
; Line 183
	mov	ecx, OFFSET _set_wscIntroMsg1
	call	DWORD PTR __imp_?length@?$basic_string@GU?$char_traits@G@std@@V?$allocator@G@2@@std@@QBEIXZ
	test	eax, eax
	jbe	SHORT $LN2@LocationEn
; Line 184
	mov	ecx, OFFSET _set_wscIntroMsg1
	call	DWORD PTR __imp_?c_str@?$basic_string@GU?$char_traits@G@std@@V?$allocator@G@2@@std@@QBEPBGXZ
	push	eax
	sub	esp, 28					; 0000001cH
	mov	ecx, esp
	mov	DWORD PTR $T150853[ebp], esp
	push	OFFSET $SG142867
	call	DWORD PTR __imp_??0?$basic_string@GU?$char_traits@G@std@@V?$allocator@G@2@@std@@QAE@PBG@Z
	mov	DWORD PTR tv216[ebp], eax
	mov	ecx, DWORD PTR tv216[ebp]
	mov	DWORD PTR tv212[ebp], ecx
	mov	DWORD PTR __$EHRec$[ebp+8], 0
	mov	edx, DWORD PTR _iClientID$[ebp]
	push	edx
	mov	DWORD PTR __$EHRec$[ebp+8], -1
	call	DWORD PTR __imp_?PrintUserCmdText@@YAXIV?$basic_string@GU?$char_traits@G@std@@V?$allocator@G@2@@std@@ZZ
	add	esp, 36					; 00000024H
$LN2@LocationEn:
; Line 186
	mov	ecx, OFFSET _set_wscIntroMsg2
	call	DWORD PTR __imp_?length@?$basic_string@GU?$char_traits@G@std@@V?$allocator@G@2@@std@@QBEIXZ
	test	eax, eax
	jbe	SHORT $LN6@LocationEn
; Line 187
	mov	ecx, OFFSET _set_wscIntroMsg2
	call	DWORD PTR __imp_?c_str@?$basic_string@GU?$char_traits@G@std@@V?$allocator@G@2@@std@@QBEPBGXZ
	push	eax
	sub	esp, 28					; 0000001cH
	mov	ecx, esp
	mov	DWORD PTR $T150854[ebp], esp
	push	OFFSET $SG142870
	call	DWORD PTR __imp_??0?$basic_string@GU?$char_traits@G@std@@V?$allocator@G@2@@std@@QAE@PBG@Z
	mov	DWORD PTR tv217[ebp], eax
	mov	eax, DWORD PTR tv217[ebp]
	mov	DWORD PTR tv215[ebp], eax
	mov	DWORD PTR __$EHRec$[ebp+8], 1
	mov	ecx, DWORD PTR _iClientID$[ebp]
	push	ecx
	mov	DWORD PTR __$EHRec$[ebp+8], -1
	call	DWORD PTR __imp_?PrintUserCmdText@@YAXIV?$basic_string@GU?$char_traits@G@std@@V?$allocator@G@2@@std@@ZZ
	add	esp, 36					; 00000024H
$LN6@LocationEn:
; Line 188
	mov	ecx, DWORD PTR __$EHRec$[ebp]
	mov	DWORD PTR fs:0, ecx
	pop	ecx
	mov	esp, ebp
	pop	ebp
	ret	0
_TEXT	ENDS
text$x	SEGMENT
__unwindfunclet$?LocationEnter@PimpShip@@YAXII@Z$0:
	mov	ecx, DWORD PTR $T150853[ebp]
	jmp	DWORD PTR __imp_??1?$basic_string@GU?$char_traits@G@std@@V?$allocator@G@2@@std@@QAE@XZ
__unwindfunclet$?LocationEnter@PimpShip@@YAXII@Z$1:
	mov	ecx, DWORD PTR $T150854[ebp]
	jmp	DWORD PTR __imp_??1?$basic_string@GU?$char_traits@G@std@@V?$allocator@G@2@@std@@QAE@XZ
__ehhandler$?LocationEnter@PimpShip@@YAXII@Z:
	mov	edx, DWORD PTR [esp+8]
	lea	eax, DWORD PTR [edx+12]
	mov	ecx, DWORD PTR [edx-64]
	xor	ecx, eax
	call	@__security_check_cookie@4
	mov	eax, OFFSET __ehfuncinfo$?LocationEnter@PimpShip@@YAXII@Z
	jmp	___CxxFrameHandler3
text$x	ENDS
?LocationEnter@PimpShip@@YAXII@Z ENDP			; PimpShip::LocationEnter
PUBLIC	??A?$map@IUEQ_HARDPOINT@PimpShip@@U?$less@I@std@@V?$allocator@U?$pair@$$CBIUEQ_HARDPOINT@PimpShip@@@std@@@4@@std@@QAEAAUEQ_HARDPOINT@PimpShip@@ABI@Z ; std::map<unsigned int,PimpShip::EQ_HARDPOINT,std::less<unsigned int>,std::allocator<std::pair<unsigned int const ,PimpShip::EQ_HARDPOINT> > >::operator[]
PUBLIC	??C?$_Iterator@$00@?$list@UEquipDesc@@V?$allocator@UEquipDesc@@@std@@@std@@QBEPAUEquipDesc@@XZ ; std::list<EquipDesc,std::allocator<EquipDesc> >::_Iterator<1>::operator->
PUBLIC	??9?$_Const_iterator@$00@?$list@UEquipDesc@@V?$allocator@UEquipDesc@@@std@@@std@@QBE_NABV012@@Z ; std::list<EquipDesc,std::allocator<EquipDesc> >::_Const_iterator<1>::operator!=
PUBLIC	?end@?$list@UEquipDesc@@V?$allocator@UEquipDesc@@@std@@@std@@QAE?AV?$_Iterator@$00@12@XZ ; std::list<EquipDesc,std::allocator<EquipDesc> >::end
PUBLIC	??E?$_Iterator@$00@?$list@UEquipDesc@@V?$allocator@UEquipDesc@@@std@@@std@@QAE?AV012@H@Z ; std::list<EquipDesc,std::allocator<EquipDesc> >::_Iterator<1>::operator++
PUBLIC	?begin@?$list@UEquipDesc@@V?$allocator@UEquipDesc@@@std@@@std@@QAE?AV?$_Iterator@$00@12@XZ ; std::list<EquipDesc,std::allocator<EquipDesc> >::begin
PUBLIC	__$ArrayPad$
PUBLIC	?UserCmd_PimpShip@PimpShip@@YA_NIABV?$basic_string@GU?$char_traits@G@std@@V?$allocator@G@2@@std@@0PBG@Z ; PimpShip::UserCmd_PimpShip
EXTRN	__imp_??APlayerDB@@QAEAAUPlayerData@@ABI@Z:PROC
EXTRN	__imp_?GetActiveCharacterName@PlayerDB@@QBEPBGI@Z:PROC
EXTRN	__imp_?Players@@3VPlayerDB@@A:BYTE
EXTRN	__imp_??$?HGU?$char_traits@G@std@@V?$allocator@G@1@@std@@YA?AV?$basic_string@GU?$char_traits@G@std@@V?$allocator@G@2@@0@ABV10@PBG@Z:PROC
EXTRN	__imp_??$?HGU?$char_traits@G@std@@V?$allocator@G@1@@std@@YA?AV?$basic_string@GU?$char_traits@G@std@@V?$allocator@G@2@@0@PBGABV10@@Z:PROC
EXTRN	__imp_?ToMoneyStr@@YA?AV?$basic_string@GU?$char_traits@G@std@@V?$allocator@G@2@@std@@H@Z:PROC
EXTRN	__imp_?GetLocation@Player@pub@@YAHABIAAI@Z:PROC
xdata$x	SEGMENT
__ehfuncinfo$?UserCmd_PimpShip@PimpShip@@YA_NIABV?$basic_string@GU?$char_traits@G@std@@V?$allocator@G@2@@std@@0PBG@Z DD 019930522H
	DD	011H
	DD	FLAT:__unwindtable$?UserCmd_PimpShip@PimpShip@@YA_NIABV?$basic_string@GU?$char_traits@G@std@@V?$allocator@G@2@@std@@0PBG@Z
	DD	2 DUP(00H)
	DD	2 DUP(00H)
	DD	00H
	DD	00H
__unwindtable$?UserCmd_PimpShip@PimpShip@@YA_NIABV?$basic_string@GU?$char_traits@G@std@@V?$allocator@G@2@@std@@0PBG@Z DD 0ffffffffH
	DD	FLAT:__unwindfunclet$?UserCmd_PimpShip@PimpShip@@YA_NIABV?$basic_string@GU?$char_traits@G@std@@V?$allocator@G@2@@std@@0PBG@Z$0
	DD	0ffffffffH
	DD	FLAT:__unwindfunclet$?UserCmd_PimpShip@PimpShip@@YA_NIABV?$basic_string@GU?$char_traits@G@std@@V?$allocator@G@2@@std@@0PBG@Z$1
	DD	0ffffffffH
	DD	FLAT:__unwindfunclet$?UserCmd_PimpShip@PimpShip@@YA_NIABV?$basic_string@GU?$char_traits@G@std@@V?$allocator@G@2@@std@@0PBG@Z$2
	DD	0ffffffffH
	DD	FLAT:__unwindfunclet$?UserCmd_PimpShip@PimpShip@@YA_NIABV?$basic_string@GU?$char_traits@G@std@@V?$allocator@G@2@@std@@0PBG@Z$3
	DD	0ffffffffH
	DD	FLAT:__unwindfunclet$?UserCmd_PimpShip@PimpShip@@YA_NIABV?$basic_string@GU?$char_traits@G@std@@V?$allocator@G@2@@std@@0PBG@Z$4
	DD	0ffffffffH
	DD	FLAT:__unwindfunclet$?UserCmd_PimpShip@PimpShip@@YA_NIABV?$basic_string@GU?$char_traits@G@std@@V?$allocator@G@2@@std@@0PBG@Z$5
	DD	0ffffffffH
	DD	FLAT:__unwindfunclet$?UserCmd_PimpShip@PimpShip@@YA_NIABV?$basic_string@GU?$char_traits@G@std@@V?$allocator@G@2@@std@@0PBG@Z$6
	DD	0ffffffffH
	DD	FLAT:__unwindfunclet$?UserCmd_PimpShip@PimpShip@@YA_NIABV?$basic_string@GU?$char_traits@G@std@@V?$allocator@G@2@@std@@0PBG@Z$7
	DD	0ffffffffH
	DD	FLAT:__unwindfunclet$?UserCmd_PimpShip@PimpShip@@YA_NIABV?$basic_string@GU?$char_traits@G@std@@V?$allocator@G@2@@std@@0PBG@Z$8
	DD	0ffffffffH
	DD	FLAT:__unwindfunclet$?UserCmd_PimpShip@PimpShip@@YA_NIABV?$basic_string@GU?$char_traits@G@std@@V?$allocator@G@2@@std@@0PBG@Z$9
	DD	0ffffffffH
	DD	FLAT:__unwindfunclet$?UserCmd_PimpShip@PimpShip@@YA_NIABV?$basic_string@GU?$char_traits@G@std@@V?$allocator@G@2@@std@@0PBG@Z$10
	DD	0ffffffffH
	DD	FLAT:__unwindfunclet$?UserCmd_PimpShip@PimpShip@@YA_NIABV?$basic_string@GU?$char_traits@G@std@@V?$allocator@G@2@@std@@0PBG@Z$11
	DD	0bH
	DD	FLAT:__unwindfunclet$?UserCmd_PimpShip@PimpShip@@YA_NIABV?$basic_string@GU?$char_traits@G@std@@V?$allocator@G@2@@std@@0PBG@Z$12
	DD	0cH
	DD	FLAT:__unwindfunclet$?UserCmd_PimpShip@PimpShip@@YA_NIABV?$basic_string@GU?$char_traits@G@std@@V?$allocator@G@2@@std@@0PBG@Z$13
	DD	0ffffffffH
	DD	FLAT:__unwindfunclet$?UserCmd_PimpShip@PimpShip@@YA_NIABV?$basic_string@GU?$char_traits@G@std@@V?$allocator@G@2@@std@@0PBG@Z$14
	DD	0eH
	DD	FLAT:__unwindfunclet$?UserCmd_PimpShip@PimpShip@@YA_NIABV?$basic_string@GU?$char_traits@G@std@@V?$allocator@G@2@@std@@0PBG@Z$15
	DD	0fH
	DD	FLAT:__unwindfunclet$?UserCmd_PimpShip@PimpShip@@YA_NIABV?$basic_string@GU?$char_traits@G@std@@V?$allocator@G@2@@std@@0PBG@Z$16
; Function compile flags: /Odtp
xdata$x	ENDS
_TEXT	SEGMENT
tv530 = -416						; size = 4
tv487 = -412						; size = 4
tv526 = -408						; size = 4
tv545 = -404						; size = 4
tv524 = -400						; size = 4
tv544 = -396						; size = 4
tv522 = -392						; size = 4
tv543 = -388						; size = 4
tv520 = -384						; size = 4
tv542 = -380						; size = 4
tv518 = -376						; size = 4
tv541 = -372						; size = 4
tv516 = -368						; size = 4
tv540 = -364						; size = 4
tv514 = -360						; size = 4
tv539 = -356						; size = 4
tv512 = -352						; size = 4
tv538 = -348						; size = 4
tv510 = -344						; size = 4
tv537 = -340						; size = 4
tv508 = -336						; size = 4
tv536 = -332						; size = 4
tv506 = -328						; size = 4
tv535 = -324						; size = 4
tv504 = -320						; size = 4
tv534 = -316						; size = 4
tv502 = -312						; size = 4
tv533 = -308						; size = 4
tv500 = -304						; size = 4
tv532 = -300						; size = 4
$T150889 = -293						; size = 1
$T150888 = -292						; size = 28
$T150887 = -264						; size = 28
$T150886 = -236						; size = 4
$T150885 = -232						; size = 4
$T150884 = -228						; size = 4
$T150883 = -224						; size = 4
$T150882 = -220						; size = 8
$T150881 = -212						; size = 8
$T150880 = -204						; size = 28
$T150879 = -176						; size = 28
$T150878 = -148						; size = 4
$T150877 = -144						; size = 4
$T150876 = -140						; size = 4
$T150875 = -136						; size = 4
$T150874 = -132						; size = 4
$T150873 = -128						; size = 4
$T150872 = -124						; size = 4
$T150871 = -120						; size = 4
$T150870 = -116						; size = 4
$T150869 = -112						; size = 4
$T150868 = -108						; size = 4
$T150867 = -104						; size = 4
$T150866 = -100						; size = 8
$T150865 = -92						; size = 8
$T150864 = -84						; size = 8
$T150863 = -76						; size = 8
_eq$143061 = -68					; size = 8
_iBaseID$142882 = -60					; size = 4
_wscCharName$ = -56					; size = 28
__$ArrayPad$ = -28					; size = 4
_iSlotID$ = -24						; size = 4
_eqLst$ = -20						; size = 4
_iLocationID$ = -16					; size = 4
__$EHRec$ = -12						; size = 12
_iClientID$ = 8						; size = 4
_wscCmd$ = 12						; size = 4
_wscParam$ = 16						; size = 4
_usage$ = 20						; size = 4
?UserCmd_PimpShip@PimpShip@@YA_NIABV?$basic_string@GU?$char_traits@G@std@@V?$allocator@G@2@@std@@0PBG@Z PROC ; PimpShip::UserCmd_PimpShip
; Line 191
	push	ebp
	mov	ebp, esp
	push	-1
	push	__ehhandler$?UserCmd_PimpShip@PimpShip@@YA_NIABV?$basic_string@GU?$char_traits@G@std@@V?$allocator@G@2@@std@@0PBG@Z
	mov	eax, DWORD PTR fs:0
	push	eax
	sub	esp, 404				; 00000194H
	mov	eax, DWORD PTR ___security_cookie
	xor	eax, ebp
	mov	DWORD PTR __$ArrayPad$[ebp], eax
	push	esi
	push	eax
	lea	eax, DWORD PTR __$EHRec$[ebp]
	mov	DWORD PTR fs:0, eax
; Line 192
	movzx	eax, BYTE PTR ?set_bEnablePimpShip@@3_NA ; set_bEnablePimpShip
	test	eax, eax
	jne	SHORT $LN7@UserCmd_Pi
; Line 193
	xor	al, al
	jmp	$LN8@UserCmd_Pi
$LN7@UserCmd_Pi:
; Line 195
	mov	DWORD PTR _iLocationID$[ebp], 0
; Line 196
	lea	ecx, DWORD PTR _iLocationID$[ebp]
	push	ecx
	lea	edx, DWORD PTR _iClientID$[ebp]
	push	edx
	call	DWORD PTR __imp_?GetLocation@Player@pub@@YAHABIAAI@Z
	add	esp, 8
; Line 197
	lea	eax, DWORD PTR $T150864[ebp]
	push	eax
	mov	ecx, OFFSET _set_mapDealers
	call	?end@?$_Tree@V?$_Tmap_traits@IV?$basic_string@GU?$char_traits@G@std@@V?$allocator@G@2@@std@@U?$less@I@2@V?$allocator@U?$pair@$$CBIV?$basic_string@GU?$char_traits@G@std@@V?$allocator@G@2@@std@@@std@@@2@$0A@@std@@@std@@QAE?AViterator@12@XZ ; std::_Tree<std::_Tmap_traits<unsigned int,std::basic_string<unsigned short,std::char_traits<unsigned short>,std::allocator<unsigned short> >,std::less<unsigned int>,std::allocator<std::pair<unsigned int const ,std::basic_string<unsigned short,std::char_traits<unsigned short>,std::allocator<unsigned short> > > >,0> >::end
	push	eax
	lea	ecx, DWORD PTR _iLocationID$[ebp]
	push	ecx
	lea	edx, DWORD PTR $T150863[ebp]
	push	edx
	mov	ecx, OFFSET _set_mapDealers
	call	?find@?$_Tree@V?$_Tmap_traits@IV?$basic_string@GU?$char_traits@G@std@@V?$allocator@G@2@@std@@U?$less@I@2@V?$allocator@U?$pair@$$CBIV?$basic_string@GU?$char_traits@G@std@@V?$allocator@G@2@@std@@@std@@@2@$0A@@std@@@std@@QAE?AViterator@12@ABI@Z ; std::_Tree<std::_Tmap_traits<unsigned int,std::basic_string<unsigned short,std::char_traits<unsigned short>,std::allocator<unsigned short> >,std::less<unsigned int>,std::allocator<std::pair<unsigned int const ,std::basic_string<unsigned short,std::char_traits<unsigned short>,std::allocator<unsigned short> > > >,0> >::find
	mov	ecx, eax
	call	??8const_iterator@?$_Tree@V?$_Tmap_traits@IV?$basic_string@GU?$char_traits@G@std@@V?$allocator@G@2@@std@@U?$less@I@2@V?$allocator@U?$pair@$$CBIV?$basic_string@GU?$char_traits@G@std@@V?$allocator@G@2@@std@@@std@@@2@$0A@@std@@@std@@QBE_NABV012@@Z ; std::_Tree<std::_Tmap_traits<unsigned int,std::basic_string<unsigned short,std::char_traits<unsigned short>,std::allocator<unsigned short> >,std::less<unsigned int>,std::allocator<std::pair<unsigned int const ,std::basic_string<unsigned short,std::char_traits<unsigned short>,std::allocator<unsigned short> > > >,0> >::const_iterator::operator==
	movzx	eax, al
	test	eax, eax
	je	SHORT $LN6@UserCmd_Pi
; Line 199
	mov	DWORD PTR _iBaseID$142882[ebp], 0
; Line 200
	lea	ecx, DWORD PTR _iBaseID$142882[ebp]
	push	ecx
	lea	edx, DWORD PTR _iClientID$[ebp]
	push	edx
	call	DWORD PTR __imp_?GetBase@Player@pub@@YAHABIAAI@Z
	add	esp, 8
; Line 201
	lea	eax, DWORD PTR $T150866[ebp]
	push	eax
	mov	ecx, OFFSET _set_mapDealers
	call	?end@?$_Tree@V?$_Tmap_traits@IV?$basic_string@GU?$char_traits@G@std@@V?$allocator@G@2@@std@@U?$less@I@2@V?$allocator@U?$pair@$$CBIV?$basic_string@GU?$char_traits@G@std@@V?$allocator@G@2@@std@@@std@@@2@$0A@@std@@@std@@QAE?AViterator@12@XZ ; std::_Tree<std::_Tmap_traits<unsigned int,std::basic_string<unsigned short,std::char_traits<unsigned short>,std::allocator<unsigned short> >,std::less<unsigned int>,std::allocator<std::pair<unsigned int const ,std::basic_string<unsigned short,std::char_traits<unsigned short>,std::allocator<unsigned short> > > >,0> >::end
	push	eax
	lea	ecx, DWORD PTR _iBaseID$142882[ebp]
	push	ecx
	lea	edx, DWORD PTR $T150865[ebp]
	push	edx
	mov	ecx, OFFSET _set_mapDealers
	call	?find@?$_Tree@V?$_Tmap_traits@IV?$basic_string@GU?$char_traits@G@std@@V?$allocator@G@2@@std@@U?$less@I@2@V?$allocator@U?$pair@$$CBIV?$basic_string@GU?$char_traits@G@std@@V?$allocator@G@2@@std@@@std@@@2@$0A@@std@@@std@@QAE?AViterator@12@ABI@Z ; std::_Tree<std::_Tmap_traits<unsigned int,std::basic_string<unsigned short,std::char_traits<unsigned short>,std::allocator<unsigned short> >,std::less<unsigned int>,std::allocator<std::pair<unsigned int const ,std::basic_string<unsigned short,std::char_traits<unsigned short>,std::allocator<unsigned short> > > >,0> >::find
	mov	ecx, eax
	call	??8const_iterator@?$_Tree@V?$_Tmap_traits@IV?$basic_string@GU?$char_traits@G@std@@V?$allocator@G@2@@std@@U?$less@I@2@V?$allocator@U?$pair@$$CBIV?$basic_string@GU?$char_traits@G@std@@V?$allocator@G@2@@std@@@std@@@2@$0A@@std@@@std@@QBE_NABV012@@Z ; std::_Tree<std::_Tmap_traits<unsigned int,std::basic_string<unsigned short,std::char_traits<unsigned short>,std::allocator<unsigned short> >,std::less<unsigned int>,std::allocator<std::pair<unsigned int const ,std::basic_string<unsigned short,std::char_traits<unsigned short>,std::allocator<unsigned short> > > >,0> >::const_iterator::operator==
	movzx	eax, al
	test	eax, eax
	je	SHORT $LN6@UserCmd_Pi
; Line 203
	lea	ecx, DWORD PTR _iClientID$[ebp]
	push	ecx
	mov	ecx, OFFSET _mapInfo
	call	??A?$map@IUINFO@PimpShip@@U?$less@I@std@@V?$allocator@U?$pair@$$CBIUINFO@PimpShip@@@std@@@4@@std@@QAEAAUINFO@PimpShip@@ABI@Z ; std::map<unsigned int,PimpShip::INFO,std::less<unsigned int>,std::allocator<std::pair<unsigned int const ,PimpShip::INFO> > >::operator[]
	mov	BYTE PTR [eax+32], 0
; Line 204
	lea	edx, DWORD PTR _iClientID$[ebp]
	push	edx
	mov	ecx, OFFSET _mapInfo
	call	??A?$map@IUINFO@PimpShip@@U?$less@I@std@@V?$allocator@U?$pair@$$CBIUINFO@PimpShip@@@std@@@4@@std@@QAEAAUINFO@PimpShip@@ABI@Z ; std::map<unsigned int,PimpShip::INFO,std::less<unsigned int>,std::allocator<std::pair<unsigned int const ,PimpShip::INFO> > >::operator[]
	mov	ecx, eax
	call	?clear@?$_Tree@V?$_Tmap_traits@IUEQ_HARDPOINT@PimpShip@@U?$less@I@std@@V?$allocator@U?$pair@$$CBIUEQ_HARDPOINT@PimpShip@@@std@@@4@$0A@@std@@@std@@QAEXXZ ; std::_Tree<std::_Tmap_traits<unsigned int,PimpShip::EQ_HARDPOINT,std::less<unsigned int>,std::allocator<std::pair<unsigned int const ,PimpShip::EQ_HARDPOINT> >,0> >::clear
; Line 205
	xor	al, al
	jmp	$LN8@UserCmd_Pi
$LN6@UserCmd_Pi:
; Line 209
	lea	eax, DWORD PTR _iClientID$[ebp]
	push	eax
	mov	ecx, OFFSET _mapInfo
	call	??A?$map@IUINFO@PimpShip@@U?$less@I@std@@V?$allocator@U?$pair@$$CBIUINFO@PimpShip@@@std@@@4@@std@@QAEAAUINFO@PimpShip@@ABI@Z ; std::map<unsigned int,PimpShip::INFO,std::less<unsigned int>,std::allocator<std::pair<unsigned int const ,PimpShip::INFO> > >::operator[]
	mov	ecx, eax
	call	?clear@?$_Tree@V?$_Tmap_traits@IUEQ_HARDPOINT@PimpShip@@U?$less@I@std@@V?$allocator@U?$pair@$$CBIUEQ_HARDPOINT@PimpShip@@@std@@@4@$0A@@std@@@std@@QAEXXZ ; std::_Tree<std::_Tmap_traits<unsigned int,PimpShip::EQ_HARDPOINT,std::less<unsigned int>,std::allocator<std::pair<unsigned int const ,PimpShip::EQ_HARDPOINT> >,0> >::clear
; Line 210
	lea	ecx, DWORD PTR _iClientID$[ebp]
	push	ecx
	mov	ecx, OFFSET _mapInfo
	call	??A?$map@IUINFO@PimpShip@@U?$less@I@std@@V?$allocator@U?$pair@$$CBIUINFO@PimpShip@@@std@@@4@@std@@QAEAAUINFO@PimpShip@@ABI@Z ; std::map<unsigned int,PimpShip::INFO,std::less<unsigned int>,std::allocator<std::pair<unsigned int const ,PimpShip::INFO> > >::operator[]
	mov	BYTE PTR [eax+32], 1
; Line 212
	sub	esp, 28					; 0000001cH
	mov	ecx, esp
	mov	DWORD PTR $T150867[ebp], esp
	push	OFFSET $SG142887
	call	DWORD PTR __imp_??0?$basic_string@GU?$char_traits@G@std@@V?$allocator@G@2@@std@@QAE@PBG@Z
	mov	DWORD PTR tv532[ebp], eax
	mov	edx, DWORD PTR tv532[ebp]
	mov	DWORD PTR tv500[ebp], edx
	mov	DWORD PTR __$EHRec$[ebp+8], 0
	mov	eax, DWORD PTR _iClientID$[ebp]
	push	eax
	mov	DWORD PTR __$EHRec$[ebp+8], -1
	call	DWORD PTR __imp_?PrintUserCmdText@@YAXIV?$basic_string@GU?$char_traits@G@std@@V?$allocator@G@2@@std@@ZZ
	add	esp, 32					; 00000020H
; Line 214
	sub	esp, 28					; 0000001cH
	mov	ecx, esp
	mov	DWORD PTR $T150868[ebp], esp
	push	OFFSET $SG142889
	call	DWORD PTR __imp_??0?$basic_string@GU?$char_traits@G@std@@V?$allocator@G@2@@std@@QAE@PBG@Z
	mov	DWORD PTR tv533[ebp], eax
	mov	ecx, DWORD PTR tv533[ebp]
	mov	DWORD PTR tv502[ebp], ecx
	mov	DWORD PTR __$EHRec$[ebp+8], 1
	mov	edx, DWORD PTR _iClientID$[ebp]
	push	edx
	mov	DWORD PTR __$EHRec$[ebp+8], -1
	call	DWORD PTR __imp_?PrintUserCmdText@@YAXIV?$basic_string@GU?$char_traits@G@std@@V?$allocator@G@2@@std@@ZZ
	add	esp, 32					; 00000020H
; Line 215
	sub	esp, 28					; 0000001cH
	mov	ecx, esp
	mov	DWORD PTR $T150869[ebp], esp
	push	OFFSET $SG142891
	call	DWORD PTR __imp_??0?$basic_string@GU?$char_traits@G@std@@V?$allocator@G@2@@std@@QAE@PBG@Z
	mov	DWORD PTR tv534[ebp], eax
	mov	eax, DWORD PTR tv534[ebp]
	mov	DWORD PTR tv504[ebp], eax
	mov	DWORD PTR __$EHRec$[ebp+8], 2
	mov	ecx, DWORD PTR _iClientID$[ebp]
	push	ecx
	mov	DWORD PTR __$EHRec$[ebp+8], -1
	call	DWORD PTR __imp_?PrintUserCmdText@@YAXIV?$basic_string@GU?$char_traits@G@std@@V?$allocator@G@2@@std@@ZZ
	add	esp, 32					; 00000020H
; Line 217
	sub	esp, 28					; 0000001cH
	mov	ecx, esp
	mov	DWORD PTR $T150870[ebp], esp
	push	OFFSET $SG142893
	call	DWORD PTR __imp_??0?$basic_string@GU?$char_traits@G@std@@V?$allocator@G@2@@std@@QAE@PBG@Z
	mov	DWORD PTR tv535[ebp], eax
	mov	edx, DWORD PTR tv535[ebp]
	mov	DWORD PTR tv506[ebp], edx
	mov	DWORD PTR __$EHRec$[ebp+8], 3
	mov	eax, DWORD PTR _iClientID$[ebp]
	push	eax
	mov	DWORD PTR __$EHRec$[ebp+8], -1
	call	DWORD PTR __imp_?PrintUserCmdText@@YAXIV?$basic_string@GU?$char_traits@G@std@@V?$allocator@G@2@@std@@ZZ
	add	esp, 32					; 00000020H
; Line 218
	sub	esp, 28					; 0000001cH
	mov	ecx, esp
	mov	DWORD PTR $T150871[ebp], esp
	push	OFFSET $SG142895
	call	DWORD PTR __imp_??0?$basic_string@GU?$char_traits@G@std@@V?$allocator@G@2@@std@@QAE@PBG@Z
	mov	DWORD PTR tv536[ebp], eax
	mov	ecx, DWORD PTR tv536[ebp]
	mov	DWORD PTR tv508[ebp], ecx
	mov	DWORD PTR __$EHRec$[ebp+8], 4
	mov	edx, DWORD PTR _iClientID$[ebp]
	push	edx
	mov	DWORD PTR __$EHRec$[ebp+8], -1
	call	DWORD PTR __imp_?PrintUserCmdText@@YAXIV?$basic_string@GU?$char_traits@G@std@@V?$allocator@G@2@@std@@ZZ
	add	esp, 32					; 00000020H
; Line 220
	sub	esp, 28					; 0000001cH
	mov	ecx, esp
	mov	DWORD PTR $T150872[ebp], esp
	push	OFFSET $SG142897
	call	DWORD PTR __imp_??0?$basic_string@GU?$char_traits@G@std@@V?$allocator@G@2@@std@@QAE@PBG@Z
	mov	DWORD PTR tv537[ebp], eax
	mov	eax, DWORD PTR tv537[ebp]
	mov	DWORD PTR tv510[ebp], eax
	mov	DWORD PTR __$EHRec$[ebp+8], 5
	mov	ecx, DWORD PTR _iClientID$[ebp]
	push	ecx
	mov	DWORD PTR __$EHRec$[ebp+8], -1
	call	DWORD PTR __imp_?PrintUserCmdText@@YAXIV?$basic_string@GU?$char_traits@G@std@@V?$allocator@G@2@@std@@ZZ
	add	esp, 32					; 00000020H
; Line 221
	sub	esp, 28					; 0000001cH
	mov	ecx, esp
	mov	DWORD PTR $T150873[ebp], esp
	push	OFFSET $SG142899
	call	DWORD PTR __imp_??0?$basic_string@GU?$char_traits@G@std@@V?$allocator@G@2@@std@@QAE@PBG@Z
	mov	DWORD PTR tv538[ebp], eax
	mov	edx, DWORD PTR tv538[ebp]
	mov	DWORD PTR tv512[ebp], edx
	mov	DWORD PTR __$EHRec$[ebp+8], 6
	mov	eax, DWORD PTR _iClientID$[ebp]
	push	eax
	mov	DWORD PTR __$EHRec$[ebp+8], -1
	call	DWORD PTR __imp_?PrintUserCmdText@@YAXIV?$basic_string@GU?$char_traits@G@std@@V?$allocator@G@2@@std@@ZZ
	add	esp, 32					; 00000020H
; Line 222
	sub	esp, 28					; 0000001cH
	mov	ecx, esp
	mov	DWORD PTR $T150874[ebp], esp
	push	OFFSET $SG142901
	call	DWORD PTR __imp_??0?$basic_string@GU?$char_traits@G@std@@V?$allocator@G@2@@std@@QAE@PBG@Z
	mov	DWORD PTR tv539[ebp], eax
	mov	ecx, DWORD PTR tv539[ebp]
	mov	DWORD PTR tv514[ebp], ecx
	mov	DWORD PTR __$EHRec$[ebp+8], 7
	mov	edx, DWORD PTR _iClientID$[ebp]
	push	edx
	mov	DWORD PTR __$EHRec$[ebp+8], -1
	call	DWORD PTR __imp_?PrintUserCmdText@@YAXIV?$basic_string@GU?$char_traits@G@std@@V?$allocator@G@2@@std@@ZZ
	add	esp, 32					; 00000020H
; Line 223
	sub	esp, 28					; 0000001cH
	mov	ecx, esp
	mov	DWORD PTR $T150875[ebp], esp
	push	OFFSET $SG142903
	call	DWORD PTR __imp_??0?$basic_string@GU?$char_traits@G@std@@V?$allocator@G@2@@std@@QAE@PBG@Z
	mov	DWORD PTR tv540[ebp], eax
	mov	eax, DWORD PTR tv540[ebp]
	mov	DWORD PTR tv516[ebp], eax
	mov	DWORD PTR __$EHRec$[ebp+8], 8
	mov	ecx, DWORD PTR _iClientID$[ebp]
	push	ecx
	mov	DWORD PTR __$EHRec$[ebp+8], -1
	call	DWORD PTR __imp_?PrintUserCmdText@@YAXIV?$basic_string@GU?$char_traits@G@std@@V?$allocator@G@2@@std@@ZZ
	add	esp, 32					; 00000020H
; Line 225
	sub	esp, 28					; 0000001cH
	mov	ecx, esp
	mov	DWORD PTR $T150876[ebp], esp
	push	OFFSET $SG142905
	call	DWORD PTR __imp_??0?$basic_string@GU?$char_traits@G@std@@V?$allocator@G@2@@std@@QAE@PBG@Z
	mov	DWORD PTR tv541[ebp], eax
	mov	edx, DWORD PTR tv541[ebp]
	mov	DWORD PTR tv518[ebp], edx
	mov	DWORD PTR __$EHRec$[ebp+8], 9
	mov	eax, DWORD PTR _iClientID$[ebp]
	push	eax
	mov	DWORD PTR __$EHRec$[ebp+8], -1
	call	DWORD PTR __imp_?PrintUserCmdText@@YAXIV?$basic_string@GU?$char_traits@G@std@@V?$allocator@G@2@@std@@ZZ
	add	esp, 32					; 00000020H
; Line 226
	sub	esp, 28					; 0000001cH
	mov	ecx, esp
	mov	DWORD PTR $T150877[ebp], esp
	push	OFFSET $SG142907
	call	DWORD PTR __imp_??0?$basic_string@GU?$char_traits@G@std@@V?$allocator@G@2@@std@@QAE@PBG@Z
	mov	DWORD PTR tv542[ebp], eax
	mov	ecx, DWORD PTR tv542[ebp]
	mov	DWORD PTR tv520[ebp], ecx
	mov	DWORD PTR __$EHRec$[ebp+8], 10		; 0000000aH
	mov	edx, DWORD PTR _iClientID$[ebp]
	push	edx
	mov	DWORD PTR __$EHRec$[ebp+8], -1
	call	DWORD PTR __imp_?PrintUserCmdText@@YAXIV?$basic_string@GU?$char_traits@G@std@@V?$allocator@G@2@@std@@ZZ
	add	esp, 32					; 00000020H
; Line 227
	sub	esp, 28					; 0000001cH
	mov	esi, esp
	mov	DWORD PTR $T150878[ebp], esp
	push	OFFSET $SG142912
	mov	eax, DWORD PTR _set_iCost
	push	eax
	lea	ecx, DWORD PTR $T150879[ebp]
	push	ecx
	call	DWORD PTR __imp_?ToMoneyStr@@YA?AV?$basic_string@GU?$char_traits@G@std@@V?$allocator@G@2@@std@@H@Z
	add	esp, 8
	mov	DWORD PTR tv543[ebp], eax
	mov	edx, DWORD PTR tv543[ebp]
	mov	DWORD PTR tv522[ebp], edx
	mov	DWORD PTR __$EHRec$[ebp+8], 11		; 0000000bH
	mov	eax, DWORD PTR tv522[ebp]
	push	eax
	push	OFFSET $SG142913
	lea	ecx, DWORD PTR $T150880[ebp]
	push	ecx
	call	DWORD PTR __imp_??$?HGU?$char_traits@G@std@@V?$allocator@G@1@@std@@YA?AV?$basic_string@GU?$char_traits@G@std@@V?$allocator@G@2@@0@PBGABV10@@Z
	add	esp, 12					; 0000000cH
	mov	DWORD PTR tv544[ebp], eax
	mov	edx, DWORD PTR tv544[ebp]
	mov	DWORD PTR tv524[ebp], edx
	mov	BYTE PTR __$EHRec$[ebp+8], 12		; 0000000cH
	mov	eax, DWORD PTR tv524[ebp]
	push	eax
	push	esi
	call	DWORD PTR __imp_??$?HGU?$char_traits@G@std@@V?$allocator@G@1@@std@@YA?AV?$basic_string@GU?$char_traits@G@std@@V?$allocator@G@2@@0@ABV10@PBG@Z
	add	esp, 12					; 0000000cH
	mov	DWORD PTR tv545[ebp], eax
	mov	ecx, DWORD PTR tv545[ebp]
	mov	DWORD PTR tv526[ebp], ecx
	mov	BYTE PTR __$EHRec$[ebp+8], 13		; 0000000dH
	mov	edx, DWORD PTR _iClientID$[ebp]
	push	edx
	mov	BYTE PTR __$EHRec$[ebp+8], 12		; 0000000cH
	call	DWORD PTR __imp_?PrintUserCmdText@@YAXIV?$basic_string@GU?$char_traits@G@std@@V?$allocator@G@2@@std@@ZZ
	add	esp, 32					; 00000020H
	mov	BYTE PTR __$EHRec$[ebp+8], 11		; 0000000bH
	lea	ecx, DWORD PTR $T150880[ebp]
	call	DWORD PTR __imp_??1?$basic_string@GU?$char_traits@G@std@@V?$allocator@G@2@@std@@QAE@XZ
	mov	DWORD PTR __$EHRec$[ebp+8], -1
	lea	ecx, DWORD PTR $T150879[ebp]
	call	DWORD PTR __imp_??1?$basic_string@GU?$char_traits@G@std@@V?$allocator@G@2@@std@@QAE@XZ
; Line 229
	mov	eax, DWORD PTR _iClientID$[ebp]
	push	eax
	mov	ecx, DWORD PTR __imp_?Players@@3VPlayerDB@@A
	call	DWORD PTR __imp_?GetActiveCharacterName@PlayerDB@@QBEPBGI@Z
	push	eax
	lea	ecx, DWORD PTR _wscCharName$[ebp]
	call	DWORD PTR __imp_??0?$basic_string@GU?$char_traits@G@std@@V?$allocator@G@2@@std@@QAE@PBG@Z
	mov	DWORD PTR __$EHRec$[ebp+8], 14		; 0000000eH
; Line 232
	mov	DWORD PTR _iSlotID$[ebp], 1
; Line 234
	lea	ecx, DWORD PTR _iClientID$[ebp]
	push	ecx
	mov	ecx, DWORD PTR __imp_?Players@@3VPlayerDB@@A
	call	DWORD PTR __imp_??APlayerDB@@QAEAAUPlayerData@@ABI@Z
	add	eax, 636				; 0000027cH
	mov	DWORD PTR _eqLst$[ebp], eax
; Line 235
	lea	edx, DWORD PTR _eq$143061[ebp]
	push	edx
	mov	ecx, DWORD PTR _eqLst$[ebp]
	call	?begin@?$list@UEquipDesc@@V?$allocator@UEquipDesc@@@std@@@std@@QAE?AV?$_Iterator@$00@12@XZ ; std::list<EquipDesc,std::allocator<EquipDesc> >::begin
	jmp	SHORT $LN4@UserCmd_Pi
$LN3@UserCmd_Pi:
	push	0
	lea	eax, DWORD PTR $T150881[ebp]
	push	eax
	lea	ecx, DWORD PTR _eq$143061[ebp]
	call	??E?$_Iterator@$00@?$list@UEquipDesc@@V?$allocator@UEquipDesc@@@std@@@std@@QAE?AV012@H@Z ; std::list<EquipDesc,std::allocator<EquipDesc> >::_Iterator<1>::operator++
$LN4@UserCmd_Pi:
	lea	ecx, DWORD PTR $T150882[ebp]
	push	ecx
	mov	ecx, DWORD PTR _eqLst$[ebp]
	call	?end@?$list@UEquipDesc@@V?$allocator@UEquipDesc@@@std@@@std@@QAE?AV?$_Iterator@$00@12@XZ ; std::list<EquipDesc,std::allocator<EquipDesc> >::end
	push	eax
	lea	ecx, DWORD PTR _eq$143061[ebp]
	call	??9?$_Const_iterator@$00@?$list@UEquipDesc@@V?$allocator@UEquipDesc@@@std@@@std@@QBE_NABV012@@Z ; std::list<EquipDesc,std::allocator<EquipDesc> >::_Const_iterator<1>::operator!=
	movzx	edx, al
	test	edx, edx
	je	$LN2@UserCmd_Pi
; Line 237
	lea	ecx, DWORD PTR _eq$143061[ebp]
	call	??C?$_Iterator@$00@?$list@UEquipDesc@@V?$allocator@UEquipDesc@@@std@@@std@@QBEPAUEquipDesc@@XZ ; std::list<EquipDesc,std::allocator<EquipDesc> >::_Iterator<1>::operator->
	mov	eax, DWORD PTR [eax+4]
	push	eax
	call	?IsItemArchIDAvailable@PimpShip@@YA_NI@Z ; PimpShip::IsItemArchIDAvailable
	add	esp, 4
	movzx	ecx, al
	test	ecx, ecx
	je	$LN1@UserCmd_Pi
; Line 239
	mov	edx, DWORD PTR _iSlotID$[ebp]
	mov	DWORD PTR $T150883[ebp], edx
	lea	ecx, DWORD PTR _eq$143061[ebp]
	call	??C?$_Iterator@$00@?$list@UEquipDesc@@V?$allocator@UEquipDesc@@@std@@@std@@QBEPAUEquipDesc@@XZ ; std::list<EquipDesc,std::allocator<EquipDesc> >::_Iterator<1>::operator->
	movzx	esi, WORD PTR [eax+2]
	lea	eax, DWORD PTR $T150883[ebp]
	push	eax
	lea	ecx, DWORD PTR _iClientID$[ebp]
	push	ecx
	mov	ecx, OFFSET _mapInfo
	call	??A?$map@IUINFO@PimpShip@@U?$less@I@std@@V?$allocator@U?$pair@$$CBIUINFO@PimpShip@@@std@@@4@@std@@QAEAAUINFO@PimpShip@@ABI@Z ; std::map<unsigned int,PimpShip::INFO,std::less<unsigned int>,std::allocator<std::pair<unsigned int const ,PimpShip::INFO> > >::operator[]
	mov	ecx, eax
	call	??A?$map@IUEQ_HARDPOINT@PimpShip@@U?$less@I@std@@V?$allocator@U?$pair@$$CBIUEQ_HARDPOINT@PimpShip@@@std@@@4@@std@@QAEAAUEQ_HARDPOINT@PimpShip@@ABI@Z ; std::map<unsigned int,PimpShip::EQ_HARDPOINT,std::less<unsigned int>,std::allocator<std::pair<unsigned int const ,PimpShip::EQ_HARDPOINT> > >::operator[]
	mov	DWORD PTR [eax], esi
; Line 240
	mov	edx, DWORD PTR _iSlotID$[ebp]
	mov	DWORD PTR $T150884[ebp], edx
	lea	ecx, DWORD PTR _eq$143061[ebp]
	call	??C?$_Iterator@$00@?$list@UEquipDesc@@V?$allocator@UEquipDesc@@@std@@@std@@QBEPAUEquipDesc@@XZ ; std::list<EquipDesc,std::allocator<EquipDesc> >::_Iterator<1>::operator->
	mov	esi, eax
	lea	eax, DWORD PTR $T150884[ebp]
	push	eax
	lea	ecx, DWORD PTR _iClientID$[ebp]
	push	ecx
	mov	ecx, OFFSET _mapInfo
	call	??A?$map@IUINFO@PimpShip@@U?$less@I@std@@V?$allocator@U?$pair@$$CBIUINFO@PimpShip@@@std@@@4@@std@@QAEAAUINFO@PimpShip@@ABI@Z ; std::map<unsigned int,PimpShip::INFO,std::less<unsigned int>,std::allocator<std::pair<unsigned int const ,PimpShip::INFO> > >::operator[]
	mov	ecx, eax
	call	??A?$map@IUEQ_HARDPOINT@PimpShip@@U?$less@I@std@@V?$allocator@U?$pair@$$CBIUEQ_HARDPOINT@PimpShip@@@std@@@4@@std@@QAEAAUEQ_HARDPOINT@PimpShip@@ABI@Z ; std::map<unsigned int,PimpShip::EQ_HARDPOINT,std::less<unsigned int>,std::allocator<std::pair<unsigned int const ,PimpShip::EQ_HARDPOINT> > >::operator[]
	mov	edx, DWORD PTR [esi+4]
	mov	DWORD PTR [eax+4], edx
; Line 241
	mov	eax, DWORD PTR _iSlotID$[ebp]
	mov	DWORD PTR $T150885[ebp], eax
	lea	ecx, DWORD PTR _eq$143061[ebp]
	call	??C?$_Iterator@$00@?$list@UEquipDesc@@V?$allocator@UEquipDesc@@@std@@@std@@QBEPAUEquipDesc@@XZ ; std::list<EquipDesc,std::allocator<EquipDesc> >::_Iterator<1>::operator->
	mov	esi, eax
	lea	ecx, DWORD PTR $T150885[ebp]
	push	ecx
	lea	edx, DWORD PTR _iClientID$[ebp]
	push	edx
	mov	ecx, OFFSET _mapInfo
	call	??A?$map@IUINFO@PimpShip@@U?$less@I@std@@V?$allocator@U?$pair@$$CBIUINFO@PimpShip@@@std@@@4@@std@@QAEAAUINFO@PimpShip@@ABI@Z ; std::map<unsigned int,PimpShip::INFO,std::less<unsigned int>,std::allocator<std::pair<unsigned int const ,PimpShip::INFO> > >::operator[]
	mov	ecx, eax
	call	??A?$map@IUEQ_HARDPOINT@PimpShip@@U?$less@I@std@@V?$allocator@U?$pair@$$CBIUEQ_HARDPOINT@PimpShip@@@std@@@4@@std@@QAEAAUEQ_HARDPOINT@PimpShip@@ABI@Z ; std::map<unsigned int,PimpShip::EQ_HARDPOINT,std::less<unsigned int>,std::allocator<std::pair<unsigned int const ,PimpShip::EQ_HARDPOINT> > >::operator[]
	mov	ecx, DWORD PTR [esi+4]
	mov	DWORD PTR [eax+8], ecx
; Line 242
	lea	ecx, DWORD PTR _eq$143061[ebp]
	call	??C?$_Iterator@$00@?$list@UEquipDesc@@V?$allocator@UEquipDesc@@@std@@@std@@QBEPAUEquipDesc@@XZ ; std::list<EquipDesc,std::allocator<EquipDesc> >::_Iterator<1>::operator->
	mov	edx, DWORD PTR [eax+8]
	push	edx
	lea	ecx, DWORD PTR $T150887[ebp]
	call	DWORD PTR __imp_??0?$basic_string@DU?$char_traits@D@std@@V?$allocator@D@2@@std@@QAE@PBD@Z
	mov	BYTE PTR __$EHRec$[ebp+8], 15		; 0000000fH
	mov	eax, DWORD PTR _iSlotID$[ebp]
	mov	DWORD PTR $T150886[ebp], eax
	lea	ecx, DWORD PTR $T150887[ebp]
	push	ecx
	lea	edx, DWORD PTR $T150888[ebp]
	push	edx
	call	DWORD PTR __imp_?stows@@YA?AV?$basic_string@GU?$char_traits@G@std@@V?$allocator@G@2@@std@@ABV?$basic_string@DU?$char_traits@D@std@@V?$allocator@D@2@@2@@Z
	add	esp, 8
	mov	DWORD PTR tv487[ebp], eax
	mov	eax, DWORD PTR tv487[ebp]
	mov	DWORD PTR tv530[ebp], eax
	mov	BYTE PTR __$EHRec$[ebp+8], 16		; 00000010H
	mov	ecx, DWORD PTR tv530[ebp]
	push	ecx
	lea	edx, DWORD PTR $T150886[ebp]
	push	edx
	lea	eax, DWORD PTR _iClientID$[ebp]
	push	eax
	mov	ecx, OFFSET _mapInfo
	call	??A?$map@IUINFO@PimpShip@@U?$less@I@std@@V?$allocator@U?$pair@$$CBIUINFO@PimpShip@@@std@@@4@@std@@QAEAAUINFO@PimpShip@@ABI@Z ; std::map<unsigned int,PimpShip::INFO,std::less<unsigned int>,std::allocator<std::pair<unsigned int const ,PimpShip::INFO> > >::operator[]
	mov	ecx, eax
	call	??A?$map@IUEQ_HARDPOINT@PimpShip@@U?$less@I@std@@V?$allocator@U?$pair@$$CBIUEQ_HARDPOINT@PimpShip@@@std@@@4@@std@@QAEAAUEQ_HARDPOINT@PimpShip@@ABI@Z ; std::map<unsigned int,PimpShip::EQ_HARDPOINT,std::less<unsigned int>,std::allocator<std::pair<unsigned int const ,PimpShip::EQ_HARDPOINT> > >::operator[]
	add	eax, 12					; 0000000cH
	mov	ecx, eax
	call	DWORD PTR __imp_??4?$basic_string@GU?$char_traits@G@std@@V?$allocator@G@2@@std@@QAEAAV01@ABV01@@Z
	mov	BYTE PTR __$EHRec$[ebp+8], 15		; 0000000fH
	lea	ecx, DWORD PTR $T150888[ebp]
	call	DWORD PTR __imp_??1?$basic_string@GU?$char_traits@G@std@@V?$allocator@G@2@@std@@QAE@XZ
	mov	BYTE PTR __$EHRec$[ebp+8], 14		; 0000000eH
	lea	ecx, DWORD PTR $T150887[ebp]
	call	DWORD PTR __imp_??1?$basic_string@DU?$char_traits@D@std@@V?$allocator@D@2@@std@@QAE@XZ
; Line 243
	mov	ecx, DWORD PTR _iSlotID$[ebp]
	add	ecx, 1
	mov	DWORD PTR _iSlotID$[ebp], ecx
$LN1@UserCmd_Pi:
; Line 245
	jmp	$LN3@UserCmd_Pi
$LN2@UserCmd_Pi:
; Line 246
	mov	BYTE PTR $T150889[ebp], 1
	mov	DWORD PTR __$EHRec$[ebp+8], -1
	lea	ecx, DWORD PTR _wscCharName$[ebp]
	call	DWORD PTR __imp_??1?$basic_string@GU?$char_traits@G@std@@V?$allocator@G@2@@std@@QAE@XZ
	mov	al, BYTE PTR $T150889[ebp]
$LN8@UserCmd_Pi:
; Line 247
	mov	ecx, DWORD PTR __$EHRec$[ebp]
	mov	DWORD PTR fs:0, ecx
	pop	ecx
	pop	esi
	mov	ecx, DWORD PTR __$ArrayPad$[ebp]
	xor	ecx, ebp
	call	@__security_check_cookie@4
	mov	esp, ebp
	pop	ebp
	ret	0
_TEXT	ENDS
text$x	SEGMENT
__unwindfunclet$?UserCmd_PimpShip@PimpShip@@YA_NIABV?$basic_string@GU?$char_traits@G@std@@V?$allocator@G@2@@std@@0PBG@Z$0:
	mov	ecx, DWORD PTR $T150867[ebp]
	jmp	DWORD PTR __imp_??1?$basic_string@GU?$char_traits@G@std@@V?$allocator@G@2@@std@@QAE@XZ
__unwindfunclet$?UserCmd_PimpShip@PimpShip@@YA_NIABV?$basic_string@GU?$char_traits@G@std@@V?$allocator@G@2@@std@@0PBG@Z$1:
	mov	ecx, DWORD PTR $T150868[ebp]
	jmp	DWORD PTR __imp_??1?$basic_string@GU?$char_traits@G@std@@V?$allocator@G@2@@std@@QAE@XZ
__unwindfunclet$?UserCmd_PimpShip@PimpShip@@YA_NIABV?$basic_string@GU?$char_traits@G@std@@V?$allocator@G@2@@std@@0PBG@Z$2:
	mov	ecx, DWORD PTR $T150869[ebp]
	jmp	DWORD PTR __imp_??1?$basic_string@GU?$char_traits@G@std@@V?$allocator@G@2@@std@@QAE@XZ
__unwindfunclet$?UserCmd_PimpShip@PimpShip@@YA_NIABV?$basic_string@GU?$char_traits@G@std@@V?$allocator@G@2@@std@@0PBG@Z$3:
	mov	ecx, DWORD PTR $T150870[ebp]
	jmp	DWORD PTR __imp_??1?$basic_string@GU?$char_traits@G@std@@V?$allocator@G@2@@std@@QAE@XZ
__unwindfunclet$?UserCmd_PimpShip@PimpShip@@YA_NIABV?$basic_string@GU?$char_traits@G@std@@V?$allocator@G@2@@std@@0PBG@Z$4:
	mov	ecx, DWORD PTR $T150871[ebp]
	jmp	DWORD PTR __imp_??1?$basic_string@GU?$char_traits@G@std@@V?$allocator@G@2@@std@@QAE@XZ
__unwindfunclet$?UserCmd_PimpShip@PimpShip@@YA_NIABV?$basic_string@GU?$char_traits@G@std@@V?$allocator@G@2@@std@@0PBG@Z$5:
	mov	ecx, DWORD PTR $T150872[ebp]
	jmp	DWORD PTR __imp_??1?$basic_string@GU?$char_traits@G@std@@V?$allocator@G@2@@std@@QAE@XZ
__unwindfunclet$?UserCmd_PimpShip@PimpShip@@YA_NIABV?$basic_string@GU?$char_traits@G@std@@V?$allocator@G@2@@std@@0PBG@Z$6:
	mov	ecx, DWORD PTR $T150873[ebp]
	jmp	DWORD PTR __imp_??1?$basic_string@GU?$char_traits@G@std@@V?$allocator@G@2@@std@@QAE@XZ
__unwindfunclet$?UserCmd_PimpShip@PimpShip@@YA_NIABV?$basic_string@GU?$char_traits@G@std@@V?$allocator@G@2@@std@@0PBG@Z$7:
	mov	ecx, DWORD PTR $T150874[ebp]
	jmp	DWORD PTR __imp_??1?$basic_string@GU?$char_traits@G@std@@V?$allocator@G@2@@std@@QAE@XZ
__unwindfunclet$?UserCmd_PimpShip@PimpShip@@YA_NIABV?$basic_string@GU?$char_traits@G@std@@V?$allocator@G@2@@std@@0PBG@Z$8:
	mov	ecx, DWORD PTR $T150875[ebp]
	jmp	DWORD PTR __imp_??1?$basic_string@GU?$char_traits@G@std@@V?$allocator@G@2@@std@@QAE@XZ
__unwindfunclet$?UserCmd_PimpShip@PimpShip@@YA_NIABV?$basic_string@GU?$char_traits@G@std@@V?$allocator@G@2@@std@@0PBG@Z$9:
	mov	ecx, DWORD PTR $T150876[ebp]
	jmp	DWORD PTR __imp_??1?$basic_string@GU?$char_traits@G@std@@V?$allocator@G@2@@std@@QAE@XZ
__unwindfunclet$?UserCmd_PimpShip@PimpShip@@YA_NIABV?$basic_string@GU?$char_traits@G@std@@V?$allocator@G@2@@std@@0PBG@Z$10:
	mov	ecx, DWORD PTR $T150877[ebp]
	jmp	DWORD PTR __imp_??1?$basic_string@GU?$char_traits@G@std@@V?$allocator@G@2@@std@@QAE@XZ
__unwindfunclet$?UserCmd_PimpShip@PimpShip@@YA_NIABV?$basic_string@GU?$char_traits@G@std@@V?$allocator@G@2@@std@@0PBG@Z$11:
	lea	ecx, DWORD PTR $T150879[ebp]
	jmp	DWORD PTR __imp_??1?$basic_string@GU?$char_traits@G@std@@V?$allocator@G@2@@std@@QAE@XZ
__unwindfunclet$?UserCmd_PimpShip@PimpShip@@YA_NIABV?$basic_string@GU?$char_traits@G@std@@V?$allocator@G@2@@std@@0PBG@Z$12:
	lea	ecx, DWORD PTR $T150880[ebp]
	jmp	DWORD PTR __imp_??1?$basic_string@GU?$char_traits@G@std@@V?$allocator@G@2@@std@@QAE@XZ
__unwindfunclet$?UserCmd_PimpShip@PimpShip@@YA_NIABV?$basic_string@GU?$char_traits@G@std@@V?$allocator@G@2@@std@@0PBG@Z$13:
	mov	ecx, DWORD PTR $T150878[ebp]
	jmp	DWORD PTR __imp_??1?$basic_string@GU?$char_traits@G@std@@V?$allocator@G@2@@std@@QAE@XZ
__unwindfunclet$?UserCmd_PimpShip@PimpShip@@YA_NIABV?$basic_string@GU?$char_traits@G@std@@V?$allocator@G@2@@std@@0PBG@Z$14:
	lea	ecx, DWORD PTR _wscCharName$[ebp]
	jmp	DWORD PTR __imp_??1?$basic_string@GU?$char_traits@G@std@@V?$allocator@G@2@@std@@QAE@XZ
__unwindfunclet$?UserCmd_PimpShip@PimpShip@@YA_NIABV?$basic_string@GU?$char_traits@G@std@@V?$allocator@G@2@@std@@0PBG@Z$15:
	lea	ecx, DWORD PTR $T150887[ebp]
	jmp	DWORD PTR __imp_??1?$basic_string@DU?$char_traits@D@std@@V?$allocator@D@2@@std@@QAE@XZ
__unwindfunclet$?UserCmd_PimpShip@PimpShip@@YA_NIABV?$basic_string@GU?$char_traits@G@std@@V?$allocator@G@2@@std@@0PBG@Z$16:
	lea	ecx, DWORD PTR $T150888[ebp]
	jmp	DWORD PTR __imp_??1?$basic_string@GU?$char_traits@G@std@@V?$allocator@G@2@@std@@QAE@XZ
__ehhandler$?UserCmd_PimpShip@PimpShip@@YA_NIABV?$basic_string@GU?$char_traits@G@std@@V?$allocator@G@2@@std@@0PBG@Z:
	mov	edx, DWORD PTR [esp+8]
	lea	eax, DWORD PTR [edx+12]
	mov	ecx, DWORD PTR [edx-412]
	xor	ecx, eax
	call	@__security_check_cookie@4
	mov	ecx, DWORD PTR [edx-16]
	xor	ecx, eax
	call	@__security_check_cookie@4
	mov	eax, OFFSET __ehfuncinfo$?UserCmd_PimpShip@PimpShip@@YA_NIABV?$basic_string@GU?$char_traits@G@std@@V?$allocator@G@2@@std@@0PBG@Z
	jmp	___CxxFrameHandler3
text$x	ENDS
?UserCmd_PimpShip@PimpShip@@YA_NIABV?$basic_string@GU?$char_traits@G@std@@V?$allocator@G@2@@std@@0PBG@Z ENDP ; PimpShip::UserCmd_PimpShip
PUBLIC	??Citerator@?$_Tree@V?$_Tmap_traits@IUEQ_HARDPOINT@PimpShip@@U?$less@I@std@@V?$allocator@U?$pair@$$CBIUEQ_HARDPOINT@PimpShip@@@std@@@4@$0A@@std@@@std@@QBEPAU?$pair@$$CBIUEQ_HARDPOINT@PimpShip@@@2@XZ ; std::_Tree<std::_Tmap_traits<unsigned int,PimpShip::EQ_HARDPOINT,std::less<unsigned int>,std::allocator<std::pair<unsigned int const ,PimpShip::EQ_HARDPOINT> >,0> >::iterator::operator->
PUBLIC	??9const_iterator@?$_Tree@V?$_Tmap_traits@IUEQ_HARDPOINT@PimpShip@@U?$less@I@std@@V?$allocator@U?$pair@$$CBIUEQ_HARDPOINT@PimpShip@@@std@@@4@$0A@@std@@@std@@QBE_NABV012@@Z ; std::_Tree<std::_Tmap_traits<unsigned int,PimpShip::EQ_HARDPOINT,std::less<unsigned int>,std::allocator<std::pair<unsigned int const ,PimpShip::EQ_HARDPOINT> >,0> >::const_iterator::operator!=
PUBLIC	?end@?$_Tree@V?$_Tmap_traits@IUEQ_HARDPOINT@PimpShip@@U?$less@I@std@@V?$allocator@U?$pair@$$CBIUEQ_HARDPOINT@PimpShip@@@std@@@4@$0A@@std@@@std@@QAE?AViterator@12@XZ ; std::_Tree<std::_Tmap_traits<unsigned int,PimpShip::EQ_HARDPOINT,std::less<unsigned int>,std::allocator<std::pair<unsigned int const ,PimpShip::EQ_HARDPOINT> >,0> >::end
PUBLIC	??Eiterator@?$_Tree@V?$_Tmap_traits@IUEQ_HARDPOINT@PimpShip@@U?$less@I@std@@V?$allocator@U?$pair@$$CBIUEQ_HARDPOINT@PimpShip@@@std@@@4@$0A@@std@@@std@@QAE?AV012@H@Z ; std::_Tree<std::_Tmap_traits<unsigned int,PimpShip::EQ_HARDPOINT,std::less<unsigned int>,std::allocator<std::pair<unsigned int const ,PimpShip::EQ_HARDPOINT> >,0> >::iterator::operator++
PUBLIC	?begin@?$_Tree@V?$_Tmap_traits@IUEQ_HARDPOINT@PimpShip@@U?$less@I@std@@V?$allocator@U?$pair@$$CBIUEQ_HARDPOINT@PimpShip@@@std@@@4@$0A@@std@@@std@@QAE?AViterator@12@XZ ; std::_Tree<std::_Tmap_traits<unsigned int,PimpShip::EQ_HARDPOINT,std::less<unsigned int>,std::allocator<std::pair<unsigned int const ,PimpShip::EQ_HARDPOINT> >,0> >::begin
PUBLIC	?size@?$_Tree@V?$_Tmap_traits@IUEQ_HARDPOINT@PimpShip@@U?$less@I@std@@V?$allocator@U?$pair@$$CBIUEQ_HARDPOINT@PimpShip@@@std@@@4@$0A@@std@@@std@@QBEIXZ ; std::_Tree<std::_Tmap_traits<unsigned int,PimpShip::EQ_HARDPOINT,std::less<unsigned int>,std::allocator<std::pair<unsigned int const ,PimpShip::EQ_HARDPOINT> >,0> >::size
PUBLIC	?UserCmd_ShowSetup@PimpShip@@YA_NIABV?$basic_string@GU?$char_traits@G@std@@V?$allocator@G@2@@std@@0PBG@Z ; PimpShip::UserCmd_ShowSetup
xdata$x	SEGMENT
__unwindtable$?UserCmd_ShowSetup@PimpShip@@YA_NIABV?$basic_string@GU?$char_traits@G@std@@V?$allocator@G@2@@std@@0PBG@Z DD 0ffffffffH
	DD	FLAT:__unwindfunclet$?UserCmd_ShowSetup@PimpShip@@YA_NIABV?$basic_string@GU?$char_traits@G@std@@V?$allocator@G@2@@std@@0PBG@Z$0
	DD	0ffffffffH
	DD	FLAT:__unwindfunclet$?UserCmd_ShowSetup@PimpShip@@YA_NIABV?$basic_string@GU?$char_traits@G@std@@V?$allocator@G@2@@std@@0PBG@Z$1
	DD	01H
	DD	FLAT:__unwindfunclet$?UserCmd_ShowSetup@PimpShip@@YA_NIABV?$basic_string@GU?$char_traits@G@std@@V?$allocator@G@2@@std@@0PBG@Z$2
	DD	0ffffffffH
	DD	FLAT:__unwindfunclet$?UserCmd_ShowSetup@PimpShip@@YA_NIABV?$basic_string@GU?$char_traits@G@std@@V?$allocator@G@2@@std@@0PBG@Z$3
__ehfuncinfo$?UserCmd_ShowSetup@PimpShip@@YA_NIABV?$basic_string@GU?$char_traits@G@std@@V?$allocator@G@2@@std@@0PBG@Z DD 019930522H
	DD	04H
	DD	FLAT:__unwindtable$?UserCmd_ShowSetup@PimpShip@@YA_NIABV?$basic_string@GU?$char_traits@G@std@@V?$allocator@G@2@@std@@0PBG@Z
	DD	2 DUP(00H)
	DD	2 DUP(00H)
	DD	00H
	DD	00H
; Function compile flags: /Odtp
xdata$x	ENDS
_TEXT	SEGMENT
tv227 = -108						; size = 4
tv232 = -104						; size = 4
tv225 = -100						; size = 4
tv230 = -96						; size = 4
tv220 = -92						; size = 4
tv229 = -88						; size = 4
tv218 = -84						; size = 4
tv228 = -80						; size = 4
$T150917 = -76						; size = 4
$T150916 = -72						; size = 4
$T150915 = -68						; size = 28
$T150914 = -40						; size = 8
$T150913 = -32						; size = 8
$T150912 = -24						; size = 4
_iter$143196 = -20					; size = 8
__$EHRec$ = -12						; size = 12
_iClientID$ = 8						; size = 4
_wscCmd$ = 12						; size = 4
_wscParam$ = 16						; size = 4
_usage$ = 20						; size = 4
?UserCmd_ShowSetup@PimpShip@@YA_NIABV?$basic_string@GU?$char_traits@G@std@@V?$allocator@G@2@@std@@0PBG@Z PROC ; PimpShip::UserCmd_ShowSetup
; Line 251
	push	ebp
	mov	ebp, esp
	push	-1
	push	__ehhandler$?UserCmd_ShowSetup@PimpShip@@YA_NIABV?$basic_string@GU?$char_traits@G@std@@V?$allocator@G@2@@std@@0PBG@Z
	mov	eax, DWORD PTR fs:0
	push	eax
	sub	esp, 96					; 00000060H
	mov	eax, DWORD PTR ___security_cookie
	xor	eax, ebp
	push	eax
	lea	eax, DWORD PTR __$EHRec$[ebp]
	mov	DWORD PTR fs:0, eax
; Line 252
	lea	eax, DWORD PTR _iClientID$[ebp]
	push	eax
	mov	ecx, OFFSET _mapInfo
	call	??A?$map@IUINFO@PimpShip@@U?$less@I@std@@V?$allocator@U?$pair@$$CBIUINFO@PimpShip@@@std@@@4@@std@@QAEAAUINFO@PimpShip@@ABI@Z ; std::map<unsigned int,PimpShip::INFO,std::less<unsigned int>,std::allocator<std::pair<unsigned int const ,PimpShip::INFO> > >::operator[]
	movzx	ecx, BYTE PTR [eax+32]
	test	ecx, ecx
	je	SHORT $LN4@UserCmd_Sh
	movzx	edx, BYTE PTR ?set_bEnablePimpShip@@3_NA ; set_bEnablePimpShip
	test	edx, edx
	jne	SHORT $LN5@UserCmd_Sh
$LN4@UserCmd_Sh:
; Line 253
	xor	al, al
	jmp	$LN6@UserCmd_Sh
$LN5@UserCmd_Sh:
; Line 255
	lea	eax, DWORD PTR _iClientID$[ebp]
	push	eax
	mov	ecx, OFFSET _mapInfo
	call	??A?$map@IUINFO@PimpShip@@U?$less@I@std@@V?$allocator@U?$pair@$$CBIUINFO@PimpShip@@@std@@@4@@std@@QAEAAUINFO@PimpShip@@ABI@Z ; std::map<unsigned int,PimpShip::INFO,std::less<unsigned int>,std::allocator<std::pair<unsigned int const ,PimpShip::INFO> > >::operator[]
	mov	ecx, eax
	call	?size@?$_Tree@V?$_Tmap_traits@IUEQ_HARDPOINT@PimpShip@@U?$less@I@std@@V?$allocator@U?$pair@$$CBIUEQ_HARDPOINT@PimpShip@@@std@@@4@$0A@@std@@@std@@QBEIXZ ; std::_Tree<std::_Tmap_traits<unsigned int,PimpShip::EQ_HARDPOINT,std::less<unsigned int>,std::allocator<std::pair<unsigned int const ,PimpShip::EQ_HARDPOINT> >,0> >::size
	push	eax
	sub	esp, 28					; 0000001cH
	mov	ecx, esp
	mov	DWORD PTR $T150912[ebp], esp
	push	OFFSET $SG143085
	call	DWORD PTR __imp_??0?$basic_string@GU?$char_traits@G@std@@V?$allocator@G@2@@std@@QAE@PBG@Z
	mov	DWORD PTR tv228[ebp], eax
	mov	ecx, DWORD PTR tv228[ebp]
	mov	DWORD PTR tv218[ebp], ecx
	mov	DWORD PTR __$EHRec$[ebp+8], 0
	mov	edx, DWORD PTR _iClientID$[ebp]
	push	edx
	mov	DWORD PTR __$EHRec$[ebp+8], -1
	call	DWORD PTR __imp_?PrintUserCmdText@@YAXIV?$basic_string@GU?$char_traits@G@std@@V?$allocator@G@2@@std@@ZZ
	add	esp, 36					; 00000024H
; Line 256
	lea	eax, DWORD PTR _iter$143196[ebp]
	push	eax
	lea	ecx, DWORD PTR _iClientID$[ebp]
	push	ecx
	mov	ecx, OFFSET _mapInfo
	call	??A?$map@IUINFO@PimpShip@@U?$less@I@std@@V?$allocator@U?$pair@$$CBIUINFO@PimpShip@@@std@@@4@@std@@QAEAAUINFO@PimpShip@@ABI@Z ; std::map<unsigned int,PimpShip::INFO,std::less<unsigned int>,std::allocator<std::pair<unsigned int const ,PimpShip::INFO> > >::operator[]
	mov	ecx, eax
	call	?begin@?$_Tree@V?$_Tmap_traits@IUEQ_HARDPOINT@PimpShip@@U?$less@I@std@@V?$allocator@U?$pair@$$CBIUEQ_HARDPOINT@PimpShip@@@std@@@4@$0A@@std@@@std@@QAE?AViterator@12@XZ ; std::_Tree<std::_Tmap_traits<unsigned int,PimpShip::EQ_HARDPOINT,std::less<unsigned int>,std::allocator<std::pair<unsigned int const ,PimpShip::EQ_HARDPOINT> >,0> >::begin
; Line 257
	jmp	SHORT $LN3@UserCmd_Sh
$LN2@UserCmd_Sh:
; Line 258
	push	0
	lea	edx, DWORD PTR $T150913[ebp]
	push	edx
	lea	ecx, DWORD PTR _iter$143196[ebp]
	call	??Eiterator@?$_Tree@V?$_Tmap_traits@IUEQ_HARDPOINT@PimpShip@@U?$less@I@std@@V?$allocator@U?$pair@$$CBIUEQ_HARDPOINT@PimpShip@@@std@@@4@$0A@@std@@@std@@QAE?AV012@H@Z ; std::_Tree<std::_Tmap_traits<unsigned int,PimpShip::EQ_HARDPOINT,std::less<unsigned int>,std::allocator<std::pair<unsigned int const ,PimpShip::EQ_HARDPOINT> >,0> >::iterator::operator++
$LN3@UserCmd_Sh:
	lea	eax, DWORD PTR $T150914[ebp]
	push	eax
	lea	ecx, DWORD PTR _iClientID$[ebp]
	push	ecx
	mov	ecx, OFFSET _mapInfo
	call	??A?$map@IUINFO@PimpShip@@U?$less@I@std@@V?$allocator@U?$pair@$$CBIUINFO@PimpShip@@@std@@@4@@std@@QAEAAUINFO@PimpShip@@ABI@Z ; std::map<unsigned int,PimpShip::INFO,std::less<unsigned int>,std::allocator<std::pair<unsigned int const ,PimpShip::INFO> > >::operator[]
	mov	ecx, eax
	call	?end@?$_Tree@V?$_Tmap_traits@IUEQ_HARDPOINT@PimpShip@@U?$less@I@std@@V?$allocator@U?$pair@$$CBIUEQ_HARDPOINT@PimpShip@@@std@@@4@$0A@@std@@@std@@QAE?AViterator@12@XZ ; std::_Tree<std::_Tmap_traits<unsigned int,PimpShip::EQ_HARDPOINT,std::less<unsigned int>,std::allocator<std::pair<unsigned int const ,PimpShip::EQ_HARDPOINT> >,0> >::end
	push	eax
	lea	ecx, DWORD PTR _iter$143196[ebp]
	call	??9const_iterator@?$_Tree@V?$_Tmap_traits@IUEQ_HARDPOINT@PimpShip@@U?$less@I@std@@V?$allocator@U?$pair@$$CBIUEQ_HARDPOINT@PimpShip@@@std@@@4@$0A@@std@@@std@@QBE_NABV012@@Z ; std::_Tree<std::_Tmap_traits<unsigned int,PimpShip::EQ_HARDPOINT,std::less<unsigned int>,std::allocator<std::pair<unsigned int const ,PimpShip::EQ_HARDPOINT> >,0> >::const_iterator::operator!=
	movzx	edx, al
	test	edx, edx
	je	$LN1@UserCmd_Sh
; Line 261
	lea	ecx, DWORD PTR _iter$143196[ebp]
	call	??Citerator@?$_Tree@V?$_Tmap_traits@IUEQ_HARDPOINT@PimpShip@@U?$less@I@std@@V?$allocator@U?$pair@$$CBIUEQ_HARDPOINT@PimpShip@@@std@@@4@$0A@@std@@@std@@QBEPAU?$pair@$$CBIUEQ_HARDPOINT@PimpShip@@@2@XZ ; std::_Tree<std::_Tmap_traits<unsigned int,PimpShip::EQ_HARDPOINT,std::less<unsigned int>,std::allocator<std::pair<unsigned int const ,PimpShip::EQ_HARDPOINT> >,0> >::iterator::operator->
	mov	eax, DWORD PTR [eax+8]
	push	eax
	lea	ecx, DWORD PTR $T150915[ebp]
	push	ecx
	call	?GetItemDescription@PimpShip@@YA?AV?$basic_string@GU?$char_traits@G@std@@V?$allocator@G@2@@std@@I@Z ; PimpShip::GetItemDescription
	add	esp, 8
	mov	DWORD PTR tv229[ebp], eax
	mov	edx, DWORD PTR tv229[ebp]
	mov	DWORD PTR tv220[ebp], edx
	mov	DWORD PTR __$EHRec$[ebp+8], 1
	mov	ecx, DWORD PTR tv220[ebp]
	call	DWORD PTR __imp_?c_str@?$basic_string@GU?$char_traits@G@std@@V?$allocator@G@2@@std@@QBEPBGXZ
	push	eax
	lea	ecx, DWORD PTR _iter$143196[ebp]
	call	??Citerator@?$_Tree@V?$_Tmap_traits@IUEQ_HARDPOINT@PimpShip@@U?$less@I@std@@V?$allocator@U?$pair@$$CBIUEQ_HARDPOINT@PimpShip@@@std@@@4@$0A@@std@@@std@@QBEPAU?$pair@$$CBIUEQ_HARDPOINT@PimpShip@@@2@XZ ; std::_Tree<std::_Tmap_traits<unsigned int,PimpShip::EQ_HARDPOINT,std::less<unsigned int>,std::allocator<std::pair<unsigned int const ,PimpShip::EQ_HARDPOINT> >,0> >::iterator::operator->
	add	eax, 16					; 00000010H
	mov	ecx, eax
	call	DWORD PTR __imp_?c_str@?$basic_string@GU?$char_traits@G@std@@V?$allocator@G@2@@std@@QBEPBGXZ
	push	eax
	lea	ecx, DWORD PTR _iter$143196[ebp]
	call	??Citerator@?$_Tree@V?$_Tmap_traits@IUEQ_HARDPOINT@PimpShip@@U?$less@I@std@@V?$allocator@U?$pair@$$CBIUEQ_HARDPOINT@PimpShip@@@std@@@4@$0A@@std@@@std@@QBEPAU?$pair@$$CBIUEQ_HARDPOINT@PimpShip@@@2@XZ ; std::_Tree<std::_Tmap_traits<unsigned int,PimpShip::EQ_HARDPOINT,std::less<unsigned int>,std::allocator<std::pair<unsigned int const ,PimpShip::EQ_HARDPOINT> >,0> >::iterator::operator->
	mov	eax, DWORD PTR [eax]
	push	eax
	sub	esp, 28					; 0000001cH
	mov	ecx, esp
	mov	DWORD PTR $T150916[ebp], esp
	push	OFFSET $SG143233
	call	DWORD PTR __imp_??0?$basic_string@GU?$char_traits@G@std@@V?$allocator@G@2@@std@@QAE@PBG@Z
	mov	DWORD PTR tv230[ebp], eax
	mov	ecx, DWORD PTR tv230[ebp]
	mov	DWORD PTR tv225[ebp], ecx
	mov	BYTE PTR __$EHRec$[ebp+8], 2
	mov	edx, DWORD PTR _iClientID$[ebp]
	push	edx
	mov	BYTE PTR __$EHRec$[ebp+8], 1
	call	DWORD PTR __imp_?PrintUserCmdText@@YAXIV?$basic_string@GU?$char_traits@G@std@@V?$allocator@G@2@@std@@ZZ
	add	esp, 44					; 0000002cH
	mov	DWORD PTR __$EHRec$[ebp+8], -1
	lea	ecx, DWORD PTR $T150915[ebp]
	call	DWORD PTR __imp_??1?$basic_string@GU?$char_traits@G@std@@V?$allocator@G@2@@std@@QAE@XZ
; Line 262
	jmp	$LN2@UserCmd_Sh
$LN1@UserCmd_Sh:
; Line 263
	sub	esp, 28					; 0000001cH
	mov	ecx, esp
	mov	DWORD PTR $T150917[ebp], esp
	push	OFFSET $SG143235
	call	DWORD PTR __imp_??0?$basic_string@GU?$char_traits@G@std@@V?$allocator@G@2@@std@@QAE@PBG@Z
	mov	DWORD PTR tv232[ebp], eax
	mov	eax, DWORD PTR tv232[ebp]
	mov	DWORD PTR tv227[ebp], eax
	mov	DWORD PTR __$EHRec$[ebp+8], 3
	mov	ecx, DWORD PTR _iClientID$[ebp]
	push	ecx
	mov	DWORD PTR __$EHRec$[ebp+8], -1
	call	DWORD PTR __imp_?PrintUserCmdText@@YAXIV?$basic_string@GU?$char_traits@G@std@@V?$allocator@G@2@@std@@ZZ
	add	esp, 32					; 00000020H
; Line 264
	mov	al, 1
$LN6@UserCmd_Sh:
; Line 265
	mov	ecx, DWORD PTR __$EHRec$[ebp]
	mov	DWORD PTR fs:0, ecx
	pop	ecx
	mov	esp, ebp
	pop	ebp
	ret	0
_TEXT	ENDS
text$x	SEGMENT
__unwindfunclet$?UserCmd_ShowSetup@PimpShip@@YA_NIABV?$basic_string@GU?$char_traits@G@std@@V?$allocator@G@2@@std@@0PBG@Z$0:
	mov	ecx, DWORD PTR $T150912[ebp]
	jmp	DWORD PTR __imp_??1?$basic_string@GU?$char_traits@G@std@@V?$allocator@G@2@@std@@QAE@XZ
__unwindfunclet$?UserCmd_ShowSetup@PimpShip@@YA_NIABV?$basic_string@GU?$char_traits@G@std@@V?$allocator@G@2@@std@@0PBG@Z$1:
	lea	ecx, DWORD PTR $T150915[ebp]
	jmp	DWORD PTR __imp_??1?$basic_string@GU?$char_traits@G@std@@V?$allocator@G@2@@std@@QAE@XZ
__unwindfunclet$?UserCmd_ShowSetup@PimpShip@@YA_NIABV?$basic_string@GU?$char_traits@G@std@@V?$allocator@G@2@@std@@0PBG@Z$2:
	mov	ecx, DWORD PTR $T150916[ebp]
	jmp	DWORD PTR __imp_??1?$basic_string@GU?$char_traits@G@std@@V?$allocator@G@2@@std@@QAE@XZ
__unwindfunclet$?UserCmd_ShowSetup@PimpShip@@YA_NIABV?$basic_string@GU?$char_traits@G@std@@V?$allocator@G@2@@std@@0PBG@Z$3:
	mov	ecx, DWORD PTR $T150917[ebp]
	jmp	DWORD PTR __imp_??1?$basic_string@GU?$char_traits@G@std@@V?$allocator@G@2@@std@@QAE@XZ
__ehhandler$?UserCmd_ShowSetup@PimpShip@@YA_NIABV?$basic_string@GU?$char_traits@G@std@@V?$allocator@G@2@@std@@0PBG@Z:
	mov	edx, DWORD PTR [esp+8]
	lea	eax, DWORD PTR [edx+12]
	mov	ecx, DWORD PTR [edx-100]
	xor	ecx, eax
	call	@__security_check_cookie@4
	mov	eax, OFFSET __ehfuncinfo$?UserCmd_ShowSetup@PimpShip@@YA_NIABV?$basic_string@GU?$char_traits@G@std@@V?$allocator@G@2@@std@@0PBG@Z
	jmp	___CxxFrameHandler3
text$x	ENDS
?UserCmd_ShowSetup@PimpShip@@YA_NIABV?$basic_string@GU?$char_traits@G@std@@V?$allocator@G@2@@std@@0PBG@Z ENDP ; PimpShip::UserCmd_ShowSetup
PUBLIC	?size@?$_Tree@V?$_Tmap_traits@IUITEM_INFO@PimpShip@@U?$less@I@std@@V?$allocator@U?$pair@$$CBIUITEM_INFO@PimpShip@@@std@@@4@$0A@@std@@@std@@QBEIXZ ; std::_Tree<std::_Tmap_traits<unsigned int,PimpShip::ITEM_INFO,std::less<unsigned int>,std::allocator<std::pair<unsigned int const ,PimpShip::ITEM_INFO> >,0> >::size
PUBLIC	?UserCmd_ShowItems@PimpShip@@YA_NIABV?$basic_string@GU?$char_traits@G@std@@V?$allocator@G@2@@std@@0PBG@Z ; PimpShip::UserCmd_ShowItems
xdata$x	SEGMENT
__unwindtable$?UserCmd_ShowItems@PimpShip@@YA_NIABV?$basic_string@GU?$char_traits@G@std@@V?$allocator@G@2@@std@@0PBG@Z DD 0ffffffffH
	DD	FLAT:__unwindfunclet$?UserCmd_ShowItems@PimpShip@@YA_NIABV?$basic_string@GU?$char_traits@G@std@@V?$allocator@G@2@@std@@0PBG@Z$0
	DD	0ffffffffH
	DD	FLAT:__unwindfunclet$?UserCmd_ShowItems@PimpShip@@YA_NIABV?$basic_string@GU?$char_traits@G@std@@V?$allocator@G@2@@std@@0PBG@Z$1
	DD	0ffffffffH
	DD	FLAT:__unwindfunclet$?UserCmd_ShowItems@PimpShip@@YA_NIABV?$basic_string@GU?$char_traits@G@std@@V?$allocator@G@2@@std@@0PBG@Z$2
__ehfuncinfo$?UserCmd_ShowItems@PimpShip@@YA_NIABV?$basic_string@GU?$char_traits@G@std@@V?$allocator@G@2@@std@@0PBG@Z DD 019930522H
	DD	03H
	DD	FLAT:__unwindtable$?UserCmd_ShowItems@PimpShip@@YA_NIABV?$basic_string@GU?$char_traits@G@std@@V?$allocator@G@2@@std@@0PBG@Z
	DD	2 DUP(00H)
	DD	2 DUP(00H)
	DD	00H
	DD	00H
; Function compile flags: /Odtp
xdata$x	ENDS
_TEXT	SEGMENT
tv203 = -72						; size = 4
tv206 = -68						; size = 4
tv201 = -64						; size = 4
tv205 = -60						; size = 4
tv197 = -56						; size = 4
tv204 = -52						; size = 4
$T150931 = -48						; size = 4
$T150930 = -44						; size = 4
$T150929 = -40						; size = 8
$T150928 = -32						; size = 8
$T150927 = -24						; size = 4
_iter$143259 = -20					; size = 8
__$EHRec$ = -12						; size = 12
_iClientID$ = 8						; size = 4
_wscCmd$ = 12						; size = 4
_wscParam$ = 16						; size = 4
_usage$ = 20						; size = 4
?UserCmd_ShowItems@PimpShip@@YA_NIABV?$basic_string@GU?$char_traits@G@std@@V?$allocator@G@2@@std@@0PBG@Z PROC ; PimpShip::UserCmd_ShowItems
; Line 269
	push	ebp
	mov	ebp, esp
	push	-1
	push	__ehhandler$?UserCmd_ShowItems@PimpShip@@YA_NIABV?$basic_string@GU?$char_traits@G@std@@V?$allocator@G@2@@std@@0PBG@Z
	mov	eax, DWORD PTR fs:0
	push	eax
	sub	esp, 60					; 0000003cH
	mov	eax, DWORD PTR ___security_cookie
	xor	eax, ebp
	push	eax
	lea	eax, DWORD PTR __$EHRec$[ebp]
	mov	DWORD PTR fs:0, eax
; Line 270
	lea	eax, DWORD PTR _iClientID$[ebp]
	push	eax
	mov	ecx, OFFSET _mapInfo
	call	??A?$map@IUINFO@PimpShip@@U?$less@I@std@@V?$allocator@U?$pair@$$CBIUINFO@PimpShip@@@std@@@4@@std@@QAEAAUINFO@PimpShip@@ABI@Z ; std::map<unsigned int,PimpShip::INFO,std::less<unsigned int>,std::allocator<std::pair<unsigned int const ,PimpShip::INFO> > >::operator[]
	movzx	ecx, BYTE PTR [eax+32]
	test	ecx, ecx
	je	SHORT $LN4@UserCmd_Sh@2
	movzx	edx, BYTE PTR ?set_bEnablePimpShip@@3_NA ; set_bEnablePimpShip
	test	edx, edx
	jne	SHORT $LN5@UserCmd_Sh@2
$LN4@UserCmd_Sh@2:
; Line 271
	xor	al, al
	jmp	$LN6@UserCmd_Sh@2
$LN5@UserCmd_Sh@2:
; Line 273
	mov	ecx, OFFSET ?mapAvailableItems@PimpShip@@3V?$map@IUITEM_INFO@PimpShip@@U?$less@I@std@@V?$allocator@U?$pair@$$CBIUITEM_INFO@PimpShip@@@std@@@4@@std@@A ; PimpShip::mapAvailableItems
	call	?size@?$_Tree@V?$_Tmap_traits@IUITEM_INFO@PimpShip@@U?$less@I@std@@V?$allocator@U?$pair@$$CBIUITEM_INFO@PimpShip@@@std@@@4@$0A@@std@@@std@@QBEIXZ ; std::_Tree<std::_Tmap_traits<unsigned int,PimpShip::ITEM_INFO,std::less<unsigned int>,std::allocator<std::pair<unsigned int const ,PimpShip::ITEM_INFO> >,0> >::size
	push	eax
	sub	esp, 28					; 0000001cH
	mov	ecx, esp
	mov	DWORD PTR $T150927[ebp], esp
	push	OFFSET $SG143245
	call	DWORD PTR __imp_??0?$basic_string@GU?$char_traits@G@std@@V?$allocator@G@2@@std@@QAE@PBG@Z
	mov	DWORD PTR tv204[ebp], eax
	mov	eax, DWORD PTR tv204[ebp]
	mov	DWORD PTR tv197[ebp], eax
	mov	DWORD PTR __$EHRec$[ebp+8], 0
	mov	ecx, DWORD PTR _iClientID$[ebp]
	push	ecx
	mov	DWORD PTR __$EHRec$[ebp+8], -1
	call	DWORD PTR __imp_?PrintUserCmdText@@YAXIV?$basic_string@GU?$char_traits@G@std@@V?$allocator@G@2@@std@@ZZ
	add	esp, 36					; 00000024H
; Line 274
	lea	edx, DWORD PTR _iter$143259[ebp]
	push	edx
	mov	ecx, OFFSET ?mapAvailableItems@PimpShip@@3V?$map@IUITEM_INFO@PimpShip@@U?$less@I@std@@V?$allocator@U?$pair@$$CBIUITEM_INFO@PimpShip@@@std@@@4@@std@@A ; PimpShip::mapAvailableItems
	call	?begin@?$_Tree@V?$_Tmap_traits@IUITEM_INFO@PimpShip@@U?$less@I@std@@V?$allocator@U?$pair@$$CBIUITEM_INFO@PimpShip@@@std@@@4@$0A@@std@@@std@@QAE?AViterator@12@XZ ; std::_Tree<std::_Tmap_traits<unsigned int,PimpShip::ITEM_INFO,std::less<unsigned int>,std::allocator<std::pair<unsigned int const ,PimpShip::ITEM_INFO> >,0> >::begin
	jmp	SHORT $LN3@UserCmd_Sh@2
$LN2@UserCmd_Sh@2:
	push	0
	lea	eax, DWORD PTR $T150928[ebp]
	push	eax
	lea	ecx, DWORD PTR _iter$143259[ebp]
	call	??Eiterator@?$_Tree@V?$_Tmap_traits@IUITEM_INFO@PimpShip@@U?$less@I@std@@V?$allocator@U?$pair@$$CBIUITEM_INFO@PimpShip@@@std@@@4@$0A@@std@@@std@@QAE?AV012@H@Z ; std::_Tree<std::_Tmap_traits<unsigned int,PimpShip::ITEM_INFO,std::less<unsigned int>,std::allocator<std::pair<unsigned int const ,PimpShip::ITEM_INFO> >,0> >::iterator::operator++
$LN3@UserCmd_Sh@2:
	lea	ecx, DWORD PTR $T150929[ebp]
	push	ecx
	mov	ecx, OFFSET ?mapAvailableItems@PimpShip@@3V?$map@IUITEM_INFO@PimpShip@@U?$less@I@std@@V?$allocator@U?$pair@$$CBIUITEM_INFO@PimpShip@@@std@@@4@@std@@A ; PimpShip::mapAvailableItems
	call	?end@?$_Tree@V?$_Tmap_traits@IUITEM_INFO@PimpShip@@U?$less@I@std@@V?$allocator@U?$pair@$$CBIUITEM_INFO@PimpShip@@@std@@@4@$0A@@std@@@std@@QAE?AViterator@12@XZ ; std::_Tree<std::_Tmap_traits<unsigned int,PimpShip::ITEM_INFO,std::less<unsigned int>,std::allocator<std::pair<unsigned int const ,PimpShip::ITEM_INFO> >,0> >::end
	push	eax
	lea	ecx, DWORD PTR _iter$143259[ebp]
	call	??9const_iterator@?$_Tree@V?$_Tmap_traits@IUITEM_INFO@PimpShip@@U?$less@I@std@@V?$allocator@U?$pair@$$CBIUITEM_INFO@PimpShip@@@std@@@4@$0A@@std@@@std@@QBE_NABV012@@Z ; std::_Tree<std::_Tmap_traits<unsigned int,PimpShip::ITEM_INFO,std::less<unsigned int>,std::allocator<std::pair<unsigned int const ,PimpShip::ITEM_INFO> >,0> >::const_iterator::operator!=
	movzx	edx, al
	test	edx, edx
	je	SHORT $LN1@UserCmd_Sh@2
; Line 276
	lea	ecx, DWORD PTR _iter$143259[ebp]
	call	??Citerator@?$_Tree@V?$_Tmap_traits@IUITEM_INFO@PimpShip@@U?$less@I@std@@V?$allocator@U?$pair@$$CBIUITEM_INFO@PimpShip@@@std@@@4@$0A@@std@@@std@@QBEPAU?$pair@$$CBIUITEM_INFO@PimpShip@@@2@XZ ; std::_Tree<std::_Tmap_traits<unsigned int,PimpShip::ITEM_INFO,std::less<unsigned int>,std::allocator<std::pair<unsigned int const ,PimpShip::ITEM_INFO> >,0> >::iterator::operator->
	add	eax, 36					; 00000024H
	mov	ecx, eax
	call	DWORD PTR __imp_?c_str@?$basic_string@GU?$char_traits@G@std@@V?$allocator@G@2@@std@@QBEPBGXZ
	push	eax
	lea	ecx, DWORD PTR _iter$143259[ebp]
	call	??Citerator@?$_Tree@V?$_Tmap_traits@IUITEM_INFO@PimpShip@@U?$less@I@std@@V?$allocator@U?$pair@$$CBIUITEM_INFO@PimpShip@@@std@@@4@$0A@@std@@@std@@QBEPAU?$pair@$$CBIUITEM_INFO@PimpShip@@@2@XZ ; std::_Tree<std::_Tmap_traits<unsigned int,PimpShip::ITEM_INFO,std::less<unsigned int>,std::allocator<std::pair<unsigned int const ,PimpShip::ITEM_INFO> >,0> >::iterator::operator->
	mov	eax, DWORD PTR [eax]
	push	eax
	sub	esp, 28					; 0000001cH
	mov	ecx, esp
	mov	DWORD PTR $T150930[ebp], esp
	push	OFFSET $SG143267
	call	DWORD PTR __imp_??0?$basic_string@GU?$char_traits@G@std@@V?$allocator@G@2@@std@@QAE@PBG@Z
	mov	DWORD PTR tv205[ebp], eax
	mov	ecx, DWORD PTR tv205[ebp]
	mov	DWORD PTR tv201[ebp], ecx
	mov	DWORD PTR __$EHRec$[ebp+8], 1
	mov	edx, DWORD PTR _iClientID$[ebp]
	push	edx
	mov	DWORD PTR __$EHRec$[ebp+8], -1
	call	DWORD PTR __imp_?PrintUserCmdText@@YAXIV?$basic_string@GU?$char_traits@G@std@@V?$allocator@G@2@@std@@ZZ
	add	esp, 40					; 00000028H
; Line 277
	jmp	$LN2@UserCmd_Sh@2
$LN1@UserCmd_Sh@2:
; Line 278
	sub	esp, 28					; 0000001cH
	mov	ecx, esp
	mov	DWORD PTR $T150931[ebp], esp
	push	OFFSET $SG143269
	call	DWORD PTR __imp_??0?$basic_string@GU?$char_traits@G@std@@V?$allocator@G@2@@std@@QAE@PBG@Z
	mov	DWORD PTR tv206[ebp], eax
	mov	eax, DWORD PTR tv206[ebp]
	mov	DWORD PTR tv203[ebp], eax
	mov	DWORD PTR __$EHRec$[ebp+8], 2
	mov	ecx, DWORD PTR _iClientID$[ebp]
	push	ecx
	mov	DWORD PTR __$EHRec$[ebp+8], -1
	call	DWORD PTR __imp_?PrintUserCmdText@@YAXIV?$basic_string@GU?$char_traits@G@std@@V?$allocator@G@2@@std@@ZZ
	add	esp, 32					; 00000020H
; Line 280
	mov	al, 1
$LN6@UserCmd_Sh@2:
; Line 281
	mov	ecx, DWORD PTR __$EHRec$[ebp]
	mov	DWORD PTR fs:0, ecx
	pop	ecx
	mov	esp, ebp
	pop	ebp
	ret	0
_TEXT	ENDS
text$x	SEGMENT
__unwindfunclet$?UserCmd_ShowItems@PimpShip@@YA_NIABV?$basic_string@GU?$char_traits@G@std@@V?$allocator@G@2@@std@@0PBG@Z$0:
	mov	ecx, DWORD PTR $T150927[ebp]
	jmp	DWORD PTR __imp_??1?$basic_string@GU?$char_traits@G@std@@V?$allocator@G@2@@std@@QAE@XZ
__unwindfunclet$?UserCmd_ShowItems@PimpShip@@YA_NIABV?$basic_string@GU?$char_traits@G@std@@V?$allocator@G@2@@std@@0PBG@Z$1:
	mov	ecx, DWORD PTR $T150930[ebp]
	jmp	DWORD PTR __imp_??1?$basic_string@GU?$char_traits@G@std@@V?$allocator@G@2@@std@@QAE@XZ
__unwindfunclet$?UserCmd_ShowItems@PimpShip@@YA_NIABV?$basic_string@GU?$char_traits@G@std@@V?$allocator@G@2@@std@@0PBG@Z$2:
	mov	ecx, DWORD PTR $T150931[ebp]
	jmp	DWORD PTR __imp_??1?$basic_string@GU?$char_traits@G@std@@V?$allocator@G@2@@std@@QAE@XZ
__ehhandler$?UserCmd_ShowItems@PimpShip@@YA_NIABV?$basic_string@GU?$char_traits@G@std@@V?$allocator@G@2@@std@@0PBG@Z:
	mov	edx, DWORD PTR [esp+8]
	lea	eax, DWORD PTR [edx+12]
	mov	ecx, DWORD PTR [edx-64]
	xor	ecx, eax
	call	@__security_check_cookie@4
	mov	eax, OFFSET __ehfuncinfo$?UserCmd_ShowItems@PimpShip@@YA_NIABV?$basic_string@GU?$char_traits@G@std@@V?$allocator@G@2@@std@@0PBG@Z
	jmp	___CxxFrameHandler3
text$x	ENDS
?UserCmd_ShowItems@PimpShip@@YA_NIABV?$basic_string@GU?$char_traits@G@std@@V?$allocator@G@2@@std@@0PBG@Z ENDP ; PimpShip::UserCmd_ShowItems
PUBLIC	??8const_iterator@?$_Tree@V?$_Tmap_traits@IUITEM_INFO@PimpShip@@U?$less@I@std@@V?$allocator@U?$pair@$$CBIUITEM_INFO@PimpShip@@@std@@@4@$0A@@std@@@std@@QBE_NABV012@@Z ; std::_Tree<std::_Tmap_traits<unsigned int,PimpShip::ITEM_INFO,std::less<unsigned int>,std::allocator<std::pair<unsigned int const ,PimpShip::ITEM_INFO> >,0> >::const_iterator::operator==
PUBLIC	?find@?$_Tree@V?$_Tmap_traits@IUITEM_INFO@PimpShip@@U?$less@I@std@@V?$allocator@U?$pair@$$CBIUITEM_INFO@PimpShip@@@std@@@4@$0A@@std@@@std@@QAE?AViterator@12@ABI@Z ; std::_Tree<std::_Tmap_traits<unsigned int,PimpShip::ITEM_INFO,std::less<unsigned int>,std::allocator<std::pair<unsigned int const ,PimpShip::ITEM_INFO> >,0> >::find
PUBLIC	??8const_iterator@?$_Tree@V?$_Tmap_traits@IUEQ_HARDPOINT@PimpShip@@U?$less@I@std@@V?$allocator@U?$pair@$$CBIUEQ_HARDPOINT@PimpShip@@@std@@@4@$0A@@std@@@std@@QBE_NABV012@@Z ; std::_Tree<std::_Tmap_traits<unsigned int,PimpShip::EQ_HARDPOINT,std::less<unsigned int>,std::allocator<std::pair<unsigned int const ,PimpShip::EQ_HARDPOINT> >,0> >::const_iterator::operator==
PUBLIC	?find@?$_Tree@V?$_Tmap_traits@IUEQ_HARDPOINT@PimpShip@@U?$less@I@std@@V?$allocator@U?$pair@$$CBIUEQ_HARDPOINT@PimpShip@@@std@@@4@$0A@@std@@@std@@QAE?AViterator@12@ABI@Z ; std::_Tree<std::_Tmap_traits<unsigned int,PimpShip::EQ_HARDPOINT,std::less<unsigned int>,std::allocator<std::pair<unsigned int const ,PimpShip::EQ_HARDPOINT> >,0> >::find
PUBLIC	?UserCmd_ChangeItem@PimpShip@@YA_NIABV?$basic_string@GU?$char_traits@G@std@@V?$allocator@G@2@@std@@0PBG@Z ; PimpShip::UserCmd_ChangeItem
EXTRN	__imp_?ToInt@@YAHABV?$basic_string@GU?$char_traits@G@std@@V?$allocator@G@2@@std@@@Z:PROC
EXTRN	__imp_?GetParam@@YA?AV?$basic_string@GU?$char_traits@G@std@@V?$allocator@G@2@@std@@ABV12@GI@Z:PROC
xdata$x	SEGMENT
__unwindtable$?UserCmd_ChangeItem@PimpShip@@YA_NIABV?$basic_string@GU?$char_traits@G@std@@V?$allocator@G@2@@std@@0PBG@Z DD 0ffffffffH
	DD	FLAT:__unwindfunclet$?UserCmd_ChangeItem@PimpShip@@YA_NIABV?$basic_string@GU?$char_traits@G@std@@V?$allocator@G@2@@std@@0PBG@Z$0
	DD	0ffffffffH
	DD	FLAT:__unwindfunclet$?UserCmd_ChangeItem@PimpShip@@YA_NIABV?$basic_string@GU?$char_traits@G@std@@V?$allocator@G@2@@std@@0PBG@Z$1
	DD	0ffffffffH
	DD	FLAT:__unwindfunclet$?UserCmd_ChangeItem@PimpShip@@YA_NIABV?$basic_string@GU?$char_traits@G@std@@V?$allocator@G@2@@std@@0PBG@Z$2
	DD	0ffffffffH
	DD	FLAT:__unwindfunclet$?UserCmd_ChangeItem@PimpShip@@YA_NIABV?$basic_string@GU?$char_traits@G@std@@V?$allocator@G@2@@std@@0PBG@Z$3
__ehfuncinfo$?UserCmd_ChangeItem@PimpShip@@YA_NIABV?$basic_string@GU?$char_traits@G@std@@V?$allocator@G@2@@std@@0PBG@Z DD 019930522H
	DD	04H
	DD	FLAT:__unwindtable$?UserCmd_ChangeItem@PimpShip@@YA_NIABV?$basic_string@GU?$char_traits@G@std@@V?$allocator@G@2@@std@@0PBG@Z
	DD	2 DUP(00H)
	DD	2 DUP(00H)
	DD	00H
	DD	00H
; Function compile flags: /Odtp
xdata$x	ENDS
_TEXT	SEGMENT
tv236 = -164						; size = 4
tv240 = -160						; size = 4
tv234 = -156						; size = 4
tv239 = -152						; size = 4
tv232 = -148						; size = 4
tv238 = -144						; size = 4
tv230 = -140						; size = 4
tv237 = -136						; size = 4
$T150951 = -132						; size = 4
$T150950 = -128						; size = 4
$T150949 = -124						; size = 4
$T150948 = -120						; size = 8
$T150947 = -112						; size = 8
$T150946 = -104						; size = 4
$T150945 = -100						; size = 4
$T150944 = -96						; size = 8
$T150943 = -88						; size = 8
$T150942 = -80						; size = 4
$T150941 = -76						; size = 28
$T150940 = -48						; size = 28
_iHardPointID$ = -20					; size = 4
_iSelectedItemID$ = -16					; size = 4
__$EHRec$ = -12						; size = 12
_iClientID$ = 8						; size = 4
_wscCmd$ = 12						; size = 4
_wscParam$ = 16						; size = 4
_usage$ = 20						; size = 4
?UserCmd_ChangeItem@PimpShip@@YA_NIABV?$basic_string@GU?$char_traits@G@std@@V?$allocator@G@2@@std@@0PBG@Z PROC ; PimpShip::UserCmd_ChangeItem
; Line 285
	push	ebp
	mov	ebp, esp
	push	-1
	push	__ehhandler$?UserCmd_ChangeItem@PimpShip@@YA_NIABV?$basic_string@GU?$char_traits@G@std@@V?$allocator@G@2@@std@@0PBG@Z
	mov	eax, DWORD PTR fs:0
	push	eax
	sub	esp, 152				; 00000098H
	push	esi
	mov	eax, DWORD PTR ___security_cookie
	xor	eax, ebp
	push	eax
	lea	eax, DWORD PTR __$EHRec$[ebp]
	mov	DWORD PTR fs:0, eax
; Line 286
	lea	eax, DWORD PTR _iClientID$[ebp]
	push	eax
	mov	ecx, OFFSET _mapInfo
	call	??A?$map@IUINFO@PimpShip@@U?$less@I@std@@V?$allocator@U?$pair@$$CBIUINFO@PimpShip@@@std@@@4@@std@@QAEAAUINFO@PimpShip@@ABI@Z ; std::map<unsigned int,PimpShip::INFO,std::less<unsigned int>,std::allocator<std::pair<unsigned int const ,PimpShip::INFO> > >::operator[]
	movzx	ecx, BYTE PTR [eax+32]
	test	ecx, ecx
	je	SHORT $LN3@UserCmd_Ch
	movzx	edx, BYTE PTR ?set_bEnablePimpShip@@3_NA ; set_bEnablePimpShip
	test	edx, edx
	jne	SHORT $LN4@UserCmd_Ch
$LN3@UserCmd_Ch:
; Line 287
	xor	al, al
	jmp	$LN5@UserCmd_Ch
$LN4@UserCmd_Ch:
; Line 289
	push	0
	push	32					; 00000020H
	mov	eax, DWORD PTR _wscParam$[ebp]
	push	eax
	lea	ecx, DWORD PTR $T150940[ebp]
	push	ecx
	call	DWORD PTR __imp_?GetParam@@YA?AV?$basic_string@GU?$char_traits@G@std@@V?$allocator@G@2@@std@@ABV12@GI@Z
	add	esp, 16					; 00000010H
	mov	DWORD PTR tv237[ebp], eax
	mov	edx, DWORD PTR tv237[ebp]
	mov	DWORD PTR tv230[ebp], edx
	mov	DWORD PTR __$EHRec$[ebp+8], 0
	mov	eax, DWORD PTR tv230[ebp]
	push	eax
	call	DWORD PTR __imp_?ToInt@@YAHABV?$basic_string@GU?$char_traits@G@std@@V?$allocator@G@2@@std@@@Z
	add	esp, 4
	mov	DWORD PTR _iHardPointID$[ebp], eax
	mov	DWORD PTR __$EHRec$[ebp+8], -1
	lea	ecx, DWORD PTR $T150940[ebp]
	call	DWORD PTR __imp_??1?$basic_string@GU?$char_traits@G@std@@V?$allocator@G@2@@std@@QAE@XZ
; Line 290
	push	1
	push	32					; 00000020H
	mov	ecx, DWORD PTR _wscParam$[ebp]
	push	ecx
	lea	edx, DWORD PTR $T150941[ebp]
	push	edx
	call	DWORD PTR __imp_?GetParam@@YA?AV?$basic_string@GU?$char_traits@G@std@@V?$allocator@G@2@@std@@ABV12@GI@Z
	add	esp, 16					; 00000010H
	mov	DWORD PTR tv238[ebp], eax
	mov	eax, DWORD PTR tv238[ebp]
	mov	DWORD PTR tv232[ebp], eax
	mov	DWORD PTR __$EHRec$[ebp+8], 1
	mov	ecx, DWORD PTR tv232[ebp]
	push	ecx
	call	DWORD PTR __imp_?ToInt@@YAHABV?$basic_string@GU?$char_traits@G@std@@V?$allocator@G@2@@std@@@Z
	add	esp, 4
	mov	DWORD PTR _iSelectedItemID$[ebp], eax
	mov	DWORD PTR __$EHRec$[ebp+8], -1
	lea	ecx, DWORD PTR $T150941[ebp]
	call	DWORD PTR __imp_??1?$basic_string@GU?$char_traits@G@std@@V?$allocator@G@2@@std@@QAE@XZ
; Line 293
	mov	edx, DWORD PTR _iHardPointID$[ebp]
	mov	DWORD PTR $T150942[ebp], edx
	lea	eax, DWORD PTR $T150944[ebp]
	push	eax
	lea	ecx, DWORD PTR _iClientID$[ebp]
	push	ecx
	mov	ecx, OFFSET _mapInfo
	call	??A?$map@IUINFO@PimpShip@@U?$less@I@std@@V?$allocator@U?$pair@$$CBIUINFO@PimpShip@@@std@@@4@@std@@QAEAAUINFO@PimpShip@@ABI@Z ; std::map<unsigned int,PimpShip::INFO,std::less<unsigned int>,std::allocator<std::pair<unsigned int const ,PimpShip::INFO> > >::operator[]
	mov	ecx, eax
	call	?end@?$_Tree@V?$_Tmap_traits@IUEQ_HARDPOINT@PimpShip@@U?$less@I@std@@V?$allocator@U?$pair@$$CBIUEQ_HARDPOINT@PimpShip@@@std@@@4@$0A@@std@@@std@@QAE?AViterator@12@XZ ; std::_Tree<std::_Tmap_traits<unsigned int,PimpShip::EQ_HARDPOINT,std::less<unsigned int>,std::allocator<std::pair<unsigned int const ,PimpShip::EQ_HARDPOINT> >,0> >::end
	push	eax
	lea	edx, DWORD PTR $T150942[ebp]
	push	edx
	lea	eax, DWORD PTR $T150943[ebp]
	push	eax
	lea	ecx, DWORD PTR _iClientID$[ebp]
	push	ecx
	mov	ecx, OFFSET _mapInfo
	call	??A?$map@IUINFO@PimpShip@@U?$less@I@std@@V?$allocator@U?$pair@$$CBIUINFO@PimpShip@@@std@@@4@@std@@QAEAAUINFO@PimpShip@@ABI@Z ; std::map<unsigned int,PimpShip::INFO,std::less<unsigned int>,std::allocator<std::pair<unsigned int const ,PimpShip::INFO> > >::operator[]
	mov	ecx, eax
	call	?find@?$_Tree@V?$_Tmap_traits@IUEQ_HARDPOINT@PimpShip@@U?$less@I@std@@V?$allocator@U?$pair@$$CBIUEQ_HARDPOINT@PimpShip@@@std@@@4@$0A@@std@@@std@@QAE?AViterator@12@ABI@Z ; std::_Tree<std::_Tmap_traits<unsigned int,PimpShip::EQ_HARDPOINT,std::less<unsigned int>,std::allocator<std::pair<unsigned int const ,PimpShip::EQ_HARDPOINT> >,0> >::find
	mov	ecx, eax
	call	??8const_iterator@?$_Tree@V?$_Tmap_traits@IUEQ_HARDPOINT@PimpShip@@U?$less@I@std@@V?$allocator@U?$pair@$$CBIUEQ_HARDPOINT@PimpShip@@@std@@@4@$0A@@std@@@std@@QBE_NABV012@@Z ; std::_Tree<std::_Tmap_traits<unsigned int,PimpShip::EQ_HARDPOINT,std::less<unsigned int>,std::allocator<std::pair<unsigned int const ,PimpShip::EQ_HARDPOINT> >,0> >::const_iterator::operator==
	movzx	edx, al
	test	edx, edx
	je	SHORT $LN2@UserCmd_Ch
; Line 295
	sub	esp, 28					; 0000001cH
	mov	ecx, esp
	mov	DWORD PTR $T150945[ebp], esp
	push	OFFSET $SG143287
	call	DWORD PTR __imp_??0?$basic_string@GU?$char_traits@G@std@@V?$allocator@G@2@@std@@QAE@PBG@Z
	mov	DWORD PTR tv239[ebp], eax
	mov	eax, DWORD PTR tv239[ebp]
	mov	DWORD PTR tv234[ebp], eax
	mov	DWORD PTR __$EHRec$[ebp+8], 2
	mov	ecx, DWORD PTR _iClientID$[ebp]
	push	ecx
	mov	DWORD PTR __$EHRec$[ebp+8], -1
	call	DWORD PTR __imp_?PrintUserCmdText@@YAXIV?$basic_string@GU?$char_traits@G@std@@V?$allocator@G@2@@std@@ZZ
	add	esp, 32					; 00000020H
; Line 296
	mov	al, 1
	jmp	$LN5@UserCmd_Ch
$LN2@UserCmd_Ch:
; Line 299
	mov	edx, DWORD PTR _iSelectedItemID$[ebp]
	mov	DWORD PTR $T150946[ebp], edx
	lea	eax, DWORD PTR $T150948[ebp]
	push	eax
	mov	ecx, OFFSET ?mapAvailableItems@PimpShip@@3V?$map@IUITEM_INFO@PimpShip@@U?$less@I@std@@V?$allocator@U?$pair@$$CBIUITEM_INFO@PimpShip@@@std@@@4@@std@@A ; PimpShip::mapAvailableItems
	call	?end@?$_Tree@V?$_Tmap_traits@IUITEM_INFO@PimpShip@@U?$less@I@std@@V?$allocator@U?$pair@$$CBIUITEM_INFO@PimpShip@@@std@@@4@$0A@@std@@@std@@QAE?AViterator@12@XZ ; std::_Tree<std::_Tmap_traits<unsigned int,PimpShip::ITEM_INFO,std::less<unsigned int>,std::allocator<std::pair<unsigned int const ,PimpShip::ITEM_INFO> >,0> >::end
	push	eax
	lea	ecx, DWORD PTR $T150946[ebp]
	push	ecx
	lea	edx, DWORD PTR $T150947[ebp]
	push	edx
	mov	ecx, OFFSET ?mapAvailableItems@PimpShip@@3V?$map@IUITEM_INFO@PimpShip@@U?$less@I@std@@V?$allocator@U?$pair@$$CBIUITEM_INFO@PimpShip@@@std@@@4@@std@@A ; PimpShip::mapAvailableItems
	call	?find@?$_Tree@V?$_Tmap_traits@IUITEM_INFO@PimpShip@@U?$less@I@std@@V?$allocator@U?$pair@$$CBIUITEM_INFO@PimpShip@@@std@@@4@$0A@@std@@@std@@QAE?AViterator@12@ABI@Z ; std::_Tree<std::_Tmap_traits<unsigned int,PimpShip::ITEM_INFO,std::less<unsigned int>,std::allocator<std::pair<unsigned int const ,PimpShip::ITEM_INFO> >,0> >::find
	mov	ecx, eax
	call	??8const_iterator@?$_Tree@V?$_Tmap_traits@IUITEM_INFO@PimpShip@@U?$less@I@std@@V?$allocator@U?$pair@$$CBIUITEM_INFO@PimpShip@@@std@@@4@$0A@@std@@@std@@QBE_NABV012@@Z ; std::_Tree<std::_Tmap_traits<unsigned int,PimpShip::ITEM_INFO,std::less<unsigned int>,std::allocator<std::pair<unsigned int const ,PimpShip::ITEM_INFO> >,0> >::const_iterator::operator==
	movzx	eax, al
	test	eax, eax
	je	SHORT $LN1@UserCmd_Ch
; Line 301
	sub	esp, 28					; 0000001cH
	mov	ecx, esp
	mov	DWORD PTR $T150949[ebp], esp
	push	OFFSET $SG143293
	call	DWORD PTR __imp_??0?$basic_string@GU?$char_traits@G@std@@V?$allocator@G@2@@std@@QAE@PBG@Z
	mov	DWORD PTR tv240[ebp], eax
	mov	ecx, DWORD PTR tv240[ebp]
	mov	DWORD PTR tv236[ebp], ecx
	mov	DWORD PTR __$EHRec$[ebp+8], 3
	mov	edx, DWORD PTR _iClientID$[ebp]
	push	edx
	mov	DWORD PTR __$EHRec$[ebp+8], -1
	call	DWORD PTR __imp_?PrintUserCmdText@@YAXIV?$basic_string@GU?$char_traits@G@std@@V?$allocator@G@2@@std@@ZZ
	add	esp, 32					; 00000020H
; Line 302
	mov	al, 1
	jmp	SHORT $LN5@UserCmd_Ch
$LN1@UserCmd_Ch:
; Line 305
	mov	eax, DWORD PTR _iSelectedItemID$[ebp]
	mov	DWORD PTR $T150951[ebp], eax
	mov	ecx, DWORD PTR _iHardPointID$[ebp]
	mov	DWORD PTR $T150950[ebp], ecx
	lea	edx, DWORD PTR $T150951[ebp]
	push	edx
	mov	ecx, OFFSET ?mapAvailableItems@PimpShip@@3V?$map@IUITEM_INFO@PimpShip@@U?$less@I@std@@V?$allocator@U?$pair@$$CBIUITEM_INFO@PimpShip@@@std@@@4@@std@@A ; PimpShip::mapAvailableItems
	call	??A?$map@IUITEM_INFO@PimpShip@@U?$less@I@std@@V?$allocator@U?$pair@$$CBIUITEM_INFO@PimpShip@@@std@@@4@@std@@QAEAAUITEM_INFO@PimpShip@@ABI@Z ; std::map<unsigned int,PimpShip::ITEM_INFO,std::less<unsigned int>,std::allocator<std::pair<unsigned int const ,PimpShip::ITEM_INFO> > >::operator[]
	mov	esi, eax
	lea	eax, DWORD PTR $T150950[ebp]
	push	eax
	lea	ecx, DWORD PTR _iClientID$[ebp]
	push	ecx
	mov	ecx, OFFSET _mapInfo
	call	??A?$map@IUINFO@PimpShip@@U?$less@I@std@@V?$allocator@U?$pair@$$CBIUINFO@PimpShip@@@std@@@4@@std@@QAEAAUINFO@PimpShip@@ABI@Z ; std::map<unsigned int,PimpShip::INFO,std::less<unsigned int>,std::allocator<std::pair<unsigned int const ,PimpShip::INFO> > >::operator[]
	mov	ecx, eax
	call	??A?$map@IUEQ_HARDPOINT@PimpShip@@U?$less@I@std@@V?$allocator@U?$pair@$$CBIUEQ_HARDPOINT@PimpShip@@@std@@@4@@std@@QAEAAUEQ_HARDPOINT@PimpShip@@ABI@Z ; std::map<unsigned int,PimpShip::EQ_HARDPOINT,std::less<unsigned int>,std::allocator<std::pair<unsigned int const ,PimpShip::EQ_HARDPOINT> > >::operator[]
	mov	edx, DWORD PTR [esi]
	mov	DWORD PTR [eax+4], edx
; Line 306
	mov	eax, DWORD PTR _usage$[ebp]
	push	eax
	mov	ecx, DWORD PTR _wscParam$[ebp]
	push	ecx
	mov	edx, DWORD PTR _wscCmd$[ebp]
	push	edx
	mov	eax, DWORD PTR _iClientID$[ebp]
	push	eax
	call	?UserCmd_ShowSetup@PimpShip@@YA_NIABV?$basic_string@GU?$char_traits@G@std@@V?$allocator@G@2@@std@@0PBG@Z ; PimpShip::UserCmd_ShowSetup
	add	esp, 16					; 00000010H
$LN5@UserCmd_Ch:
; Line 307
	mov	ecx, DWORD PTR __$EHRec$[ebp]
	mov	DWORD PTR fs:0, ecx
	pop	ecx
	pop	esi
	mov	esp, ebp
	pop	ebp
	ret	0
_TEXT	ENDS
text$x	SEGMENT
__unwindfunclet$?UserCmd_ChangeItem@PimpShip@@YA_NIABV?$basic_string@GU?$char_traits@G@std@@V?$allocator@G@2@@std@@0PBG@Z$0:
	lea	ecx, DWORD PTR $T150940[ebp]
	jmp	DWORD PTR __imp_??1?$basic_string@GU?$char_traits@G@std@@V?$allocator@G@2@@std@@QAE@XZ
__unwindfunclet$?UserCmd_ChangeItem@PimpShip@@YA_NIABV?$basic_string@GU?$char_traits@G@std@@V?$allocator@G@2@@std@@0PBG@Z$1:
	lea	ecx, DWORD PTR $T150941[ebp]
	jmp	DWORD PTR __imp_??1?$basic_string@GU?$char_traits@G@std@@V?$allocator@G@2@@std@@QAE@XZ
__unwindfunclet$?UserCmd_ChangeItem@PimpShip@@YA_NIABV?$basic_string@GU?$char_traits@G@std@@V?$allocator@G@2@@std@@0PBG@Z$2:
	mov	ecx, DWORD PTR $T150945[ebp]
	jmp	DWORD PTR __imp_??1?$basic_string@GU?$char_traits@G@std@@V?$allocator@G@2@@std@@QAE@XZ
__unwindfunclet$?UserCmd_ChangeItem@PimpShip@@YA_NIABV?$basic_string@GU?$char_traits@G@std@@V?$allocator@G@2@@std@@0PBG@Z$3:
	mov	ecx, DWORD PTR $T150949[ebp]
	jmp	DWORD PTR __imp_??1?$basic_string@GU?$char_traits@G@std@@V?$allocator@G@2@@std@@QAE@XZ
__ehhandler$?UserCmd_ChangeItem@PimpShip@@YA_NIABV?$basic_string@GU?$char_traits@G@std@@V?$allocator@G@2@@std@@0PBG@Z:
	mov	edx, DWORD PTR [esp+8]
	lea	eax, DWORD PTR [edx+12]
	mov	ecx, DWORD PTR [edx-160]
	xor	ecx, eax
	call	@__security_check_cookie@4
	mov	eax, OFFSET __ehfuncinfo$?UserCmd_ChangeItem@PimpShip@@YA_NIABV?$basic_string@GU?$char_traits@G@std@@V?$allocator@G@2@@std@@0PBG@Z
	jmp	___CxxFrameHandler3
text$x	ENDS
?UserCmd_ChangeItem@PimpShip@@YA_NIABV?$basic_string@GU?$char_traits@G@std@@V?$allocator@G@2@@std@@0PBG@Z ENDP ; PimpShip::UserCmd_ChangeItem
PUBLIC	??Eiterator@?$_Tree@V?$_Tmap_traits@IUEQ_HARDPOINT@PimpShip@@U?$less@I@std@@V?$allocator@U?$pair@$$CBIUEQ_HARDPOINT@PimpShip@@@std@@@4@$0A@@std@@@std@@QAEAAV012@XZ ; std::_Tree<std::_Tmap_traits<unsigned int,PimpShip::EQ_HARDPOINT,std::less<unsigned int>,std::allocator<std::pair<unsigned int const ,PimpShip::EQ_HARDPOINT> >,0> >::iterator::operator++
PUBLIC	__$ArrayPad$
PUBLIC	?UserCmd_BuyNow@PimpShip@@YA_NIABV?$basic_string@GU?$char_traits@G@std@@V?$allocator@G@2@@std@@0PBG@Z ; PimpShip::UserCmd_BuyNow
EXTRN	?HkDelayedKick@@YAXII@Z:PROC			; HkDelayedKick
EXTRN	?HkAddEquip@@YA?AW4HK_ERROR@@ABV?$basic_string@GU?$char_traits@G@std@@V?$allocator@G@2@@std@@IABV?$basic_string@DU?$char_traits@D@std@@V?$allocator@D@2@@3@@Z:PROC ; HkAddEquip
EXTRN	__imp_?wstos@@YA?AV?$basic_string@DU?$char_traits@D@std@@V?$allocator@D@2@@std@@ABV?$basic_string@GU?$char_traits@G@std@@V?$allocator@G@2@@2@@Z:PROC
EXTRN	__imp_?RemoveCargo@Player@pub@@YAHABIGI@Z:PROC
EXTRN	__imp_?HkAddCash@@YA?AW4HK_ERROR@@ABV?$basic_string@GU?$char_traits@G@std@@V?$allocator@G@2@@std@@H@Z:PROC
EXTRN	__imp_?HkErrGetText@@YA?AV?$basic_string@GU?$char_traits@G@std@@V?$allocator@G@2@@std@@W4HK_ERROR@@@Z:PROC
EXTRN	__imp_?HkGetCash@@YA?AW4HK_ERROR@@ABV?$basic_string@GU?$char_traits@G@std@@V?$allocator@G@2@@std@@AAH@Z:PROC
xdata$x	SEGMENT
__ehfuncinfo$?UserCmd_BuyNow@PimpShip@@YA_NIABV?$basic_string@GU?$char_traits@G@std@@V?$allocator@G@2@@std@@0PBG@Z DD 019930522H
	DD	06H
	DD	FLAT:__unwindtable$?UserCmd_BuyNow@PimpShip@@YA_NIABV?$basic_string@GU?$char_traits@G@std@@V?$allocator@G@2@@std@@0PBG@Z
	DD	2 DUP(00H)
	DD	2 DUP(00H)
	DD	00H
	DD	00H
__unwindtable$?UserCmd_BuyNow@PimpShip@@YA_NIABV?$basic_string@GU?$char_traits@G@std@@V?$allocator@G@2@@std@@0PBG@Z DD 0ffffffffH
	DD	FLAT:__unwindfunclet$?UserCmd_BuyNow@PimpShip@@YA_NIABV?$basic_string@GU?$char_traits@G@std@@V?$allocator@G@2@@std@@0PBG@Z$0
	DD	00H
	DD	FLAT:__unwindfunclet$?UserCmd_BuyNow@PimpShip@@YA_NIABV?$basic_string@GU?$char_traits@G@std@@V?$allocator@G@2@@std@@0PBG@Z$1
	DD	01H
	DD	FLAT:__unwindfunclet$?UserCmd_BuyNow@PimpShip@@YA_NIABV?$basic_string@GU?$char_traits@G@std@@V?$allocator@G@2@@std@@0PBG@Z$2
	DD	00H
	DD	FLAT:__unwindfunclet$?UserCmd_BuyNow@PimpShip@@YA_NIABV?$basic_string@GU?$char_traits@G@std@@V?$allocator@G@2@@std@@0PBG@Z$3
	DD	00H
	DD	FLAT:__unwindfunclet$?UserCmd_BuyNow@PimpShip@@YA_NIABV?$basic_string@GU?$char_traits@G@std@@V?$allocator@G@2@@std@@0PBG@Z$4
	DD	00H
	DD	FLAT:__unwindfunclet$?UserCmd_BuyNow@PimpShip@@YA_NIABV?$basic_string@GU?$char_traits@G@std@@V?$allocator@G@2@@std@@0PBG@Z$5
; Function compile flags: /Odtp
xdata$x	ENDS
_TEXT	SEGMENT
tv277 = -208						; size = 4
tv284 = -204						; size = 4
tv275 = -200						; size = 4
tv283 = -196						; size = 4
tv272 = -192						; size = 4
tv281 = -188						; size = 4
tv269 = -184						; size = 4
tv279 = -180						; size = 4
tv266 = -176						; size = 4
tv65 = -172						; size = 4
$T150972 = -165						; size = 1
$T150971 = -164						; size = 4
$T150970 = -160						; size = 28
$T150969 = -132						; size = 8
$T150968 = -124						; size = 8
$T150967 = -113						; size = 1
$T150966 = -112						; size = 4
$T150965 = -105						; size = 1
$T150964 = -104						; size = 4
$T150963 = -100						; size = 28
$T150962 = -69						; size = 1
_i$143350 = -68						; size = 8
_i$143331 = -60						; size = 8
_iCash$143308 = -52					; size = 4
_err$ = -48						; size = 4
_wscCharName$ = -44					; size = 28
__$ArrayPad$ = -16					; size = 4
__$EHRec$ = -12						; size = 12
_iClientID$ = 8						; size = 4
_wscCmd$ = 12						; size = 4
_wscParam$ = 16						; size = 4
_usage$ = 20						; size = 4
?UserCmd_BuyNow@PimpShip@@YA_NIABV?$basic_string@GU?$char_traits@G@std@@V?$allocator@G@2@@std@@0PBG@Z PROC ; PimpShip::UserCmd_BuyNow
; Line 310
	push	ebp
	mov	ebp, esp
	push	-1
	push	__ehhandler$?UserCmd_BuyNow@PimpShip@@YA_NIABV?$basic_string@GU?$char_traits@G@std@@V?$allocator@G@2@@std@@0PBG@Z
	mov	eax, DWORD PTR fs:0
	push	eax
	sub	esp, 196				; 000000c4H
	mov	eax, DWORD PTR ___security_cookie
	xor	eax, ebp
	mov	DWORD PTR __$ArrayPad$[ebp], eax
	push	eax
	lea	eax, DWORD PTR __$EHRec$[ebp]
	mov	DWORD PTR fs:0, eax
; Line 313
	mov	eax, DWORD PTR _iClientID$[ebp]
	push	eax
	mov	ecx, DWORD PTR __imp_?Players@@3VPlayerDB@@A
	call	DWORD PTR __imp_?GetActiveCharacterName@PlayerDB@@QBEPBGI@Z
	push	eax
	lea	ecx, DWORD PTR _wscCharName$[ebp]
	call	DWORD PTR __imp_??0?$basic_string@GU?$char_traits@G@std@@V?$allocator@G@2@@std@@QAE@PBG@Z
	mov	DWORD PTR __$EHRec$[ebp+8], 0
; Line 316
	lea	ecx, DWORD PTR _iClientID$[ebp]
	push	ecx
	mov	ecx, OFFSET _mapInfo
	call	??A?$map@IUINFO@PimpShip@@U?$less@I@std@@V?$allocator@U?$pair@$$CBIUINFO@PimpShip@@@std@@@4@@std@@QAEAAUINFO@PimpShip@@ABI@Z ; std::map<unsigned int,PimpShip::INFO,std::less<unsigned int>,std::allocator<std::pair<unsigned int const ,PimpShip::INFO> > >::operator[]
	movzx	edx, BYTE PTR [eax+32]
	test	edx, edx
	jne	SHORT $LN10@UserCmd_Bu
; Line 317
	mov	BYTE PTR $T150962[ebp], 0
	mov	DWORD PTR __$EHRec$[ebp+8], -1
	lea	ecx, DWORD PTR _wscCharName$[ebp]
	call	DWORD PTR __imp_??1?$basic_string@GU?$char_traits@G@std@@V?$allocator@G@2@@std@@QAE@XZ
	mov	al, BYTE PTR $T150962[ebp]
	jmp	$LN11@UserCmd_Bu
$LN10@UserCmd_Bu:
; Line 320
	cmp	DWORD PTR _set_iCost, 0
	jle	$LN9@UserCmd_Bu
; Line 322
	mov	DWORD PTR _iCash$143308[ebp], 0
; Line 323
	lea	eax, DWORD PTR _iCash$143308[ebp]
	push	eax
	lea	ecx, DWORD PTR _wscCharName$[ebp]
	push	ecx
	call	DWORD PTR __imp_?HkGetCash@@YA?AW4HK_ERROR@@ABV?$basic_string@GU?$char_traits@G@std@@V?$allocator@G@2@@std@@AAH@Z
	add	esp, 8
	mov	DWORD PTR _err$[ebp], eax
	cmp	DWORD PTR _err$[ebp], 0
	je	$LN8@UserCmd_Bu
; Line 325
	mov	edx, DWORD PTR _err$[ebp]
	push	edx
	lea	eax, DWORD PTR $T150963[ebp]
	push	eax
	call	DWORD PTR __imp_?HkErrGetText@@YA?AV?$basic_string@GU?$char_traits@G@std@@V?$allocator@G@2@@std@@W4HK_ERROR@@@Z
	add	esp, 8
	mov	DWORD PTR tv65[ebp], eax
	mov	ecx, DWORD PTR tv65[ebp]
	mov	DWORD PTR tv266[ebp], ecx
	mov	BYTE PTR __$EHRec$[ebp+8], 1
	mov	ecx, DWORD PTR tv266[ebp]
	call	DWORD PTR __imp_?c_str@?$basic_string@GU?$char_traits@G@std@@V?$allocator@G@2@@std@@QBEPBGXZ
	push	eax
	sub	esp, 28					; 0000001cH
	mov	ecx, esp
	mov	DWORD PTR $T150964[ebp], esp
	push	OFFSET $SG143312
	call	DWORD PTR __imp_??0?$basic_string@GU?$char_traits@G@std@@V?$allocator@G@2@@std@@QAE@PBG@Z
	mov	DWORD PTR tv279[ebp], eax
	mov	edx, DWORD PTR tv279[ebp]
	mov	DWORD PTR tv269[ebp], edx
	mov	BYTE PTR __$EHRec$[ebp+8], 2
	mov	eax, DWORD PTR _iClientID$[ebp]
	push	eax
	mov	BYTE PTR __$EHRec$[ebp+8], 1
	call	DWORD PTR __imp_?PrintUserCmdText@@YAXIV?$basic_string@GU?$char_traits@G@std@@V?$allocator@G@2@@std@@ZZ
	add	esp, 36					; 00000024H
	mov	BYTE PTR __$EHRec$[ebp+8], 0
	lea	ecx, DWORD PTR $T150963[ebp]
	call	DWORD PTR __imp_??1?$basic_string@GU?$char_traits@G@std@@V?$allocator@G@2@@std@@QAE@XZ
; Line 326
	mov	BYTE PTR $T150965[ebp], 1
	mov	DWORD PTR __$EHRec$[ebp+8], -1
	lea	ecx, DWORD PTR _wscCharName$[ebp]
	call	DWORD PTR __imp_??1?$basic_string@GU?$char_traits@G@std@@V?$allocator@G@2@@std@@QAE@XZ
	mov	al, BYTE PTR $T150965[ebp]
	jmp	$LN11@UserCmd_Bu
$LN8@UserCmd_Bu:
; Line 328
	cmp	DWORD PTR _iCash$143308[ebp], 0
	jge	SHORT $LN7@UserCmd_Bu
	mov	ecx, DWORD PTR _iCash$143308[ebp]
	cmp	ecx, DWORD PTR _set_iCost
	jge	SHORT $LN7@UserCmd_Bu
; Line 330
	sub	esp, 28					; 0000001cH
	mov	ecx, esp
	mov	DWORD PTR $T150966[ebp], esp
	push	OFFSET $SG143316
	call	DWORD PTR __imp_??0?$basic_string@GU?$char_traits@G@std@@V?$allocator@G@2@@std@@QAE@PBG@Z
	mov	DWORD PTR tv281[ebp], eax
	mov	edx, DWORD PTR tv281[ebp]
	mov	DWORD PTR tv272[ebp], edx
	mov	BYTE PTR __$EHRec$[ebp+8], 3
	mov	eax, DWORD PTR _iClientID$[ebp]
	push	eax
	mov	BYTE PTR __$EHRec$[ebp+8], 0
	call	DWORD PTR __imp_?PrintUserCmdText@@YAXIV?$basic_string@GU?$char_traits@G@std@@V?$allocator@G@2@@std@@ZZ
	add	esp, 32					; 00000020H
; Line 331
	mov	BYTE PTR $T150967[ebp], 1
	mov	DWORD PTR __$EHRec$[ebp+8], -1
	lea	ecx, DWORD PTR _wscCharName$[ebp]
	call	DWORD PTR __imp_??1?$basic_string@GU?$char_traits@G@std@@V?$allocator@G@2@@std@@QAE@XZ
	mov	al, BYTE PTR $T150967[ebp]
	jmp	$LN11@UserCmd_Bu
$LN7@UserCmd_Bu:
; Line 333
	xor	ecx, ecx
	sub	ecx, DWORD PTR _set_iCost
	push	ecx
	lea	edx, DWORD PTR _wscCharName$[ebp]
	push	edx
	call	DWORD PTR __imp_?HkAddCash@@YA?AW4HK_ERROR@@ABV?$basic_string@GU?$char_traits@G@std@@V?$allocator@G@2@@std@@H@Z
	add	esp, 8
$LN9@UserCmd_Bu:
; Line 337
	lea	eax, DWORD PTR _i$143331[ebp]
	push	eax
	lea	ecx, DWORD PTR _iClientID$[ebp]
	push	ecx
	mov	ecx, OFFSET _mapInfo
	call	??A?$map@IUINFO@PimpShip@@U?$less@I@std@@V?$allocator@U?$pair@$$CBIUINFO@PimpShip@@@std@@@4@@std@@QAEAAUINFO@PimpShip@@ABI@Z ; std::map<unsigned int,PimpShip::INFO,std::less<unsigned int>,std::allocator<std::pair<unsigned int const ,PimpShip::INFO> > >::operator[]
	mov	ecx, eax
	call	?begin@?$_Tree@V?$_Tmap_traits@IUEQ_HARDPOINT@PimpShip@@U?$less@I@std@@V?$allocator@U?$pair@$$CBIUEQ_HARDPOINT@PimpShip@@@std@@@4@$0A@@std@@@std@@QAE?AViterator@12@XZ ; std::_Tree<std::_Tmap_traits<unsigned int,PimpShip::EQ_HARDPOINT,std::less<unsigned int>,std::allocator<std::pair<unsigned int const ,PimpShip::EQ_HARDPOINT> >,0> >::begin
	jmp	SHORT $LN6@UserCmd_Bu
$LN5@UserCmd_Bu:
; Line 338
	lea	ecx, DWORD PTR _i$143331[ebp]
	call	??Eiterator@?$_Tree@V?$_Tmap_traits@IUEQ_HARDPOINT@PimpShip@@U?$less@I@std@@V?$allocator@U?$pair@$$CBIUEQ_HARDPOINT@PimpShip@@@std@@@4@$0A@@std@@@std@@QAEAAV012@XZ ; std::_Tree<std::_Tmap_traits<unsigned int,PimpShip::EQ_HARDPOINT,std::less<unsigned int>,std::allocator<std::pair<unsigned int const ,PimpShip::EQ_HARDPOINT> >,0> >::iterator::operator++
$LN6@UserCmd_Bu:
	lea	edx, DWORD PTR $T150968[ebp]
	push	edx
	lea	eax, DWORD PTR _iClientID$[ebp]
	push	eax
	mov	ecx, OFFSET _mapInfo
	call	??A?$map@IUINFO@PimpShip@@U?$less@I@std@@V?$allocator@U?$pair@$$CBIUINFO@PimpShip@@@std@@@4@@std@@QAEAAUINFO@PimpShip@@ABI@Z ; std::map<unsigned int,PimpShip::INFO,std::less<unsigned int>,std::allocator<std::pair<unsigned int const ,PimpShip::INFO> > >::operator[]
	mov	ecx, eax
	call	?end@?$_Tree@V?$_Tmap_traits@IUEQ_HARDPOINT@PimpShip@@U?$less@I@std@@V?$allocator@U?$pair@$$CBIUEQ_HARDPOINT@PimpShip@@@std@@@4@$0A@@std@@@std@@QAE?AViterator@12@XZ ; std::_Tree<std::_Tmap_traits<unsigned int,PimpShip::EQ_HARDPOINT,std::less<unsigned int>,std::allocator<std::pair<unsigned int const ,PimpShip::EQ_HARDPOINT> >,0> >::end
	push	eax
	lea	ecx, DWORD PTR _i$143331[ebp]
	call	??9const_iterator@?$_Tree@V?$_Tmap_traits@IUEQ_HARDPOINT@PimpShip@@U?$less@I@std@@V?$allocator@U?$pair@$$CBIUEQ_HARDPOINT@PimpShip@@@std@@@4@$0A@@std@@@std@@QBE_NABV012@@Z ; std::_Tree<std::_Tmap_traits<unsigned int,PimpShip::EQ_HARDPOINT,std::less<unsigned int>,std::allocator<std::pair<unsigned int const ,PimpShip::EQ_HARDPOINT> >,0> >::const_iterator::operator!=
	movzx	ecx, al
	test	ecx, ecx
	je	SHORT $LN4@UserCmd_Bu
; Line 340
	push	1
	lea	ecx, DWORD PTR _i$143331[ebp]
	call	??Citerator@?$_Tree@V?$_Tmap_traits@IUEQ_HARDPOINT@PimpShip@@U?$less@I@std@@V?$allocator@U?$pair@$$CBIUEQ_HARDPOINT@PimpShip@@@std@@@4@$0A@@std@@@std@@QBEPAU?$pair@$$CBIUEQ_HARDPOINT@PimpShip@@@2@XZ ; std::_Tree<std::_Tmap_traits<unsigned int,PimpShip::EQ_HARDPOINT,std::less<unsigned int>,std::allocator<std::pair<unsigned int const ,PimpShip::EQ_HARDPOINT> >,0> >::iterator::operator->
	movzx	edx, WORD PTR [eax+4]
	push	edx
	lea	eax, DWORD PTR _iClientID$[ebp]
	push	eax
	call	DWORD PTR __imp_?RemoveCargo@Player@pub@@YAHABIGI@Z
	add	esp, 12					; 0000000cH
; Line 341
	jmp	SHORT $LN5@UserCmd_Bu
$LN4@UserCmd_Bu:
; Line 344
	lea	ecx, DWORD PTR _i$143350[ebp]
	push	ecx
	lea	edx, DWORD PTR _iClientID$[ebp]
	push	edx
	mov	ecx, OFFSET _mapInfo
	call	??A?$map@IUINFO@PimpShip@@U?$less@I@std@@V?$allocator@U?$pair@$$CBIUINFO@PimpShip@@@std@@@4@@std@@QAEAAUINFO@PimpShip@@ABI@Z ; std::map<unsigned int,PimpShip::INFO,std::less<unsigned int>,std::allocator<std::pair<unsigned int const ,PimpShip::INFO> > >::operator[]
	mov	ecx, eax
	call	?begin@?$_Tree@V?$_Tmap_traits@IUEQ_HARDPOINT@PimpShip@@U?$less@I@std@@V?$allocator@U?$pair@$$CBIUEQ_HARDPOINT@PimpShip@@@std@@@4@$0A@@std@@@std@@QAE?AViterator@12@XZ ; std::_Tree<std::_Tmap_traits<unsigned int,PimpShip::EQ_HARDPOINT,std::less<unsigned int>,std::allocator<std::pair<unsigned int const ,PimpShip::EQ_HARDPOINT> >,0> >::begin
	jmp	SHORT $LN3@UserCmd_Bu
$LN2@UserCmd_Bu:
; Line 345
	lea	ecx, DWORD PTR _i$143350[ebp]
	call	??Eiterator@?$_Tree@V?$_Tmap_traits@IUEQ_HARDPOINT@PimpShip@@U?$less@I@std@@V?$allocator@U?$pair@$$CBIUEQ_HARDPOINT@PimpShip@@@std@@@4@$0A@@std@@@std@@QAEAAV012@XZ ; std::_Tree<std::_Tmap_traits<unsigned int,PimpShip::EQ_HARDPOINT,std::less<unsigned int>,std::allocator<std::pair<unsigned int const ,PimpShip::EQ_HARDPOINT> >,0> >::iterator::operator++
$LN3@UserCmd_Bu:
	lea	eax, DWORD PTR $T150969[ebp]
	push	eax
	lea	ecx, DWORD PTR _iClientID$[ebp]
	push	ecx
	mov	ecx, OFFSET _mapInfo
	call	??A?$map@IUINFO@PimpShip@@U?$less@I@std@@V?$allocator@U?$pair@$$CBIUINFO@PimpShip@@@std@@@4@@std@@QAEAAUINFO@PimpShip@@ABI@Z ; std::map<unsigned int,PimpShip::INFO,std::less<unsigned int>,std::allocator<std::pair<unsigned int const ,PimpShip::INFO> > >::operator[]
	mov	ecx, eax
	call	?end@?$_Tree@V?$_Tmap_traits@IUEQ_HARDPOINT@PimpShip@@U?$less@I@std@@V?$allocator@U?$pair@$$CBIUEQ_HARDPOINT@PimpShip@@@std@@@4@$0A@@std@@@std@@QAE?AViterator@12@XZ ; std::_Tree<std::_Tmap_traits<unsigned int,PimpShip::EQ_HARDPOINT,std::less<unsigned int>,std::allocator<std::pair<unsigned int const ,PimpShip::EQ_HARDPOINT> >,0> >::end
	push	eax
	lea	ecx, DWORD PTR _i$143350[ebp]
	call	??9const_iterator@?$_Tree@V?$_Tmap_traits@IUEQ_HARDPOINT@PimpShip@@U?$less@I@std@@V?$allocator@U?$pair@$$CBIUEQ_HARDPOINT@PimpShip@@@std@@@4@$0A@@std@@@std@@QBE_NABV012@@Z ; std::_Tree<std::_Tmap_traits<unsigned int,PimpShip::EQ_HARDPOINT,std::less<unsigned int>,std::allocator<std::pair<unsigned int const ,PimpShip::EQ_HARDPOINT> >,0> >::const_iterator::operator!=
	movzx	edx, al
	test	edx, edx
	je	SHORT $LN1@UserCmd_Bu
; Line 347
	lea	ecx, DWORD PTR _i$143350[ebp]
	call	??Citerator@?$_Tree@V?$_Tmap_traits@IUEQ_HARDPOINT@PimpShip@@U?$less@I@std@@V?$allocator@U?$pair@$$CBIUEQ_HARDPOINT@PimpShip@@@std@@@4@$0A@@std@@@std@@QBEPAU?$pair@$$CBIUEQ_HARDPOINT@PimpShip@@@2@XZ ; std::_Tree<std::_Tmap_traits<unsigned int,PimpShip::EQ_HARDPOINT,std::less<unsigned int>,std::allocator<std::pair<unsigned int const ,PimpShip::EQ_HARDPOINT> >,0> >::iterator::operator->
	add	eax, 16					; 00000010H
	push	eax
	lea	eax, DWORD PTR $T150970[ebp]
	push	eax
	call	DWORD PTR __imp_?wstos@@YA?AV?$basic_string@DU?$char_traits@D@std@@V?$allocator@D@2@@std@@ABV?$basic_string@GU?$char_traits@G@std@@V?$allocator@G@2@@2@@Z
	add	esp, 8
	mov	DWORD PTR tv283[ebp], eax
	mov	ecx, DWORD PTR tv283[ebp]
	mov	DWORD PTR tv275[ebp], ecx
	mov	BYTE PTR __$EHRec$[ebp+8], 4
	mov	edx, DWORD PTR tv275[ebp]
	push	edx
	lea	ecx, DWORD PTR _i$143350[ebp]
	call	??Citerator@?$_Tree@V?$_Tmap_traits@IUEQ_HARDPOINT@PimpShip@@U?$less@I@std@@V?$allocator@U?$pair@$$CBIUEQ_HARDPOINT@PimpShip@@@std@@@4@$0A@@std@@@std@@QBEPAU?$pair@$$CBIUEQ_HARDPOINT@PimpShip@@@2@XZ ; std::_Tree<std::_Tmap_traits<unsigned int,PimpShip::EQ_HARDPOINT,std::less<unsigned int>,std::allocator<std::pair<unsigned int const ,PimpShip::EQ_HARDPOINT> >,0> >::iterator::operator->
	mov	eax, DWORD PTR [eax+8]
	push	eax
	lea	ecx, DWORD PTR _wscCharName$[ebp]
	push	ecx
	call	?HkAddEquip@@YA?AW4HK_ERROR@@ABV?$basic_string@GU?$char_traits@G@std@@V?$allocator@G@2@@std@@IABV?$basic_string@DU?$char_traits@D@std@@V?$allocator@D@2@@3@@Z ; HkAddEquip
	add	esp, 12					; 0000000cH
	mov	BYTE PTR __$EHRec$[ebp+8], 0
	lea	ecx, DWORD PTR $T150970[ebp]
	call	DWORD PTR __imp_??1?$basic_string@DU?$char_traits@D@std@@V?$allocator@D@2@@std@@QAE@XZ
; Line 348
	jmp	$LN2@UserCmd_Bu
$LN1@UserCmd_Bu:
; Line 350
	sub	esp, 28					; 0000001cH
	mov	ecx, esp
	mov	DWORD PTR $T150971[ebp], esp
	push	OFFSET $SG143358
	call	DWORD PTR __imp_??0?$basic_string@GU?$char_traits@G@std@@V?$allocator@G@2@@std@@QAE@PBG@Z
	mov	DWORD PTR tv284[ebp], eax
	mov	edx, DWORD PTR tv284[ebp]
	mov	DWORD PTR tv277[ebp], edx
	mov	BYTE PTR __$EHRec$[ebp+8], 5
	mov	eax, DWORD PTR _iClientID$[ebp]
	push	eax
	mov	BYTE PTR __$EHRec$[ebp+8], 0
	call	DWORD PTR __imp_?PrintUserCmdText@@YAXIV?$basic_string@GU?$char_traits@G@std@@V?$allocator@G@2@@std@@ZZ
	add	esp, 32					; 00000020H
; Line 351
	push	5
	mov	ecx, DWORD PTR _iClientID$[ebp]
	push	ecx
	call	?HkDelayedKick@@YAXII@Z			; HkDelayedKick
	add	esp, 8
; Line 352
	mov	BYTE PTR $T150972[ebp], 1
	mov	DWORD PTR __$EHRec$[ebp+8], -1
	lea	ecx, DWORD PTR _wscCharName$[ebp]
	call	DWORD PTR __imp_??1?$basic_string@GU?$char_traits@G@std@@V?$allocator@G@2@@std@@QAE@XZ
	mov	al, BYTE PTR $T150972[ebp]
$LN11@UserCmd_Bu:
; Line 353
	mov	ecx, DWORD PTR __$EHRec$[ebp]
	mov	DWORD PTR fs:0, ecx
	pop	ecx
	mov	ecx, DWORD PTR __$ArrayPad$[ebp]
	xor	ecx, ebp
	call	@__security_check_cookie@4
	mov	esp, ebp
	pop	ebp
	ret	0
_TEXT	ENDS
text$x	SEGMENT
__unwindfunclet$?UserCmd_BuyNow@PimpShip@@YA_NIABV?$basic_string@GU?$char_traits@G@std@@V?$allocator@G@2@@std@@0PBG@Z$0:
	lea	ecx, DWORD PTR _wscCharName$[ebp]
	jmp	DWORD PTR __imp_??1?$basic_string@GU?$char_traits@G@std@@V?$allocator@G@2@@std@@QAE@XZ
__unwindfunclet$?UserCmd_BuyNow@PimpShip@@YA_NIABV?$basic_string@GU?$char_traits@G@std@@V?$allocator@G@2@@std@@0PBG@Z$1:
	lea	ecx, DWORD PTR $T150963[ebp]
	jmp	DWORD PTR __imp_??1?$basic_string@GU?$char_traits@G@std@@V?$allocator@G@2@@std@@QAE@XZ
__unwindfunclet$?UserCmd_BuyNow@PimpShip@@YA_NIABV?$basic_string@GU?$char_traits@G@std@@V?$allocator@G@2@@std@@0PBG@Z$2:
	mov	ecx, DWORD PTR $T150964[ebp]
	jmp	DWORD PTR __imp_??1?$basic_string@GU?$char_traits@G@std@@V?$allocator@G@2@@std@@QAE@XZ
__unwindfunclet$?UserCmd_BuyNow@PimpShip@@YA_NIABV?$basic_string@GU?$char_traits@G@std@@V?$allocator@G@2@@std@@0PBG@Z$3:
	mov	ecx, DWORD PTR $T150966[ebp]
	jmp	DWORD PTR __imp_??1?$basic_string@GU?$char_traits@G@std@@V?$allocator@G@2@@std@@QAE@XZ
__unwindfunclet$?UserCmd_BuyNow@PimpShip@@YA_NIABV?$basic_string@GU?$char_traits@G@std@@V?$allocator@G@2@@std@@0PBG@Z$4:
	lea	ecx, DWORD PTR $T150970[ebp]
	jmp	DWORD PTR __imp_??1?$basic_string@DU?$char_traits@D@std@@V?$allocator@D@2@@std@@QAE@XZ
__unwindfunclet$?UserCmd_BuyNow@PimpShip@@YA_NIABV?$basic_string@GU?$char_traits@G@std@@V?$allocator@G@2@@std@@0PBG@Z$5:
	mov	ecx, DWORD PTR $T150971[ebp]
	jmp	DWORD PTR __imp_??1?$basic_string@GU?$char_traits@G@std@@V?$allocator@G@2@@std@@QAE@XZ
__ehhandler$?UserCmd_BuyNow@PimpShip@@YA_NIABV?$basic_string@GU?$char_traits@G@std@@V?$allocator@G@2@@std@@0PBG@Z:
	mov	edx, DWORD PTR [esp+8]
	lea	eax, DWORD PTR [edx+12]
	mov	ecx, DWORD PTR [edx-200]
	xor	ecx, eax
	call	@__security_check_cookie@4
	mov	ecx, DWORD PTR [edx-4]
	xor	ecx, eax
	call	@__security_check_cookie@4
	mov	eax, OFFSET __ehfuncinfo$?UserCmd_BuyNow@PimpShip@@YA_NIABV?$basic_string@GU?$char_traits@G@std@@V?$allocator@G@2@@std@@0PBG@Z
	jmp	___CxxFrameHandler3
text$x	ENDS
?UserCmd_BuyNow@PimpShip@@YA_NIABV?$basic_string@GU?$char_traits@G@std@@V?$allocator@G@2@@std@@0PBG@Z ENDP ; PimpShip::UserCmd_BuyNow
PUBLIC	??0?$_Iterator@$00@?$list@UEquipDesc@@V?$allocator@UEquipDesc@@@std@@@std@@QAE@PAU_Node@?$_List_nod@UEquipDesc@@V?$allocator@UEquipDesc@@@std@@@2@PBV12@@Z ; std::list<EquipDesc,std::allocator<EquipDesc> >::_Iterator<1>::_Iterator<1>
PUBLIC	?_Nextnode@?$list@UEquipDesc@@V?$allocator@UEquipDesc@@@std@@@std@@KAAAPAU_Node@?$_List_nod@UEquipDesc@@V?$allocator@UEquipDesc@@@std@@@2@PAU342@@Z ; std::list<EquipDesc,std::allocator<EquipDesc> >::_Nextnode
; Function compile flags: /Odtp
;	COMDAT ?begin@?$list@UEquipDesc@@V?$allocator@UEquipDesc@@@std@@@std@@QAE?AV?$_Iterator@$00@12@XZ
_TEXT	SEGMENT
_this$ = -4						; size = 4
___$ReturnUdt$ = 8					; size = 4
?begin@?$list@UEquipDesc@@V?$allocator@UEquipDesc@@@std@@@std@@QAE?AV?$_Iterator@$00@12@XZ PROC ; std::list<EquipDesc,std::allocator<EquipDesc> >::begin, COMDAT
; _this$ = ecx
; File c:\program files (x86)\microsoft visual studio 9.0\vc\include\list
; Line 533
	push	ebp
	mov	ebp, esp
	push	ecx
	mov	DWORD PTR _this$[ebp], ecx
; Line 534
	mov	eax, DWORD PTR _this$[ebp]
	push	eax
	mov	ecx, DWORD PTR _this$[ebp]
	mov	edx, DWORD PTR [ecx+20]
	push	edx
	call	?_Nextnode@?$list@UEquipDesc@@V?$allocator@UEquipDesc@@@std@@@std@@KAAAPAU_Node@?$_List_nod@UEquipDesc@@V?$allocator@UEquipDesc@@@std@@@2@PAU342@@Z ; std::list<EquipDesc,std::allocator<EquipDesc> >::_Nextnode
	add	esp, 4
	mov	eax, DWORD PTR [eax]
	push	eax
	mov	ecx, DWORD PTR ___$ReturnUdt$[ebp]
	call	??0?$_Iterator@$00@?$list@UEquipDesc@@V?$allocator@UEquipDesc@@@std@@@std@@QAE@PAU_Node@?$_List_nod@UEquipDesc@@V?$allocator@UEquipDesc@@@std@@@2@PBV12@@Z ; std::list<EquipDesc,std::allocator<EquipDesc> >::_Iterator<1>::_Iterator<1>
	mov	eax, DWORD PTR ___$ReturnUdt$[ebp]
; Line 535
	mov	esp, ebp
	pop	ebp
	ret	4
?begin@?$list@UEquipDesc@@V?$allocator@UEquipDesc@@@std@@@std@@QAE?AV?$_Iterator@$00@12@XZ ENDP ; std::list<EquipDesc,std::allocator<EquipDesc> >::begin
; Function compile flags: /Odtp
_TEXT	ENDS
;	COMDAT ?end@?$list@UEquipDesc@@V?$allocator@UEquipDesc@@@std@@@std@@QAE?AV?$_Iterator@$00@12@XZ
_TEXT	SEGMENT
_this$ = -4						; size = 4
___$ReturnUdt$ = 8					; size = 4
?end@?$list@UEquipDesc@@V?$allocator@UEquipDesc@@@std@@@std@@QAE?AV?$_Iterator@$00@12@XZ PROC ; std::list<EquipDesc,std::allocator<EquipDesc> >::end, COMDAT
; _this$ = ecx
; Line 543
	push	ebp
	mov	ebp, esp
	push	ecx
	mov	DWORD PTR _this$[ebp], ecx
; Line 544
	mov	eax, DWORD PTR _this$[ebp]
	push	eax
	mov	ecx, DWORD PTR _this$[ebp]
	mov	edx, DWORD PTR [ecx+20]
	push	edx
	mov	ecx, DWORD PTR ___$ReturnUdt$[ebp]
	call	??0?$_Iterator@$00@?$list@UEquipDesc@@V?$allocator@UEquipDesc@@@std@@@std@@QAE@PAU_Node@?$_List_nod@UEquipDesc@@V?$allocator@UEquipDesc@@@std@@@2@PBV12@@Z ; std::list<EquipDesc,std::allocator<EquipDesc> >::_Iterator<1>::_Iterator<1>
	mov	eax, DWORD PTR ___$ReturnUdt$[ebp]
; Line 545
	mov	esp, ebp
	pop	ebp
	ret	4
?end@?$list@UEquipDesc@@V?$allocator@UEquipDesc@@@std@@@std@@QAE?AV?$_Iterator@$00@12@XZ ENDP ; std::list<EquipDesc,std::allocator<EquipDesc> >::end
_TEXT	ENDS
PUBLIC	??Diterator@?$_Tree@V?$_Tmap_traits@IV?$basic_string@GU?$char_traits@G@std@@V?$allocator@G@2@@std@@U?$less@I@2@V?$allocator@U?$pair@$$CBIV?$basic_string@GU?$char_traits@G@std@@V?$allocator@G@2@@std@@@std@@@2@$0A@@std@@@std@@QBEAAU?$pair@$$CBIV?$basic_string@GU?$char_traits@G@std@@V?$allocator@G@2@@std@@@2@XZ ; std::_Tree<std::_Tmap_traits<unsigned int,std::basic_string<unsigned short,std::char_traits<unsigned short>,std::allocator<unsigned short> >,std::less<unsigned int>,std::allocator<std::pair<unsigned int const ,std::basic_string<unsigned short,std::char_traits<unsigned short>,std::allocator<unsigned short> > > >,0> >::iterator::operator*
PUBLIC	??1?$pair@$$CBIV?$basic_string@GU?$char_traits@G@std@@V?$allocator@G@2@@std@@@std@@QAE@XZ ; std::pair<unsigned int const ,std::basic_string<unsigned short,std::char_traits<unsigned short>,std::allocator<unsigned short> > >::~pair<unsigned int const ,std::basic_string<unsigned short,std::char_traits<unsigned short>,std::allocator<unsigned short> > >
PUBLIC	?insert@?$_Tree@V?$_Tmap_traits@IV?$basic_string@GU?$char_traits@G@std@@V?$allocator@G@2@@std@@U?$less@I@2@V?$allocator@U?$pair@$$CBIV?$basic_string@GU?$char_traits@G@std@@V?$allocator@G@2@@std@@@std@@@2@$0A@@std@@@std@@QAE?AViterator@12@Vconst_iterator@12@ABU?$pair@$$CBIV?$basic_string@GU?$char_traits@G@std@@V?$allocator@G@2@@std@@@2@@Z ; std::_Tree<std::_Tmap_traits<unsigned int,std::basic_string<unsigned short,std::char_traits<unsigned short>,std::allocator<unsigned short> >,std::less<unsigned int>,std::allocator<std::pair<unsigned int const ,std::basic_string<unsigned short,std::char_traits<unsigned short>,std::allocator<unsigned short> > > >,0> >::insert
PUBLIC	??0?$pair@$$CBIV?$basic_string@GU?$char_traits@G@std@@V?$allocator@G@2@@std@@@std@@QAE@ABIABV?$basic_string@GU?$char_traits@G@std@@V?$allocator@G@2@@1@@Z ; std::pair<unsigned int const ,std::basic_string<unsigned short,std::char_traits<unsigned short>,std::allocator<unsigned short> > >::pair<unsigned int const ,std::basic_string<unsigned short,std::char_traits<unsigned short>,std::allocator<unsigned short> > >
PUBLIC	??R?$less@I@std@@QBE_NABI0@Z			; std::less<unsigned int>::operator()
PUBLIC	?_Key@?$_Tree@V?$_Tmap_traits@IV?$basic_string@GU?$char_traits@G@std@@V?$allocator@G@2@@std@@U?$less@I@2@V?$allocator@U?$pair@$$CBIV?$basic_string@GU?$char_traits@G@std@@V?$allocator@G@2@@std@@@std@@@2@$0A@@std@@@std@@KAABIPAU_Node@?$_Tree_nod@V?$_Tmap_traits@IV?$basic_string@GU?$char_traits@G@std@@V?$allocator@G@2@@std@@U?$less@I@2@V?$allocator@U?$pair@$$CBIV?$basic_string@GU?$char_traits@G@std@@V?$allocator@G@2@@std@@@std@@@2@$0A@@std@@@2@@Z ; std::_Tree<std::_Tmap_traits<unsigned int,std::basic_string<unsigned short,std::char_traits<unsigned short>,std::allocator<unsigned short> >,std::less<unsigned int>,std::allocator<std::pair<unsigned int const ,std::basic_string<unsigned short,std::char_traits<unsigned short>,std::allocator<unsigned short> > > >,0> >::_Key
PUBLIC	?_Mynode@const_iterator@?$_Tree@V?$_Tmap_traits@IV?$basic_string@GU?$char_traits@G@std@@V?$allocator@G@2@@std@@U?$less@I@2@V?$allocator@U?$pair@$$CBIV?$basic_string@GU?$char_traits@G@std@@V?$allocator@G@2@@std@@@std@@@2@$0A@@std@@@std@@QBEPAU_Node@?$_Tree_nod@V?$_Tmap_traits@IV?$basic_string@GU?$char_traits@G@std@@V?$allocator@G@2@@std@@U?$less@I@2@V?$allocator@U?$pair@$$CBIV?$basic_string@GU?$char_traits@G@std@@V?$allocator@G@2@@std@@@std@@@2@$0A@@std@@@3@XZ ; std::_Tree<std::_Tmap_traits<unsigned int,std::basic_string<unsigned short,std::char_traits<unsigned short>,std::allocator<unsigned short> >,std::less<unsigned int>,std::allocator<std::pair<unsigned int const ,std::basic_string<unsigned short,std::char_traits<unsigned short>,std::allocator<unsigned short> > > >,0> >::const_iterator::_Mynode
PUBLIC	?lower_bound@?$_Tree@V?$_Tmap_traits@IV?$basic_string@GU?$char_traits@G@std@@V?$allocator@G@2@@std@@U?$less@I@2@V?$allocator@U?$pair@$$CBIV?$basic_string@GU?$char_traits@G@std@@V?$allocator@G@2@@std@@@std@@@2@$0A@@std@@@std@@QAE?AViterator@12@ABI@Z ; std::_Tree<std::_Tmap_traits<unsigned int,std::basic_string<unsigned short,std::char_traits<unsigned short>,std::allocator<unsigned short> >,std::less<unsigned int>,std::allocator<std::pair<unsigned int const ,std::basic_string<unsigned short,std::char_traits<unsigned short>,std::allocator<unsigned short> > > >,0> >::lower_bound
EXTRN	__imp_??0?$basic_string@GU?$char_traits@G@std@@V?$allocator@G@2@@std@@QAE@XZ:PROC
;	COMDAT xdata$x
; File c:\program files (x86)\microsoft visual studio 9.0\vc\include\map
xdata$x	SEGMENT
__unwindtable$??A?$map@IV?$basic_string@GU?$char_traits@G@std@@V?$allocator@G@2@@std@@U?$less@I@2@V?$allocator@U?$pair@$$CBIV?$basic_string@GU?$char_traits@G@std@@V?$allocator@G@2@@std@@@std@@@2@@std@@QAEAAV?$basic_string@GU?$char_traits@G@std@@V?$allocator@G@2@@1@ABI@Z DD 0ffffffffH
	DD	FLAT:__unwindfunclet$??A?$map@IV?$basic_string@GU?$char_traits@G@std@@V?$allocator@G@2@@std@@U?$less@I@2@V?$allocator@U?$pair@$$CBIV?$basic_string@GU?$char_traits@G@std@@V?$allocator@G@2@@std@@@std@@@2@@std@@QAEAAV?$basic_string@GU?$char_traits@G@std@@V?$allocator@G@2@@1@ABI@Z$0
	DD	00H
	DD	FLAT:__unwindfunclet$??A?$map@IV?$basic_string@GU?$char_traits@G@std@@V?$allocator@G@2@@std@@U?$less@I@2@V?$allocator@U?$pair@$$CBIV?$basic_string@GU?$char_traits@G@std@@V?$allocator@G@2@@std@@@std@@@2@@std@@QAEAAV?$basic_string@GU?$char_traits@G@std@@V?$allocator@G@2@@1@ABI@Z$1
__ehfuncinfo$??A?$map@IV?$basic_string@GU?$char_traits@G@std@@V?$allocator@G@2@@std@@U?$less@I@2@V?$allocator@U?$pair@$$CBIV?$basic_string@GU?$char_traits@G@std@@V?$allocator@G@2@@std@@@std@@@2@@std@@QAEAAV?$basic_string@GU?$char_traits@G@std@@V?$allocator@G@2@@1@ABI@Z DD 019930522H
	DD	02H
	DD	FLAT:__unwindtable$??A?$map@IV?$basic_string@GU?$char_traits@G@std@@V?$allocator@G@2@@std@@U?$less@I@2@V?$allocator@U?$pair@$$CBIV?$basic_string@GU?$char_traits@G@std@@V?$allocator@G@2@@std@@@std@@@2@@std@@QAEAAV?$basic_string@GU?$char_traits@G@std@@V?$allocator@G@2@@1@ABI@Z
	DD	2 DUP(00H)
	DD	2 DUP(00H)
	DD	00H
	DD	00H
; Function compile flags: /Odtp
xdata$x	ENDS
;	COMDAT ??A?$map@IV?$basic_string@GU?$char_traits@G@std@@V?$allocator@G@2@@std@@U?$less@I@2@V?$allocator@U?$pair@$$CBIV?$basic_string@GU?$char_traits@G@std@@V?$allocator@G@2@@std@@@std@@@2@@std@@QAEAAV?$basic_string@GU?$char_traits@G@std@@V?$allocator@G@2@@1@ABI@Z
_TEXT	SEGMENT
tv172 = -124						; size = 4
tv174 = -120						; size = 4
tv170 = -116						; size = 4
tv173 = -112						; size = 4
_this$ = -108						; size = 4
$T150992 = -104						; size = 8
$T150991 = -96						; size = 8
$T150990 = -88						; size = 28
$T150989 = -60						; size = 32
$T150988 = -28						; size = 8
__Where$ = -20						; size = 8
__$EHRec$ = -12						; size = 12
__Keyval$ = 8						; size = 4
??A?$map@IV?$basic_string@GU?$char_traits@G@std@@V?$allocator@G@2@@std@@U?$less@I@2@V?$allocator@U?$pair@$$CBIV?$basic_string@GU?$char_traits@G@std@@V?$allocator@G@2@@std@@@std@@@2@@std@@QAEAAV?$basic_string@GU?$char_traits@G@std@@V?$allocator@G@2@@1@ABI@Z PROC ; std::map<unsigned int,std::basic_string<unsigned short,std::char_traits<unsigned short>,std::allocator<unsigned short> >,std::less<unsigned int>,std::allocator<std::pair<unsigned int const ,std::basic_string<unsigned short,std::char_traits<unsigned short>,std::allocator<unsigned short> > > > >::operator[], COMDAT
; _this$ = ecx
; Line 168
	push	ebp
	mov	ebp, esp
	push	-1
	push	__ehhandler$??A?$map@IV?$basic_string@GU?$char_traits@G@std@@V?$allocator@G@2@@std@@U?$less@I@2@V?$allocator@U?$pair@$$CBIV?$basic_string@GU?$char_traits@G@std@@V?$allocator@G@2@@std@@@std@@@2@@std@@QAEAAV?$basic_string@GU?$char_traits@G@std@@V?$allocator@G@2@@1@ABI@Z
	mov	eax, DWORD PTR fs:0
	push	eax
	sub	esp, 112				; 00000070H
	mov	eax, DWORD PTR ___security_cookie
	xor	eax, ebp
	push	eax
	lea	eax, DWORD PTR __$EHRec$[ebp]
	mov	DWORD PTR fs:0, eax
	mov	DWORD PTR _this$[ebp], ecx
; Line 169
	mov	eax, DWORD PTR __Keyval$[ebp]
	push	eax
	lea	ecx, DWORD PTR __Where$[ebp]
	push	ecx
	mov	ecx, DWORD PTR _this$[ebp]
	call	?lower_bound@?$_Tree@V?$_Tmap_traits@IV?$basic_string@GU?$char_traits@G@std@@V?$allocator@G@2@@std@@U?$less@I@2@V?$allocator@U?$pair@$$CBIV?$basic_string@GU?$char_traits@G@std@@V?$allocator@G@2@@std@@@std@@@2@$0A@@std@@@std@@QAE?AViterator@12@ABI@Z ; std::_Tree<std::_Tmap_traits<unsigned int,std::basic_string<unsigned short,std::char_traits<unsigned short>,std::allocator<unsigned short> >,std::less<unsigned int>,std::allocator<std::pair<unsigned int const ,std::basic_string<unsigned short,std::char_traits<unsigned short>,std::allocator<unsigned short> > > >,0> >::lower_bound
; Line 171
	lea	edx, DWORD PTR $T150988[ebp]
	push	edx
	mov	ecx, DWORD PTR _this$[ebp]
	call	?end@?$_Tree@V?$_Tmap_traits@IV?$basic_string@GU?$char_traits@G@std@@V?$allocator@G@2@@std@@U?$less@I@2@V?$allocator@U?$pair@$$CBIV?$basic_string@GU?$char_traits@G@std@@V?$allocator@G@2@@std@@@std@@@2@$0A@@std@@@std@@QAE?AViterator@12@XZ ; std::_Tree<std::_Tmap_traits<unsigned int,std::basic_string<unsigned short,std::char_traits<unsigned short>,std::allocator<unsigned short> >,std::less<unsigned int>,std::allocator<std::pair<unsigned int const ,std::basic_string<unsigned short,std::char_traits<unsigned short>,std::allocator<unsigned short> > > >,0> >::end
	push	eax
	lea	ecx, DWORD PTR __Where$[ebp]
	call	??8const_iterator@?$_Tree@V?$_Tmap_traits@IV?$basic_string@GU?$char_traits@G@std@@V?$allocator@G@2@@std@@U?$less@I@2@V?$allocator@U?$pair@$$CBIV?$basic_string@GU?$char_traits@G@std@@V?$allocator@G@2@@std@@@std@@@2@$0A@@std@@@std@@QBE_NABV012@@Z ; std::_Tree<std::_Tmap_traits<unsigned int,std::basic_string<unsigned short,std::char_traits<unsigned short>,std::allocator<unsigned short> >,std::less<unsigned int>,std::allocator<std::pair<unsigned int const ,std::basic_string<unsigned short,std::char_traits<unsigned short>,std::allocator<unsigned short> > > >,0> >::const_iterator::operator==
	movzx	eax, al
	test	eax, eax
	jne	SHORT $LN1@operator
	lea	ecx, DWORD PTR __Where$[ebp]
	call	?_Mynode@const_iterator@?$_Tree@V?$_Tmap_traits@IV?$basic_string@GU?$char_traits@G@std@@V?$allocator@G@2@@std@@U?$less@I@2@V?$allocator@U?$pair@$$CBIV?$basic_string@GU?$char_traits@G@std@@V?$allocator@G@2@@std@@@std@@@2@$0A@@std@@@std@@QBEPAU_Node@?$_Tree_nod@V?$_Tmap_traits@IV?$basic_string@GU?$char_traits@G@std@@V?$allocator@G@2@@std@@U?$less@I@2@V?$allocator@U?$pair@$$CBIV?$basic_string@GU?$char_traits@G@std@@V?$allocator@G@2@@std@@@std@@@2@$0A@@std@@@3@XZ ; std::_Tree<std::_Tmap_traits<unsigned int,std::basic_string<unsigned short,std::char_traits<unsigned short>,std::allocator<unsigned short> >,std::less<unsigned int>,std::allocator<std::pair<unsigned int const ,std::basic_string<unsigned short,std::char_traits<unsigned short>,std::allocator<unsigned short> > > >,0> >::const_iterator::_Mynode
	push	eax
	call	?_Key@?$_Tree@V?$_Tmap_traits@IV?$basic_string@GU?$char_traits@G@std@@V?$allocator@G@2@@std@@U?$less@I@2@V?$allocator@U?$pair@$$CBIV?$basic_string@GU?$char_traits@G@std@@V?$allocator@G@2@@std@@@std@@@2@$0A@@std@@@std@@KAABIPAU_Node@?$_Tree_nod@V?$_Tmap_traits@IV?$basic_string@GU?$char_traits@G@std@@V?$allocator@G@2@@std@@U?$less@I@2@V?$allocator@U?$pair@$$CBIV?$basic_string@GU?$char_traits@G@std@@V?$allocator@G@2@@std@@@std@@@2@$0A@@std@@@2@@Z ; std::_Tree<std::_Tmap_traits<unsigned int,std::basic_string<unsigned short,std::char_traits<unsigned short>,std::allocator<unsigned short> >,std::less<unsigned int>,std::allocator<std::pair<unsigned int const ,std::basic_string<unsigned short,std::char_traits<unsigned short>,std::allocator<unsigned short> > > >,0> >::_Key
	add	esp, 4
	push	eax
	mov	ecx, DWORD PTR __Keyval$[ebp]
	push	ecx
	mov	ecx, DWORD PTR _this$[ebp]
	add	ecx, 8
	call	??R?$less@I@std@@QBE_NABI0@Z		; std::less<unsigned int>::operator()
	movzx	edx, al
	test	edx, edx
	je	$LN2@operator
$LN1@operator:
; Line 173
	mov	eax, DWORD PTR __Where$[ebp]
	mov	DWORD PTR $T150991[ebp], eax
	mov	ecx, DWORD PTR __Where$[ebp+4]
	mov	DWORD PTR $T150991[ebp+4], ecx
	lea	ecx, DWORD PTR $T150990[ebp]
	call	DWORD PTR __imp_??0?$basic_string@GU?$char_traits@G@std@@V?$allocator@G@2@@std@@QAE@XZ
	mov	DWORD PTR tv173[ebp], eax
	mov	edx, DWORD PTR tv173[ebp]
	mov	DWORD PTR tv170[ebp], edx
	mov	DWORD PTR __$EHRec$[ebp+8], 0
	mov	eax, DWORD PTR tv170[ebp]
	push	eax
	mov	ecx, DWORD PTR __Keyval$[ebp]
	push	ecx
	lea	ecx, DWORD PTR $T150989[ebp]
	call	??0?$pair@$$CBIV?$basic_string@GU?$char_traits@G@std@@V?$allocator@G@2@@std@@@std@@QAE@ABIABV?$basic_string@GU?$char_traits@G@std@@V?$allocator@G@2@@1@@Z ; std::pair<unsigned int const ,std::basic_string<unsigned short,std::char_traits<unsigned short>,std::allocator<unsigned short> > >::pair<unsigned int const ,std::basic_string<unsigned short,std::char_traits<unsigned short>,std::allocator<unsigned short> > >
	mov	DWORD PTR tv174[ebp], eax
	mov	edx, DWORD PTR tv174[ebp]
	mov	DWORD PTR tv172[ebp], edx
	mov	BYTE PTR __$EHRec$[ebp+8], 1
	mov	eax, DWORD PTR tv172[ebp]
	push	eax
	mov	ecx, DWORD PTR $T150991[ebp+4]
	push	ecx
	mov	edx, DWORD PTR $T150991[ebp]
	push	edx
	lea	eax, DWORD PTR $T150992[ebp]
	push	eax
	mov	ecx, DWORD PTR _this$[ebp]
	call	?insert@?$_Tree@V?$_Tmap_traits@IV?$basic_string@GU?$char_traits@G@std@@V?$allocator@G@2@@std@@U?$less@I@2@V?$allocator@U?$pair@$$CBIV?$basic_string@GU?$char_traits@G@std@@V?$allocator@G@2@@std@@@std@@@2@$0A@@std@@@std@@QAE?AViterator@12@Vconst_iterator@12@ABU?$pair@$$CBIV?$basic_string@GU?$char_traits@G@std@@V?$allocator@G@2@@std@@@2@@Z ; std::_Tree<std::_Tmap_traits<unsigned int,std::basic_string<unsigned short,std::char_traits<unsigned short>,std::allocator<unsigned short> >,std::less<unsigned int>,std::allocator<std::pair<unsigned int const ,std::basic_string<unsigned short,std::char_traits<unsigned short>,std::allocator<unsigned short> > > >,0> >::insert
	mov	ecx, DWORD PTR [eax]
	mov	edx, DWORD PTR [eax+4]
	mov	DWORD PTR __Where$[ebp], ecx
	mov	DWORD PTR __Where$[ebp+4], edx
	mov	BYTE PTR __$EHRec$[ebp+8], 0
	lea	ecx, DWORD PTR $T150989[ebp]
	call	??1?$pair@$$CBIV?$basic_string@GU?$char_traits@G@std@@V?$allocator@G@2@@std@@@std@@QAE@XZ
	mov	DWORD PTR __$EHRec$[ebp+8], -1
	lea	ecx, DWORD PTR $T150990[ebp]
	call	DWORD PTR __imp_??1?$basic_string@GU?$char_traits@G@std@@V?$allocator@G@2@@std@@QAE@XZ
$LN2@operator:
; Line 174
	lea	ecx, DWORD PTR __Where$[ebp]
	call	??Diterator@?$_Tree@V?$_Tmap_traits@IV?$basic_string@GU?$char_traits@G@std@@V?$allocator@G@2@@std@@U?$less@I@2@V?$allocator@U?$pair@$$CBIV?$basic_string@GU?$char_traits@G@std@@V?$allocator@G@2@@std@@@std@@@2@$0A@@std@@@std@@QBEAAU?$pair@$$CBIV?$basic_string@GU?$char_traits@G@std@@V?$allocator@G@2@@std@@@2@XZ ; std::_Tree<std::_Tmap_traits<unsigned int,std::basic_string<unsigned short,std::char_traits<unsigned short>,std::allocator<unsigned short> >,std::less<unsigned int>,std::allocator<std::pair<unsigned int const ,std::basic_string<unsigned short,std::char_traits<unsigned short>,std::allocator<unsigned short> > > >,0> >::iterator::operator*
	add	eax, 4
; Line 175
	mov	ecx, DWORD PTR __$EHRec$[ebp]
	mov	DWORD PTR fs:0, ecx
	pop	ecx
	mov	esp, ebp
	pop	ebp
	ret	4
_TEXT	ENDS
;	COMDAT text$x
text$x	SEGMENT
__unwindfunclet$??A?$map@IV?$basic_string@GU?$char_traits@G@std@@V?$allocator@G@2@@std@@U?$less@I@2@V?$allocator@U?$pair@$$CBIV?$basic_string@GU?$char_traits@G@std@@V?$allocator@G@2@@std@@@std@@@2@@std@@QAEAAV?$basic_string@GU?$char_traits@G@std@@V?$allocator@G@2@@1@ABI@Z$0:
	lea	ecx, DWORD PTR $T150990[ebp]
	jmp	DWORD PTR __imp_??1?$basic_string@GU?$char_traits@G@std@@V?$allocator@G@2@@std@@QAE@XZ
__unwindfunclet$??A?$map@IV?$basic_string@GU?$char_traits@G@std@@V?$allocator@G@2@@std@@U?$less@I@2@V?$allocator@U?$pair@$$CBIV?$basic_string@GU?$char_traits@G@std@@V?$allocator@G@2@@std@@@std@@@2@@std@@QAEAAV?$basic_string@GU?$char_traits@G@std@@V?$allocator@G@2@@1@ABI@Z$1:
	lea	ecx, DWORD PTR $T150989[ebp]
	jmp	??1?$pair@$$CBIV?$basic_string@GU?$char_traits@G@std@@V?$allocator@G@2@@std@@@std@@QAE@XZ
__ehhandler$??A?$map@IV?$basic_string@GU?$char_traits@G@std@@V?$allocator@G@2@@std@@U?$less@I@2@V?$allocator@U?$pair@$$CBIV?$basic_string@GU?$char_traits@G@std@@V?$allocator@G@2@@std@@@std@@@2@@std@@QAEAAV?$basic_string@GU?$char_traits@G@std@@V?$allocator@G@2@@1@ABI@Z:
	mov	edx, DWORD PTR [esp+8]
	lea	eax, DWORD PTR [edx+12]
	mov	ecx, DWORD PTR [edx-116]
	xor	ecx, eax
	call	@__security_check_cookie@4
	mov	eax, OFFSET __ehfuncinfo$??A?$map@IV?$basic_string@GU?$char_traits@G@std@@V?$allocator@G@2@@std@@U?$less@I@2@V?$allocator@U?$pair@$$CBIV?$basic_string@GU?$char_traits@G@std@@V?$allocator@G@2@@std@@@std@@@2@@std@@QAEAAV?$basic_string@GU?$char_traits@G@std@@V?$allocator@G@2@@1@ABI@Z
	jmp	___CxxFrameHandler3
text$x	ENDS
??A?$map@IV?$basic_string@GU?$char_traits@G@std@@V?$allocator@G@2@@std@@U?$less@I@2@V?$allocator@U?$pair@$$CBIV?$basic_string@GU?$char_traits@G@std@@V?$allocator@G@2@@std@@@std@@@2@@std@@QAEAAV?$basic_string@GU?$char_traits@G@std@@V?$allocator@G@2@@1@ABI@Z ENDP ; std::map<unsigned int,std::basic_string<unsigned short,std::char_traits<unsigned short>,std::allocator<unsigned short> >,std::less<unsigned int>,std::allocator<std::pair<unsigned int const ,std::basic_string<unsigned short,std::char_traits<unsigned short>,std::allocator<unsigned short> > > > >::operator[]
PUBLIC	??0iterator@?$_Tree@V?$_Tmap_traits@IV?$basic_string@GU?$char_traits@G@std@@V?$allocator@G@2@@std@@U?$less@I@2@V?$allocator@U?$pair@$$CBIV?$basic_string@GU?$char_traits@G@std@@V?$allocator@G@2@@std@@@std@@@2@$0A@@std@@@std@@QAE@PAU_Node@?$_Tree_nod@V?$_Tmap_traits@IV?$basic_string@GU?$char_traits@G@std@@V?$allocator@G@2@@std@@U?$less@I@2@V?$allocator@U?$pair@$$CBIV?$basic_string@GU?$char_traits@G@std@@V?$allocator@G@2@@std@@@std@@@2@$0A@@std@@@2@PBV12@@Z ; std::_Tree<std::_Tmap_traits<unsigned int,std::basic_string<unsigned short,std::char_traits<unsigned short>,std::allocator<unsigned short> >,std::less<unsigned int>,std::allocator<std::pair<unsigned int const ,std::basic_string<unsigned short,std::char_traits<unsigned short>,std::allocator<unsigned short> > > >,0> >::iterator::iterator
; Function compile flags: /Odtp
;	COMDAT ?end@?$_Tree@V?$_Tmap_traits@IV?$basic_string@GU?$char_traits@G@std@@V?$allocator@G@2@@std@@U?$less@I@2@V?$allocator@U?$pair@$$CBIV?$basic_string@GU?$char_traits@G@std@@V?$allocator@G@2@@std@@@std@@@2@$0A@@std@@@std@@QAE?AViterator@12@XZ
_TEXT	SEGMENT
_this$ = -4						; size = 4
___$ReturnUdt$ = 8					; size = 4
?end@?$_Tree@V?$_Tmap_traits@IV?$basic_string@GU?$char_traits@G@std@@V?$allocator@G@2@@std@@U?$less@I@2@V?$allocator@U?$pair@$$CBIV?$basic_string@GU?$char_traits@G@std@@V?$allocator@G@2@@std@@@std@@@2@$0A@@std@@@std@@QAE?AViterator@12@XZ PROC ; std::_Tree<std::_Tmap_traits<unsigned int,std::basic_string<unsigned short,std::char_traits<unsigned short>,std::allocator<unsigned short> >,std::less<unsigned int>,std::allocator<std::pair<unsigned int const ,std::basic_string<unsigned short,std::char_traits<unsigned short>,std::allocator<unsigned short> > > >,0> >::end, COMDAT
; _this$ = ecx
; File c:\program files (x86)\microsoft visual studio 9.0\vc\include\xtree
; Line 565
	push	ebp
	mov	ebp, esp
	push	ecx
	mov	DWORD PTR _this$[ebp], ecx
; Line 566
	mov	eax, DWORD PTR _this$[ebp]
	push	eax
	mov	ecx, DWORD PTR _this$[ebp]
	mov	edx, DWORD PTR [ecx+24]
	push	edx
	mov	ecx, DWORD PTR ___$ReturnUdt$[ebp]
	call	??0iterator@?$_Tree@V?$_Tmap_traits@IV?$basic_string@GU?$char_traits@G@std@@V?$allocator@G@2@@std@@U?$less@I@2@V?$allocator@U?$pair@$$CBIV?$basic_string@GU?$char_traits@G@std@@V?$allocator@G@2@@std@@@std@@@2@$0A@@std@@@std@@QAE@PAU_Node@?$_Tree_nod@V?$_Tmap_traits@IV?$basic_string@GU?$char_traits@G@std@@V?$allocator@G@2@@std@@U?$less@I@2@V?$allocator@U?$pair@$$CBIV?$basic_string@GU?$char_traits@G@std@@V?$allocator@G@2@@std@@@std@@@2@$0A@@std@@@2@PBV12@@Z ; std::_Tree<std::_Tmap_traits<unsigned int,std::basic_string<unsigned short,std::char_traits<unsigned short>,std::allocator<unsigned short> >,std::less<unsigned int>,std::allocator<std::pair<unsigned int const ,std::basic_string<unsigned short,std::char_traits<unsigned short>,std::allocator<unsigned short> > > >,0> >::iterator::iterator
	mov	eax, DWORD PTR ___$ReturnUdt$[ebp]
; Line 567
	mov	esp, ebp
	pop	ebp
	ret	4
?end@?$_Tree@V?$_Tmap_traits@IV?$basic_string@GU?$char_traits@G@std@@V?$allocator@G@2@@std@@U?$less@I@2@V?$allocator@U?$pair@$$CBIV?$basic_string@GU?$char_traits@G@std@@V?$allocator@G@2@@std@@@std@@@2@$0A@@std@@@std@@QAE?AViterator@12@XZ ENDP ; std::_Tree<std::_Tmap_traits<unsigned int,std::basic_string<unsigned short,std::char_traits<unsigned short>,std::allocator<unsigned short> >,std::less<unsigned int>,std::allocator<std::pair<unsigned int const ,std::basic_string<unsigned short,std::char_traits<unsigned short>,std::allocator<unsigned short> > > >,0> >::end
_TEXT	ENDS
PUBLIC	?_Rmost@?$_Tree@V?$_Tmap_traits@IV?$basic_string@GU?$char_traits@G@std@@V?$allocator@G@2@@std@@U?$less@I@2@V?$allocator@U?$pair@$$CBIV?$basic_string@GU?$char_traits@G@std@@V?$allocator@G@2@@std@@@std@@@2@$0A@@std@@@std@@IBEAAPAU_Node@?$_Tree_nod@V?$_Tmap_traits@IV?$basic_string@GU?$char_traits@G@std@@V?$allocator@G@2@@std@@U?$less@I@2@V?$allocator@U?$pair@$$CBIV?$basic_string@GU?$char_traits@G@std@@V?$allocator@G@2@@std@@@std@@@2@$0A@@std@@@2@XZ ; std::_Tree<std::_Tmap_traits<unsigned int,std::basic_string<unsigned short,std::char_traits<unsigned short>,std::allocator<unsigned short> >,std::less<unsigned int>,std::allocator<std::pair<unsigned int const ,std::basic_string<unsigned short,std::char_traits<unsigned short>,std::allocator<unsigned short> > > >,0> >::_Rmost
PUBLIC	?_Lmost@?$_Tree@V?$_Tmap_traits@IV?$basic_string@GU?$char_traits@G@std@@V?$allocator@G@2@@std@@U?$less@I@2@V?$allocator@U?$pair@$$CBIV?$basic_string@GU?$char_traits@G@std@@V?$allocator@G@2@@std@@@std@@@2@$0A@@std@@@std@@IBEAAPAU_Node@?$_Tree_nod@V?$_Tmap_traits@IV?$basic_string@GU?$char_traits@G@std@@V?$allocator@G@2@@std@@U?$less@I@2@V?$allocator@U?$pair@$$CBIV?$basic_string@GU?$char_traits@G@std@@V?$allocator@G@2@@std@@@std@@@2@$0A@@std@@@2@XZ ; std::_Tree<std::_Tmap_traits<unsigned int,std::basic_string<unsigned short,std::char_traits<unsigned short>,std::allocator<unsigned short> >,std::less<unsigned int>,std::allocator<std::pair<unsigned int const ,std::basic_string<unsigned short,std::char_traits<unsigned short>,std::allocator<unsigned short> > > >,0> >::_Lmost
PUBLIC	?_Erase@?$_Tree@V?$_Tmap_traits@IV?$basic_string@GU?$char_traits@G@std@@V?$allocator@G@2@@std@@U?$less@I@2@V?$allocator@U?$pair@$$CBIV?$basic_string@GU?$char_traits@G@std@@V?$allocator@G@2@@std@@@std@@@2@$0A@@std@@@std@@IAEXPAU_Node@?$_Tree_nod@V?$_Tmap_traits@IV?$basic_string@GU?$char_traits@G@std@@V?$allocator@G@2@@std@@U?$less@I@2@V?$allocator@U?$pair@$$CBIV?$basic_string@GU?$char_traits@G@std@@V?$allocator@G@2@@std@@@std@@@2@$0A@@std@@@2@@Z ; std::_Tree<std::_Tmap_traits<unsigned int,std::basic_string<unsigned short,std::char_traits<unsigned short>,std::allocator<unsigned short> >,std::less<unsigned int>,std::allocator<std::pair<unsigned int const ,std::basic_string<unsigned short,std::char_traits<unsigned short>,std::allocator<unsigned short> > > >,0> >::_Erase
PUBLIC	?_Root@?$_Tree@V?$_Tmap_traits@IV?$basic_string@GU?$char_traits@G@std@@V?$allocator@G@2@@std@@U?$less@I@2@V?$allocator@U?$pair@$$CBIV?$basic_string@GU?$char_traits@G@std@@V?$allocator@G@2@@std@@@std@@@2@$0A@@std@@@std@@IBEAAPAU_Node@?$_Tree_nod@V?$_Tmap_traits@IV?$basic_string@GU?$char_traits@G@std@@V?$allocator@G@2@@std@@U?$less@I@2@V?$allocator@U?$pair@$$CBIV?$basic_string@GU?$char_traits@G@std@@V?$allocator@G@2@@std@@@std@@@2@$0A@@std@@@2@XZ ; std::_Tree<std::_Tmap_traits<unsigned int,std::basic_string<unsigned short,std::char_traits<unsigned short>,std::allocator<unsigned short> >,std::less<unsigned int>,std::allocator<std::pair<unsigned int const ,std::basic_string<unsigned short,std::char_traits<unsigned short>,std::allocator<unsigned short> > > >,0> >::_Root
; Function compile flags: /Odtp
;	COMDAT ?clear@?$_Tree@V?$_Tmap_traits@IV?$basic_string@GU?$char_traits@G@std@@V?$allocator@G@2@@std@@U?$less@I@2@V?$allocator@U?$pair@$$CBIV?$basic_string@GU?$char_traits@G@std@@V?$allocator@G@2@@std@@@std@@@2@$0A@@std@@@std@@QAEXXZ
_TEXT	SEGMENT
_this$ = -4						; size = 4
?clear@?$_Tree@V?$_Tmap_traits@IV?$basic_string@GU?$char_traits@G@std@@V?$allocator@G@2@@std@@U?$less@I@2@V?$allocator@U?$pair@$$CBIV?$basic_string@GU?$char_traits@G@std@@V?$allocator@G@2@@std@@@std@@@2@$0A@@std@@@std@@QAEXXZ PROC ; std::_Tree<std::_Tmap_traits<unsigned int,std::basic_string<unsigned short,std::char_traits<unsigned short>,std::allocator<unsigned short> >,std::less<unsigned int>,std::allocator<std::pair<unsigned int const ,std::basic_string<unsigned short,std::char_traits<unsigned short>,std::allocator<unsigned short> > > >,0> >::clear, COMDAT
; _this$ = ecx
; Line 965
	push	ebp
	mov	ebp, esp
	push	ecx
	mov	DWORD PTR _this$[ebp], ecx
; Line 971
	mov	ecx, DWORD PTR _this$[ebp]
	call	?_Root@?$_Tree@V?$_Tmap_traits@IV?$basic_string@GU?$char_traits@G@std@@V?$allocator@G@2@@std@@U?$less@I@2@V?$allocator@U?$pair@$$CBIV?$basic_string@GU?$char_traits@G@std@@V?$allocator@G@2@@std@@@std@@@2@$0A@@std@@@std@@IBEAAPAU_Node@?$_Tree_nod@V?$_Tmap_traits@IV?$basic_string@GU?$char_traits@G@std@@V?$allocator@G@2@@std@@U?$less@I@2@V?$allocator@U?$pair@$$CBIV?$basic_string@GU?$char_traits@G@std@@V?$allocator@G@2@@std@@@std@@@2@$0A@@std@@@2@XZ ; std::_Tree<std::_Tmap_traits<unsigned int,std::basic_string<unsigned short,std::char_traits<unsigned short>,std::allocator<unsigned short> >,std::less<unsigned int>,std::allocator<std::pair<unsigned int const ,std::basic_string<unsigned short,std::char_traits<unsigned short>,std::allocator<unsigned short> > > >,0> >::_Root
	mov	eax, DWORD PTR [eax]
	push	eax
	mov	ecx, DWORD PTR _this$[ebp]
	call	?_Erase@?$_Tree@V?$_Tmap_traits@IV?$basic_string@GU?$char_traits@G@std@@V?$allocator@G@2@@std@@U?$less@I@2@V?$allocator@U?$pair@$$CBIV?$basic_string@GU?$char_traits@G@std@@V?$allocator@G@2@@std@@@std@@@2@$0A@@std@@@std@@IAEXPAU_Node@?$_Tree_nod@V?$_Tmap_traits@IV?$basic_string@GU?$char_traits@G@std@@V?$allocator@G@2@@std@@U?$less@I@2@V?$allocator@U?$pair@$$CBIV?$basic_string@GU?$char_traits@G@std@@V?$allocator@G@2@@std@@@std@@@2@$0A@@std@@@2@@Z ; std::_Tree<std::_Tmap_traits<unsigned int,std::basic_string<unsigned short,std::char_traits<unsigned short>,std::allocator<unsigned short> >,std::less<unsigned int>,std::allocator<std::pair<unsigned int const ,std::basic_string<unsigned short,std::char_traits<unsigned short>,std::allocator<unsigned short> > > >,0> >::_Erase
; Line 972
	mov	ecx, DWORD PTR _this$[ebp]
	call	?_Root@?$_Tree@V?$_Tmap_traits@IV?$basic_string@GU?$char_traits@G@std@@V?$allocator@G@2@@std@@U?$less@I@2@V?$allocator@U?$pair@$$CBIV?$basic_string@GU?$char_traits@G@std@@V?$allocator@G@2@@std@@@std@@@2@$0A@@std@@@std@@IBEAAPAU_Node@?$_Tree_nod@V?$_Tmap_traits@IV?$basic_string@GU?$char_traits@G@std@@V?$allocator@G@2@@std@@U?$less@I@2@V?$allocator@U?$pair@$$CBIV?$basic_string@GU?$char_traits@G@std@@V?$allocator@G@2@@std@@@std@@@2@$0A@@std@@@2@XZ ; std::_Tree<std::_Tmap_traits<unsigned int,std::basic_string<unsigned short,std::char_traits<unsigned short>,std::allocator<unsigned short> >,std::less<unsigned int>,std::allocator<std::pair<unsigned int const ,std::basic_string<unsigned short,std::char_traits<unsigned short>,std::allocator<unsigned short> > > >,0> >::_Root
	mov	ecx, DWORD PTR _this$[ebp]
	mov	edx, DWORD PTR [ecx+24]
	mov	DWORD PTR [eax], edx
	mov	eax, DWORD PTR _this$[ebp]
	mov	DWORD PTR [eax+28], 0
; Line 973
	mov	ecx, DWORD PTR _this$[ebp]
	call	?_Lmost@?$_Tree@V?$_Tmap_traits@IV?$basic_string@GU?$char_traits@G@std@@V?$allocator@G@2@@std@@U?$less@I@2@V?$allocator@U?$pair@$$CBIV?$basic_string@GU?$char_traits@G@std@@V?$allocator@G@2@@std@@@std@@@2@$0A@@std@@@std@@IBEAAPAU_Node@?$_Tree_nod@V?$_Tmap_traits@IV?$basic_string@GU?$char_traits@G@std@@V?$allocator@G@2@@std@@U?$less@I@2@V?$allocator@U?$pair@$$CBIV?$basic_string@GU?$char_traits@G@std@@V?$allocator@G@2@@std@@@std@@@2@$0A@@std@@@2@XZ ; std::_Tree<std::_Tmap_traits<unsigned int,std::basic_string<unsigned short,std::char_traits<unsigned short>,std::allocator<unsigned short> >,std::less<unsigned int>,std::allocator<std::pair<unsigned int const ,std::basic_string<unsigned short,std::char_traits<unsigned short>,std::allocator<unsigned short> > > >,0> >::_Lmost
	mov	ecx, DWORD PTR _this$[ebp]
	mov	edx, DWORD PTR [ecx+24]
	mov	DWORD PTR [eax], edx
	mov	ecx, DWORD PTR _this$[ebp]
	call	?_Rmost@?$_Tree@V?$_Tmap_traits@IV?$basic_string@GU?$char_traits@G@std@@V?$allocator@G@2@@std@@U?$less@I@2@V?$allocator@U?$pair@$$CBIV?$basic_string@GU?$char_traits@G@std@@V?$allocator@G@2@@std@@@std@@@2@$0A@@std@@@std@@IBEAAPAU_Node@?$_Tree_nod@V?$_Tmap_traits@IV?$basic_string@GU?$char_traits@G@std@@V?$allocator@G@2@@std@@U?$less@I@2@V?$allocator@U?$pair@$$CBIV?$basic_string@GU?$char_traits@G@std@@V?$allocator@G@2@@std@@@std@@@2@$0A@@std@@@2@XZ ; std::_Tree<std::_Tmap_traits<unsigned int,std::basic_string<unsigned short,std::char_traits<unsigned short>,std::allocator<unsigned short> >,std::less<unsigned int>,std::allocator<std::pair<unsigned int const ,std::basic_string<unsigned short,std::char_traits<unsigned short>,std::allocator<unsigned short> > > >,0> >::_Rmost
	mov	ecx, DWORD PTR _this$[ebp]
	mov	edx, DWORD PTR [ecx+24]
	mov	DWORD PTR [eax], edx
; Line 974
	mov	esp, ebp
	pop	ebp
	ret	0
?clear@?$_Tree@V?$_Tmap_traits@IV?$basic_string@GU?$char_traits@G@std@@V?$allocator@G@2@@std@@U?$less@I@2@V?$allocator@U?$pair@$$CBIV?$basic_string@GU?$char_traits@G@std@@V?$allocator@G@2@@std@@@std@@@2@$0A@@std@@@std@@QAEXXZ ENDP ; std::_Tree<std::_Tmap_traits<unsigned int,std::basic_string<unsigned short,std::char_traits<unsigned short>,std::allocator<unsigned short> >,std::less<unsigned int>,std::allocator<std::pair<unsigned int const ,std::basic_string<unsigned short,std::char_traits<unsigned short>,std::allocator<unsigned short> > > >,0> >::clear
; Function compile flags: /Odtp
_TEXT	ENDS
;	COMDAT ?find@?$_Tree@V?$_Tmap_traits@IV?$basic_string@GU?$char_traits@G@std@@V?$allocator@G@2@@std@@U?$less@I@2@V?$allocator@U?$pair@$$CBIV?$basic_string@GU?$char_traits@G@std@@V?$allocator@G@2@@std@@@std@@@2@$0A@@std@@@std@@QAE?AViterator@12@ABI@Z
_TEXT	SEGMENT
tv137 = -36						; size = 4
_this$ = -32						; size = 4
$T151010 = -28						; size = 8
$T151008 = -20						; size = 8
$T151007 = -12						; size = 4
__Where$ = -8						; size = 8
___$ReturnUdt$ = 8					; size = 4
__Keyval$ = 12						; size = 4
?find@?$_Tree@V?$_Tmap_traits@IV?$basic_string@GU?$char_traits@G@std@@V?$allocator@G@2@@std@@U?$less@I@2@V?$allocator@U?$pair@$$CBIV?$basic_string@GU?$char_traits@G@std@@V?$allocator@G@2@@std@@@std@@@2@$0A@@std@@@std@@QAE?AViterator@12@ABI@Z PROC ; std::_Tree<std::_Tmap_traits<unsigned int,std::basic_string<unsigned short,std::char_traits<unsigned short>,std::allocator<unsigned short> >,std::less<unsigned int>,std::allocator<std::pair<unsigned int const ,std::basic_string<unsigned short,std::char_traits<unsigned short>,std::allocator<unsigned short> > > >,0> >::find, COMDAT
; _this$ = ecx
; Line 977
	push	ebp
	mov	ebp, esp
	sub	esp, 36					; 00000024H
	mov	DWORD PTR _this$[ebp], ecx
; Line 978
	mov	eax, DWORD PTR __Keyval$[ebp]
	push	eax
	lea	ecx, DWORD PTR __Where$[ebp]
	push	ecx
	mov	ecx, DWORD PTR _this$[ebp]
	call	?lower_bound@?$_Tree@V?$_Tmap_traits@IV?$basic_string@GU?$char_traits@G@std@@V?$allocator@G@2@@std@@U?$less@I@2@V?$allocator@U?$pair@$$CBIV?$basic_string@GU?$char_traits@G@std@@V?$allocator@G@2@@std@@@std@@@2@$0A@@std@@@std@@QAE?AViterator@12@ABI@Z ; std::_Tree<std::_Tmap_traits<unsigned int,std::basic_string<unsigned short,std::char_traits<unsigned short>,std::allocator<unsigned short> >,std::less<unsigned int>,std::allocator<std::pair<unsigned int const ,std::basic_string<unsigned short,std::char_traits<unsigned short>,std::allocator<unsigned short> > > >,0> >::lower_bound
; Line 982
	lea	edx, DWORD PTR $T151008[ebp]
	push	edx
	mov	ecx, DWORD PTR _this$[ebp]
	call	?end@?$_Tree@V?$_Tmap_traits@IV?$basic_string@GU?$char_traits@G@std@@V?$allocator@G@2@@std@@U?$less@I@2@V?$allocator@U?$pair@$$CBIV?$basic_string@GU?$char_traits@G@std@@V?$allocator@G@2@@std@@@std@@@2@$0A@@std@@@std@@QAE?AViterator@12@XZ ; std::_Tree<std::_Tmap_traits<unsigned int,std::basic_string<unsigned short,std::char_traits<unsigned short>,std::allocator<unsigned short> >,std::less<unsigned int>,std::allocator<std::pair<unsigned int const ,std::basic_string<unsigned short,std::char_traits<unsigned short>,std::allocator<unsigned short> > > >,0> >::end
	push	eax
	lea	ecx, DWORD PTR __Where$[ebp]
	call	??8const_iterator@?$_Tree@V?$_Tmap_traits@IV?$basic_string@GU?$char_traits@G@std@@V?$allocator@G@2@@std@@U?$less@I@2@V?$allocator@U?$pair@$$CBIV?$basic_string@GU?$char_traits@G@std@@V?$allocator@G@2@@std@@@std@@@2@$0A@@std@@@std@@QBE_NABV012@@Z ; std::_Tree<std::_Tmap_traits<unsigned int,std::basic_string<unsigned short,std::char_traits<unsigned short>,std::allocator<unsigned short> >,std::less<unsigned int>,std::allocator<std::pair<unsigned int const ,std::basic_string<unsigned short,std::char_traits<unsigned short>,std::allocator<unsigned short> > > >,0> >::const_iterator::operator==
	movzx	eax, al
	test	eax, eax
	jne	SHORT $LN3@find
	lea	ecx, DWORD PTR __Where$[ebp]
	call	?_Mynode@const_iterator@?$_Tree@V?$_Tmap_traits@IV?$basic_string@GU?$char_traits@G@std@@V?$allocator@G@2@@std@@U?$less@I@2@V?$allocator@U?$pair@$$CBIV?$basic_string@GU?$char_traits@G@std@@V?$allocator@G@2@@std@@@std@@@2@$0A@@std@@@std@@QBEPAU_Node@?$_Tree_nod@V?$_Tmap_traits@IV?$basic_string@GU?$char_traits@G@std@@V?$allocator@G@2@@std@@U?$less@I@2@V?$allocator@U?$pair@$$CBIV?$basic_string@GU?$char_traits@G@std@@V?$allocator@G@2@@std@@@std@@@2@$0A@@std@@@3@XZ ; std::_Tree<std::_Tmap_traits<unsigned int,std::basic_string<unsigned short,std::char_traits<unsigned short>,std::allocator<unsigned short> >,std::less<unsigned int>,std::allocator<std::pair<unsigned int const ,std::basic_string<unsigned short,std::char_traits<unsigned short>,std::allocator<unsigned short> > > >,0> >::const_iterator::_Mynode
	push	eax
	call	?_Key@?$_Tree@V?$_Tmap_traits@IV?$basic_string@GU?$char_traits@G@std@@V?$allocator@G@2@@std@@U?$less@I@2@V?$allocator@U?$pair@$$CBIV?$basic_string@GU?$char_traits@G@std@@V?$allocator@G@2@@std@@@std@@@2@$0A@@std@@@std@@KAABIPAU_Node@?$_Tree_nod@V?$_Tmap_traits@IV?$basic_string@GU?$char_traits@G@std@@V?$allocator@G@2@@std@@U?$less@I@2@V?$allocator@U?$pair@$$CBIV?$basic_string@GU?$char_traits@G@std@@V?$allocator@G@2@@std@@@std@@@2@$0A@@std@@@2@@Z ; std::_Tree<std::_Tmap_traits<unsigned int,std::basic_string<unsigned short,std::char_traits<unsigned short>,std::allocator<unsigned short> >,std::less<unsigned int>,std::allocator<std::pair<unsigned int const ,std::basic_string<unsigned short,std::char_traits<unsigned short>,std::allocator<unsigned short> > > >,0> >::_Key
	add	esp, 4
	push	eax
	mov	ecx, DWORD PTR __Keyval$[ebp]
	push	ecx
	mov	ecx, DWORD PTR _this$[ebp]
	add	ecx, 8
	call	??R?$less@I@std@@QBE_NABI0@Z		; std::less<unsigned int>::operator()
	movzx	edx, al
	test	edx, edx
	jne	SHORT $LN3@find
	lea	eax, DWORD PTR __Where$[ebp]
	mov	DWORD PTR tv137[ebp], eax
	jmp	SHORT $LN4@find
$LN3@find:
	lea	ecx, DWORD PTR $T151010[ebp]
	push	ecx
	mov	ecx, DWORD PTR _this$[ebp]
	call	?end@?$_Tree@V?$_Tmap_traits@IV?$basic_string@GU?$char_traits@G@std@@V?$allocator@G@2@@std@@U?$less@I@2@V?$allocator@U?$pair@$$CBIV?$basic_string@GU?$char_traits@G@std@@V?$allocator@G@2@@std@@@std@@@2@$0A@@std@@@std@@QAE?AViterator@12@XZ ; std::_Tree<std::_Tmap_traits<unsigned int,std::basic_string<unsigned short,std::char_traits<unsigned short>,std::allocator<unsigned short> >,std::less<unsigned int>,std::allocator<std::pair<unsigned int const ,std::basic_string<unsigned short,std::char_traits<unsigned short>,std::allocator<unsigned short> > > >,0> >::end
	mov	DWORD PTR tv137[ebp], eax
$LN4@find:
	mov	edx, DWORD PTR tv137[ebp]
	mov	DWORD PTR $T151007[ebp], edx
	mov	eax, DWORD PTR $T151007[ebp]
	mov	ecx, DWORD PTR [eax]
	mov	edx, DWORD PTR [eax+4]
	mov	eax, DWORD PTR ___$ReturnUdt$[ebp]
	mov	DWORD PTR [eax], ecx
	mov	DWORD PTR [eax+4], edx
	mov	eax, DWORD PTR ___$ReturnUdt$[ebp]
; Line 983
	mov	esp, ebp
	pop	ebp
	ret	8
?find@?$_Tree@V?$_Tmap_traits@IV?$basic_string@GU?$char_traits@G@std@@V?$allocator@G@2@@std@@U?$less@I@2@V?$allocator@U?$pair@$$CBIV?$basic_string@GU?$char_traits@G@std@@V?$allocator@G@2@@std@@@std@@@2@$0A@@std@@@std@@QAE?AViterator@12@ABI@Z ENDP ; std::_Tree<std::_Tmap_traits<unsigned int,std::basic_string<unsigned short,std::char_traits<unsigned short>,std::allocator<unsigned short> >,std::less<unsigned int>,std::allocator<std::pair<unsigned int const ,std::basic_string<unsigned short,std::char_traits<unsigned short>,std::allocator<unsigned short> > > >,0> >::find
_TEXT	ENDS
PUBLIC	??Diterator@?$_Tree@V?$_Tmap_traits@IUEQ_HARDPOINT@PimpShip@@U?$less@I@std@@V?$allocator@U?$pair@$$CBIUEQ_HARDPOINT@PimpShip@@@std@@@4@$0A@@std@@@std@@QBEAAU?$pair@$$CBIUEQ_HARDPOINT@PimpShip@@@2@XZ ; std::_Tree<std::_Tmap_traits<unsigned int,PimpShip::EQ_HARDPOINT,std::less<unsigned int>,std::allocator<std::pair<unsigned int const ,PimpShip::EQ_HARDPOINT> >,0> >::iterator::operator*
PUBLIC	??1EQ_HARDPOINT@PimpShip@@QAE@XZ		; PimpShip::EQ_HARDPOINT::~EQ_HARDPOINT
PUBLIC	??1?$pair@$$CBIUEQ_HARDPOINT@PimpShip@@@std@@QAE@XZ ; std::pair<unsigned int const ,PimpShip::EQ_HARDPOINT>::~pair<unsigned int const ,PimpShip::EQ_HARDPOINT>
PUBLIC	?insert@?$_Tree@V?$_Tmap_traits@IUEQ_HARDPOINT@PimpShip@@U?$less@I@std@@V?$allocator@U?$pair@$$CBIUEQ_HARDPOINT@PimpShip@@@std@@@4@$0A@@std@@@std@@QAE?AViterator@12@Vconst_iterator@12@ABU?$pair@$$CBIUEQ_HARDPOINT@PimpShip@@@2@@Z ; std::_Tree<std::_Tmap_traits<unsigned int,PimpShip::EQ_HARDPOINT,std::less<unsigned int>,std::allocator<std::pair<unsigned int const ,PimpShip::EQ_HARDPOINT> >,0> >::insert
PUBLIC	??0?$pair@$$CBIUEQ_HARDPOINT@PimpShip@@@std@@QAE@ABIABUEQ_HARDPOINT@PimpShip@@@Z ; std::pair<unsigned int const ,PimpShip::EQ_HARDPOINT>::pair<unsigned int const ,PimpShip::EQ_HARDPOINT>
PUBLIC	??0EQ_HARDPOINT@PimpShip@@QAE@XZ		; PimpShip::EQ_HARDPOINT::EQ_HARDPOINT
PUBLIC	?_Key@?$_Tree@V?$_Tmap_traits@IUEQ_HARDPOINT@PimpShip@@U?$less@I@std@@V?$allocator@U?$pair@$$CBIUEQ_HARDPOINT@PimpShip@@@std@@@4@$0A@@std@@@std@@KAABIPAU_Node@?$_Tree_nod@V?$_Tmap_traits@IUEQ_HARDPOINT@PimpShip@@U?$less@I@std@@V?$allocator@U?$pair@$$CBIUEQ_HARDPOINT@PimpShip@@@std@@@4@$0A@@std@@@2@@Z ; std::_Tree<std::_Tmap_traits<unsigned int,PimpShip::EQ_HARDPOINT,std::less<unsigned int>,std::allocator<std::pair<unsigned int const ,PimpShip::EQ_HARDPOINT> >,0> >::_Key
PUBLIC	?_Mynode@const_iterator@?$_Tree@V?$_Tmap_traits@IUEQ_HARDPOINT@PimpShip@@U?$less@I@std@@V?$allocator@U?$pair@$$CBIUEQ_HARDPOINT@PimpShip@@@std@@@4@$0A@@std@@@std@@QBEPAU_Node@?$_Tree_nod@V?$_Tmap_traits@IUEQ_HARDPOINT@PimpShip@@U?$less@I@std@@V?$allocator@U?$pair@$$CBIUEQ_HARDPOINT@PimpShip@@@std@@@4@$0A@@std@@@3@XZ ; std::_Tree<std::_Tmap_traits<unsigned int,PimpShip::EQ_HARDPOINT,std::less<unsigned int>,std::allocator<std::pair<unsigned int const ,PimpShip::EQ_HARDPOINT> >,0> >::const_iterator::_Mynode
PUBLIC	?lower_bound@?$_Tree@V?$_Tmap_traits@IUEQ_HARDPOINT@PimpShip@@U?$less@I@std@@V?$allocator@U?$pair@$$CBIUEQ_HARDPOINT@PimpShip@@@std@@@4@$0A@@std@@@std@@QAE?AViterator@12@ABI@Z ; std::_Tree<std::_Tmap_traits<unsigned int,PimpShip::EQ_HARDPOINT,std::less<unsigned int>,std::allocator<std::pair<unsigned int const ,PimpShip::EQ_HARDPOINT> >,0> >::lower_bound
;	COMDAT xdata$x
; File c:\program files (x86)\microsoft visual studio 9.0\vc\include\map
xdata$x	SEGMENT
__unwindtable$??A?$map@IUEQ_HARDPOINT@PimpShip@@U?$less@I@std@@V?$allocator@U?$pair@$$CBIUEQ_HARDPOINT@PimpShip@@@std@@@4@@std@@QAEAAUEQ_HARDPOINT@PimpShip@@ABI@Z DD 0ffffffffH
	DD	FLAT:__unwindfunclet$??A?$map@IUEQ_HARDPOINT@PimpShip@@U?$less@I@std@@V?$allocator@U?$pair@$$CBIUEQ_HARDPOINT@PimpShip@@@std@@@4@@std@@QAEAAUEQ_HARDPOINT@PimpShip@@ABI@Z$0
	DD	00H
	DD	FLAT:__unwindfunclet$??A?$map@IUEQ_HARDPOINT@PimpShip@@U?$less@I@std@@V?$allocator@U?$pair@$$CBIUEQ_HARDPOINT@PimpShip@@@std@@@4@@std@@QAEAAUEQ_HARDPOINT@PimpShip@@ABI@Z$1
__ehfuncinfo$??A?$map@IUEQ_HARDPOINT@PimpShip@@U?$less@I@std@@V?$allocator@U?$pair@$$CBIUEQ_HARDPOINT@PimpShip@@@std@@@4@@std@@QAEAAUEQ_HARDPOINT@PimpShip@@ABI@Z DD 019930522H
	DD	02H
	DD	FLAT:__unwindtable$??A?$map@IUEQ_HARDPOINT@PimpShip@@U?$less@I@std@@V?$allocator@U?$pair@$$CBIUEQ_HARDPOINT@PimpShip@@@std@@@4@@std@@QAEAAUEQ_HARDPOINT@PimpShip@@ABI@Z
	DD	2 DUP(00H)
	DD	2 DUP(00H)
	DD	00H
	DD	00H
; Function compile flags: /Odtp
xdata$x	ENDS
;	COMDAT ??A?$map@IUEQ_HARDPOINT@PimpShip@@U?$less@I@std@@V?$allocator@U?$pair@$$CBIUEQ_HARDPOINT@PimpShip@@@std@@@4@@std@@QAEAAUEQ_HARDPOINT@PimpShip@@ABI@Z
_TEXT	SEGMENT
tv172 = -148						; size = 4
tv174 = -144						; size = 4
tv170 = -140						; size = 4
tv173 = -136						; size = 4
_this$ = -132						; size = 4
$T151018 = -128						; size = 8
$T151017 = -120						; size = 8
$T151016 = -112						; size = 40
$T151015 = -72						; size = 44
$T151014 = -28						; size = 8
__Where$ = -20						; size = 8
__$EHRec$ = -12						; size = 12
__Keyval$ = 8						; size = 4
??A?$map@IUEQ_HARDPOINT@PimpShip@@U?$less@I@std@@V?$allocator@U?$pair@$$CBIUEQ_HARDPOINT@PimpShip@@@std@@@4@@std@@QAEAAUEQ_HARDPOINT@PimpShip@@ABI@Z PROC ; std::map<unsigned int,PimpShip::EQ_HARDPOINT,std::less<unsigned int>,std::allocator<std::pair<unsigned int const ,PimpShip::EQ_HARDPOINT> > >::operator[], COMDAT
; _this$ = ecx
; Line 168
	push	ebp
	mov	ebp, esp
	push	-1
	push	__ehhandler$??A?$map@IUEQ_HARDPOINT@PimpShip@@U?$less@I@std@@V?$allocator@U?$pair@$$CBIUEQ_HARDPOINT@PimpShip@@@std@@@4@@std@@QAEAAUEQ_HARDPOINT@PimpShip@@ABI@Z
	mov	eax, DWORD PTR fs:0
	push	eax
	sub	esp, 136				; 00000088H
	mov	eax, DWORD PTR ___security_cookie
	xor	eax, ebp
	push	eax
	lea	eax, DWORD PTR __$EHRec$[ebp]
	mov	DWORD PTR fs:0, eax
	mov	DWORD PTR _this$[ebp], ecx
; Line 169
	mov	eax, DWORD PTR __Keyval$[ebp]
	push	eax
	lea	ecx, DWORD PTR __Where$[ebp]
	push	ecx
	mov	ecx, DWORD PTR _this$[ebp]
	call	?lower_bound@?$_Tree@V?$_Tmap_traits@IUEQ_HARDPOINT@PimpShip@@U?$less@I@std@@V?$allocator@U?$pair@$$CBIUEQ_HARDPOINT@PimpShip@@@std@@@4@$0A@@std@@@std@@QAE?AViterator@12@ABI@Z ; std::_Tree<std::_Tmap_traits<unsigned int,PimpShip::EQ_HARDPOINT,std::less<unsigned int>,std::allocator<std::pair<unsigned int const ,PimpShip::EQ_HARDPOINT> >,0> >::lower_bound
; Line 171
	lea	edx, DWORD PTR $T151014[ebp]
	push	edx
	mov	ecx, DWORD PTR _this$[ebp]
	call	?end@?$_Tree@V?$_Tmap_traits@IUEQ_HARDPOINT@PimpShip@@U?$less@I@std@@V?$allocator@U?$pair@$$CBIUEQ_HARDPOINT@PimpShip@@@std@@@4@$0A@@std@@@std@@QAE?AViterator@12@XZ ; std::_Tree<std::_Tmap_traits<unsigned int,PimpShip::EQ_HARDPOINT,std::less<unsigned int>,std::allocator<std::pair<unsigned int const ,PimpShip::EQ_HARDPOINT> >,0> >::end
	push	eax
	lea	ecx, DWORD PTR __Where$[ebp]
	call	??8const_iterator@?$_Tree@V?$_Tmap_traits@IUEQ_HARDPOINT@PimpShip@@U?$less@I@std@@V?$allocator@U?$pair@$$CBIUEQ_HARDPOINT@PimpShip@@@std@@@4@$0A@@std@@@std@@QBE_NABV012@@Z ; std::_Tree<std::_Tmap_traits<unsigned int,PimpShip::EQ_HARDPOINT,std::less<unsigned int>,std::allocator<std::pair<unsigned int const ,PimpShip::EQ_HARDPOINT> >,0> >::const_iterator::operator==
	movzx	eax, al
	test	eax, eax
	jne	SHORT $LN1@operator@2
	lea	ecx, DWORD PTR __Where$[ebp]
	call	?_Mynode@const_iterator@?$_Tree@V?$_Tmap_traits@IUEQ_HARDPOINT@PimpShip@@U?$less@I@std@@V?$allocator@U?$pair@$$CBIUEQ_HARDPOINT@PimpShip@@@std@@@4@$0A@@std@@@std@@QBEPAU_Node@?$_Tree_nod@V?$_Tmap_traits@IUEQ_HARDPOINT@PimpShip@@U?$less@I@std@@V?$allocator@U?$pair@$$CBIUEQ_HARDPOINT@PimpShip@@@std@@@4@$0A@@std@@@3@XZ ; std::_Tree<std::_Tmap_traits<unsigned int,PimpShip::EQ_HARDPOINT,std::less<unsigned int>,std::allocator<std::pair<unsigned int const ,PimpShip::EQ_HARDPOINT> >,0> >::const_iterator::_Mynode
	push	eax
	call	?_Key@?$_Tree@V?$_Tmap_traits@IUEQ_HARDPOINT@PimpShip@@U?$less@I@std@@V?$allocator@U?$pair@$$CBIUEQ_HARDPOINT@PimpShip@@@std@@@4@$0A@@std@@@std@@KAABIPAU_Node@?$_Tree_nod@V?$_Tmap_traits@IUEQ_HARDPOINT@PimpShip@@U?$less@I@std@@V?$allocator@U?$pair@$$CBIUEQ_HARDPOINT@PimpShip@@@std@@@4@$0A@@std@@@2@@Z ; std::_Tree<std::_Tmap_traits<unsigned int,PimpShip::EQ_HARDPOINT,std::less<unsigned int>,std::allocator<std::pair<unsigned int const ,PimpShip::EQ_HARDPOINT> >,0> >::_Key
	add	esp, 4
	push	eax
	mov	ecx, DWORD PTR __Keyval$[ebp]
	push	ecx
	mov	ecx, DWORD PTR _this$[ebp]
	add	ecx, 8
	call	??R?$less@I@std@@QBE_NABI0@Z		; std::less<unsigned int>::operator()
	movzx	edx, al
	test	edx, edx
	je	$LN2@operator@2
$LN1@operator@2:
; Line 173
	mov	eax, DWORD PTR __Where$[ebp]
	mov	DWORD PTR $T151017[ebp], eax
	mov	ecx, DWORD PTR __Where$[ebp+4]
	mov	DWORD PTR $T151017[ebp+4], ecx
	lea	ecx, DWORD PTR $T151016[ebp]
	call	??0EQ_HARDPOINT@PimpShip@@QAE@XZ	; PimpShip::EQ_HARDPOINT::EQ_HARDPOINT
	mov	DWORD PTR tv173[ebp], eax
	mov	edx, DWORD PTR tv173[ebp]
	mov	DWORD PTR tv170[ebp], edx
	mov	DWORD PTR __$EHRec$[ebp+8], 0
	mov	eax, DWORD PTR tv170[ebp]
	push	eax
	mov	ecx, DWORD PTR __Keyval$[ebp]
	push	ecx
	lea	ecx, DWORD PTR $T151015[ebp]
	call	??0?$pair@$$CBIUEQ_HARDPOINT@PimpShip@@@std@@QAE@ABIABUEQ_HARDPOINT@PimpShip@@@Z ; std::pair<unsigned int const ,PimpShip::EQ_HARDPOINT>::pair<unsigned int const ,PimpShip::EQ_HARDPOINT>
	mov	DWORD PTR tv174[ebp], eax
	mov	edx, DWORD PTR tv174[ebp]
	mov	DWORD PTR tv172[ebp], edx
	mov	BYTE PTR __$EHRec$[ebp+8], 1
	mov	eax, DWORD PTR tv172[ebp]
	push	eax
	mov	ecx, DWORD PTR $T151017[ebp+4]
	push	ecx
	mov	edx, DWORD PTR $T151017[ebp]
	push	edx
	lea	eax, DWORD PTR $T151018[ebp]
	push	eax
	mov	ecx, DWORD PTR _this$[ebp]
	call	?insert@?$_Tree@V?$_Tmap_traits@IUEQ_HARDPOINT@PimpShip@@U?$less@I@std@@V?$allocator@U?$pair@$$CBIUEQ_HARDPOINT@PimpShip@@@std@@@4@$0A@@std@@@std@@QAE?AViterator@12@Vconst_iterator@12@ABU?$pair@$$CBIUEQ_HARDPOINT@PimpShip@@@2@@Z ; std::_Tree<std::_Tmap_traits<unsigned int,PimpShip::EQ_HARDPOINT,std::less<unsigned int>,std::allocator<std::pair<unsigned int const ,PimpShip::EQ_HARDPOINT> >,0> >::insert
	mov	ecx, DWORD PTR [eax]
	mov	edx, DWORD PTR [eax+4]
	mov	DWORD PTR __Where$[ebp], ecx
	mov	DWORD PTR __Where$[ebp+4], edx
	mov	BYTE PTR __$EHRec$[ebp+8], 0
	lea	ecx, DWORD PTR $T151015[ebp]
	call	??1?$pair@$$CBIUEQ_HARDPOINT@PimpShip@@@std@@QAE@XZ
	mov	DWORD PTR __$EHRec$[ebp+8], -1
	lea	ecx, DWORD PTR $T151016[ebp]
	call	??1EQ_HARDPOINT@PimpShip@@QAE@XZ
$LN2@operator@2:
; Line 174
	lea	ecx, DWORD PTR __Where$[ebp]
	call	??Diterator@?$_Tree@V?$_Tmap_traits@IUEQ_HARDPOINT@PimpShip@@U?$less@I@std@@V?$allocator@U?$pair@$$CBIUEQ_HARDPOINT@PimpShip@@@std@@@4@$0A@@std@@@std@@QBEAAU?$pair@$$CBIUEQ_HARDPOINT@PimpShip@@@2@XZ ; std::_Tree<std::_Tmap_traits<unsigned int,PimpShip::EQ_HARDPOINT,std::less<unsigned int>,std::allocator<std::pair<unsigned int const ,PimpShip::EQ_HARDPOINT> >,0> >::iterator::operator*
	add	eax, 4
; Line 175
	mov	ecx, DWORD PTR __$EHRec$[ebp]
	mov	DWORD PTR fs:0, ecx
	pop	ecx
	mov	esp, ebp
	pop	ebp
	ret	4
_TEXT	ENDS
;	COMDAT text$x
text$x	SEGMENT
__unwindfunclet$??A?$map@IUEQ_HARDPOINT@PimpShip@@U?$less@I@std@@V?$allocator@U?$pair@$$CBIUEQ_HARDPOINT@PimpShip@@@std@@@4@@std@@QAEAAUEQ_HARDPOINT@PimpShip@@ABI@Z$0:
	lea	ecx, DWORD PTR $T151016[ebp]
	jmp	??1EQ_HARDPOINT@PimpShip@@QAE@XZ
__unwindfunclet$??A?$map@IUEQ_HARDPOINT@PimpShip@@U?$less@I@std@@V?$allocator@U?$pair@$$CBIUEQ_HARDPOINT@PimpShip@@@std@@@4@@std@@QAEAAUEQ_HARDPOINT@PimpShip@@ABI@Z$1:
	lea	ecx, DWORD PTR $T151015[ebp]
	jmp	??1?$pair@$$CBIUEQ_HARDPOINT@PimpShip@@@std@@QAE@XZ
__ehhandler$??A?$map@IUEQ_HARDPOINT@PimpShip@@U?$less@I@std@@V?$allocator@U?$pair@$$CBIUEQ_HARDPOINT@PimpShip@@@std@@@4@@std@@QAEAAUEQ_HARDPOINT@PimpShip@@ABI@Z:
	mov	edx, DWORD PTR [esp+8]
	lea	eax, DWORD PTR [edx+12]
	mov	ecx, DWORD PTR [edx-140]
	xor	ecx, eax
	call	@__security_check_cookie@4
	mov	eax, OFFSET __ehfuncinfo$??A?$map@IUEQ_HARDPOINT@PimpShip@@U?$less@I@std@@V?$allocator@U?$pair@$$CBIUEQ_HARDPOINT@PimpShip@@@std@@@4@@std@@QAEAAUEQ_HARDPOINT@PimpShip@@ABI@Z
	jmp	___CxxFrameHandler3
text$x	ENDS
??A?$map@IUEQ_HARDPOINT@PimpShip@@U?$less@I@std@@V?$allocator@U?$pair@$$CBIUEQ_HARDPOINT@PimpShip@@@std@@@4@@std@@QAEAAUEQ_HARDPOINT@PimpShip@@ABI@Z ENDP ; std::map<unsigned int,PimpShip::EQ_HARDPOINT,std::less<unsigned int>,std::allocator<std::pair<unsigned int const ,PimpShip::EQ_HARDPOINT> > >::operator[]
;	COMDAT xdata$x
; File g:\max\bastelstube\github\fl-mod-flhook\plugins\playercntl_plugin\src\pimpship.cpp
xdata$x	SEGMENT
__unwindtable$??0EQ_HARDPOINT@PimpShip@@QAE@XZ DD 0ffffffffH
	DD	FLAT:__unwindfunclet$??0EQ_HARDPOINT@PimpShip@@QAE@XZ$0
__ehfuncinfo$??0EQ_HARDPOINT@PimpShip@@QAE@XZ DD 019930522H
	DD	01H
	DD	FLAT:__unwindtable$??0EQ_HARDPOINT@PimpShip@@QAE@XZ
	DD	2 DUP(00H)
	DD	2 DUP(00H)
	DD	00H
	DD	00H
; Function compile flags: /Odtp
xdata$x	ENDS
;	COMDAT ??0EQ_HARDPOINT@PimpShip@@QAE@XZ
_TEXT	SEGMENT
_this$ = -16						; size = 4
__$EHRec$ = -12						; size = 12
??0EQ_HARDPOINT@PimpShip@@QAE@XZ PROC			; PimpShip::EQ_HARDPOINT::EQ_HARDPOINT, COMDAT
; _this$ = ecx
; Line 45
	push	ebp
	mov	ebp, esp
	push	-1
	push	__ehhandler$??0EQ_HARDPOINT@PimpShip@@QAE@XZ
	mov	eax, DWORD PTR fs:0
	push	eax
	push	ecx
	mov	eax, DWORD PTR ___security_cookie
	xor	eax, ebp
	push	eax
	lea	eax, DWORD PTR __$EHRec$[ebp]
	mov	DWORD PTR fs:0, eax
	mov	DWORD PTR _this$[ebp], ecx
	mov	eax, DWORD PTR _this$[ebp]
	mov	DWORD PTR [eax], 0
	mov	ecx, DWORD PTR _this$[ebp]
	mov	DWORD PTR [ecx+4], 0
	mov	edx, DWORD PTR _this$[ebp]
	mov	DWORD PTR [edx+8], 0
	mov	ecx, DWORD PTR _this$[ebp]
	add	ecx, 12					; 0000000cH
	call	DWORD PTR __imp_??0?$basic_string@GU?$char_traits@G@std@@V?$allocator@G@2@@std@@QAE@XZ
	mov	DWORD PTR __$EHRec$[ebp+8], 0
	mov	DWORD PTR __$EHRec$[ebp+8], -1
	mov	eax, DWORD PTR _this$[ebp]
	mov	ecx, DWORD PTR __$EHRec$[ebp]
	mov	DWORD PTR fs:0, ecx
	pop	ecx
	mov	esp, ebp
	pop	ebp
	ret	0
_TEXT	ENDS
;	COMDAT text$x
text$x	SEGMENT
__unwindfunclet$??0EQ_HARDPOINT@PimpShip@@QAE@XZ$0:
	mov	ecx, DWORD PTR _this$[ebp]
	add	ecx, 12					; 0000000cH
	jmp	DWORD PTR __imp_??1?$basic_string@GU?$char_traits@G@std@@V?$allocator@G@2@@std@@QAE@XZ
__ehhandler$??0EQ_HARDPOINT@PimpShip@@QAE@XZ:
	mov	edx, DWORD PTR [esp+8]
	lea	eax, DWORD PTR [edx+12]
	mov	ecx, DWORD PTR [edx-8]
	xor	ecx, eax
	call	@__security_check_cookie@4
	mov	eax, OFFSET __ehfuncinfo$??0EQ_HARDPOINT@PimpShip@@QAE@XZ
	jmp	___CxxFrameHandler3
text$x	ENDS
??0EQ_HARDPOINT@PimpShip@@QAE@XZ ENDP			; PimpShip::EQ_HARDPOINT::EQ_HARDPOINT
PUBLIC	??0iterator@?$_Tree@V?$_Tmap_traits@IUEQ_HARDPOINT@PimpShip@@U?$less@I@std@@V?$allocator@U?$pair@$$CBIUEQ_HARDPOINT@PimpShip@@@std@@@4@$0A@@std@@@std@@QAE@PAU_Node@?$_Tree_nod@V?$_Tmap_traits@IUEQ_HARDPOINT@PimpShip@@U?$less@I@std@@V?$allocator@U?$pair@$$CBIUEQ_HARDPOINT@PimpShip@@@std@@@4@$0A@@std@@@2@PBV12@@Z ; std::_Tree<std::_Tmap_traits<unsigned int,PimpShip::EQ_HARDPOINT,std::less<unsigned int>,std::allocator<std::pair<unsigned int const ,PimpShip::EQ_HARDPOINT> >,0> >::iterator::iterator
PUBLIC	?_Lmost@?$_Tree@V?$_Tmap_traits@IUEQ_HARDPOINT@PimpShip@@U?$less@I@std@@V?$allocator@U?$pair@$$CBIUEQ_HARDPOINT@PimpShip@@@std@@@4@$0A@@std@@@std@@IBEAAPAU_Node@?$_Tree_nod@V?$_Tmap_traits@IUEQ_HARDPOINT@PimpShip@@U?$less@I@std@@V?$allocator@U?$pair@$$CBIUEQ_HARDPOINT@PimpShip@@@std@@@4@$0A@@std@@@2@XZ ; std::_Tree<std::_Tmap_traits<unsigned int,PimpShip::EQ_HARDPOINT,std::less<unsigned int>,std::allocator<std::pair<unsigned int const ,PimpShip::EQ_HARDPOINT> >,0> >::_Lmost
; Function compile flags: /Odtp
;	COMDAT ?begin@?$_Tree@V?$_Tmap_traits@IUEQ_HARDPOINT@PimpShip@@U?$less@I@std@@V?$allocator@U?$pair@$$CBIUEQ_HARDPOINT@PimpShip@@@std@@@4@$0A@@std@@@std@@QAE?AViterator@12@XZ
_TEXT	SEGMENT
_this$ = -4						; size = 4
___$ReturnUdt$ = 8					; size = 4
?begin@?$_Tree@V?$_Tmap_traits@IUEQ_HARDPOINT@PimpShip@@U?$less@I@std@@V?$allocator@U?$pair@$$CBIUEQ_HARDPOINT@PimpShip@@@std@@@4@$0A@@std@@@std@@QAE?AViterator@12@XZ PROC ; std::_Tree<std::_Tmap_traits<unsigned int,PimpShip::EQ_HARDPOINT,std::less<unsigned int>,std::allocator<std::pair<unsigned int const ,PimpShip::EQ_HARDPOINT> >,0> >::begin, COMDAT
; _this$ = ecx
; File c:\program files (x86)\microsoft visual studio 9.0\vc\include\xtree
; Line 555
	push	ebp
	mov	ebp, esp
	push	ecx
	mov	DWORD PTR _this$[ebp], ecx
; Line 556
	mov	eax, DWORD PTR _this$[ebp]
	push	eax
	mov	ecx, DWORD PTR _this$[ebp]
	call	?_Lmost@?$_Tree@V?$_Tmap_traits@IUEQ_HARDPOINT@PimpShip@@U?$less@I@std@@V?$allocator@U?$pair@$$CBIUEQ_HARDPOINT@PimpShip@@@std@@@4@$0A@@std@@@std@@IBEAAPAU_Node@?$_Tree_nod@V?$_Tmap_traits@IUEQ_HARDPOINT@PimpShip@@U?$less@I@std@@V?$allocator@U?$pair@$$CBIUEQ_HARDPOINT@PimpShip@@@std@@@4@$0A@@std@@@2@XZ ; std::_Tree<std::_Tmap_traits<unsigned int,PimpShip::EQ_HARDPOINT,std::less<unsigned int>,std::allocator<std::pair<unsigned int const ,PimpShip::EQ_HARDPOINT> >,0> >::_Lmost
	mov	ecx, DWORD PTR [eax]
	push	ecx
	mov	ecx, DWORD PTR ___$ReturnUdt$[ebp]
	call	??0iterator@?$_Tree@V?$_Tmap_traits@IUEQ_HARDPOINT@PimpShip@@U?$less@I@std@@V?$allocator@U?$pair@$$CBIUEQ_HARDPOINT@PimpShip@@@std@@@4@$0A@@std@@@std@@QAE@PAU_Node@?$_Tree_nod@V?$_Tmap_traits@IUEQ_HARDPOINT@PimpShip@@U?$less@I@std@@V?$allocator@U?$pair@$$CBIUEQ_HARDPOINT@PimpShip@@@std@@@4@$0A@@std@@@2@PBV12@@Z ; std::_Tree<std::_Tmap_traits<unsigned int,PimpShip::EQ_HARDPOINT,std::less<unsigned int>,std::allocator<std::pair<unsigned int const ,PimpShip::EQ_HARDPOINT> >,0> >::iterator::iterator
	mov	eax, DWORD PTR ___$ReturnUdt$[ebp]
; Line 557
	mov	esp, ebp
	pop	ebp
	ret	4
?begin@?$_Tree@V?$_Tmap_traits@IUEQ_HARDPOINT@PimpShip@@U?$less@I@std@@V?$allocator@U?$pair@$$CBIUEQ_HARDPOINT@PimpShip@@@std@@@4@$0A@@std@@@std@@QAE?AViterator@12@XZ ENDP ; std::_Tree<std::_Tmap_traits<unsigned int,PimpShip::EQ_HARDPOINT,std::less<unsigned int>,std::allocator<std::pair<unsigned int const ,PimpShip::EQ_HARDPOINT> >,0> >::begin
; Function compile flags: /Odtp
_TEXT	ENDS
;	COMDAT ?end@?$_Tree@V?$_Tmap_traits@IUEQ_HARDPOINT@PimpShip@@U?$less@I@std@@V?$allocator@U?$pair@$$CBIUEQ_HARDPOINT@PimpShip@@@std@@@4@$0A@@std@@@std@@QAE?AViterator@12@XZ
_TEXT	SEGMENT
_this$ = -4						; size = 4
___$ReturnUdt$ = 8					; size = 4
?end@?$_Tree@V?$_Tmap_traits@IUEQ_HARDPOINT@PimpShip@@U?$less@I@std@@V?$allocator@U?$pair@$$CBIUEQ_HARDPOINT@PimpShip@@@std@@@4@$0A@@std@@@std@@QAE?AViterator@12@XZ PROC ; std::_Tree<std::_Tmap_traits<unsigned int,PimpShip::EQ_HARDPOINT,std::less<unsigned int>,std::allocator<std::pair<unsigned int const ,PimpShip::EQ_HARDPOINT> >,0> >::end, COMDAT
; _this$ = ecx
; Line 565
	push	ebp
	mov	ebp, esp
	push	ecx
	mov	DWORD PTR _this$[ebp], ecx
; Line 566
	mov	eax, DWORD PTR _this$[ebp]
	push	eax
	mov	ecx, DWORD PTR _this$[ebp]
	mov	edx, DWORD PTR [ecx+24]
	push	edx
	mov	ecx, DWORD PTR ___$ReturnUdt$[ebp]
	call	??0iterator@?$_Tree@V?$_Tmap_traits@IUEQ_HARDPOINT@PimpShip@@U?$less@I@std@@V?$allocator@U?$pair@$$CBIUEQ_HARDPOINT@PimpShip@@@std@@@4@$0A@@std@@@std@@QAE@PAU_Node@?$_Tree_nod@V?$_Tmap_traits@IUEQ_HARDPOINT@PimpShip@@U?$less@I@std@@V?$allocator@U?$pair@$$CBIUEQ_HARDPOINT@PimpShip@@@std@@@4@$0A@@std@@@2@PBV12@@Z ; std::_Tree<std::_Tmap_traits<unsigned int,PimpShip::EQ_HARDPOINT,std::less<unsigned int>,std::allocator<std::pair<unsigned int const ,PimpShip::EQ_HARDPOINT> >,0> >::iterator::iterator
	mov	eax, DWORD PTR ___$ReturnUdt$[ebp]
; Line 567
	mov	esp, ebp
	pop	ebp
	ret	4
?end@?$_Tree@V?$_Tmap_traits@IUEQ_HARDPOINT@PimpShip@@U?$less@I@std@@V?$allocator@U?$pair@$$CBIUEQ_HARDPOINT@PimpShip@@@std@@@4@$0A@@std@@@std@@QAE?AViterator@12@XZ ENDP ; std::_Tree<std::_Tmap_traits<unsigned int,PimpShip::EQ_HARDPOINT,std::less<unsigned int>,std::allocator<std::pair<unsigned int const ,PimpShip::EQ_HARDPOINT> >,0> >::end
; Function compile flags: /Odtp
_TEXT	ENDS
;	COMDAT ?size@?$_Tree@V?$_Tmap_traits@IUEQ_HARDPOINT@PimpShip@@U?$less@I@std@@V?$allocator@U?$pair@$$CBIUEQ_HARDPOINT@PimpShip@@@std@@@4@$0A@@std@@@std@@QBEIXZ
_TEXT	SEGMENT
_this$ = -4						; size = 4
?size@?$_Tree@V?$_Tmap_traits@IUEQ_HARDPOINT@PimpShip@@U?$less@I@std@@V?$allocator@U?$pair@$$CBIUEQ_HARDPOINT@PimpShip@@@std@@@4@$0A@@std@@@std@@QBEIXZ PROC ; std::_Tree<std::_Tmap_traits<unsigned int,PimpShip::EQ_HARDPOINT,std::less<unsigned int>,std::allocator<std::pair<unsigned int const ,PimpShip::EQ_HARDPOINT> >,0> >::size, COMDAT
; _this$ = ecx
; Line 600
	push	ebp
	mov	ebp, esp
	push	ecx
	mov	DWORD PTR _this$[ebp], ecx
; Line 601
	mov	eax, DWORD PTR _this$[ebp]
	mov	eax, DWORD PTR [eax+28]
; Line 602
	mov	esp, ebp
	pop	ebp
	ret	0
?size@?$_Tree@V?$_Tmap_traits@IUEQ_HARDPOINT@PimpShip@@U?$less@I@std@@V?$allocator@U?$pair@$$CBIUEQ_HARDPOINT@PimpShip@@@std@@@4@$0A@@std@@@std@@QBEIXZ ENDP ; std::_Tree<std::_Tmap_traits<unsigned int,PimpShip::EQ_HARDPOINT,std::less<unsigned int>,std::allocator<std::pair<unsigned int const ,PimpShip::EQ_HARDPOINT> >,0> >::size
_TEXT	ENDS
PUBLIC	?_Rmost@?$_Tree@V?$_Tmap_traits@IUEQ_HARDPOINT@PimpShip@@U?$less@I@std@@V?$allocator@U?$pair@$$CBIUEQ_HARDPOINT@PimpShip@@@std@@@4@$0A@@std@@@std@@IBEAAPAU_Node@?$_Tree_nod@V?$_Tmap_traits@IUEQ_HARDPOINT@PimpShip@@U?$less@I@std@@V?$allocator@U?$pair@$$CBIUEQ_HARDPOINT@PimpShip@@@std@@@4@$0A@@std@@@2@XZ ; std::_Tree<std::_Tmap_traits<unsigned int,PimpShip::EQ_HARDPOINT,std::less<unsigned int>,std::allocator<std::pair<unsigned int const ,PimpShip::EQ_HARDPOINT> >,0> >::_Rmost
PUBLIC	?_Erase@?$_Tree@V?$_Tmap_traits@IUEQ_HARDPOINT@PimpShip@@U?$less@I@std@@V?$allocator@U?$pair@$$CBIUEQ_HARDPOINT@PimpShip@@@std@@@4@$0A@@std@@@std@@IAEXPAU_Node@?$_Tree_nod@V?$_Tmap_traits@IUEQ_HARDPOINT@PimpShip@@U?$less@I@std@@V?$allocator@U?$pair@$$CBIUEQ_HARDPOINT@PimpShip@@@std@@@4@$0A@@std@@@2@@Z ; std::_Tree<std::_Tmap_traits<unsigned int,PimpShip::EQ_HARDPOINT,std::less<unsigned int>,std::allocator<std::pair<unsigned int const ,PimpShip::EQ_HARDPOINT> >,0> >::_Erase
PUBLIC	?_Root@?$_Tree@V?$_Tmap_traits@IUEQ_HARDPOINT@PimpShip@@U?$less@I@std@@V?$allocator@U?$pair@$$CBIUEQ_HARDPOINT@PimpShip@@@std@@@4@$0A@@std@@@std@@IBEAAPAU_Node@?$_Tree_nod@V?$_Tmap_traits@IUEQ_HARDPOINT@PimpShip@@U?$less@I@std@@V?$allocator@U?$pair@$$CBIUEQ_HARDPOINT@PimpShip@@@std@@@4@$0A@@std@@@2@XZ ; std::_Tree<std::_Tmap_traits<unsigned int,PimpShip::EQ_HARDPOINT,std::less<unsigned int>,std::allocator<std::pair<unsigned int const ,PimpShip::EQ_HARDPOINT> >,0> >::_Root
; Function compile flags: /Odtp
;	COMDAT ?clear@?$_Tree@V?$_Tmap_traits@IUEQ_HARDPOINT@PimpShip@@U?$less@I@std@@V?$allocator@U?$pair@$$CBIUEQ_HARDPOINT@PimpShip@@@std@@@4@$0A@@std@@@std@@QAEXXZ
_TEXT	SEGMENT
_this$ = -4						; size = 4
?clear@?$_Tree@V?$_Tmap_traits@IUEQ_HARDPOINT@PimpShip@@U?$less@I@std@@V?$allocator@U?$pair@$$CBIUEQ_HARDPOINT@PimpShip@@@std@@@4@$0A@@std@@@std@@QAEXXZ PROC ; std::_Tree<std::_Tmap_traits<unsigned int,PimpShip::EQ_HARDPOINT,std::less<unsigned int>,std::allocator<std::pair<unsigned int const ,PimpShip::EQ_HARDPOINT> >,0> >::clear, COMDAT
; _this$ = ecx
; Line 965
	push	ebp
	mov	ebp, esp
	push	ecx
	mov	DWORD PTR _this$[ebp], ecx
; Line 971
	mov	ecx, DWORD PTR _this$[ebp]
	call	?_Root@?$_Tree@V?$_Tmap_traits@IUEQ_HARDPOINT@PimpShip@@U?$less@I@std@@V?$allocator@U?$pair@$$CBIUEQ_HARDPOINT@PimpShip@@@std@@@4@$0A@@std@@@std@@IBEAAPAU_Node@?$_Tree_nod@V?$_Tmap_traits@IUEQ_HARDPOINT@PimpShip@@U?$less@I@std@@V?$allocator@U?$pair@$$CBIUEQ_HARDPOINT@PimpShip@@@std@@@4@$0A@@std@@@2@XZ ; std::_Tree<std::_Tmap_traits<unsigned int,PimpShip::EQ_HARDPOINT,std::less<unsigned int>,std::allocator<std::pair<unsigned int const ,PimpShip::EQ_HARDPOINT> >,0> >::_Root
	mov	eax, DWORD PTR [eax]
	push	eax
	mov	ecx, DWORD PTR _this$[ebp]
	call	?_Erase@?$_Tree@V?$_Tmap_traits@IUEQ_HARDPOINT@PimpShip@@U?$less@I@std@@V?$allocator@U?$pair@$$CBIUEQ_HARDPOINT@PimpShip@@@std@@@4@$0A@@std@@@std@@IAEXPAU_Node@?$_Tree_nod@V?$_Tmap_traits@IUEQ_HARDPOINT@PimpShip@@U?$less@I@std@@V?$allocator@U?$pair@$$CBIUEQ_HARDPOINT@PimpShip@@@std@@@4@$0A@@std@@@2@@Z ; std::_Tree<std::_Tmap_traits<unsigned int,PimpShip::EQ_HARDPOINT,std::less<unsigned int>,std::allocator<std::pair<unsigned int const ,PimpShip::EQ_HARDPOINT> >,0> >::_Erase
; Line 972
	mov	ecx, DWORD PTR _this$[ebp]
	call	?_Root@?$_Tree@V?$_Tmap_traits@IUEQ_HARDPOINT@PimpShip@@U?$less@I@std@@V?$allocator@U?$pair@$$CBIUEQ_HARDPOINT@PimpShip@@@std@@@4@$0A@@std@@@std@@IBEAAPAU_Node@?$_Tree_nod@V?$_Tmap_traits@IUEQ_HARDPOINT@PimpShip@@U?$less@I@std@@V?$allocator@U?$pair@$$CBIUEQ_HARDPOINT@PimpShip@@@std@@@4@$0A@@std@@@2@XZ ; std::_Tree<std::_Tmap_traits<unsigned int,PimpShip::EQ_HARDPOINT,std::less<unsigned int>,std::allocator<std::pair<unsigned int const ,PimpShip::EQ_HARDPOINT> >,0> >::_Root
	mov	ecx, DWORD PTR _this$[ebp]
	mov	edx, DWORD PTR [ecx+24]
	mov	DWORD PTR [eax], edx
	mov	eax, DWORD PTR _this$[ebp]
	mov	DWORD PTR [eax+28], 0
; Line 973
	mov	ecx, DWORD PTR _this$[ebp]
	call	?_Lmost@?$_Tree@V?$_Tmap_traits@IUEQ_HARDPOINT@PimpShip@@U?$less@I@std@@V?$allocator@U?$pair@$$CBIUEQ_HARDPOINT@PimpShip@@@std@@@4@$0A@@std@@@std@@IBEAAPAU_Node@?$_Tree_nod@V?$_Tmap_traits@IUEQ_HARDPOINT@PimpShip@@U?$less@I@std@@V?$allocator@U?$pair@$$CBIUEQ_HARDPOINT@PimpShip@@@std@@@4@$0A@@std@@@2@XZ ; std::_Tree<std::_Tmap_traits<unsigned int,PimpShip::EQ_HARDPOINT,std::less<unsigned int>,std::allocator<std::pair<unsigned int const ,PimpShip::EQ_HARDPOINT> >,0> >::_Lmost
	mov	ecx, DWORD PTR _this$[ebp]
	mov	edx, DWORD PTR [ecx+24]
	mov	DWORD PTR [eax], edx
	mov	ecx, DWORD PTR _this$[ebp]
	call	?_Rmost@?$_Tree@V?$_Tmap_traits@IUEQ_HARDPOINT@PimpShip@@U?$less@I@std@@V?$allocator@U?$pair@$$CBIUEQ_HARDPOINT@PimpShip@@@std@@@4@$0A@@std@@@std@@IBEAAPAU_Node@?$_Tree_nod@V?$_Tmap_traits@IUEQ_HARDPOINT@PimpShip@@U?$less@I@std@@V?$allocator@U?$pair@$$CBIUEQ_HARDPOINT@PimpShip@@@std@@@4@$0A@@std@@@2@XZ ; std::_Tree<std::_Tmap_traits<unsigned int,PimpShip::EQ_HARDPOINT,std::less<unsigned int>,std::allocator<std::pair<unsigned int const ,PimpShip::EQ_HARDPOINT> >,0> >::_Rmost
	mov	ecx, DWORD PTR _this$[ebp]
	mov	edx, DWORD PTR [ecx+24]
	mov	DWORD PTR [eax], edx
; Line 974
	mov	esp, ebp
	pop	ebp
	ret	0
?clear@?$_Tree@V?$_Tmap_traits@IUEQ_HARDPOINT@PimpShip@@U?$less@I@std@@V?$allocator@U?$pair@$$CBIUEQ_HARDPOINT@PimpShip@@@std@@@4@$0A@@std@@@std@@QAEXXZ ENDP ; std::_Tree<std::_Tmap_traits<unsigned int,PimpShip::EQ_HARDPOINT,std::less<unsigned int>,std::allocator<std::pair<unsigned int const ,PimpShip::EQ_HARDPOINT> >,0> >::clear
; Function compile flags: /Odtp
_TEXT	ENDS
;	COMDAT ?find@?$_Tree@V?$_Tmap_traits@IUEQ_HARDPOINT@PimpShip@@U?$less@I@std@@V?$allocator@U?$pair@$$CBIUEQ_HARDPOINT@PimpShip@@@std@@@4@$0A@@std@@@std@@QAE?AViterator@12@ABI@Z
_TEXT	SEGMENT
tv137 = -36						; size = 4
_this$ = -32						; size = 4
$T151049 = -28						; size = 8
$T151047 = -20						; size = 8
$T151046 = -12						; size = 4
__Where$ = -8						; size = 8
___$ReturnUdt$ = 8					; size = 4
__Keyval$ = 12						; size = 4
?find@?$_Tree@V?$_Tmap_traits@IUEQ_HARDPOINT@PimpShip@@U?$less@I@std@@V?$allocator@U?$pair@$$CBIUEQ_HARDPOINT@PimpShip@@@std@@@4@$0A@@std@@@std@@QAE?AViterator@12@ABI@Z PROC ; std::_Tree<std::_Tmap_traits<unsigned int,PimpShip::EQ_HARDPOINT,std::less<unsigned int>,std::allocator<std::pair<unsigned int const ,PimpShip::EQ_HARDPOINT> >,0> >::find, COMDAT
; _this$ = ecx
; Line 977
	push	ebp
	mov	ebp, esp
	sub	esp, 36					; 00000024H
	mov	DWORD PTR _this$[ebp], ecx
; Line 978
	mov	eax, DWORD PTR __Keyval$[ebp]
	push	eax
	lea	ecx, DWORD PTR __Where$[ebp]
	push	ecx
	mov	ecx, DWORD PTR _this$[ebp]
	call	?lower_bound@?$_Tree@V?$_Tmap_traits@IUEQ_HARDPOINT@PimpShip@@U?$less@I@std@@V?$allocator@U?$pair@$$CBIUEQ_HARDPOINT@PimpShip@@@std@@@4@$0A@@std@@@std@@QAE?AViterator@12@ABI@Z ; std::_Tree<std::_Tmap_traits<unsigned int,PimpShip::EQ_HARDPOINT,std::less<unsigned int>,std::allocator<std::pair<unsigned int const ,PimpShip::EQ_HARDPOINT> >,0> >::lower_bound
; Line 982
	lea	edx, DWORD PTR $T151047[ebp]
	push	edx
	mov	ecx, DWORD PTR _this$[ebp]
	call	?end@?$_Tree@V?$_Tmap_traits@IUEQ_HARDPOINT@PimpShip@@U?$less@I@std@@V?$allocator@U?$pair@$$CBIUEQ_HARDPOINT@PimpShip@@@std@@@4@$0A@@std@@@std@@QAE?AViterator@12@XZ ; std::_Tree<std::_Tmap_traits<unsigned int,PimpShip::EQ_HARDPOINT,std::less<unsigned int>,std::allocator<std::pair<unsigned int const ,PimpShip::EQ_HARDPOINT> >,0> >::end
	push	eax
	lea	ecx, DWORD PTR __Where$[ebp]
	call	??8const_iterator@?$_Tree@V?$_Tmap_traits@IUEQ_HARDPOINT@PimpShip@@U?$less@I@std@@V?$allocator@U?$pair@$$CBIUEQ_HARDPOINT@PimpShip@@@std@@@4@$0A@@std@@@std@@QBE_NABV012@@Z ; std::_Tree<std::_Tmap_traits<unsigned int,PimpShip::EQ_HARDPOINT,std::less<unsigned int>,std::allocator<std::pair<unsigned int const ,PimpShip::EQ_HARDPOINT> >,0> >::const_iterator::operator==
	movzx	eax, al
	test	eax, eax
	jne	SHORT $LN3@find@2
	lea	ecx, DWORD PTR __Where$[ebp]
	call	?_Mynode@const_iterator@?$_Tree@V?$_Tmap_traits@IUEQ_HARDPOINT@PimpShip@@U?$less@I@std@@V?$allocator@U?$pair@$$CBIUEQ_HARDPOINT@PimpShip@@@std@@@4@$0A@@std@@@std@@QBEPAU_Node@?$_Tree_nod@V?$_Tmap_traits@IUEQ_HARDPOINT@PimpShip@@U?$less@I@std@@V?$allocator@U?$pair@$$CBIUEQ_HARDPOINT@PimpShip@@@std@@@4@$0A@@std@@@3@XZ ; std::_Tree<std::_Tmap_traits<unsigned int,PimpShip::EQ_HARDPOINT,std::less<unsigned int>,std::allocator<std::pair<unsigned int const ,PimpShip::EQ_HARDPOINT> >,0> >::const_iterator::_Mynode
	push	eax
	call	?_Key@?$_Tree@V?$_Tmap_traits@IUEQ_HARDPOINT@PimpShip@@U?$less@I@std@@V?$allocator@U?$pair@$$CBIUEQ_HARDPOINT@PimpShip@@@std@@@4@$0A@@std@@@std@@KAABIPAU_Node@?$_Tree_nod@V?$_Tmap_traits@IUEQ_HARDPOINT@PimpShip@@U?$less@I@std@@V?$allocator@U?$pair@$$CBIUEQ_HARDPOINT@PimpShip@@@std@@@4@$0A@@std@@@2@@Z ; std::_Tree<std::_Tmap_traits<unsigned int,PimpShip::EQ_HARDPOINT,std::less<unsigned int>,std::allocator<std::pair<unsigned int const ,PimpShip::EQ_HARDPOINT> >,0> >::_Key
	add	esp, 4
	push	eax
	mov	ecx, DWORD PTR __Keyval$[ebp]
	push	ecx
	mov	ecx, DWORD PTR _this$[ebp]
	add	ecx, 8
	call	??R?$less@I@std@@QBE_NABI0@Z		; std::less<unsigned int>::operator()
	movzx	edx, al
	test	edx, edx
	jne	SHORT $LN3@find@2
	lea	eax, DWORD PTR __Where$[ebp]
	mov	DWORD PTR tv137[ebp], eax
	jmp	SHORT $LN4@find@2
$LN3@find@2:
	lea	ecx, DWORD PTR $T151049[ebp]
	push	ecx
	mov	ecx, DWORD PTR _this$[ebp]
	call	?end@?$_Tree@V?$_Tmap_traits@IUEQ_HARDPOINT@PimpShip@@U?$less@I@std@@V?$allocator@U?$pair@$$CBIUEQ_HARDPOINT@PimpShip@@@std@@@4@$0A@@std@@@std@@QAE?AViterator@12@XZ ; std::_Tree<std::_Tmap_traits<unsigned int,PimpShip::EQ_HARDPOINT,std::less<unsigned int>,std::allocator<std::pair<unsigned int const ,PimpShip::EQ_HARDPOINT> >,0> >::end
	mov	DWORD PTR tv137[ebp], eax
$LN4@find@2:
	mov	edx, DWORD PTR tv137[ebp]
	mov	DWORD PTR $T151046[ebp], edx
	mov	eax, DWORD PTR $T151046[ebp]
	mov	ecx, DWORD PTR [eax]
	mov	edx, DWORD PTR [eax+4]
	mov	eax, DWORD PTR ___$ReturnUdt$[ebp]
	mov	DWORD PTR [eax], ecx
	mov	DWORD PTR [eax+4], edx
	mov	eax, DWORD PTR ___$ReturnUdt$[ebp]
; Line 983
	mov	esp, ebp
	pop	ebp
	ret	8
?find@?$_Tree@V?$_Tmap_traits@IUEQ_HARDPOINT@PimpShip@@U?$less@I@std@@V?$allocator@U?$pair@$$CBIUEQ_HARDPOINT@PimpShip@@@std@@@4@$0A@@std@@@std@@QAE?AViterator@12@ABI@Z ENDP ; std::_Tree<std::_Tmap_traits<unsigned int,PimpShip::EQ_HARDPOINT,std::less<unsigned int>,std::allocator<std::pair<unsigned int const ,PimpShip::EQ_HARDPOINT> >,0> >::find
_TEXT	ENDS
PUBLIC	??Diterator@?$_Tree@V?$_Tmap_traits@IUINFO@PimpShip@@U?$less@I@std@@V?$allocator@U?$pair@$$CBIUINFO@PimpShip@@@std@@@4@$0A@@std@@@std@@QBEAAU?$pair@$$CBIUINFO@PimpShip@@@2@XZ ; std::_Tree<std::_Tmap_traits<unsigned int,PimpShip::INFO,std::less<unsigned int>,std::allocator<std::pair<unsigned int const ,PimpShip::INFO> >,0> >::iterator::operator*
PUBLIC	??1INFO@PimpShip@@QAE@XZ			; PimpShip::INFO::~INFO
PUBLIC	??1?$pair@$$CBIUINFO@PimpShip@@@std@@QAE@XZ	; std::pair<unsigned int const ,PimpShip::INFO>::~pair<unsigned int const ,PimpShip::INFO>
PUBLIC	?insert@?$_Tree@V?$_Tmap_traits@IUINFO@PimpShip@@U?$less@I@std@@V?$allocator@U?$pair@$$CBIUINFO@PimpShip@@@std@@@4@$0A@@std@@@std@@QAE?AViterator@12@Vconst_iterator@12@ABU?$pair@$$CBIUINFO@PimpShip@@@2@@Z ; std::_Tree<std::_Tmap_traits<unsigned int,PimpShip::INFO,std::less<unsigned int>,std::allocator<std::pair<unsigned int const ,PimpShip::INFO> >,0> >::insert
PUBLIC	??0?$pair@$$CBIUINFO@PimpShip@@@std@@QAE@ABIABUINFO@PimpShip@@@Z ; std::pair<unsigned int const ,PimpShip::INFO>::pair<unsigned int const ,PimpShip::INFO>
PUBLIC	??0INFO@PimpShip@@QAE@XZ			; PimpShip::INFO::INFO
PUBLIC	?_Key@?$_Tree@V?$_Tmap_traits@IUINFO@PimpShip@@U?$less@I@std@@V?$allocator@U?$pair@$$CBIUINFO@PimpShip@@@std@@@4@$0A@@std@@@std@@KAABIPAU_Node@?$_Tree_nod@V?$_Tmap_traits@IUINFO@PimpShip@@U?$less@I@std@@V?$allocator@U?$pair@$$CBIUINFO@PimpShip@@@std@@@4@$0A@@std@@@2@@Z ; std::_Tree<std::_Tmap_traits<unsigned int,PimpShip::INFO,std::less<unsigned int>,std::allocator<std::pair<unsigned int const ,PimpShip::INFO> >,0> >::_Key
PUBLIC	?_Mynode@const_iterator@?$_Tree@V?$_Tmap_traits@IUINFO@PimpShip@@U?$less@I@std@@V?$allocator@U?$pair@$$CBIUINFO@PimpShip@@@std@@@4@$0A@@std@@@std@@QBEPAU_Node@?$_Tree_nod@V?$_Tmap_traits@IUINFO@PimpShip@@U?$less@I@std@@V?$allocator@U?$pair@$$CBIUINFO@PimpShip@@@std@@@4@$0A@@std@@@3@XZ ; std::_Tree<std::_Tmap_traits<unsigned int,PimpShip::INFO,std::less<unsigned int>,std::allocator<std::pair<unsigned int const ,PimpShip::INFO> >,0> >::const_iterator::_Mynode
PUBLIC	??8const_iterator@?$_Tree@V?$_Tmap_traits@IUINFO@PimpShip@@U?$less@I@std@@V?$allocator@U?$pair@$$CBIUINFO@PimpShip@@@std@@@4@$0A@@std@@@std@@QBE_NABV012@@Z ; std::_Tree<std::_Tmap_traits<unsigned int,PimpShip::INFO,std::less<unsigned int>,std::allocator<std::pair<unsigned int const ,PimpShip::INFO> >,0> >::const_iterator::operator==
PUBLIC	?end@?$_Tree@V?$_Tmap_traits@IUINFO@PimpShip@@U?$less@I@std@@V?$allocator@U?$pair@$$CBIUINFO@PimpShip@@@std@@@4@$0A@@std@@@std@@QAE?AViterator@12@XZ ; std::_Tree<std::_Tmap_traits<unsigned int,PimpShip::INFO,std::less<unsigned int>,std::allocator<std::pair<unsigned int const ,PimpShip::INFO> >,0> >::end
PUBLIC	?lower_bound@?$_Tree@V?$_Tmap_traits@IUINFO@PimpShip@@U?$less@I@std@@V?$allocator@U?$pair@$$CBIUINFO@PimpShip@@@std@@@4@$0A@@std@@@std@@QAE?AViterator@12@ABI@Z ; std::_Tree<std::_Tmap_traits<unsigned int,PimpShip::INFO,std::less<unsigned int>,std::allocator<std::pair<unsigned int const ,PimpShip::INFO> >,0> >::lower_bound
;	COMDAT xdata$x
; File c:\program files (x86)\microsoft visual studio 9.0\vc\include\map
xdata$x	SEGMENT
__unwindtable$??A?$map@IUINFO@PimpShip@@U?$less@I@std@@V?$allocator@U?$pair@$$CBIUINFO@PimpShip@@@std@@@4@@std@@QAEAAUINFO@PimpShip@@ABI@Z DD 0ffffffffH
	DD	FLAT:__unwindfunclet$??A?$map@IUINFO@PimpShip@@U?$less@I@std@@V?$allocator@U?$pair@$$CBIUINFO@PimpShip@@@std@@@4@@std@@QAEAAUINFO@PimpShip@@ABI@Z$0
	DD	00H
	DD	FLAT:__unwindfunclet$??A?$map@IUINFO@PimpShip@@U?$less@I@std@@V?$allocator@U?$pair@$$CBIUINFO@PimpShip@@@std@@@4@@std@@QAEAAUINFO@PimpShip@@ABI@Z$1
__ehfuncinfo$??A?$map@IUINFO@PimpShip@@U?$less@I@std@@V?$allocator@U?$pair@$$CBIUINFO@PimpShip@@@std@@@4@@std@@QAEAAUINFO@PimpShip@@ABI@Z DD 019930522H
	DD	02H
	DD	FLAT:__unwindtable$??A?$map@IUINFO@PimpShip@@U?$less@I@std@@V?$allocator@U?$pair@$$CBIUINFO@PimpShip@@@std@@@4@@std@@QAEAAUINFO@PimpShip@@ABI@Z
	DD	2 DUP(00H)
	DD	2 DUP(00H)
	DD	00H
	DD	00H
; Function compile flags: /Odtp
xdata$x	ENDS
;	COMDAT ??A?$map@IUINFO@PimpShip@@U?$less@I@std@@V?$allocator@U?$pair@$$CBIUINFO@PimpShip@@@std@@@4@@std@@QAEAAUINFO@PimpShip@@ABI@Z
_TEXT	SEGMENT
tv172 = -140						; size = 4
tv174 = -136						; size = 4
tv170 = -132						; size = 4
tv173 = -128						; size = 4
_this$ = -124						; size = 4
$T151057 = -120						; size = 8
$T151056 = -112						; size = 8
$T151055 = -104						; size = 36
$T151054 = -68						; size = 40
$T151053 = -28						; size = 8
__Where$ = -20						; size = 8
__$EHRec$ = -12						; size = 12
__Keyval$ = 8						; size = 4
??A?$map@IUINFO@PimpShip@@U?$less@I@std@@V?$allocator@U?$pair@$$CBIUINFO@PimpShip@@@std@@@4@@std@@QAEAAUINFO@PimpShip@@ABI@Z PROC ; std::map<unsigned int,PimpShip::INFO,std::less<unsigned int>,std::allocator<std::pair<unsigned int const ,PimpShip::INFO> > >::operator[], COMDAT
; _this$ = ecx
; Line 168
	push	ebp
	mov	ebp, esp
	push	-1
	push	__ehhandler$??A?$map@IUINFO@PimpShip@@U?$less@I@std@@V?$allocator@U?$pair@$$CBIUINFO@PimpShip@@@std@@@4@@std@@QAEAAUINFO@PimpShip@@ABI@Z
	mov	eax, DWORD PTR fs:0
	push	eax
	sub	esp, 128				; 00000080H
	mov	eax, DWORD PTR ___security_cookie
	xor	eax, ebp
	push	eax
	lea	eax, DWORD PTR __$EHRec$[ebp]
	mov	DWORD PTR fs:0, eax
	mov	DWORD PTR _this$[ebp], ecx
; Line 169
	mov	eax, DWORD PTR __Keyval$[ebp]
	push	eax
	lea	ecx, DWORD PTR __Where$[ebp]
	push	ecx
	mov	ecx, DWORD PTR _this$[ebp]
	call	?lower_bound@?$_Tree@V?$_Tmap_traits@IUINFO@PimpShip@@U?$less@I@std@@V?$allocator@U?$pair@$$CBIUINFO@PimpShip@@@std@@@4@$0A@@std@@@std@@QAE?AViterator@12@ABI@Z ; std::_Tree<std::_Tmap_traits<unsigned int,PimpShip::INFO,std::less<unsigned int>,std::allocator<std::pair<unsigned int const ,PimpShip::INFO> >,0> >::lower_bound
; Line 171
	lea	edx, DWORD PTR $T151053[ebp]
	push	edx
	mov	ecx, DWORD PTR _this$[ebp]
	call	?end@?$_Tree@V?$_Tmap_traits@IUINFO@PimpShip@@U?$less@I@std@@V?$allocator@U?$pair@$$CBIUINFO@PimpShip@@@std@@@4@$0A@@std@@@std@@QAE?AViterator@12@XZ ; std::_Tree<std::_Tmap_traits<unsigned int,PimpShip::INFO,std::less<unsigned int>,std::allocator<std::pair<unsigned int const ,PimpShip::INFO> >,0> >::end
	push	eax
	lea	ecx, DWORD PTR __Where$[ebp]
	call	??8const_iterator@?$_Tree@V?$_Tmap_traits@IUINFO@PimpShip@@U?$less@I@std@@V?$allocator@U?$pair@$$CBIUINFO@PimpShip@@@std@@@4@$0A@@std@@@std@@QBE_NABV012@@Z ; std::_Tree<std::_Tmap_traits<unsigned int,PimpShip::INFO,std::less<unsigned int>,std::allocator<std::pair<unsigned int const ,PimpShip::INFO> >,0> >::const_iterator::operator==
	movzx	eax, al
	test	eax, eax
	jne	SHORT $LN1@operator@3
	lea	ecx, DWORD PTR __Where$[ebp]
	call	?_Mynode@const_iterator@?$_Tree@V?$_Tmap_traits@IUINFO@PimpShip@@U?$less@I@std@@V?$allocator@U?$pair@$$CBIUINFO@PimpShip@@@std@@@4@$0A@@std@@@std@@QBEPAU_Node@?$_Tree_nod@V?$_Tmap_traits@IUINFO@PimpShip@@U?$less@I@std@@V?$allocator@U?$pair@$$CBIUINFO@PimpShip@@@std@@@4@$0A@@std@@@3@XZ ; std::_Tree<std::_Tmap_traits<unsigned int,PimpShip::INFO,std::less<unsigned int>,std::allocator<std::pair<unsigned int const ,PimpShip::INFO> >,0> >::const_iterator::_Mynode
	push	eax
	call	?_Key@?$_Tree@V?$_Tmap_traits@IUINFO@PimpShip@@U?$less@I@std@@V?$allocator@U?$pair@$$CBIUINFO@PimpShip@@@std@@@4@$0A@@std@@@std@@KAABIPAU_Node@?$_Tree_nod@V?$_Tmap_traits@IUINFO@PimpShip@@U?$less@I@std@@V?$allocator@U?$pair@$$CBIUINFO@PimpShip@@@std@@@4@$0A@@std@@@2@@Z ; std::_Tree<std::_Tmap_traits<unsigned int,PimpShip::INFO,std::less<unsigned int>,std::allocator<std::pair<unsigned int const ,PimpShip::INFO> >,0> >::_Key
	add	esp, 4
	push	eax
	mov	ecx, DWORD PTR __Keyval$[ebp]
	push	ecx
	mov	ecx, DWORD PTR _this$[ebp]
	add	ecx, 8
	call	??R?$less@I@std@@QBE_NABI0@Z		; std::less<unsigned int>::operator()
	movzx	edx, al
	test	edx, edx
	je	$LN2@operator@3
$LN1@operator@3:
; Line 173
	mov	eax, DWORD PTR __Where$[ebp]
	mov	DWORD PTR $T151056[ebp], eax
	mov	ecx, DWORD PTR __Where$[ebp+4]
	mov	DWORD PTR $T151056[ebp+4], ecx
	lea	ecx, DWORD PTR $T151055[ebp]
	call	??0INFO@PimpShip@@QAE@XZ		; PimpShip::INFO::INFO
	mov	DWORD PTR tv173[ebp], eax
	mov	edx, DWORD PTR tv173[ebp]
	mov	DWORD PTR tv170[ebp], edx
	mov	DWORD PTR __$EHRec$[ebp+8], 0
	mov	eax, DWORD PTR tv170[ebp]
	push	eax
	mov	ecx, DWORD PTR __Keyval$[ebp]
	push	ecx
	lea	ecx, DWORD PTR $T151054[ebp]
	call	??0?$pair@$$CBIUINFO@PimpShip@@@std@@QAE@ABIABUINFO@PimpShip@@@Z ; std::pair<unsigned int const ,PimpShip::INFO>::pair<unsigned int const ,PimpShip::INFO>
	mov	DWORD PTR tv174[ebp], eax
	mov	edx, DWORD PTR tv174[ebp]
	mov	DWORD PTR tv172[ebp], edx
	mov	BYTE PTR __$EHRec$[ebp+8], 1
	mov	eax, DWORD PTR tv172[ebp]
	push	eax
	mov	ecx, DWORD PTR $T151056[ebp+4]
	push	ecx
	mov	edx, DWORD PTR $T151056[ebp]
	push	edx
	lea	eax, DWORD PTR $T151057[ebp]
	push	eax
	mov	ecx, DWORD PTR _this$[ebp]
	call	?insert@?$_Tree@V?$_Tmap_traits@IUINFO@PimpShip@@U?$less@I@std@@V?$allocator@U?$pair@$$CBIUINFO@PimpShip@@@std@@@4@$0A@@std@@@std@@QAE?AViterator@12@Vconst_iterator@12@ABU?$pair@$$CBIUINFO@PimpShip@@@2@@Z ; std::_Tree<std::_Tmap_traits<unsigned int,PimpShip::INFO,std::less<unsigned int>,std::allocator<std::pair<unsigned int const ,PimpShip::INFO> >,0> >::insert
	mov	ecx, DWORD PTR [eax]
	mov	edx, DWORD PTR [eax+4]
	mov	DWORD PTR __Where$[ebp], ecx
	mov	DWORD PTR __Where$[ebp+4], edx
	mov	BYTE PTR __$EHRec$[ebp+8], 0
	lea	ecx, DWORD PTR $T151054[ebp]
	call	??1?$pair@$$CBIUINFO@PimpShip@@@std@@QAE@XZ
	mov	DWORD PTR __$EHRec$[ebp+8], -1
	lea	ecx, DWORD PTR $T151055[ebp]
	call	??1INFO@PimpShip@@QAE@XZ
$LN2@operator@3:
; Line 174
	lea	ecx, DWORD PTR __Where$[ebp]
	call	??Diterator@?$_Tree@V?$_Tmap_traits@IUINFO@PimpShip@@U?$less@I@std@@V?$allocator@U?$pair@$$CBIUINFO@PimpShip@@@std@@@4@$0A@@std@@@std@@QBEAAU?$pair@$$CBIUINFO@PimpShip@@@2@XZ ; std::_Tree<std::_Tmap_traits<unsigned int,PimpShip::INFO,std::less<unsigned int>,std::allocator<std::pair<unsigned int const ,PimpShip::INFO> >,0> >::iterator::operator*
	add	eax, 4
; Line 175
	mov	ecx, DWORD PTR __$EHRec$[ebp]
	mov	DWORD PTR fs:0, ecx
	pop	ecx
	mov	esp, ebp
	pop	ebp
	ret	4
_TEXT	ENDS
;	COMDAT text$x
text$x	SEGMENT
__unwindfunclet$??A?$map@IUINFO@PimpShip@@U?$less@I@std@@V?$allocator@U?$pair@$$CBIUINFO@PimpShip@@@std@@@4@@std@@QAEAAUINFO@PimpShip@@ABI@Z$0:
	lea	ecx, DWORD PTR $T151055[ebp]
	jmp	??1INFO@PimpShip@@QAE@XZ
__unwindfunclet$??A?$map@IUINFO@PimpShip@@U?$less@I@std@@V?$allocator@U?$pair@$$CBIUINFO@PimpShip@@@std@@@4@@std@@QAEAAUINFO@PimpShip@@ABI@Z$1:
	lea	ecx, DWORD PTR $T151054[ebp]
	jmp	??1?$pair@$$CBIUINFO@PimpShip@@@std@@QAE@XZ
__ehhandler$??A?$map@IUINFO@PimpShip@@U?$less@I@std@@V?$allocator@U?$pair@$$CBIUINFO@PimpShip@@@std@@@4@@std@@QAEAAUINFO@PimpShip@@ABI@Z:
	mov	edx, DWORD PTR [esp+8]
	lea	eax, DWORD PTR [edx+12]
	mov	ecx, DWORD PTR [edx-132]
	xor	ecx, eax
	call	@__security_check_cookie@4
	mov	eax, OFFSET __ehfuncinfo$??A?$map@IUINFO@PimpShip@@U?$less@I@std@@V?$allocator@U?$pair@$$CBIUINFO@PimpShip@@@std@@@4@@std@@QAEAAUINFO@PimpShip@@ABI@Z
	jmp	___CxxFrameHandler3
text$x	ENDS
??A?$map@IUINFO@PimpShip@@U?$less@I@std@@V?$allocator@U?$pair@$$CBIUINFO@PimpShip@@@std@@@4@@std@@QAEAAUINFO@PimpShip@@ABI@Z ENDP ; std::map<unsigned int,PimpShip::INFO,std::less<unsigned int>,std::allocator<std::pair<unsigned int const ,PimpShip::INFO> > >::operator[]
PUBLIC	??1?$map@IUEQ_HARDPOINT@PimpShip@@U?$less@I@std@@V?$allocator@U?$pair@$$CBIUEQ_HARDPOINT@PimpShip@@@std@@@4@@std@@QAE@XZ ; std::map<unsigned int,PimpShip::EQ_HARDPOINT,std::less<unsigned int>,std::allocator<std::pair<unsigned int const ,PimpShip::EQ_HARDPOINT> > >::~map<unsigned int,PimpShip::EQ_HARDPOINT,std::less<unsigned int>,std::allocator<std::pair<unsigned int const ,PimpShip::EQ_HARDPOINT> > >
PUBLIC	??0?$map@IUEQ_HARDPOINT@PimpShip@@U?$less@I@std@@V?$allocator@U?$pair@$$CBIUEQ_HARDPOINT@PimpShip@@@std@@@4@@std@@QAE@XZ ; std::map<unsigned int,PimpShip::EQ_HARDPOINT,std::less<unsigned int>,std::allocator<std::pair<unsigned int const ,PimpShip::EQ_HARDPOINT> > >::map<unsigned int,PimpShip::EQ_HARDPOINT,std::less<unsigned int>,std::allocator<std::pair<unsigned int const ,PimpShip::EQ_HARDPOINT> > >
;	COMDAT xdata$x
; File g:\max\bastelstube\github\fl-mod-flhook\plugins\playercntl_plugin\src\pimpship.cpp
xdata$x	SEGMENT
__unwindtable$??0INFO@PimpShip@@QAE@XZ DD 0ffffffffH
	DD	FLAT:__unwindfunclet$??0INFO@PimpShip@@QAE@XZ$0
__ehfuncinfo$??0INFO@PimpShip@@QAE@XZ DD 019930522H
	DD	01H
	DD	FLAT:__unwindtable$??0INFO@PimpShip@@QAE@XZ
	DD	2 DUP(00H)
	DD	2 DUP(00H)
	DD	00H
	DD	00H
; Function compile flags: /Odtp
xdata$x	ENDS
;	COMDAT ??0INFO@PimpShip@@QAE@XZ
_TEXT	SEGMENT
_this$ = -16						; size = 4
__$EHRec$ = -12						; size = 12
??0INFO@PimpShip@@QAE@XZ PROC				; PimpShip::INFO::INFO, COMDAT
; _this$ = ecx
; Line 56
	push	ebp
	mov	ebp, esp
	push	-1
	push	__ehhandler$??0INFO@PimpShip@@QAE@XZ
	mov	eax, DWORD PTR fs:0
	push	eax
	push	ecx
	mov	eax, DWORD PTR ___security_cookie
	xor	eax, ebp
	push	eax
	lea	eax, DWORD PTR __$EHRec$[ebp]
	mov	DWORD PTR fs:0, eax
	mov	DWORD PTR _this$[ebp], ecx
	mov	ecx, DWORD PTR _this$[ebp]
	call	??0?$map@IUEQ_HARDPOINT@PimpShip@@U?$less@I@std@@V?$allocator@U?$pair@$$CBIUEQ_HARDPOINT@PimpShip@@@std@@@4@@std@@QAE@XZ ; std::map<unsigned int,PimpShip::EQ_HARDPOINT,std::less<unsigned int>,std::allocator<std::pair<unsigned int const ,PimpShip::EQ_HARDPOINT> > >::map<unsigned int,PimpShip::EQ_HARDPOINT,std::less<unsigned int>,std::allocator<std::pair<unsigned int const ,PimpShip::EQ_HARDPOINT> > >
	mov	DWORD PTR __$EHRec$[ebp+8], 0
	mov	eax, DWORD PTR _this$[ebp]
	mov	BYTE PTR [eax+32], 0
	mov	DWORD PTR __$EHRec$[ebp+8], -1
	mov	eax, DWORD PTR _this$[ebp]
	mov	ecx, DWORD PTR __$EHRec$[ebp]
	mov	DWORD PTR fs:0, ecx
	pop	ecx
	mov	esp, ebp
	pop	ebp
	ret	0
_TEXT	ENDS
;	COMDAT text$x
text$x	SEGMENT
__unwindfunclet$??0INFO@PimpShip@@QAE@XZ$0:
	mov	ecx, DWORD PTR _this$[ebp]
	jmp	??1?$map@IUEQ_HARDPOINT@PimpShip@@U?$less@I@std@@V?$allocator@U?$pair@$$CBIUEQ_HARDPOINT@PimpShip@@@std@@@4@@std@@QAE@XZ
__ehhandler$??0INFO@PimpShip@@QAE@XZ:
	mov	edx, DWORD PTR [esp+8]
	lea	eax, DWORD PTR [edx+12]
	mov	ecx, DWORD PTR [edx-8]
	xor	ecx, eax
	call	@__security_check_cookie@4
	mov	eax, OFFSET __ehfuncinfo$??0INFO@PimpShip@@QAE@XZ
	jmp	___CxxFrameHandler3
text$x	ENDS
??0INFO@PimpShip@@QAE@XZ ENDP				; PimpShip::INFO::INFO
PUBLIC	??1?$_Tree@V?$_Tmap_traits@IUEQ_HARDPOINT@PimpShip@@U?$less@I@std@@V?$allocator@U?$pair@$$CBIUEQ_HARDPOINT@PimpShip@@@std@@@4@$0A@@std@@@std@@QAE@XZ ; std::_Tree<std::_Tmap_traits<unsigned int,PimpShip::EQ_HARDPOINT,std::less<unsigned int>,std::allocator<std::pair<unsigned int const ,PimpShip::EQ_HARDPOINT> >,0> >::~_Tree<std::_Tmap_traits<unsigned int,PimpShip::EQ_HARDPOINT,std::less<unsigned int>,std::allocator<std::pair<unsigned int const ,PimpShip::EQ_HARDPOINT> >,0> >
;	COMDAT xdata$x
xdata$x	SEGMENT
__unwindtable$??1?$map@IUEQ_HARDPOINT@PimpShip@@U?$less@I@std@@V?$allocator@U?$pair@$$CBIUEQ_HARDPOINT@PimpShip@@@std@@@4@@std@@QAE@XZ DD 0ffffffffH
	DD	FLAT:__unwindfunclet$??1?$map@IUEQ_HARDPOINT@PimpShip@@U?$less@I@std@@V?$allocator@U?$pair@$$CBIUEQ_HARDPOINT@PimpShip@@@std@@@4@@std@@QAE@XZ$0
__ehfuncinfo$??1?$map@IUEQ_HARDPOINT@PimpShip@@U?$less@I@std@@V?$allocator@U?$pair@$$CBIUEQ_HARDPOINT@PimpShip@@@std@@@4@@std@@QAE@XZ DD 019930522H
	DD	01H
	DD	FLAT:__unwindtable$??1?$map@IUEQ_HARDPOINT@PimpShip@@U?$less@I@std@@V?$allocator@U?$pair@$$CBIUEQ_HARDPOINT@PimpShip@@@std@@@4@@std@@QAE@XZ
	DD	2 DUP(00H)
	DD	2 DUP(00H)
	DD	00H
	DD	00H
; Function compile flags: /Odtp
xdata$x	ENDS
;	COMDAT ??1?$map@IUEQ_HARDPOINT@PimpShip@@U?$less@I@std@@V?$allocator@U?$pair@$$CBIUEQ_HARDPOINT@PimpShip@@@std@@@4@@std@@QAE@XZ
_TEXT	SEGMENT
_this$ = -16						; size = 4
__$EHRec$ = -12						; size = 12
??1?$map@IUEQ_HARDPOINT@PimpShip@@U?$less@I@std@@V?$allocator@U?$pair@$$CBIUEQ_HARDPOINT@PimpShip@@@std@@@4@@std@@QAE@XZ PROC ; std::map<unsigned int,PimpShip::EQ_HARDPOINT,std::less<unsigned int>,std::allocator<std::pair<unsigned int const ,PimpShip::EQ_HARDPOINT> > >::~map<unsigned int,PimpShip::EQ_HARDPOINT,std::less<unsigned int>,std::allocator<std::pair<unsigned int const ,PimpShip::EQ_HARDPOINT> > >, COMDAT
; _this$ = ecx
	push	ebp
	mov	ebp, esp
	push	-1
	push	__ehhandler$??1?$map@IUEQ_HARDPOINT@PimpShip@@U?$less@I@std@@V?$allocator@U?$pair@$$CBIUEQ_HARDPOINT@PimpShip@@@std@@@4@@std@@QAE@XZ
	mov	eax, DWORD PTR fs:0
	push	eax
	push	ecx
	mov	eax, DWORD PTR ___security_cookie
	xor	eax, ebp
	push	eax
	lea	eax, DWORD PTR __$EHRec$[ebp]
	mov	DWORD PTR fs:0, eax
	mov	DWORD PTR _this$[ebp], ecx
	mov	DWORD PTR __$EHRec$[ebp+8], 0
	mov	DWORD PTR __$EHRec$[ebp+8], -1
	mov	ecx, DWORD PTR _this$[ebp]
	call	??1?$_Tree@V?$_Tmap_traits@IUEQ_HARDPOINT@PimpShip@@U?$less@I@std@@V?$allocator@U?$pair@$$CBIUEQ_HARDPOINT@PimpShip@@@std@@@4@$0A@@std@@@std@@QAE@XZ ; std::_Tree<std::_Tmap_traits<unsigned int,PimpShip::EQ_HARDPOINT,std::less<unsigned int>,std::allocator<std::pair<unsigned int const ,PimpShip::EQ_HARDPOINT> >,0> >::~_Tree<std::_Tmap_traits<unsigned int,PimpShip::EQ_HARDPOINT,std::less<unsigned int>,std::allocator<std::pair<unsigned int const ,PimpShip::EQ_HARDPOINT> >,0> >
	mov	ecx, DWORD PTR __$EHRec$[ebp]
	mov	DWORD PTR fs:0, ecx
	pop	ecx
	mov	esp, ebp
	pop	ebp
	ret	0
_TEXT	ENDS
;	COMDAT text$x
text$x	SEGMENT
__unwindfunclet$??1?$map@IUEQ_HARDPOINT@PimpShip@@U?$less@I@std@@V?$allocator@U?$pair@$$CBIUEQ_HARDPOINT@PimpShip@@@std@@@4@@std@@QAE@XZ$0:
	mov	ecx, DWORD PTR _this$[ebp]
	jmp	??1?$_Tree@V?$_Tmap_traits@IUEQ_HARDPOINT@PimpShip@@U?$less@I@std@@V?$allocator@U?$pair@$$CBIUEQ_HARDPOINT@PimpShip@@@std@@@4@$0A@@std@@@std@@QAE@XZ ; std::_Tree<std::_Tmap_traits<unsigned int,PimpShip::EQ_HARDPOINT,std::less<unsigned int>,std::allocator<std::pair<unsigned int const ,PimpShip::EQ_HARDPOINT> >,0> >::~_Tree<std::_Tmap_traits<unsigned int,PimpShip::EQ_HARDPOINT,std::less<unsigned int>,std::allocator<std::pair<unsigned int const ,PimpShip::EQ_HARDPOINT> >,0> >
__ehhandler$??1?$map@IUEQ_HARDPOINT@PimpShip@@U?$less@I@std@@V?$allocator@U?$pair@$$CBIUEQ_HARDPOINT@PimpShip@@@std@@@4@@std@@QAE@XZ:
	mov	edx, DWORD PTR [esp+8]
	lea	eax, DWORD PTR [edx+12]
	mov	ecx, DWORD PTR [edx-8]
	xor	ecx, eax
	call	@__security_check_cookie@4
	mov	eax, OFFSET __ehfuncinfo$??1?$map@IUEQ_HARDPOINT@PimpShip@@U?$less@I@std@@V?$allocator@U?$pair@$$CBIUEQ_HARDPOINT@PimpShip@@@std@@@4@@std@@QAE@XZ
	jmp	___CxxFrameHandler3
text$x	ENDS
??1?$map@IUEQ_HARDPOINT@PimpShip@@U?$less@I@std@@V?$allocator@U?$pair@$$CBIUEQ_HARDPOINT@PimpShip@@@std@@@4@@std@@QAE@XZ ENDP ; std::map<unsigned int,PimpShip::EQ_HARDPOINT,std::less<unsigned int>,std::allocator<std::pair<unsigned int const ,PimpShip::EQ_HARDPOINT> > >::~map<unsigned int,PimpShip::EQ_HARDPOINT,std::less<unsigned int>,std::allocator<std::pair<unsigned int const ,PimpShip::EQ_HARDPOINT> > >
