; Listing generated by Microsoft (R) Optimizing Compiler Version 15.00.30729.01 

	TITLE	g:\Max\Bastelstube\FL\FLHook Source\flhookplugin_MoD\plugins\playercntl_plugin\src\PluginUtilities.cpp
	.686P
	.XMM
	include listing.inc
	.model	flat

INCLUDELIB MSVCRT
INCLUDELIB OLDNAMES

PUBLIC	?_Value@?$_Is_swap_move@U_Swap_move_tag@std@@@std@@2_NB ; std::_Is_swap_move<std::_Swap_move_tag>::_Value
PUBLIC	?collate@?$_Locbase@H@std@@2HB			; std::_Locbase<int>::collate
PUBLIC	?ctype@?$_Locbase@H@std@@2HB			; std::_Locbase<int>::ctype
PUBLIC	?monetary@?$_Locbase@H@std@@2HB			; std::_Locbase<int>::monetary
PUBLIC	?numeric@?$_Locbase@H@std@@2HB			; std::_Locbase<int>::numeric
PUBLIC	?time@?$_Locbase@H@std@@2HB			; std::_Locbase<int>::time
PUBLIC	?messages@?$_Locbase@H@std@@2HB			; std::_Locbase<int>::messages
PUBLIC	?all@?$_Locbase@H@std@@2HB			; std::_Locbase<int>::all
PUBLIC	?none@?$_Locbase@H@std@@2HB			; std::_Locbase<int>::none
PUBLIC	?skipws@?$_Iosb@H@std@@2W4_Fmtflags@12@B	; std::_Iosb<int>::skipws
PUBLIC	?unitbuf@?$_Iosb@H@std@@2W4_Fmtflags@12@B	; std::_Iosb<int>::unitbuf
PUBLIC	?uppercase@?$_Iosb@H@std@@2W4_Fmtflags@12@B	; std::_Iosb<int>::uppercase
PUBLIC	?showbase@?$_Iosb@H@std@@2W4_Fmtflags@12@B	; std::_Iosb<int>::showbase
PUBLIC	?showpoint@?$_Iosb@H@std@@2W4_Fmtflags@12@B	; std::_Iosb<int>::showpoint
PUBLIC	?showpos@?$_Iosb@H@std@@2W4_Fmtflags@12@B	; std::_Iosb<int>::showpos
PUBLIC	?left@?$_Iosb@H@std@@2W4_Fmtflags@12@B		; std::_Iosb<int>::left
PUBLIC	?right@?$_Iosb@H@std@@2W4_Fmtflags@12@B		; std::_Iosb<int>::right
PUBLIC	?internal@?$_Iosb@H@std@@2W4_Fmtflags@12@B	; std::_Iosb<int>::internal
PUBLIC	?dec@?$_Iosb@H@std@@2W4_Fmtflags@12@B		; std::_Iosb<int>::dec
PUBLIC	?oct@?$_Iosb@H@std@@2W4_Fmtflags@12@B		; std::_Iosb<int>::oct
PUBLIC	?hex@?$_Iosb@H@std@@2W4_Fmtflags@12@B		; std::_Iosb<int>::hex
PUBLIC	?scientific@?$_Iosb@H@std@@2W4_Fmtflags@12@B	; std::_Iosb<int>::scientific
PUBLIC	?fixed@?$_Iosb@H@std@@2W4_Fmtflags@12@B		; std::_Iosb<int>::fixed
PUBLIC	?hexfloat@?$_Iosb@H@std@@2W4_Fmtflags@12@B	; std::_Iosb<int>::hexfloat
PUBLIC	?boolalpha@?$_Iosb@H@std@@2W4_Fmtflags@12@B	; std::_Iosb<int>::boolalpha
PUBLIC	?_Stdio@?$_Iosb@H@std@@2W4_Fmtflags@12@B	; std::_Iosb<int>::_Stdio
PUBLIC	?adjustfield@?$_Iosb@H@std@@2W4_Fmtflags@12@B	; std::_Iosb<int>::adjustfield
PUBLIC	?basefield@?$_Iosb@H@std@@2W4_Fmtflags@12@B	; std::_Iosb<int>::basefield
PUBLIC	?floatfield@?$_Iosb@H@std@@2W4_Fmtflags@12@B	; std::_Iosb<int>::floatfield
PUBLIC	?goodbit@?$_Iosb@H@std@@2W4_Iostate@12@B	; std::_Iosb<int>::goodbit
PUBLIC	?eofbit@?$_Iosb@H@std@@2W4_Iostate@12@B		; std::_Iosb<int>::eofbit
PUBLIC	?failbit@?$_Iosb@H@std@@2W4_Iostate@12@B	; std::_Iosb<int>::failbit
PUBLIC	?badbit@?$_Iosb@H@std@@2W4_Iostate@12@B		; std::_Iosb<int>::badbit
PUBLIC	?_Hardfail@?$_Iosb@H@std@@2W4_Iostate@12@B	; std::_Iosb<int>::_Hardfail
PUBLIC	?in@?$_Iosb@H@std@@2W4_Openmode@12@B		; std::_Iosb<int>::in
PUBLIC	?out@?$_Iosb@H@std@@2W4_Openmode@12@B		; std::_Iosb<int>::out
PUBLIC	?ate@?$_Iosb@H@std@@2W4_Openmode@12@B		; std::_Iosb<int>::ate
PUBLIC	?app@?$_Iosb@H@std@@2W4_Openmode@12@B		; std::_Iosb<int>::app
PUBLIC	?trunc@?$_Iosb@H@std@@2W4_Openmode@12@B		; std::_Iosb<int>::trunc
PUBLIC	?_Nocreate@?$_Iosb@H@std@@2W4_Openmode@12@B	; std::_Iosb<int>::_Nocreate
PUBLIC	?_Noreplace@?$_Iosb@H@std@@2W4_Openmode@12@B	; std::_Iosb<int>::_Noreplace
PUBLIC	?binary@?$_Iosb@H@std@@2W4_Openmode@12@B	; std::_Iosb<int>::binary
PUBLIC	?beg@?$_Iosb@H@std@@2W4_Seekdir@12@B		; std::_Iosb<int>::beg
PUBLIC	?cur@?$_Iosb@H@std@@2W4_Seekdir@12@B		; std::_Iosb<int>::cur
PUBLIC	?end@?$_Iosb@H@std@@2W4_Seekdir@12@B		; std::_Iosb<int>::end
PUBLIC	?value@?$integral_constant@_N$0A@@tr1@std@@2_NB	; std::tr1::integral_constant<bool,0>::value
PUBLIC	?value@?$integral_constant@_N$00@tr1@std@@2_NB	; std::tr1::integral_constant<bool,1>::value
;	COMDAT ?value@?$integral_constant@_N$00@tr1@std@@2_NB
CONST	SEGMENT
?value@?$integral_constant@_N$00@tr1@std@@2_NB DB 01H	; std::tr1::integral_constant<bool,1>::value
CONST	ENDS
;	COMDAT ?value@?$integral_constant@_N$0A@@tr1@std@@2_NB
CONST	SEGMENT
?value@?$integral_constant@_N$0A@@tr1@std@@2_NB DB 00H	; std::tr1::integral_constant<bool,0>::value
CONST	ENDS
;	COMDAT ?end@?$_Iosb@H@std@@2W4_Seekdir@12@B
CONST	SEGMENT
?end@?$_Iosb@H@std@@2W4_Seekdir@12@B DD 02H		; std::_Iosb<int>::end
CONST	ENDS
;	COMDAT ?cur@?$_Iosb@H@std@@2W4_Seekdir@12@B
CONST	SEGMENT
?cur@?$_Iosb@H@std@@2W4_Seekdir@12@B DD 01H		; std::_Iosb<int>::cur
CONST	ENDS
;	COMDAT ?beg@?$_Iosb@H@std@@2W4_Seekdir@12@B
CONST	SEGMENT
?beg@?$_Iosb@H@std@@2W4_Seekdir@12@B DD 00H		; std::_Iosb<int>::beg
CONST	ENDS
;	COMDAT ?binary@?$_Iosb@H@std@@2W4_Openmode@12@B
CONST	SEGMENT
?binary@?$_Iosb@H@std@@2W4_Openmode@12@B DD 020H	; std::_Iosb<int>::binary
CONST	ENDS
;	COMDAT ?_Noreplace@?$_Iosb@H@std@@2W4_Openmode@12@B
CONST	SEGMENT
?_Noreplace@?$_Iosb@H@std@@2W4_Openmode@12@B DD 080H	; std::_Iosb<int>::_Noreplace
CONST	ENDS
;	COMDAT ?_Nocreate@?$_Iosb@H@std@@2W4_Openmode@12@B
CONST	SEGMENT
?_Nocreate@?$_Iosb@H@std@@2W4_Openmode@12@B DD 040H	; std::_Iosb<int>::_Nocreate
CONST	ENDS
;	COMDAT ?trunc@?$_Iosb@H@std@@2W4_Openmode@12@B
CONST	SEGMENT
?trunc@?$_Iosb@H@std@@2W4_Openmode@12@B DD 010H		; std::_Iosb<int>::trunc
CONST	ENDS
;	COMDAT ?app@?$_Iosb@H@std@@2W4_Openmode@12@B
CONST	SEGMENT
?app@?$_Iosb@H@std@@2W4_Openmode@12@B DD 08H		; std::_Iosb<int>::app
CONST	ENDS
;	COMDAT ?ate@?$_Iosb@H@std@@2W4_Openmode@12@B
CONST	SEGMENT
?ate@?$_Iosb@H@std@@2W4_Openmode@12@B DD 04H		; std::_Iosb<int>::ate
CONST	ENDS
;	COMDAT ?out@?$_Iosb@H@std@@2W4_Openmode@12@B
CONST	SEGMENT
?out@?$_Iosb@H@std@@2W4_Openmode@12@B DD 02H		; std::_Iosb<int>::out
CONST	ENDS
;	COMDAT ?in@?$_Iosb@H@std@@2W4_Openmode@12@B
CONST	SEGMENT
?in@?$_Iosb@H@std@@2W4_Openmode@12@B DD 01H		; std::_Iosb<int>::in
CONST	ENDS
;	COMDAT ?_Hardfail@?$_Iosb@H@std@@2W4_Iostate@12@B
CONST	SEGMENT
?_Hardfail@?$_Iosb@H@std@@2W4_Iostate@12@B DD 010H	; std::_Iosb<int>::_Hardfail
CONST	ENDS
;	COMDAT ?badbit@?$_Iosb@H@std@@2W4_Iostate@12@B
CONST	SEGMENT
?badbit@?$_Iosb@H@std@@2W4_Iostate@12@B DD 04H		; std::_Iosb<int>::badbit
CONST	ENDS
;	COMDAT ?failbit@?$_Iosb@H@std@@2W4_Iostate@12@B
CONST	SEGMENT
?failbit@?$_Iosb@H@std@@2W4_Iostate@12@B DD 02H		; std::_Iosb<int>::failbit
CONST	ENDS
;	COMDAT ?eofbit@?$_Iosb@H@std@@2W4_Iostate@12@B
CONST	SEGMENT
?eofbit@?$_Iosb@H@std@@2W4_Iostate@12@B DD 01H		; std::_Iosb<int>::eofbit
CONST	ENDS
;	COMDAT ?goodbit@?$_Iosb@H@std@@2W4_Iostate@12@B
CONST	SEGMENT
?goodbit@?$_Iosb@H@std@@2W4_Iostate@12@B DD 00H		; std::_Iosb<int>::goodbit
CONST	ENDS
;	COMDAT ?floatfield@?$_Iosb@H@std@@2W4_Fmtflags@12@B
CONST	SEGMENT
?floatfield@?$_Iosb@H@std@@2W4_Fmtflags@12@B DD 03000H	; std::_Iosb<int>::floatfield
CONST	ENDS
;	COMDAT ?basefield@?$_Iosb@H@std@@2W4_Fmtflags@12@B
CONST	SEGMENT
?basefield@?$_Iosb@H@std@@2W4_Fmtflags@12@B DD 0e00H	; std::_Iosb<int>::basefield
CONST	ENDS
;	COMDAT ?adjustfield@?$_Iosb@H@std@@2W4_Fmtflags@12@B
CONST	SEGMENT
?adjustfield@?$_Iosb@H@std@@2W4_Fmtflags@12@B DD 01c0H	; std::_Iosb<int>::adjustfield
CONST	ENDS
;	COMDAT ?_Stdio@?$_Iosb@H@std@@2W4_Fmtflags@12@B
CONST	SEGMENT
?_Stdio@?$_Iosb@H@std@@2W4_Fmtflags@12@B DD 08000H	; std::_Iosb<int>::_Stdio
CONST	ENDS
;	COMDAT ?boolalpha@?$_Iosb@H@std@@2W4_Fmtflags@12@B
CONST	SEGMENT
?boolalpha@?$_Iosb@H@std@@2W4_Fmtflags@12@B DD 04000H	; std::_Iosb<int>::boolalpha
CONST	ENDS
;	COMDAT ?hexfloat@?$_Iosb@H@std@@2W4_Fmtflags@12@B
CONST	SEGMENT
?hexfloat@?$_Iosb@H@std@@2W4_Fmtflags@12@B DD 03000H	; std::_Iosb<int>::hexfloat
CONST	ENDS
;	COMDAT ?fixed@?$_Iosb@H@std@@2W4_Fmtflags@12@B
CONST	SEGMENT
?fixed@?$_Iosb@H@std@@2W4_Fmtflags@12@B DD 02000H	; std::_Iosb<int>::fixed
CONST	ENDS
;	COMDAT ?scientific@?$_Iosb@H@std@@2W4_Fmtflags@12@B
CONST	SEGMENT
?scientific@?$_Iosb@H@std@@2W4_Fmtflags@12@B DD 01000H	; std::_Iosb<int>::scientific
CONST	ENDS
;	COMDAT ?hex@?$_Iosb@H@std@@2W4_Fmtflags@12@B
CONST	SEGMENT
?hex@?$_Iosb@H@std@@2W4_Fmtflags@12@B DD 0800H		; std::_Iosb<int>::hex
CONST	ENDS
;	COMDAT ?oct@?$_Iosb@H@std@@2W4_Fmtflags@12@B
CONST	SEGMENT
?oct@?$_Iosb@H@std@@2W4_Fmtflags@12@B DD 0400H		; std::_Iosb<int>::oct
CONST	ENDS
;	COMDAT ?dec@?$_Iosb@H@std@@2W4_Fmtflags@12@B
CONST	SEGMENT
?dec@?$_Iosb@H@std@@2W4_Fmtflags@12@B DD 0200H		; std::_Iosb<int>::dec
CONST	ENDS
;	COMDAT ?internal@?$_Iosb@H@std@@2W4_Fmtflags@12@B
CONST	SEGMENT
?internal@?$_Iosb@H@std@@2W4_Fmtflags@12@B DD 0100H	; std::_Iosb<int>::internal
CONST	ENDS
;	COMDAT ?right@?$_Iosb@H@std@@2W4_Fmtflags@12@B
CONST	SEGMENT
?right@?$_Iosb@H@std@@2W4_Fmtflags@12@B DD 080H		; std::_Iosb<int>::right
CONST	ENDS
;	COMDAT ?left@?$_Iosb@H@std@@2W4_Fmtflags@12@B
CONST	SEGMENT
?left@?$_Iosb@H@std@@2W4_Fmtflags@12@B DD 040H		; std::_Iosb<int>::left
CONST	ENDS
;	COMDAT ?showpos@?$_Iosb@H@std@@2W4_Fmtflags@12@B
CONST	SEGMENT
?showpos@?$_Iosb@H@std@@2W4_Fmtflags@12@B DD 020H	; std::_Iosb<int>::showpos
CONST	ENDS
;	COMDAT ?showpoint@?$_Iosb@H@std@@2W4_Fmtflags@12@B
CONST	SEGMENT
?showpoint@?$_Iosb@H@std@@2W4_Fmtflags@12@B DD 010H	; std::_Iosb<int>::showpoint
CONST	ENDS
;	COMDAT ?showbase@?$_Iosb@H@std@@2W4_Fmtflags@12@B
CONST	SEGMENT
?showbase@?$_Iosb@H@std@@2W4_Fmtflags@12@B DD 08H	; std::_Iosb<int>::showbase
CONST	ENDS
;	COMDAT ?uppercase@?$_Iosb@H@std@@2W4_Fmtflags@12@B
CONST	SEGMENT
?uppercase@?$_Iosb@H@std@@2W4_Fmtflags@12@B DD 04H	; std::_Iosb<int>::uppercase
CONST	ENDS
;	COMDAT ?unitbuf@?$_Iosb@H@std@@2W4_Fmtflags@12@B
CONST	SEGMENT
?unitbuf@?$_Iosb@H@std@@2W4_Fmtflags@12@B DD 02H	; std::_Iosb<int>::unitbuf
CONST	ENDS
;	COMDAT ?skipws@?$_Iosb@H@std@@2W4_Fmtflags@12@B
CONST	SEGMENT
?skipws@?$_Iosb@H@std@@2W4_Fmtflags@12@B DD 01H		; std::_Iosb<int>::skipws
CONST	ENDS
;	COMDAT ?none@?$_Locbase@H@std@@2HB
CONST	SEGMENT
?none@?$_Locbase@H@std@@2HB DD 00H			; std::_Locbase<int>::none
CONST	ENDS
;	COMDAT ?all@?$_Locbase@H@std@@2HB
CONST	SEGMENT
?all@?$_Locbase@H@std@@2HB DD 03fH			; std::_Locbase<int>::all
CONST	ENDS
;	COMDAT ?messages@?$_Locbase@H@std@@2HB
CONST	SEGMENT
?messages@?$_Locbase@H@std@@2HB DD 020H			; std::_Locbase<int>::messages
CONST	ENDS
;	COMDAT ?time@?$_Locbase@H@std@@2HB
CONST	SEGMENT
?time@?$_Locbase@H@std@@2HB DD 010H			; std::_Locbase<int>::time
CONST	ENDS
;	COMDAT ?numeric@?$_Locbase@H@std@@2HB
CONST	SEGMENT
?numeric@?$_Locbase@H@std@@2HB DD 08H			; std::_Locbase<int>::numeric
CONST	ENDS
;	COMDAT ?monetary@?$_Locbase@H@std@@2HB
CONST	SEGMENT
?monetary@?$_Locbase@H@std@@2HB DD 04H			; std::_Locbase<int>::monetary
CONST	ENDS
;	COMDAT ?ctype@?$_Locbase@H@std@@2HB
CONST	SEGMENT
?ctype@?$_Locbase@H@std@@2HB DD 02H			; std::_Locbase<int>::ctype
CONST	ENDS
;	COMDAT ?collate@?$_Locbase@H@std@@2HB
CONST	SEGMENT
?collate@?$_Locbase@H@std@@2HB DD 01H			; std::_Locbase<int>::collate
CONST	ENDS
;	COMDAT ?_Value@?$_Is_swap_move@U_Swap_move_tag@std@@@std@@2_NB
CONST	SEGMENT
?_Value@?$_Is_swap_move@U_Swap_move_tag@std@@@std@@2_NB DB 01H ; std::_Is_swap_move<std::_Swap_move_tag>::_Value
CONST	ENDS
_DATA	SEGMENT
__bad_alloc_Message DD FLAT:$SG63979
_DATA	ENDS
CONST	SEGMENT
$SG63979 DB	'bad allocation', 00H
$SG142739 DB	00H
$SG142668 DB	00H, 00H
$SG142761 DB	00H
$SG142763 DB	00H
$SG142672 DB	'r', 00H, 'a', 00H, 'n', 00H, 'k', 00H, 00H, 00H
$SG147499 DB	00H
	ORG $+1
$SG142692 DB	'.fl', 00H
$SG142693 DB	'\', 00H
	ORG $+2
$SG142697 DB	'.ini', 00H
	ORG $+3
$SG142703 DB	'total_time_played', 00H
	ORG $+2
$SG142704 DB	'mPlayer', 00H
$SG142709 DB	'total_time_played', 00H
	ORG $+2
$SG142710 DB	'mPlayer', 00H
$SG142729 DB	00H, 00H
	ORG $+2
$SG142757 DB	'\Accts\MultiPlayer\', 00H
$SG142770 DB	'\', 00H
	ORG $+6
$SG142780 DB	'<', 00H, '?', 00H, 'x', 00H, 'm', 00H, 'l', 00H, ' ', 00H
	DB	'v', 00H, 'e', 00H, 'r', 00H, 's', 00H, 'i', 00H, 'o', 00H, 'n'
	DB	00H, '=', 00H, '"', 00H, '1', 00H, '.', 00H, '0', 00H, '"', 00H
	DB	' ', 00H, 'e', 00H, 'n', 00H, 'c', 00H, 'o', 00H, 'd', 00H, 'i'
	DB	00H, 'n', 00H, 'g', 00H, '=', 00H, '"', 00H, 'U', 00H, 'T', 00H
	DB	'F', 00H, '-', 00H, '1', 00H, '6', 00H, '"', 00H, '?', 00H, '>'
	DB	00H, '<', 00H, 'R', 00H, 'D', 00H, 'L', 00H, '>', 00H, '<', 00H
	DB	'P', 00H, 'U', 00H, 'S', 00H, 'H', 00H, '/', 00H, '>', 00H, 00H
	DB	00H
$SG142784 DB	'<', 00H, '/', 00H, 'T', 00H, 'E', 00H, 'X', 00H, 'T', 00H
	DB	'>', 00H, 00H, 00H
$SG142785 DB	'<', 00H, 'T', 00H, 'R', 00H, 'A', 00H, ' ', 00H, 'd', 00H
	DB	'a', 00H, 't', 00H, 'a', 00H, '=', 00H, '"', 00H, '0', 00H, 'x'
	DB	00H, 'E', 00H, '6', 00H, 'C', 00H, '6', 00H, '8', 00H, '4', 00H
	DB	'0', 00H, '0', 00H, '"', 00H, ' ', 00H, 'm', 00H, 'a', 00H, 's'
	DB	00H, 'k', 00H, '=', 00H, '"', 00H, '-', 00H, '1', 00H, '"', 00H
	DB	'/', 00H, '>', 00H, '<', 00H, 'T', 00H, 'E', 00H, 'X', 00H, 'T'
	DB	00H, '>', 00H, 00H, 00H
	ORG $+2
$SG142786 DB	'<', 00H, 'P', 00H, 'A', 00H, 'R', 00H, 'A', 00H, '/', 00H
	DB	'>', 00H, '<', 00H, 'P', 00H, 'O', 00H, 'P', 00H, '/', 00H, '>'
	DB	00H, '<', 00H, '/', 00H, 'R', 00H, 'D', 00H, 'L', 00H, '>', 00H
	DB	0aH, 00H, 0aH, 00H, 00H, 00H
$SG142804 DB	'%08X', 00H
	ORG $+3
$SG142826 DB	'%', 00H, 's', 00H, 00H, 00H
	ORG $+2
$SG143558 DB	'..\DATA\CHARACTERS\newcharacter.ini', 00H
$SG143567 DB	'Faction', 00H
$SG143572 DB	'nickname', 00H
	ORG $+3
$SG143575 DB	'base', 00H
	ORG $+3
$SG143578 DB	'package', 00H
$SG143581 DB	'pilot', 00H
	ORG $+2
$SG143583 DB	'new_player', 00H
	ORG $+1
$SG143585 DB	'Li01_01_Base', 00H
	ORG $+3
$SG143587 DB	'ge_fighter', 00H
	ORG $+1
$SG143589 DB	'trent', 00H
	ORG $+2
$SG143600 DB	'\Accts\MultiPlayer\', 00H
$SG143613 DB	'\', 00H
	ORG $+2
$SG143645 DB	'i', 00H, 'd', 00H, ' ', 00H, 00H, 00H
$SG143651 DB	'i', 00H, 'd', 00H, ' ', 00H, 00H, 00H
$SG143659 DB	'i', 00H, 'd', 00H, ' ', 00H, 00H, 00H
$SG143665 DB	'i', 00H, 'd', 00H, ' ', 00H, 00H, 00H
$SG143823 DB	'i', 00H, 00H, 00H
$SG143829 DB	'i', 00H, 00H, 00H
$SG143853 DB	'%', 00H, '0', 00H, '2', 00H, 'X', 00H, 00H, 00H
	ORG $+2
$SG143856 DB	'F', 00H, 'F', 00H, 'F', 00H, 'F', 00H, 'F', 00H, 'F', 00H
	DB	00H, 00H
	ORG $+2
$SG143871 DB	'<', 00H, '/', 00H, 'T', 00H, 'E', 00H, 'X', 00H, 'T', 00H
	DB	'>', 00H, 00H, 00H
$SG143872 DB	'"', 00H, ' ', 00H, 'm', 00H, 'a', 00H, 's', 00H, 'k', 00H
	DB	'=', 00H, '"', 00H, '-', 00H, '1', 00H, '"', 00H, '/', 00H, '>'
	DB	00H, '<', 00H, 'T', 00H, 'E', 00H, 'X', 00H, 'T', 00H, '>', 00H
	DB	00H, 00H
$SG143873 DB	'<', 00H, 'T', 00H, 'R', 00H, 'A', 00H, ' ', 00H, 'd', 00H
	DB	'a', 00H, 't', 00H, 'a', 00H, '=', 00H, '"', 00H, '0', 00H, 'x'
	DB	00H, 00H, 00H
$SG143874 DB	':', 00H, ' ', 00H, '<', 00H, '/', 00H, 'T', 00H, 'E', 00H
	DB	'X', 00H, 'T', 00H, '>', 00H, 00H, 00H
$SG143875 DB	'"', 00H, ' ', 00H, 'm', 00H, 'a', 00H, 's', 00H, 'k', 00H
	DB	'=', 00H, '"', 00H, '-', 00H, '1', 00H, '"', 00H, '/', 00H, '>'
	DB	00H, '<', 00H, 'T', 00H, 'E', 00H, 'X', 00H, 'T', 00H, '>', 00H
	DB	00H, 00H
$SG143876 DB	'<', 00H, 'T', 00H, 'R', 00H, 'A', 00H, ' ', 00H, 'd', 00H
	DB	'a', 00H, 't', 00H, 'a', 00H, '=', 00H, '"', 00H, '0', 00H, 'x'
	DB	00H, 00H, 00H
$SG143897 DB	'p', 00H, 00H, 00H
$SG143899 DB	'1', 00H, '9', 00H, 'B', 00H, 'D', 00H, '3', 00H, 'A', 00H
	DB	00H, 00H
	ORG $+2
$SG143901 DB	'1', 00H, '9', 00H, 'B', 00H, 'D', 00H, '3', 00H, 'A', 00H
	DB	00H, 00H
	ORG $+2
$SG143917 DB	'E', 00H, '6', 00H, 'C', 00H, '6', 00H, '8', 00H, '4', 00H
	DB	00H, 00H
	ORG $+2
$SG143941 DB	'F', 00H, 'F', 00H, '8', 00H, 'F', 00H, '4', 00H, '0', 00H
	DB	00H, 00H
	ORG $+2
$SG143967 DB	'F', 00H, 'F', 00H, '7', 00H, 'B', 00H, 'F', 00H, 'F', 00H
	DB	00H, 00H
	ORG $+6
$SG143982 DB	'%', 00H, '0', 00H, '4', 00H, 'd', 00H, '-', 00H, '%', 00H
	DB	'0', 00H, '2', 00H, 'd', 00H, '-', 00H, '%', 00H, '0', 00H, '2'
	DB	00H, 'd', 00H, ' ', 00H, '%', 00H, '0', 00H, '2', 00H, 'd', 00H
	DB	':', 00H, '%', 00H, '0', 00H, '2', 00H, 'd', 00H, ':', 00H, '%'
	DB	00H, '0', 00H, '2', 00H, 'd', 00H, ' ', 00H, 'S', 00H, 'M', 00H
	DB	'T', 00H, ' ', 00H, 00H, 00H
	ORG $+2
$SG143990 DB	'i', 00H, 'd', 00H, ' ', 00H, 00H, 00H
$SG144004 DB	'1', 00H, ':', 00H, ' ', 00H, '%', 00H, 'u', 00H, ' ', 00H
	DB	'%', 00H, 'u', 00H, 0aH, 00H, 00H, 00H
$SG144021 DB	'X', 00H, 00H, 00H
$SG144024 DB	'A', 00H, 00H, 00H
$SG144025 DB	'B', 00H, 00H, 00H
$SG144026 DB	'C', 00H, 00H, 00H
$SG144027 DB	'D', 00H, 00H, 00H
$SG144028 DB	'E', 00H, 00H, 00H
$SG144029 DB	'F', 00H, 00H, 00H
$SG144030 DB	'G', 00H, 00H, 00H
$SG144031 DB	'H', 00H, 00H, 00H
$SG144033 DB	'X', 00H, 00H, 00H
$SG144036 DB	'1', 00H, 00H, 00H
$SG144037 DB	'2', 00H, 00H, 00H
$SG144038 DB	'3', 00H, 00H, 00H
$SG144039 DB	'4', 00H, 00H, 00H
$SG144040 DB	'5', 00H, 00H, 00H
$SG144041 DB	'6', 00H, 00H, 00H
$SG144042 DB	'7', 00H, 00H, 00H
$SG144043 DB	'8', 00H, 00H, 00H
$SG144045 DB	'%', 00H, 's', 00H, '-', 00H, '%', 00H, 's', 00H, 00H, 00H
$SG144055 DB	'E', 00H, 'R', 00H, 'R', 00H, ' ', 00H, 'N', 00H, 'o', 00H
	DB	't', 00H, ' ', 00H, 'i', 00H, 'n', 00H, ' ', 00H, 's', 00H, 'p'
	DB	00H, 'a', 00H, 'c', 00H, 'e', 00H, 00H, 00H
	ORG $+2
$SG144427 DB	'resources.dll', 00H
	ORG $+2
$SG144431 DB	'freelancer.ini', 00H
	ORG $+1
$SG144436 DB	'Resources', 00H
	ORG $+2
$SG144441 DB	'DLL', 00H
$SG144455 DB	00H, 00H
	ORG $+2
$SG147465 DB	'DBGHELP.DLL', 00H
$SG147469 DB	'MiniDumpWriteDump', 00H
	ORG $+2
$SG147474 DB	'./flhook_logs/debug/flserver_%d.%m.%Y_%H.%M.dmp', 00H
$SG147502 DB	'Code=%x Offset=%x Module="%s"', 00H
	ORG $+2
$SG147504 DB	'No exception information available', 00H
	ORG $+1
$SG147506 DB	'eax=%x ebx=%x ecx=%x edx=%x edi=%x esi=%x ebp=%x eip=%x '
	DB	'esp=%x', 00H
	ORG $+1
$SG147508 DB	'No register information available', 00H
	ORG $+2
$SG147509 DB	'Exception in AddExceptionInfoLog!', 00H
	ORG $+2
$SG147521 DB	00H, 00H
	ORG $+2
$SG147695 DB	'=', 00H, 00H, 00H
$SG147698 DB	'b', 00H, 'a', 00H, 's', 00H, 'e', 00H, 00H, 00H
	ORG $+2
$SG147699 DB	'l', 00H, 'a', 00H, 's', 00H, 't', 00H, '_', 00H, 'b', 00H
	DB	'a', 00H, 's', 00H, 'e', 00H, 00H, 00H
$SG147701 DB	'=', 00H, 00H, 00H
$SG147724 DB	'=', 00H, 00H, 00H
$SG147727 DB	'c', 00H, 'a', 00H, 'r', 00H, 'g', 00H, 'o', 00H, 00H, 00H
$SG147728 DB	'e', 00H, 'q', 00H, 'u', 00H, 'i', 00H, 'p', 00H, 00H, 00H
$SG147730 DB	'=', 00H, 00H, 00H
$SG147733 DB	',', 00H, 00H, 00H
$SG147743 DB	',', 00H, 00H, 00H
$SG147753 DB	'm', 00H, 'o', 00H, 'n', 00H, 'e', 00H, 'y', 00H, 00H, 00H
$SG147755 DB	'=', 00H, 00H, 00H
$SG147763 DB	's', 00H, 'h', 00H, 'i', 00H, 'p', 00H, '_', 00H, 'a', 00H
	DB	'r', 00H, 'c', 00H, 'h', 00H, 'e', 00H, 't', 00H, 'y', 00H, 'p'
	DB	00H, 'e', 00H, 00H, 00H
	ORG $+2
$SG147768 DB	'=', 00H, 00H, 00H
CONST	ENDS
PUBLIC	?GetCurrentExceptionRecord@@YAPBU_EXCEPTION_RECORD@@XZ ; GetCurrentExceptionRecord
EXTRN	__getptd:PROC
; Function compile flags: /Odtp
_TEXT	SEGMENT
_p$ = -4						; size = 4
?GetCurrentExceptionRecord@@YAPBU_EXCEPTION_RECORD@@XZ PROC ; GetCurrentExceptionRecord
; File g:\max\bastelstube\fl\flhook source\flhookplugin_mod\plugins\playercntl_plugin\src\exceptioninfo.h
; Line 136
	push	ebp
	mov	ebp, esp
	push	ecx
; Line 137
	call	__getptd
	mov	DWORD PTR _p$[ebp], eax
; Line 138
	mov	eax, DWORD PTR _p$[ebp]
	mov	eax, DWORD PTR [eax+136]
; Line 139
	mov	esp, ebp
	pop	ebp
	ret	0
?GetCurrentExceptionRecord@@YAPBU_EXCEPTION_RECORD@@XZ ENDP ; GetCurrentExceptionRecord
_TEXT	ENDS
PUBLIC	?GetCurrentExceptionContext@@YAPBU_CONTEXT@@XZ	; GetCurrentExceptionContext
; Function compile flags: /Odtp
_TEXT	SEGMENT
_p$ = -4						; size = 4
?GetCurrentExceptionContext@@YAPBU_CONTEXT@@XZ PROC	; GetCurrentExceptionContext
; Line 141
	push	ebp
	mov	ebp, esp
	push	ecx
; Line 142
	call	__getptd
	mov	DWORD PTR _p$[ebp], eax
; Line 143
	mov	eax, DWORD PTR _p$[ebp]
	mov	eax, DWORD PTR [eax+140]
; Line 144
	mov	esp, ebp
	pop	ebp
	ret	0
?GetCurrentExceptionContext@@YAPBU_CONTEXT@@XZ ENDP	; GetCurrentExceptionContext
_TEXT	ENDS
PUBLIC	?sqrt@@YAMM@Z					; sqrt
PUBLIC	?HkDistance3D@@YAMVVector@@0@Z			; HkDistance3D
EXTRN	__fltused:DWORD
; Function compile flags: /Odtp
_TEXT	SEGMENT
tv93 = -16						; size = 4
_sq3$ = -12						; size = 4
_sq2$ = -8						; size = 4
_sq1$ = -4						; size = 4
_v1$ = 8						; size = 12
_v2$ = 20						; size = 12
?HkDistance3D@@YAMVVector@@0@Z PROC			; HkDistance3D
; File g:\max\bastelstube\fl\flhook source\flhookplugin_mod\plugins\playercntl_plugin\src\pluginutilities.cpp
; Line 42
	push	ebp
	mov	ebp, esp
	sub	esp, 16					; 00000010H
; Line 43
	fld	DWORD PTR _v1$[ebp]
	fsub	DWORD PTR _v2$[ebp]
	fstp	DWORD PTR _sq1$[ebp]
	fld	DWORD PTR _v1$[ebp+4]
	fsub	DWORD PTR _v2$[ebp+4]
	fstp	DWORD PTR _sq2$[ebp]
	fld	DWORD PTR _v1$[ebp+8]
	fsub	DWORD PTR _v2$[ebp+8]
	fstp	DWORD PTR _sq3$[ebp]
; Line 44
	fld	DWORD PTR _sq1$[ebp]
	fmul	DWORD PTR _sq1$[ebp]
	fld	DWORD PTR _sq2$[ebp]
	fmul	DWORD PTR _sq2$[ebp]
	faddp	ST(1), ST(0)
	fld	DWORD PTR _sq3$[ebp]
	fmul	DWORD PTR _sq3$[ebp]
	faddp	ST(1), ST(0)
	fstp	DWORD PTR tv93[ebp]
	fld	DWORD PTR tv93[ebp]
	push	ecx
	fstp	DWORD PTR [esp]
	call	?sqrt@@YAMM@Z				; sqrt
	add	esp, 4
; Line 45
	mov	esp, ebp
	pop	ebp
	ret	0
?HkDistance3D@@YAMVVector@@0@Z ENDP			; HkDistance3D
_TEXT	ENDS
PUBLIC	_sqrtf
; Function compile flags: /Odtp
;	COMDAT ?sqrt@@YAMM@Z
_TEXT	SEGMENT
__X$ = 8						; size = 4
?sqrt@@YAMM@Z PROC					; sqrt, COMDAT
; File c:\program files (x86)\microsoft visual studio 9.0\vc\include\math.h
; Line 534
	push	ebp
	mov	ebp, esp
	push	ecx
	fld	DWORD PTR __X$[ebp]
	fstp	DWORD PTR [esp]
	call	_sqrtf
	add	esp, 4
	pop	ebp
	ret	0
?sqrt@@YAMM@Z ENDP					; sqrt
_TEXT	ENDS
EXTRN	_sqrt:PROC
; Function compile flags: /Odtp
;	COMDAT _sqrtf
_TEXT	SEGMENT
tv73 = -4						; size = 4
__X$ = 8						; size = 4
_sqrtf	PROC						; COMDAT
; Line 423
	push	ebp
	mov	ebp, esp
	push	ecx
	fld	DWORD PTR __X$[ebp]
	sub	esp, 8
	fstp	QWORD PTR [esp]
	call	_sqrt
	add	esp, 8
	fstp	DWORD PTR tv73[ebp]
	fld	DWORD PTR tv73[ebp]
	mov	esp, ebp
	pop	ebp
	ret	0
_sqrtf	ENDP
_TEXT	ENDS
PUBLIC	?HkTempBan@@YAXII@Z				; HkTempBan
EXTRN	__imp_?Plugin_Communication@@YAXW4PLUGIN_MESSAGE@@PAX@Z:PROC
; Function compile flags: /Odtp
_TEXT	SEGMENT
_tempban$ = -8						; size = 8
_iClientID$ = 8						; size = 4
_iDuration$ = 12					; size = 4
?HkTempBan@@YAXII@Z PROC				; HkTempBan
; File g:\max\bastelstube\fl\flhook source\flhookplugin_mod\plugins\playercntl_plugin\src\pluginutilities.cpp
; Line 49
	push	ebp
	mov	ebp, esp
	sub	esp, 8
; Line 52
	mov	eax, DWORD PTR _iClientID$[ebp]
	mov	DWORD PTR _tempban$[ebp], eax
; Line 53
	mov	ecx, DWORD PTR _iDuration$[ebp]
	mov	DWORD PTR _tempban$[ebp+4], ecx
; Line 54
	lea	edx, DWORD PTR _tempban$[ebp]
	push	edx
	push	20					; 00000014H
	call	DWORD PTR __imp_?Plugin_Communication@@YAXW4PLUGIN_MESSAGE@@PAX@Z
	add	esp, 8
; Line 55
	mov	esp, ebp
	pop	ebp
	ret	0
?HkTempBan@@YAXII@Z ENDP				; HkTempBan
_TEXT	ENDS
PUBLIC	??1DSACE_CHANGE_INFOCARD_STRUCT@@QAE@XZ		; DSACE_CHANGE_INFOCARD_STRUCT::~DSACE_CHANGE_INFOCARD_STRUCT
PUBLIC	??0DSACE_CHANGE_INFOCARD_STRUCT@@QAE@XZ		; DSACE_CHANGE_INFOCARD_STRUCT::DSACE_CHANGE_INFOCARD_STRUCT
PUBLIC	__$ArrayPad$
PUBLIC	?HkChangeIDSString@@YAXIIABV?$basic_string@GU?$char_traits@G@std@@V?$allocator@G@2@@std@@@Z ; HkChangeIDSString
EXTRN	__imp_??4?$basic_string@GU?$char_traits@G@std@@V?$allocator@G@2@@std@@QAEAAV01@ABV01@@Z:PROC
EXTRN	___security_cookie:DWORD
EXTRN	___CxxFrameHandler3:PROC
EXTRN	@__security_check_cookie@4:PROC
xdata$x	SEGMENT
__unwindtable$?HkChangeIDSString@@YAXIIABV?$basic_string@GU?$char_traits@G@std@@V?$allocator@G@2@@std@@@Z DD 0ffffffffH
	DD	FLAT:__unwindfunclet$?HkChangeIDSString@@YAXIIABV?$basic_string@GU?$char_traits@G@std@@V?$allocator@G@2@@std@@@Z$0
__ehfuncinfo$?HkChangeIDSString@@YAXIIABV?$basic_string@GU?$char_traits@G@std@@V?$allocator@G@2@@std@@@Z DD 019930522H
	DD	01H
	DD	FLAT:__unwindtable$?HkChangeIDSString@@YAXIIABV?$basic_string@GU?$char_traits@G@std@@V?$allocator@G@2@@std@@@Z
	DD	2 DUP(00H)
	DD	2 DUP(00H)
	DD	00H
	DD	00H
; Function compile flags: /Odtp
xdata$x	ENDS
_TEXT	SEGMENT
_info$ = -52						; size = 36
__$ArrayPad$ = -16					; size = 4
__$EHRec$ = -12						; size = 12
_iClientID$ = 8						; size = 4
_ids$ = 12						; size = 4
_text$ = 16						; size = 4
?HkChangeIDSString@@YAXIIABV?$basic_string@GU?$char_traits@G@std@@V?$allocator@G@2@@std@@@Z PROC ; HkChangeIDSString
; Line 59
	push	ebp
	mov	ebp, esp
	push	-1
	push	__ehhandler$?HkChangeIDSString@@YAXIIABV?$basic_string@GU?$char_traits@G@std@@V?$allocator@G@2@@std@@@Z
	mov	eax, DWORD PTR fs:0
	push	eax
	sub	esp, 40					; 00000028H
	mov	eax, DWORD PTR ___security_cookie
	xor	eax, ebp
	mov	DWORD PTR __$ArrayPad$[ebp], eax
	push	eax
	lea	eax, DWORD PTR __$EHRec$[ebp]
	mov	DWORD PTR fs:0, eax
; Line 60
	lea	ecx, DWORD PTR _info$[ebp]
	call	??0DSACE_CHANGE_INFOCARD_STRUCT@@QAE@XZ
	mov	DWORD PTR __$EHRec$[ebp+8], 0
; Line 61
	mov	eax, DWORD PTR _iClientID$[ebp]
	mov	DWORD PTR _info$[ebp], eax
; Line 62
	mov	ecx, DWORD PTR _ids$[ebp]
	mov	DWORD PTR _info$[ebp+4], ecx
; Line 63
	mov	edx, DWORD PTR _text$[ebp]
	push	edx
	lea	ecx, DWORD PTR _info$[ebp+8]
	call	DWORD PTR __imp_??4?$basic_string@GU?$char_traits@G@std@@V?$allocator@G@2@@std@@QAEAAV01@ABV01@@Z
; Line 64
	lea	eax, DWORD PTR _info$[ebp]
	push	eax
	push	40					; 00000028H
	call	DWORD PTR __imp_?Plugin_Communication@@YAXW4PLUGIN_MESSAGE@@PAX@Z
	add	esp, 8
; Line 65
	mov	DWORD PTR __$EHRec$[ebp+8], -1
	lea	ecx, DWORD PTR _info$[ebp]
	call	??1DSACE_CHANGE_INFOCARD_STRUCT@@QAE@XZ
	mov	ecx, DWORD PTR __$EHRec$[ebp]
	mov	DWORD PTR fs:0, ecx
	pop	ecx
	mov	ecx, DWORD PTR __$ArrayPad$[ebp]
	xor	ecx, ebp
	call	@__security_check_cookie@4
	mov	esp, ebp
	pop	ebp
	ret	0
_TEXT	ENDS
text$x	SEGMENT
__unwindfunclet$?HkChangeIDSString@@YAXIIABV?$basic_string@GU?$char_traits@G@std@@V?$allocator@G@2@@std@@@Z$0:
	lea	ecx, DWORD PTR _info$[ebp]
	jmp	??1DSACE_CHANGE_INFOCARD_STRUCT@@QAE@XZ
__ehhandler$?HkChangeIDSString@@YAXIIABV?$basic_string@GU?$char_traits@G@std@@V?$allocator@G@2@@std@@@Z:
	mov	edx, DWORD PTR [esp+8]
	lea	eax, DWORD PTR [edx+12]
	mov	ecx, DWORD PTR [edx-44]
	xor	ecx, eax
	call	@__security_check_cookie@4
	mov	ecx, DWORD PTR [edx-4]
	xor	ecx, eax
	call	@__security_check_cookie@4
	mov	eax, OFFSET __ehfuncinfo$?HkChangeIDSString@@YAXIIABV?$basic_string@GU?$char_traits@G@std@@V?$allocator@G@2@@std@@@Z
	jmp	___CxxFrameHandler3
text$x	ENDS
?HkChangeIDSString@@YAXIIABV?$basic_string@GU?$char_traits@G@std@@V?$allocator@G@2@@std@@@Z ENDP ; HkChangeIDSString
EXTRN	__imp_??1?$basic_string@GU?$char_traits@G@std@@V?$allocator@G@2@@std@@QAE@XZ:PROC
EXTRN	__imp_??0?$basic_string@GU?$char_traits@G@std@@V?$allocator@G@2@@std@@QAE@XZ:PROC
;	COMDAT xdata$x
xdata$x	SEGMENT
__unwindtable$??0DSACE_CHANGE_INFOCARD_STRUCT@@QAE@XZ DD 0ffffffffH
	DD	FLAT:__unwindfunclet$??0DSACE_CHANGE_INFOCARD_STRUCT@@QAE@XZ$0
__ehfuncinfo$??0DSACE_CHANGE_INFOCARD_STRUCT@@QAE@XZ DD 019930522H
	DD	01H
	DD	FLAT:__unwindtable$??0DSACE_CHANGE_INFOCARD_STRUCT@@QAE@XZ
	DD	2 DUP(00H)
	DD	2 DUP(00H)
	DD	00H
	DD	00H
; Function compile flags: /Odtp
xdata$x	ENDS
;	COMDAT ??0DSACE_CHANGE_INFOCARD_STRUCT@@QAE@XZ
_TEXT	SEGMENT
_this$ = -16						; size = 4
__$EHRec$ = -12						; size = 12
??0DSACE_CHANGE_INFOCARD_STRUCT@@QAE@XZ PROC		; DSACE_CHANGE_INFOCARD_STRUCT::DSACE_CHANGE_INFOCARD_STRUCT, COMDAT
; _this$ = ecx
	push	ebp
	mov	ebp, esp
	push	-1
	push	__ehhandler$??0DSACE_CHANGE_INFOCARD_STRUCT@@QAE@XZ
	mov	eax, DWORD PTR fs:0
	push	eax
	push	ecx
	mov	eax, DWORD PTR ___security_cookie
	xor	eax, ebp
	push	eax
	lea	eax, DWORD PTR __$EHRec$[ebp]
	mov	DWORD PTR fs:0, eax
	mov	DWORD PTR _this$[ebp], ecx
	mov	ecx, DWORD PTR _this$[ebp]
	add	ecx, 8
	call	DWORD PTR __imp_??0?$basic_string@GU?$char_traits@G@std@@V?$allocator@G@2@@std@@QAE@XZ
	mov	DWORD PTR __$EHRec$[ebp+8], 0
	mov	DWORD PTR __$EHRec$[ebp+8], -1
	mov	eax, DWORD PTR _this$[ebp]
	mov	ecx, DWORD PTR __$EHRec$[ebp]
	mov	DWORD PTR fs:0, ecx
	pop	ecx
	mov	esp, ebp
	pop	ebp
	ret	0
_TEXT	ENDS
;	COMDAT text$x
text$x	SEGMENT
__unwindfunclet$??0DSACE_CHANGE_INFOCARD_STRUCT@@QAE@XZ$0:
	mov	ecx, DWORD PTR _this$[ebp]
	add	ecx, 8
	jmp	DWORD PTR __imp_??1?$basic_string@GU?$char_traits@G@std@@V?$allocator@G@2@@std@@QAE@XZ
__ehhandler$??0DSACE_CHANGE_INFOCARD_STRUCT@@QAE@XZ:
	mov	edx, DWORD PTR [esp+8]
	lea	eax, DWORD PTR [edx+12]
	mov	ecx, DWORD PTR [edx-8]
	xor	ecx, eax
	call	@__security_check_cookie@4
	mov	eax, OFFSET __ehfuncinfo$??0DSACE_CHANGE_INFOCARD_STRUCT@@QAE@XZ
	jmp	___CxxFrameHandler3
text$x	ENDS
??0DSACE_CHANGE_INFOCARD_STRUCT@@QAE@XZ ENDP		; DSACE_CHANGE_INFOCARD_STRUCT::DSACE_CHANGE_INFOCARD_STRUCT
;	COMDAT xdata$x
xdata$x	SEGMENT
__unwindtable$??1DSACE_CHANGE_INFOCARD_STRUCT@@QAE@XZ DD 0ffffffffH
	DD	FLAT:__unwindfunclet$??1DSACE_CHANGE_INFOCARD_STRUCT@@QAE@XZ$0
__ehfuncinfo$??1DSACE_CHANGE_INFOCARD_STRUCT@@QAE@XZ DD 019930522H
	DD	01H
	DD	FLAT:__unwindtable$??1DSACE_CHANGE_INFOCARD_STRUCT@@QAE@XZ
	DD	2 DUP(00H)
	DD	2 DUP(00H)
	DD	00H
	DD	00H
; Function compile flags: /Odtp
xdata$x	ENDS
;	COMDAT ??1DSACE_CHANGE_INFOCARD_STRUCT@@QAE@XZ
_TEXT	SEGMENT
_this$ = -16						; size = 4
__$EHRec$ = -12						; size = 12
??1DSACE_CHANGE_INFOCARD_STRUCT@@QAE@XZ PROC		; DSACE_CHANGE_INFOCARD_STRUCT::~DSACE_CHANGE_INFOCARD_STRUCT, COMDAT
; _this$ = ecx
	push	ebp
	mov	ebp, esp
	push	-1
	push	__ehhandler$??1DSACE_CHANGE_INFOCARD_STRUCT@@QAE@XZ
	mov	eax, DWORD PTR fs:0
	push	eax
	push	ecx
	mov	eax, DWORD PTR ___security_cookie
	xor	eax, ebp
	push	eax
	lea	eax, DWORD PTR __$EHRec$[ebp]
	mov	DWORD PTR fs:0, eax
	mov	DWORD PTR _this$[ebp], ecx
	mov	DWORD PTR __$EHRec$[ebp+8], 0
	mov	DWORD PTR __$EHRec$[ebp+8], -1
	mov	ecx, DWORD PTR _this$[ebp]
	add	ecx, 8
	call	DWORD PTR __imp_??1?$basic_string@GU?$char_traits@G@std@@V?$allocator@G@2@@std@@QAE@XZ
	mov	ecx, DWORD PTR __$EHRec$[ebp]
	mov	DWORD PTR fs:0, ecx
	pop	ecx
	mov	esp, ebp
	pop	ebp
	ret	0
_TEXT	ENDS
;	COMDAT text$x
text$x	SEGMENT
__unwindfunclet$??1DSACE_CHANGE_INFOCARD_STRUCT@@QAE@XZ$0:
	mov	ecx, DWORD PTR _this$[ebp]
	add	ecx, 8
	jmp	DWORD PTR __imp_??1?$basic_string@GU?$char_traits@G@std@@V?$allocator@G@2@@std@@QAE@XZ
__ehhandler$??1DSACE_CHANGE_INFOCARD_STRUCT@@QAE@XZ:
	mov	edx, DWORD PTR [esp+8]
	lea	eax, DWORD PTR [edx+12]
	mov	ecx, DWORD PTR [edx-8]
	xor	ecx, eax
	call	@__security_check_cookie@4
	mov	eax, OFFSET __ehfuncinfo$??1DSACE_CHANGE_INFOCARD_STRUCT@@QAE@XZ
	jmp	___CxxFrameHandler3
text$x	ENDS
??1DSACE_CHANGE_INFOCARD_STRUCT@@QAE@XZ ENDP		; DSACE_CHANGE_INFOCARD_STRUCT::~DSACE_CHANGE_INFOCARD_STRUCT
PUBLIC	__real@4000000000000000
PUBLIC	__real@0000000000000000
PUBLIC	__real@3ff0000000000000
PUBLIC	?HkMatrixToQuaternion@@YA?AVQuaternion@@VMatrix@@@Z ; HkMatrixToQuaternion
EXTRN	__imp___copysign:PROC
;	COMDAT __real@4000000000000000
CONST	SEGMENT
__real@4000000000000000 DQ 04000000000000000r	; 2
CONST	ENDS
;	COMDAT __real@0000000000000000
CONST	SEGMENT
__real@0000000000000000 DQ 00000000000000000r	; 0
CONST	ENDS
;	COMDAT __real@3ff0000000000000
CONST	SEGMENT
__real@3ff0000000000000 DQ 03ff0000000000000r	; 1
; Function compile flags: /Odtp
CONST	ENDS
_TEXT	SEGMENT
tv283 = -64						; size = 4
tv194 = -60						; size = 8
tv268 = -52						; size = 4
tv168 = -48						; size = 8
tv253 = -40						; size = 4
tv142 = -36						; size = 8
tv238 = -28						; size = 4
tv84 = -24						; size = 8
_quaternion$ = -16					; size = 16
$T153971 = 8						; size = 4
_m$ = 12						; size = 36
?HkMatrixToQuaternion@@YA?AVQuaternion@@VMatrix@@@Z PROC ; HkMatrixToQuaternion
; Line 68
	push	ebp
	mov	ebp, esp
	sub	esp, 64					; 00000040H
; Line 70
	fld	DWORD PTR _m$[ebp]
	fld1
	faddp	ST(1), ST(0)
	fadd	DWORD PTR _m$[ebp+16]
	fadd	DWORD PTR _m$[ebp+32]
	fcomp	QWORD PTR __real@0000000000000000
	fnstsw	ax
	test	ah, 5
	jp	SHORT $LN3@HkMatrixTo
	fldz
	fstp	QWORD PTR tv84[ebp]
	jmp	SHORT $LN4@HkMatrixTo
$LN3@HkMatrixTo:
	fld	DWORD PTR _m$[ebp]
	fld1
	faddp	ST(1), ST(0)
	fadd	DWORD PTR _m$[ebp+16]
	fadd	DWORD PTR _m$[ebp+32]
	fstp	QWORD PTR tv84[ebp]
$LN4@HkMatrixTo:
	fld	QWORD PTR tv84[ebp]
	fstp	DWORD PTR tv238[ebp]
	fld	DWORD PTR tv238[ebp]
	push	ecx
	fstp	DWORD PTR [esp]
	call	?sqrt@@YAMM@Z				; sqrt
	add	esp, 4
	fdiv	QWORD PTR __real@4000000000000000
	fstp	DWORD PTR _quaternion$[ebp]
; Line 71
	fld	DWORD PTR _m$[ebp]
	fld1
	faddp	ST(1), ST(0)
	fsub	DWORD PTR _m$[ebp+16]
	fsub	DWORD PTR _m$[ebp+32]
	fcomp	QWORD PTR __real@0000000000000000
	fnstsw	ax
	test	ah, 5
	jp	SHORT $LN5@HkMatrixTo
	fldz
	fstp	QWORD PTR tv142[ebp]
	jmp	SHORT $LN6@HkMatrixTo
$LN5@HkMatrixTo:
	fld	DWORD PTR _m$[ebp]
	fld1
	faddp	ST(1), ST(0)
	fsub	DWORD PTR _m$[ebp+16]
	fsub	DWORD PTR _m$[ebp+32]
	fstp	QWORD PTR tv142[ebp]
$LN6@HkMatrixTo:
	fld	QWORD PTR tv142[ebp]
	fstp	DWORD PTR tv253[ebp]
	fld	DWORD PTR tv253[ebp]
	push	ecx
	fstp	DWORD PTR [esp]
	call	?sqrt@@YAMM@Z				; sqrt
	add	esp, 4
	fdiv	QWORD PTR __real@4000000000000000
	fstp	DWORD PTR _quaternion$[ebp+4]
; Line 72
	fld	DWORD PTR _m$[ebp]
	fld1
	fsubrp	ST(1), ST(0)
	fadd	DWORD PTR _m$[ebp+16]
	fsub	DWORD PTR _m$[ebp+32]
	fcomp	QWORD PTR __real@0000000000000000
	fnstsw	ax
	test	ah, 5
	jp	SHORT $LN7@HkMatrixTo
	fldz
	fstp	QWORD PTR tv168[ebp]
	jmp	SHORT $LN8@HkMatrixTo
$LN7@HkMatrixTo:
	fld	DWORD PTR _m$[ebp]
	fld1
	fsubrp	ST(1), ST(0)
	fadd	DWORD PTR _m$[ebp+16]
	fsub	DWORD PTR _m$[ebp+32]
	fstp	QWORD PTR tv168[ebp]
$LN8@HkMatrixTo:
	fld	QWORD PTR tv168[ebp]
	fstp	DWORD PTR tv268[ebp]
	fld	DWORD PTR tv268[ebp]
	push	ecx
	fstp	DWORD PTR [esp]
	call	?sqrt@@YAMM@Z				; sqrt
	add	esp, 4
	fdiv	QWORD PTR __real@4000000000000000
	fstp	DWORD PTR _quaternion$[ebp+8]
; Line 73
	fld	DWORD PTR _m$[ebp]
	fld1
	fsubrp	ST(1), ST(0)
	fsub	DWORD PTR _m$[ebp+16]
	fadd	DWORD PTR _m$[ebp+32]
	fcomp	QWORD PTR __real@0000000000000000
	fnstsw	ax
	test	ah, 5
	jp	SHORT $LN9@HkMatrixTo
	fldz
	fstp	QWORD PTR tv194[ebp]
	jmp	SHORT $LN10@HkMatrixTo
$LN9@HkMatrixTo:
	fld	DWORD PTR _m$[ebp]
	fld1
	fsubrp	ST(1), ST(0)
	fsub	DWORD PTR _m$[ebp+16]
	fadd	DWORD PTR _m$[ebp+32]
	fstp	QWORD PTR tv194[ebp]
$LN10@HkMatrixTo:
	fld	QWORD PTR tv194[ebp]
	fstp	DWORD PTR tv283[ebp]
	fld	DWORD PTR tv283[ebp]
	push	ecx
	fstp	DWORD PTR [esp]
	call	?sqrt@@YAMM@Z				; sqrt
	add	esp, 4
	fdiv	QWORD PTR __real@4000000000000000
	fstp	DWORD PTR _quaternion$[ebp+12]
; Line 74
	fld	DWORD PTR _m$[ebp+28]
	fsub	DWORD PTR _m$[ebp+20]
	sub	esp, 8
	fstp	QWORD PTR [esp]
	fld	DWORD PTR _quaternion$[ebp+4]
	sub	esp, 8
	fstp	QWORD PTR [esp]
	call	DWORD PTR __imp___copysign
	add	esp, 16					; 00000010H
	fstp	DWORD PTR _quaternion$[ebp+4]
; Line 75
	fld	DWORD PTR _m$[ebp+8]
	fsub	DWORD PTR _m$[ebp+24]
	sub	esp, 8
	fstp	QWORD PTR [esp]
	fld	DWORD PTR _quaternion$[ebp+8]
	sub	esp, 8
	fstp	QWORD PTR [esp]
	call	DWORD PTR __imp___copysign
	add	esp, 16					; 00000010H
	fstp	DWORD PTR _quaternion$[ebp+8]
; Line 76
	fld	DWORD PTR _m$[ebp+12]
	fsub	DWORD PTR _m$[ebp+4]
	sub	esp, 8
	fstp	QWORD PTR [esp]
	fld	DWORD PTR _quaternion$[ebp+12]
	sub	esp, 8
	fstp	QWORD PTR [esp]
	call	DWORD PTR __imp___copysign
	add	esp, 16					; 00000010H
	fstp	DWORD PTR _quaternion$[ebp+12]
; Line 77
	mov	eax, DWORD PTR $T153971[ebp]
	mov	ecx, DWORD PTR _quaternion$[ebp]
	mov	DWORD PTR [eax], ecx
	mov	edx, DWORD PTR _quaternion$[ebp+4]
	mov	DWORD PTR [eax+4], edx
	mov	ecx, DWORD PTR _quaternion$[ebp+8]
	mov	DWORD PTR [eax+8], ecx
	mov	edx, DWORD PTR _quaternion$[ebp+12]
	mov	DWORD PTR [eax+12], edx
	mov	eax, DWORD PTR $T153971[ebp]
; Line 78
	mov	esp, ebp
	pop	ebp
	ret	0
?HkMatrixToQuaternion@@YA?AVQuaternion@@VMatrix@@@Z ENDP ; HkMatrixToQuaternion
_TEXT	ENDS
PUBLIC	?HkRelocateClient@@YAXIVVector@@VMatrix@@@Z	; HkRelocateClient
EXTRN	__imp_?Relocate@SpaceObj@pub@@YAHABI0ABVVector@@ABVMatrix@@@Z:PROC
EXTRN	__imp_?GetSystem@Player@pub@@YAHABIAAI@Z:PROC
EXTRN	__imp_?HookClient@@3PAUHkIClientImpl@@A:DWORD
EXTRN	__imp_?ClientInfo@@3PAUCLIENT_INFO@@A:BYTE
; Function compile flags: /Odtp
_TEXT	SEGMENT
$T153988 = -96						; size = 16
$T153987 = -76						; size = 16
_qRotation$ = -60					; size = 16
_pLaunch$ = -44						; size = 40
_iSystem$ = -4						; size = 4
_iClientID$ = 8						; size = 4
_vDestination$ = 12					; size = 12
_mOrientation$ = 24					; size = 36
?HkRelocateClient@@YAXIVVector@@VMatrix@@@Z PROC	; HkRelocateClient
; Line 82
	push	ebp
	mov	ebp, esp
	sub	esp, 96					; 00000060H
	push	esi
	push	edi
; Line 83
	sub	esp, 36					; 00000024H
	mov	ecx, 9
	lea	esi, DWORD PTR _mOrientation$[ebp]
	mov	edi, esp
	rep movsd
	lea	eax, DWORD PTR $T153988[ebp]
	push	eax
	call	?HkMatrixToQuaternion@@YA?AVQuaternion@@VMatrix@@@Z ; HkMatrixToQuaternion
	add	esp, 40					; 00000028H
	mov	ecx, DWORD PTR [eax]
	mov	DWORD PTR $T153987[ebp], ecx
	mov	edx, DWORD PTR [eax+4]
	mov	DWORD PTR $T153987[ebp+4], edx
	mov	ecx, DWORD PTR [eax+8]
	mov	DWORD PTR $T153987[ebp+8], ecx
	mov	edx, DWORD PTR [eax+12]
	mov	DWORD PTR $T153987[ebp+12], edx
	mov	eax, DWORD PTR $T153987[ebp]
	mov	DWORD PTR _qRotation$[ebp], eax
	mov	ecx, DWORD PTR $T153987[ebp+4]
	mov	DWORD PTR _qRotation$[ebp+4], ecx
	mov	edx, DWORD PTR $T153987[ebp+8]
	mov	DWORD PTR _qRotation$[ebp+8], edx
	mov	eax, DWORD PTR $T153987[ebp+12]
	mov	DWORD PTR _qRotation$[ebp+12], eax
; Line 86
	mov	ecx, DWORD PTR _iClientID$[ebp]
	imul	ecx, 2368				; 00000940H
	mov	edx, DWORD PTR __imp_?ClientInfo@@3PAUCLIENT_INFO@@A
	mov	eax, DWORD PTR [edx+ecx]
	mov	DWORD PTR _pLaunch$[ebp], eax
; Line 87
	mov	DWORD PTR _pLaunch$[ebp+4], 0
; Line 88
	mov	DWORD PTR _pLaunch$[ebp+8], -1
; Line 89
	fld	DWORD PTR _qRotation$[ebp]
	fstp	DWORD PTR _pLaunch$[ebp+12]
; Line 90
	fld	DWORD PTR _qRotation$[ebp+4]
	fstp	DWORD PTR _pLaunch$[ebp+16]
; Line 91
	fld	DWORD PTR _qRotation$[ebp+8]
	fstp	DWORD PTR _pLaunch$[ebp+20]
; Line 92
	fld	DWORD PTR _qRotation$[ebp+12]
	fstp	DWORD PTR _pLaunch$[ebp+24]
; Line 93
	fld	DWORD PTR _vDestination$[ebp]
	fstp	DWORD PTR _pLaunch$[ebp+28]
; Line 94
	fld	DWORD PTR _vDestination$[ebp+4]
	fstp	DWORD PTR _pLaunch$[ebp+32]
; Line 95
	fld	DWORD PTR _vDestination$[ebp+8]
	fstp	DWORD PTR _pLaunch$[ebp+36]
; Line 97
	lea	ecx, DWORD PTR _pLaunch$[ebp]
	push	ecx
	mov	edx, DWORD PTR _iClientID$[ebp]
	push	edx
	mov	eax, DWORD PTR __imp_?HookClient@@3PAUHkIClientImpl@@A
	mov	ecx, DWORD PTR [eax]
	mov	edx, DWORD PTR __imp_?HookClient@@3PAUHkIClientImpl@@A
	mov	eax, DWORD PTR [edx]
	mov	edx, DWORD PTR [ecx]
	mov	ecx, eax
	mov	eax, DWORD PTR [edx+240]
	call	eax
; Line 100
	lea	ecx, DWORD PTR _iSystem$[ebp]
	push	ecx
	lea	edx, DWORD PTR _iClientID$[ebp]
	push	edx
	call	DWORD PTR __imp_?GetSystem@Player@pub@@YAHABIAAI@Z
	add	esp, 8
; Line 101
	lea	eax, DWORD PTR _mOrientation$[ebp]
	push	eax
	lea	ecx, DWORD PTR _vDestination$[ebp]
	push	ecx
	lea	edx, DWORD PTR _iSystem$[ebp]
	push	edx
	mov	eax, DWORD PTR _iClientID$[ebp]
	imul	eax, 2368				; 00000940H
	add	eax, DWORD PTR __imp_?ClientInfo@@3PAUCLIENT_INFO@@A
	push	eax
	call	DWORD PTR __imp_?Relocate@SpaceObj@pub@@YAHABI0ABVVector@@ABVMatrix@@@Z
	add	esp, 16					; 00000010H
; Line 102
	pop	edi
	pop	esi
	mov	esp, ebp
	pop	ebp
	ret	0
?HkRelocateClient@@YAXIVVector@@VMatrix@@@Z ENDP	; HkRelocateClient
_TEXT	ENDS
PUBLIC	?HkInstantDock@@YA?AW4HK_ERROR@@II@Z		; HkInstantDock
EXTRN	__imp_?InstantDock@SpaceObj@pub@@YAHABI0H@Z:PROC
EXTRN	__imp_?GetSystem@SpaceObj@pub@@YAHIAAI@Z:PROC
EXTRN	__imp_?GetShip@Player@pub@@YAHABIAAI@Z:PROC
xdata$x	SEGMENT
__catchsym$?HkInstantDock@@YA?AW4HK_ERROR@@II@Z$2 DD 00H
	DD	00H
	DD	00H
	DD	FLAT:__catch$?HkInstantDock@@YA?AW4HK_ERROR@@II@Z$0
__unwindtable$?HkInstantDock@@YA?AW4HK_ERROR@@II@Z DD 0ffffffffH
	DD	00H
	DD	0ffffffffH
	DD	00H
__tryblocktable$?HkInstantDock@@YA?AW4HK_ERROR@@II@Z DD 00H
	DD	00H
	DD	01H
	DD	01H
	DD	FLAT:__catchsym$?HkInstantDock@@YA?AW4HK_ERROR@@II@Z$2
__ehfuncinfo$?HkInstantDock@@YA?AW4HK_ERROR@@II@Z DD 019930522H
	DD	02H
	DD	FLAT:__unwindtable$?HkInstantDock@@YA?AW4HK_ERROR@@II@Z
	DD	01H
	DD	FLAT:__tryblocktable$?HkInstantDock@@YA?AW4HK_ERROR@@II@Z
	DD	2 DUP(00H)
	DD	00H
	DD	00H
; Function compile flags: /Odtp
xdata$x	ENDS
_TEXT	SEGMENT
$T153990 = -32						; size = 4
_iShip$ = -28						; size = 4
_iSystem$ = -24						; size = 4
_iSystem2$ = -20					; size = 4
__$EHRec$ = -16						; size = 16
_iClientID$ = 8						; size = 4
_iDockObj$ = 12						; size = 4
?HkInstantDock@@YA?AW4HK_ERROR@@II@Z PROC		; HkInstantDock
; Line 106
	push	ebp
	mov	ebp, esp
	push	-1
	push	__ehhandler$?HkInstantDock@@YA?AW4HK_ERROR@@II@Z
	mov	eax, DWORD PTR fs:0
	push	eax
	push	ecx
	sub	esp, 16					; 00000010H
	push	ebx
	push	esi
	push	edi
	mov	eax, DWORD PTR ___security_cookie
	xor	eax, ebp
	push	eax
	lea	eax, DWORD PTR __$EHRec$[ebp+4]
	mov	DWORD PTR fs:0, eax
	mov	DWORD PTR __$EHRec$[ebp], esp
; Line 108
	cmp	DWORD PTR _iClientID$[ebp], -1
	jne	SHORT $LN4@HkInstantD
; Line 109
	mov	eax, 1
	jmp	$LN5@HkInstantD
$LN4@HkInstantD:
; Line 112
	lea	eax, DWORD PTR _iShip$[ebp]
	push	eax
	lea	ecx, DWORD PTR _iClientID$[ebp]
	push	ecx
	call	DWORD PTR __imp_?GetShip@Player@pub@@YAHABIAAI@Z
	add	esp, 8
; Line 113
	cmp	DWORD PTR _iShip$[ebp], 0
	jne	SHORT $LN3@HkInstantD
; Line 114
	mov	eax, 9
	jmp	SHORT $LN5@HkInstantD
$LN3@HkInstantD:
; Line 117
	lea	edx, DWORD PTR _iSystem$[ebp]
	push	edx
	mov	eax, DWORD PTR _iShip$[ebp]
	push	eax
	call	DWORD PTR __imp_?GetSystem@SpaceObj@pub@@YAHIAAI@Z
	add	esp, 8
; Line 118
	lea	ecx, DWORD PTR _iSystem2$[ebp]
	push	ecx
	mov	edx, DWORD PTR _iDockObj$[ebp]
	push	edx
	call	DWORD PTR __imp_?GetSystem@SpaceObj@pub@@YAHIAAI@Z
	add	esp, 8
; Line 119
	mov	eax, DWORD PTR _iSystem$[ebp]
	cmp	eax, DWORD PTR _iSystem2$[ebp]
	je	SHORT $LN2@HkInstantD
; Line 121
	mov	eax, 9
	jmp	SHORT $LN5@HkInstantD
$LN2@HkInstantD:
; Line 124
	mov	DWORD PTR __$EHRec$[ebp+12], 0
; Line 125
	push	1
	lea	ecx, DWORD PTR _iDockObj$[ebp]
	push	ecx
	lea	edx, DWORD PTR _iShip$[ebp]
	push	edx
	call	DWORD PTR __imp_?InstantDock@SpaceObj@pub@@YAHABI0H@Z
	add	esp, 12					; 0000000cH
	jmp	SHORT $LN7@HkInstantD
__catch$?HkInstantDock@@YA?AW4HK_ERROR@@II@Z$0:
; Line 126
	mov	DWORD PTR $T153990[ebp], 9
	mov	DWORD PTR __$EHRec$[ebp+12], -1
	mov	eax, $LN10@HkInstantD
	ret	0
	mov	eax, $LN7@HkInstantD
	ret	0
$LN7@HkInstantD:
	mov	DWORD PTR __$EHRec$[ebp+12], -1
	jmp	SHORT $LN9@HkInstantD
$LN10@HkInstantD:
	mov	eax, DWORD PTR $T153990[ebp]
	jmp	SHORT $LN5@HkInstantD
$LN9@HkInstantD:
; Line 128
	xor	eax, eax
$LN5@HkInstantD:
; Line 129
	mov	ecx, DWORD PTR __$EHRec$[ebp+4]
	mov	DWORD PTR fs:0, ecx
	pop	ecx
	pop	edi
	pop	esi
	pop	ebx
	mov	esp, ebp
	pop	ebp
	ret	0
_TEXT	ENDS
text$x	SEGMENT
__ehhandler$?HkInstantDock@@YA?AW4HK_ERROR@@II@Z:
	mov	edx, DWORD PTR [esp+8]
	lea	eax, DWORD PTR [edx+12]
	mov	ecx, DWORD PTR [edx-36]
	xor	ecx, eax
	call	@__security_check_cookie@4
	mov	eax, OFFSET __ehfuncinfo$?HkInstantDock@@YA?AW4HK_ERROR@@II@Z
	jmp	___CxxFrameHandler3
text$x	ENDS
?HkInstantDock@@YA?AW4HK_ERROR@@II@Z ENDP		; HkInstantDock
PUBLIC	__$ArrayPad$
PUBLIC	?HkGetRank@@YA?AW4HK_ERROR@@ABV?$basic_string@GU?$char_traits@G@std@@V?$allocator@G@2@@std@@AAH@Z ; HkGetRank
EXTRN	__imp_?ToInt@@YAHABV?$basic_string@GU?$char_traits@G@std@@V?$allocator@G@2@@std@@@Z:PROC
EXTRN	__imp_?length@?$basic_string@GU?$char_traits@G@std@@V?$allocator@G@2@@std@@QBEIXZ:PROC
EXTRN	__imp_?HkFLIniGet@@YA?AW4HK_ERROR@@ABV?$basic_string@GU?$char_traits@G@std@@V?$allocator@G@2@@std@@0AAV23@@Z:PROC
EXTRN	__imp_??0?$basic_string@GU?$char_traits@G@std@@V?$allocator@G@2@@std@@QAE@PBG@Z:PROC
xdata$x	SEGMENT
__unwindtable$?HkGetRank@@YA?AW4HK_ERROR@@ABV?$basic_string@GU?$char_traits@G@std@@V?$allocator@G@2@@std@@AAH@Z DD 0ffffffffH
	DD	FLAT:__unwindfunclet$?HkGetRank@@YA?AW4HK_ERROR@@ABV?$basic_string@GU?$char_traits@G@std@@V?$allocator@G@2@@std@@AAH@Z$0
	DD	00H
	DD	FLAT:__unwindfunclet$?HkGetRank@@YA?AW4HK_ERROR@@ABV?$basic_string@GU?$char_traits@G@std@@V?$allocator@G@2@@std@@AAH@Z$1
__ehfuncinfo$?HkGetRank@@YA?AW4HK_ERROR@@ABV?$basic_string@GU?$char_traits@G@std@@V?$allocator@G@2@@std@@AAH@Z DD 019930522H
	DD	02H
	DD	FLAT:__unwindtable$?HkGetRank@@YA?AW4HK_ERROR@@ABV?$basic_string@GU?$char_traits@G@std@@V?$allocator@G@2@@std@@AAH@Z
	DD	2 DUP(00H)
	DD	2 DUP(00H)
	DD	00H
	DD	00H
; Function compile flags: /Odtp
xdata$x	ENDS
_TEXT	SEGMENT
$T154007 = -88						; size = 4
$T154006 = -84						; size = 4
$T154005 = -80						; size = 28
$T154004 = -49						; size = 1
_err$ = -48						; size = 4
_wscRet$ = -44						; size = 28
__$ArrayPad$ = -16					; size = 4
__$EHRec$ = -12						; size = 12
_wscCharname$ = 8					; size = 4
_iRank$ = 12						; size = 4
?HkGetRank@@YA?AW4HK_ERROR@@ABV?$basic_string@GU?$char_traits@G@std@@V?$allocator@G@2@@std@@AAH@Z PROC ; HkGetRank
; Line 132
	push	ebp
	mov	ebp, esp
	push	-1
	push	__ehhandler$?HkGetRank@@YA?AW4HK_ERROR@@ABV?$basic_string@GU?$char_traits@G@std@@V?$allocator@G@2@@std@@AAH@Z
	mov	eax, DWORD PTR fs:0
	push	eax
	sub	esp, 76					; 0000004cH
	mov	eax, DWORD PTR ___security_cookie
	xor	eax, ebp
	mov	DWORD PTR __$ArrayPad$[ebp], eax
	push	eax
	lea	eax, DWORD PTR __$EHRec$[ebp]
	mov	DWORD PTR fs:0, eax
; Line 134
	push	OFFSET $SG142668
	lea	ecx, DWORD PTR _wscRet$[ebp]
	call	DWORD PTR __imp_??0?$basic_string@GU?$char_traits@G@std@@V?$allocator@G@2@@std@@QAE@PBG@Z
	mov	DWORD PTR __$EHRec$[ebp+8], 0
; Line 135
	push	OFFSET $SG142672
	lea	ecx, DWORD PTR $T154005[ebp]
	call	DWORD PTR __imp_??0?$basic_string@GU?$char_traits@G@std@@V?$allocator@G@2@@std@@QAE@PBG@Z
	mov	BYTE PTR __$EHRec$[ebp+8], 1
	lea	eax, DWORD PTR _wscRet$[ebp]
	push	eax
	lea	ecx, DWORD PTR $T154005[ebp]
	push	ecx
	mov	edx, DWORD PTR _wscCharname$[ebp]
	push	edx
	call	DWORD PTR __imp_?HkFLIniGet@@YA?AW4HK_ERROR@@ABV?$basic_string@GU?$char_traits@G@std@@V?$allocator@G@2@@std@@0AAV23@@Z
	add	esp, 12					; 0000000cH
	mov	DWORD PTR _err$[ebp], eax
	xor	eax, eax
	cmp	DWORD PTR _err$[ebp], 0
	setne	al
	mov	BYTE PTR $T154004[ebp], al
	mov	BYTE PTR __$EHRec$[ebp+8], 0
	lea	ecx, DWORD PTR $T154005[ebp]
	call	DWORD PTR __imp_??1?$basic_string@GU?$char_traits@G@std@@V?$allocator@G@2@@std@@QAE@XZ
	movzx	ecx, BYTE PTR $T154004[ebp]
	test	ecx, ecx
	je	SHORT $LN3@HkGetRank
; Line 136
	mov	edx, DWORD PTR _err$[ebp]
	mov	DWORD PTR $T154006[ebp], edx
	mov	DWORD PTR __$EHRec$[ebp+8], -1
	lea	ecx, DWORD PTR _wscRet$[ebp]
	call	DWORD PTR __imp_??1?$basic_string@GU?$char_traits@G@std@@V?$allocator@G@2@@std@@QAE@XZ
	mov	eax, DWORD PTR $T154006[ebp]
	jmp	SHORT $LN4@HkGetRank
$LN3@HkGetRank:
; Line 137
	lea	ecx, DWORD PTR _wscRet$[ebp]
	call	DWORD PTR __imp_?length@?$basic_string@GU?$char_traits@G@std@@V?$allocator@G@2@@std@@QBEIXZ
	test	eax, eax
	je	SHORT $LN2@HkGetRank
; Line 138
	lea	eax, DWORD PTR _wscRet$[ebp]
	push	eax
	call	DWORD PTR __imp_?ToInt@@YAHABV?$basic_string@GU?$char_traits@G@std@@V?$allocator@G@2@@std@@@Z
	add	esp, 4
	mov	ecx, DWORD PTR _iRank$[ebp]
	mov	DWORD PTR [ecx], eax
; Line 139
	jmp	SHORT $LN1@HkGetRank
$LN2@HkGetRank:
; Line 140
	mov	edx, DWORD PTR _iRank$[ebp]
	mov	DWORD PTR [edx], 0
$LN1@HkGetRank:
; Line 141
	mov	DWORD PTR $T154007[ebp], 0
	mov	DWORD PTR __$EHRec$[ebp+8], -1
	lea	ecx, DWORD PTR _wscRet$[ebp]
	call	DWORD PTR __imp_??1?$basic_string@GU?$char_traits@G@std@@V?$allocator@G@2@@std@@QAE@XZ
	mov	eax, DWORD PTR $T154007[ebp]
$LN4@HkGetRank:
; Line 142
	mov	ecx, DWORD PTR __$EHRec$[ebp]
	mov	DWORD PTR fs:0, ecx
	pop	ecx
	mov	ecx, DWORD PTR __$ArrayPad$[ebp]
	xor	ecx, ebp
	call	@__security_check_cookie@4
	mov	esp, ebp
	pop	ebp
	ret	0
_TEXT	ENDS
text$x	SEGMENT
__unwindfunclet$?HkGetRank@@YA?AW4HK_ERROR@@ABV?$basic_string@GU?$char_traits@G@std@@V?$allocator@G@2@@std@@AAH@Z$0:
	lea	ecx, DWORD PTR _wscRet$[ebp]
	jmp	DWORD PTR __imp_??1?$basic_string@GU?$char_traits@G@std@@V?$allocator@G@2@@std@@QAE@XZ
__unwindfunclet$?HkGetRank@@YA?AW4HK_ERROR@@ABV?$basic_string@GU?$char_traits@G@std@@V?$allocator@G@2@@std@@AAH@Z$1:
	lea	ecx, DWORD PTR $T154005[ebp]
	jmp	DWORD PTR __imp_??1?$basic_string@GU?$char_traits@G@std@@V?$allocator@G@2@@std@@QAE@XZ
__ehhandler$?HkGetRank@@YA?AW4HK_ERROR@@ABV?$basic_string@GU?$char_traits@G@std@@V?$allocator@G@2@@std@@AAH@Z:
	mov	edx, DWORD PTR [esp+8]
	lea	eax, DWORD PTR [edx+12]
	mov	ecx, DWORD PTR [edx-80]
	xor	ecx, eax
	call	@__security_check_cookie@4
	mov	ecx, DWORD PTR [edx-4]
	xor	ecx, eax
	call	@__security_check_cookie@4
	mov	eax, OFFSET __ehfuncinfo$?HkGetRank@@YA?AW4HK_ERROR@@ABV?$basic_string@GU?$char_traits@G@std@@V?$allocator@G@2@@std@@AAH@Z
	jmp	___CxxFrameHandler3
text$x	ENDS
?HkGetRank@@YA?AW4HK_ERROR@@ABV?$basic_string@GU?$char_traits@G@std@@V?$allocator@G@2@@std@@AAH@Z ENDP ; HkGetRank
PUBLIC	__real@00000000
PUBLIC	__$ArrayPad$
PUBLIC	?HkGetOnLineTime@@YA?AW4HK_ERROR@@ABV?$basic_string@GU?$char_traits@G@std@@V?$allocator@G@2@@std@@AAH@Z ; HkGetOnLineTime
EXTRN	__imp__DeleteFileA@4:PROC
EXTRN	__imp_?IniGetF@@YAMABV?$basic_string@DU?$char_traits@D@std@@V?$allocator@D@2@@std@@00M@Z:PROC
EXTRN	__imp_??0?$basic_string@DU?$char_traits@D@std@@V?$allocator@D@2@@std@@QAE@PBD@Z:PROC
EXTRN	__imp_?flc_decode@@YA_NPBD0@Z:PROC
EXTRN	__imp_?c_str@?$basic_string@DU?$char_traits@D@std@@V?$allocator@D@2@@std@@QBEPBDXZ:PROC
EXTRN	__imp_?HkIsEncoded@@YA_NABV?$basic_string@DU?$char_traits@D@std@@V?$allocator@D@2@@std@@@Z:PROC
EXTRN	__imp_??1?$basic_string@DU?$char_traits@D@std@@V?$allocator@D@2@@std@@QAE@XZ:PROC
EXTRN	__imp_??$?HDU?$char_traits@D@std@@V?$allocator@D@1@@std@@YA?AV?$basic_string@DU?$char_traits@D@std@@V?$allocator@D@2@@0@ABV10@PBD@Z:PROC
EXTRN	__imp_??$?HDU?$char_traits@D@std@@V?$allocator@D@1@@std@@YA?AV?$basic_string@DU?$char_traits@D@std@@V?$allocator@D@2@@0@ABV10@0@Z:PROC
EXTRN	__imp_?scAcctPath@@3V?$basic_string@DU?$char_traits@D@std@@V?$allocator@D@2@@std@@A:BYTE
EXTRN	__imp_?wstos@@YA?AV?$basic_string@DU?$char_traits@D@std@@V?$allocator@D@2@@std@@ABV?$basic_string@GU?$char_traits@G@std@@V?$allocator@G@2@@2@@Z:PROC
EXTRN	__imp_?HkGetCharFileName@@YA?AW4HK_ERROR@@ABV?$basic_string@GU?$char_traits@G@std@@V?$allocator@G@2@@std@@AAV23@@Z:PROC
EXTRN	__imp_?HkGetAccountDirName@@YA?AW4HK_ERROR@@ABV?$basic_string@GU?$char_traits@G@std@@V?$allocator@G@2@@std@@AAV23@@Z:PROC
EXTRN	__ftol2_sse:PROC
;	COMDAT __real@00000000
CONST	SEGMENT
__real@00000000 DD 000000000r			; 0
CONST	ENDS
xdata$x	SEGMENT
__ehfuncinfo$?HkGetOnLineTime@@YA?AW4HK_ERROR@@ABV?$basic_string@GU?$char_traits@G@std@@V?$allocator@G@2@@std@@AAH@Z DD 019930522H
	DD	012H
	DD	FLAT:__unwindtable$?HkGetOnLineTime@@YA?AW4HK_ERROR@@ABV?$basic_string@GU?$char_traits@G@std@@V?$allocator@G@2@@std@@AAH@Z
	DD	2 DUP(00H)
	DD	2 DUP(00H)
	DD	00H
	DD	00H
__unwindtable$?HkGetOnLineTime@@YA?AW4HK_ERROR@@ABV?$basic_string@GU?$char_traits@G@std@@V?$allocator@G@2@@std@@AAH@Z DD 0ffffffffH
	DD	FLAT:__unwindfunclet$?HkGetOnLineTime@@YA?AW4HK_ERROR@@ABV?$basic_string@GU?$char_traits@G@std@@V?$allocator@G@2@@std@@AAH@Z$0
	DD	00H
	DD	FLAT:__unwindfunclet$?HkGetOnLineTime@@YA?AW4HK_ERROR@@ABV?$basic_string@GU?$char_traits@G@std@@V?$allocator@G@2@@std@@AAH@Z$1
	DD	01H
	DD	FLAT:__unwindfunclet$?HkGetOnLineTime@@YA?AW4HK_ERROR@@ABV?$basic_string@GU?$char_traits@G@std@@V?$allocator@G@2@@std@@AAH@Z$2
	DD	02H
	DD	FLAT:__unwindfunclet$?HkGetOnLineTime@@YA?AW4HK_ERROR@@ABV?$basic_string@GU?$char_traits@G@std@@V?$allocator@G@2@@std@@AAH@Z$3
	DD	03H
	DD	FLAT:__unwindfunclet$?HkGetOnLineTime@@YA?AW4HK_ERROR@@ABV?$basic_string@GU?$char_traits@G@std@@V?$allocator@G@2@@std@@AAH@Z$4
	DD	04H
	DD	FLAT:__unwindfunclet$?HkGetOnLineTime@@YA?AW4HK_ERROR@@ABV?$basic_string@GU?$char_traits@G@std@@V?$allocator@G@2@@std@@AAH@Z$5
	DD	05H
	DD	FLAT:__unwindfunclet$?HkGetOnLineTime@@YA?AW4HK_ERROR@@ABV?$basic_string@GU?$char_traits@G@std@@V?$allocator@G@2@@std@@AAH@Z$6
	DD	06H
	DD	FLAT:__unwindfunclet$?HkGetOnLineTime@@YA?AW4HK_ERROR@@ABV?$basic_string@GU?$char_traits@G@std@@V?$allocator@G@2@@std@@AAH@Z$7
	DD	05H
	DD	FLAT:__unwindfunclet$?HkGetOnLineTime@@YA?AW4HK_ERROR@@ABV?$basic_string@GU?$char_traits@G@std@@V?$allocator@G@2@@std@@AAH@Z$7
	DD	04H
	DD	FLAT:__unwindfunclet$?HkGetOnLineTime@@YA?AW4HK_ERROR@@ABV?$basic_string@GU?$char_traits@G@std@@V?$allocator@G@2@@std@@AAH@Z$7
	DD	03H
	DD	FLAT:__unwindfunclet$?HkGetOnLineTime@@YA?AW4HK_ERROR@@ABV?$basic_string@GU?$char_traits@G@std@@V?$allocator@G@2@@std@@AAH@Z$7
	DD	02H
	DD	FLAT:__unwindfunclet$?HkGetOnLineTime@@YA?AW4HK_ERROR@@ABV?$basic_string@GU?$char_traits@G@std@@V?$allocator@G@2@@std@@AAH@Z$7
	DD	01H
	DD	FLAT:__unwindfunclet$?HkGetOnLineTime@@YA?AW4HK_ERROR@@ABV?$basic_string@GU?$char_traits@G@std@@V?$allocator@G@2@@std@@AAH@Z$7
	DD	0cH
	DD	FLAT:__unwindfunclet$?HkGetOnLineTime@@YA?AW4HK_ERROR@@ABV?$basic_string@GU?$char_traits@G@std@@V?$allocator@G@2@@std@@AAH@Z$8
	DD	0dH
	DD	FLAT:__unwindfunclet$?HkGetOnLineTime@@YA?AW4HK_ERROR@@ABV?$basic_string@GU?$char_traits@G@std@@V?$allocator@G@2@@std@@AAH@Z$9
	DD	0eH
	DD	FLAT:__unwindfunclet$?HkGetOnLineTime@@YA?AW4HK_ERROR@@ABV?$basic_string@GU?$char_traits@G@std@@V?$allocator@G@2@@std@@AAH@Z$10
	DD	0cH
	DD	FLAT:__unwindfunclet$?HkGetOnLineTime@@YA?AW4HK_ERROR@@ABV?$basic_string@GU?$char_traits@G@std@@V?$allocator@G@2@@std@@AAH@Z$11
	DD	010H
	DD	FLAT:__unwindfunclet$?HkGetOnLineTime@@YA?AW4HK_ERROR@@ABV?$basic_string@GU?$char_traits@G@std@@V?$allocator@G@2@@std@@AAH@Z$12
; Function compile flags: /Odtp
xdata$x	ENDS
_TEXT	SEGMENT
tv202 = -432						; size = 4
tv218 = -428						; size = 4
tv200 = -424						; size = 4
tv217 = -420						; size = 4
tv198 = -416						; size = 4
tv216 = -412						; size = 4
tv196 = -408						; size = 4
tv65 = -404						; size = 4
tv194 = -400						; size = 4
tv72 = -396						; size = 4
$T154027 = -392						; size = 4
$T154026 = -388						; size = 28
$T154025 = -360						; size = 28
$T154024 = -332						; size = 28
$T154023 = -304						; size = 28
$T154022 = -276						; size = 4
$T154021 = -272						; size = 28
$T154020 = -244						; size = 28
$T154019 = -216						; size = 28
$T154018 = -188						; size = 28
$T154017 = -160						; size = 28
$T154016 = -132						; size = 4
_scCharFileNew$142695 = -128				; size = 28
_wscDir$ = -100						; size = 28
_scCharFile$ = -72					; size = 28
_wscFile$ = -44						; size = 28
__$ArrayPad$ = -16					; size = 4
__$EHRec$ = -12						; size = 12
_wscCharname$ = 8					; size = 4
_iSecs$ = 12						; size = 4
?HkGetOnLineTime@@YA?AW4HK_ERROR@@ABV?$basic_string@GU?$char_traits@G@std@@V?$allocator@G@2@@std@@AAH@Z PROC ; HkGetOnLineTime
; Line 146
	push	ebp
	mov	ebp, esp
	push	-1
	push	__ehhandler$?HkGetOnLineTime@@YA?AW4HK_ERROR@@ABV?$basic_string@GU?$char_traits@G@std@@V?$allocator@G@2@@std@@AAH@Z
	mov	eax, DWORD PTR fs:0
	push	eax
	sub	esp, 420				; 000001a4H
	mov	eax, DWORD PTR ___security_cookie
	xor	eax, ebp
	mov	DWORD PTR __$ArrayPad$[ebp], eax
	push	eax
	lea	eax, DWORD PTR __$EHRec$[ebp]
	mov	DWORD PTR fs:0, eax
; Line 147
	lea	ecx, DWORD PTR _wscDir$[ebp]
	call	DWORD PTR __imp_??0?$basic_string@GU?$char_traits@G@std@@V?$allocator@G@2@@std@@QAE@XZ
	mov	DWORD PTR __$EHRec$[ebp+8], 0
; Line 148
	lea	eax, DWORD PTR _wscDir$[ebp]
	push	eax
	mov	ecx, DWORD PTR _wscCharname$[ebp]
	push	ecx
	call	DWORD PTR __imp_?HkGetAccountDirName@@YA?AW4HK_ERROR@@ABV?$basic_string@GU?$char_traits@G@std@@V?$allocator@G@2@@std@@AAV23@@Z
	add	esp, 8
	test	eax, eax
	je	SHORT $LN4@HkGetOnLin
; Line 149
	mov	DWORD PTR $T154016[ebp], 2
	mov	DWORD PTR __$EHRec$[ebp+8], -1
	lea	ecx, DWORD PTR _wscDir$[ebp]
	call	DWORD PTR __imp_??1?$basic_string@GU?$char_traits@G@std@@V?$allocator@G@2@@std@@QAE@XZ
	mov	eax, DWORD PTR $T154016[ebp]
	jmp	$LN5@HkGetOnLin
$LN4@HkGetOnLin:
; Line 151
	lea	ecx, DWORD PTR _wscFile$[ebp]
	call	DWORD PTR __imp_??0?$basic_string@GU?$char_traits@G@std@@V?$allocator@G@2@@std@@QAE@XZ
	mov	BYTE PTR __$EHRec$[ebp+8], 1
; Line 152
	lea	edx, DWORD PTR _wscFile$[ebp]
	push	edx
	mov	eax, DWORD PTR _wscCharname$[ebp]
	push	eax
	call	DWORD PTR __imp_?HkGetCharFileName@@YA?AW4HK_ERROR@@ABV?$basic_string@GU?$char_traits@G@std@@V?$allocator@G@2@@std@@AAV23@@Z
	add	esp, 8
; Line 154
	push	OFFSET $SG142692
	lea	ecx, DWORD PTR _wscFile$[ebp]
	push	ecx
	lea	edx, DWORD PTR $T154017[ebp]
	push	edx
	call	DWORD PTR __imp_?wstos@@YA?AV?$basic_string@DU?$char_traits@D@std@@V?$allocator@D@2@@std@@ABV?$basic_string@GU?$char_traits@G@std@@V?$allocator@G@2@@2@@Z
	add	esp, 8
	mov	DWORD PTR tv72[ebp], eax
	mov	eax, DWORD PTR tv72[ebp]
	mov	DWORD PTR tv194[ebp], eax
	mov	BYTE PTR __$EHRec$[ebp+8], 2
	mov	ecx, DWORD PTR tv194[ebp]
	push	ecx
	push	OFFSET $SG142693
	lea	edx, DWORD PTR _wscDir$[ebp]
	push	edx
	lea	eax, DWORD PTR $T154018[ebp]
	push	eax
	call	DWORD PTR __imp_?wstos@@YA?AV?$basic_string@DU?$char_traits@D@std@@V?$allocator@D@2@@std@@ABV?$basic_string@GU?$char_traits@G@std@@V?$allocator@G@2@@2@@Z
	add	esp, 8
	mov	DWORD PTR tv65[ebp], eax
	mov	ecx, DWORD PTR tv65[ebp]
	mov	DWORD PTR tv196[ebp], ecx
	mov	BYTE PTR __$EHRec$[ebp+8], 3
	mov	edx, DWORD PTR tv196[ebp]
	push	edx
	mov	eax, DWORD PTR __imp_?scAcctPath@@3V?$basic_string@DU?$char_traits@D@std@@V?$allocator@D@2@@std@@A
	push	eax
	lea	ecx, DWORD PTR $T154019[ebp]
	push	ecx
	call	DWORD PTR __imp_??$?HDU?$char_traits@D@std@@V?$allocator@D@1@@std@@YA?AV?$basic_string@DU?$char_traits@D@std@@V?$allocator@D@2@@0@ABV10@0@Z
	add	esp, 12					; 0000000cH
	mov	DWORD PTR tv216[ebp], eax
	mov	edx, DWORD PTR tv216[ebp]
	mov	DWORD PTR tv198[ebp], edx
	mov	BYTE PTR __$EHRec$[ebp+8], 4
	mov	eax, DWORD PTR tv198[ebp]
	push	eax
	lea	ecx, DWORD PTR $T154020[ebp]
	push	ecx
	call	DWORD PTR __imp_??$?HDU?$char_traits@D@std@@V?$allocator@D@1@@std@@YA?AV?$basic_string@DU?$char_traits@D@std@@V?$allocator@D@2@@0@ABV10@PBD@Z
	add	esp, 12					; 0000000cH
	mov	DWORD PTR tv217[ebp], eax
	mov	edx, DWORD PTR tv217[ebp]
	mov	DWORD PTR tv200[ebp], edx
	mov	BYTE PTR __$EHRec$[ebp+8], 5
	mov	eax, DWORD PTR tv200[ebp]
	push	eax
	lea	ecx, DWORD PTR $T154021[ebp]
	push	ecx
	call	DWORD PTR __imp_??$?HDU?$char_traits@D@std@@V?$allocator@D@1@@std@@YA?AV?$basic_string@DU?$char_traits@D@std@@V?$allocator@D@2@@0@ABV10@0@Z
	add	esp, 12					; 0000000cH
	mov	DWORD PTR tv218[ebp], eax
	mov	edx, DWORD PTR tv218[ebp]
	mov	DWORD PTR tv202[ebp], edx
	mov	BYTE PTR __$EHRec$[ebp+8], 6
	mov	eax, DWORD PTR tv202[ebp]
	push	eax
	lea	ecx, DWORD PTR _scCharFile$[ebp]
	push	ecx
	call	DWORD PTR __imp_??$?HDU?$char_traits@D@std@@V?$allocator@D@1@@std@@YA?AV?$basic_string@DU?$char_traits@D@std@@V?$allocator@D@2@@0@ABV10@PBD@Z
	add	esp, 12					; 0000000cH
	mov	BYTE PTR __$EHRec$[ebp+8], 8
	lea	ecx, DWORD PTR $T154021[ebp]
	call	DWORD PTR __imp_??1?$basic_string@DU?$char_traits@D@std@@V?$allocator@D@2@@std@@QAE@XZ
	mov	BYTE PTR __$EHRec$[ebp+8], 9
	lea	ecx, DWORD PTR $T154020[ebp]
	call	DWORD PTR __imp_??1?$basic_string@DU?$char_traits@D@std@@V?$allocator@D@2@@std@@QAE@XZ
	mov	BYTE PTR __$EHRec$[ebp+8], 10		; 0000000aH
	lea	ecx, DWORD PTR $T154019[ebp]
	call	DWORD PTR __imp_??1?$basic_string@DU?$char_traits@D@std@@V?$allocator@D@2@@std@@QAE@XZ
	mov	BYTE PTR __$EHRec$[ebp+8], 11		; 0000000bH
	lea	ecx, DWORD PTR $T154018[ebp]
	call	DWORD PTR __imp_??1?$basic_string@DU?$char_traits@D@std@@V?$allocator@D@2@@std@@QAE@XZ
	mov	BYTE PTR __$EHRec$[ebp+8], 12		; 0000000cH
	lea	ecx, DWORD PTR $T154017[ebp]
	call	DWORD PTR __imp_??1?$basic_string@DU?$char_traits@D@std@@V?$allocator@D@2@@std@@QAE@XZ
; Line 155
	lea	edx, DWORD PTR _scCharFile$[ebp]
	push	edx
	call	DWORD PTR __imp_?HkIsEncoded@@YA_NABV?$basic_string@DU?$char_traits@D@std@@V?$allocator@D@2@@std@@@Z
	add	esp, 4
	movzx	eax, al
	test	eax, eax
	je	$LN3@HkGetOnLin
; Line 157
	push	OFFSET $SG142697
	lea	ecx, DWORD PTR _scCharFile$[ebp]
	push	ecx
	lea	edx, DWORD PTR _scCharFileNew$142695[ebp]
	push	edx
	call	DWORD PTR __imp_??$?HDU?$char_traits@D@std@@V?$allocator@D@1@@std@@YA?AV?$basic_string@DU?$char_traits@D@std@@V?$allocator@D@2@@0@ABV10@PBD@Z
	add	esp, 12					; 0000000cH
	mov	BYTE PTR __$EHRec$[ebp+8], 13		; 0000000dH
; Line 158
	lea	ecx, DWORD PTR _scCharFileNew$142695[ebp]
	call	DWORD PTR __imp_?c_str@?$basic_string@DU?$char_traits@D@std@@V?$allocator@D@2@@std@@QBEPBDXZ
	push	eax
	lea	ecx, DWORD PTR _scCharFile$[ebp]
	call	DWORD PTR __imp_?c_str@?$basic_string@DU?$char_traits@D@std@@V?$allocator@D@2@@std@@QBEPBDXZ
	push	eax
	call	DWORD PTR __imp_?flc_decode@@YA_NPBD0@Z
	add	esp, 8
	movzx	eax, al
	test	eax, eax
	jne	SHORT $LN2@HkGetOnLin
; Line 159
	mov	DWORD PTR $T154022[ebp], 4
	mov	BYTE PTR __$EHRec$[ebp+8], 12		; 0000000cH
	lea	ecx, DWORD PTR _scCharFileNew$142695[ebp]
	call	DWORD PTR __imp_??1?$basic_string@DU?$char_traits@D@std@@V?$allocator@D@2@@std@@QAE@XZ
	mov	BYTE PTR __$EHRec$[ebp+8], 1
	lea	ecx, DWORD PTR _scCharFile$[ebp]
	call	DWORD PTR __imp_??1?$basic_string@DU?$char_traits@D@std@@V?$allocator@D@2@@std@@QAE@XZ
	mov	BYTE PTR __$EHRec$[ebp+8], 0
	lea	ecx, DWORD PTR _wscFile$[ebp]
	call	DWORD PTR __imp_??1?$basic_string@GU?$char_traits@G@std@@V?$allocator@G@2@@std@@QAE@XZ
	mov	DWORD PTR __$EHRec$[ebp+8], -1
	lea	ecx, DWORD PTR _wscDir$[ebp]
	call	DWORD PTR __imp_??1?$basic_string@GU?$char_traits@G@std@@V?$allocator@G@2@@std@@QAE@XZ
	mov	eax, DWORD PTR $T154022[ebp]
	jmp	$LN5@HkGetOnLin
$LN2@HkGetOnLin:
; Line 161
	push	OFFSET $SG142703
	lea	ecx, DWORD PTR $T154023[ebp]
	call	DWORD PTR __imp_??0?$basic_string@DU?$char_traits@D@std@@V?$allocator@D@2@@std@@QAE@PBD@Z
	mov	BYTE PTR __$EHRec$[ebp+8], 14		; 0000000eH
	push	OFFSET $SG142704
	lea	ecx, DWORD PTR $T154024[ebp]
	call	DWORD PTR __imp_??0?$basic_string@DU?$char_traits@D@std@@V?$allocator@D@2@@std@@QAE@PBD@Z
	mov	BYTE PTR __$EHRec$[ebp+8], 15		; 0000000fH
	push	ecx
	fldz
	fstp	DWORD PTR [esp]
	lea	ecx, DWORD PTR $T154023[ebp]
	push	ecx
	lea	edx, DWORD PTR $T154024[ebp]
	push	edx
	lea	eax, DWORD PTR _scCharFileNew$142695[ebp]
	push	eax
	call	DWORD PTR __imp_?IniGetF@@YAMABV?$basic_string@DU?$char_traits@D@std@@V?$allocator@D@2@@std@@00M@Z
	add	esp, 16					; 00000010H
	call	__ftol2_sse
	mov	ecx, DWORD PTR _iSecs$[ebp]
	mov	DWORD PTR [ecx], eax
	mov	BYTE PTR __$EHRec$[ebp+8], 14		; 0000000eH
	lea	ecx, DWORD PTR $T154024[ebp]
	call	DWORD PTR __imp_??1?$basic_string@DU?$char_traits@D@std@@V?$allocator@D@2@@std@@QAE@XZ
	mov	BYTE PTR __$EHRec$[ebp+8], 13		; 0000000dH
	lea	ecx, DWORD PTR $T154023[ebp]
	call	DWORD PTR __imp_??1?$basic_string@DU?$char_traits@D@std@@V?$allocator@D@2@@std@@QAE@XZ
; Line 162
	lea	ecx, DWORD PTR _scCharFileNew$142695[ebp]
	call	DWORD PTR __imp_?c_str@?$basic_string@DU?$char_traits@D@std@@V?$allocator@D@2@@std@@QBEPBDXZ
	push	eax
	call	DWORD PTR __imp__DeleteFileA@4
; Line 163
	mov	BYTE PTR __$EHRec$[ebp+8], 12		; 0000000cH
	lea	ecx, DWORD PTR _scCharFileNew$142695[ebp]
	call	DWORD PTR __imp_??1?$basic_string@DU?$char_traits@D@std@@V?$allocator@D@2@@std@@QAE@XZ
; Line 164
	jmp	SHORT $LN1@HkGetOnLin
$LN3@HkGetOnLin:
; Line 166
	push	OFFSET $SG142709
	lea	ecx, DWORD PTR $T154025[ebp]
	call	DWORD PTR __imp_??0?$basic_string@DU?$char_traits@D@std@@V?$allocator@D@2@@std@@QAE@PBD@Z
	mov	BYTE PTR __$EHRec$[ebp+8], 16		; 00000010H
	push	OFFSET $SG142710
	lea	ecx, DWORD PTR $T154026[ebp]
	call	DWORD PTR __imp_??0?$basic_string@DU?$char_traits@D@std@@V?$allocator@D@2@@std@@QAE@PBD@Z
	mov	BYTE PTR __$EHRec$[ebp+8], 17		; 00000011H
	push	ecx
	fldz
	fstp	DWORD PTR [esp]
	lea	edx, DWORD PTR $T154025[ebp]
	push	edx
	lea	eax, DWORD PTR $T154026[ebp]
	push	eax
	lea	ecx, DWORD PTR _scCharFile$[ebp]
	push	ecx
	call	DWORD PTR __imp_?IniGetF@@YAMABV?$basic_string@DU?$char_traits@D@std@@V?$allocator@D@2@@std@@00M@Z
	add	esp, 16					; 00000010H
	call	__ftol2_sse
	mov	edx, DWORD PTR _iSecs$[ebp]
	mov	DWORD PTR [edx], eax
	mov	BYTE PTR __$EHRec$[ebp+8], 16		; 00000010H
	lea	ecx, DWORD PTR $T154026[ebp]
	call	DWORD PTR __imp_??1?$basic_string@DU?$char_traits@D@std@@V?$allocator@D@2@@std@@QAE@XZ
	mov	BYTE PTR __$EHRec$[ebp+8], 12		; 0000000cH
	lea	ecx, DWORD PTR $T154025[ebp]
	call	DWORD PTR __imp_??1?$basic_string@DU?$char_traits@D@std@@V?$allocator@D@2@@std@@QAE@XZ
$LN1@HkGetOnLin:
; Line 169
	mov	DWORD PTR $T154027[ebp], 0
	mov	BYTE PTR __$EHRec$[ebp+8], 1
	lea	ecx, DWORD PTR _scCharFile$[ebp]
	call	DWORD PTR __imp_??1?$basic_string@DU?$char_traits@D@std@@V?$allocator@D@2@@std@@QAE@XZ
	mov	BYTE PTR __$EHRec$[ebp+8], 0
	lea	ecx, DWORD PTR _wscFile$[ebp]
	call	DWORD PTR __imp_??1?$basic_string@GU?$char_traits@G@std@@V?$allocator@G@2@@std@@QAE@XZ
	mov	DWORD PTR __$EHRec$[ebp+8], -1
	lea	ecx, DWORD PTR _wscDir$[ebp]
	call	DWORD PTR __imp_??1?$basic_string@GU?$char_traits@G@std@@V?$allocator@G@2@@std@@QAE@XZ
	mov	eax, DWORD PTR $T154027[ebp]
$LN5@HkGetOnLin:
; Line 170
	mov	ecx, DWORD PTR __$EHRec$[ebp]
	mov	DWORD PTR fs:0, ecx
	pop	ecx
	mov	ecx, DWORD PTR __$ArrayPad$[ebp]
	xor	ecx, ebp
	call	@__security_check_cookie@4
	mov	esp, ebp
	pop	ebp
	ret	0
_TEXT	ENDS
text$x	SEGMENT
__unwindfunclet$?HkGetOnLineTime@@YA?AW4HK_ERROR@@ABV?$basic_string@GU?$char_traits@G@std@@V?$allocator@G@2@@std@@AAH@Z$0:
	lea	ecx, DWORD PTR _wscDir$[ebp]
	jmp	DWORD PTR __imp_??1?$basic_string@GU?$char_traits@G@std@@V?$allocator@G@2@@std@@QAE@XZ
__unwindfunclet$?HkGetOnLineTime@@YA?AW4HK_ERROR@@ABV?$basic_string@GU?$char_traits@G@std@@V?$allocator@G@2@@std@@AAH@Z$1:
	lea	ecx, DWORD PTR _wscFile$[ebp]
	jmp	DWORD PTR __imp_??1?$basic_string@GU?$char_traits@G@std@@V?$allocator@G@2@@std@@QAE@XZ
__unwindfunclet$?HkGetOnLineTime@@YA?AW4HK_ERROR@@ABV?$basic_string@GU?$char_traits@G@std@@V?$allocator@G@2@@std@@AAH@Z$2:
	lea	ecx, DWORD PTR $T154017[ebp]
	jmp	DWORD PTR __imp_??1?$basic_string@DU?$char_traits@D@std@@V?$allocator@D@2@@std@@QAE@XZ
__unwindfunclet$?HkGetOnLineTime@@YA?AW4HK_ERROR@@ABV?$basic_string@GU?$char_traits@G@std@@V?$allocator@G@2@@std@@AAH@Z$3:
	lea	ecx, DWORD PTR $T154018[ebp]
	jmp	DWORD PTR __imp_??1?$basic_string@DU?$char_traits@D@std@@V?$allocator@D@2@@std@@QAE@XZ
__unwindfunclet$?HkGetOnLineTime@@YA?AW4HK_ERROR@@ABV?$basic_string@GU?$char_traits@G@std@@V?$allocator@G@2@@std@@AAH@Z$4:
	lea	ecx, DWORD PTR $T154019[ebp]
	jmp	DWORD PTR __imp_??1?$basic_string@DU?$char_traits@D@std@@V?$allocator@D@2@@std@@QAE@XZ
__unwindfunclet$?HkGetOnLineTime@@YA?AW4HK_ERROR@@ABV?$basic_string@GU?$char_traits@G@std@@V?$allocator@G@2@@std@@AAH@Z$5:
	lea	ecx, DWORD PTR $T154020[ebp]
	jmp	DWORD PTR __imp_??1?$basic_string@DU?$char_traits@D@std@@V?$allocator@D@2@@std@@QAE@XZ
__unwindfunclet$?HkGetOnLineTime@@YA?AW4HK_ERROR@@ABV?$basic_string@GU?$char_traits@G@std@@V?$allocator@G@2@@std@@AAH@Z$6:
	lea	ecx, DWORD PTR $T154021[ebp]
	jmp	DWORD PTR __imp_??1?$basic_string@DU?$char_traits@D@std@@V?$allocator@D@2@@std@@QAE@XZ
__unwindfunclet$?HkGetOnLineTime@@YA?AW4HK_ERROR@@ABV?$basic_string@GU?$char_traits@G@std@@V?$allocator@G@2@@std@@AAH@Z$7:
	lea	ecx, DWORD PTR _scCharFile$[ebp]
	jmp	DWORD PTR __imp_??1?$basic_string@DU?$char_traits@D@std@@V?$allocator@D@2@@std@@QAE@XZ
__unwindfunclet$?HkGetOnLineTime@@YA?AW4HK_ERROR@@ABV?$basic_string@GU?$char_traits@G@std@@V?$allocator@G@2@@std@@AAH@Z$8:
	lea	ecx, DWORD PTR _scCharFileNew$142695[ebp]
	jmp	DWORD PTR __imp_??1?$basic_string@DU?$char_traits@D@std@@V?$allocator@D@2@@std@@QAE@XZ
__unwindfunclet$?HkGetOnLineTime@@YA?AW4HK_ERROR@@ABV?$basic_string@GU?$char_traits@G@std@@V?$allocator@G@2@@std@@AAH@Z$9:
	lea	ecx, DWORD PTR $T154023[ebp]
	jmp	DWORD PTR __imp_??1?$basic_string@DU?$char_traits@D@std@@V?$allocator@D@2@@std@@QAE@XZ
__unwindfunclet$?HkGetOnLineTime@@YA?AW4HK_ERROR@@ABV?$basic_string@GU?$char_traits@G@std@@V?$allocator@G@2@@std@@AAH@Z$10:
	lea	ecx, DWORD PTR $T154024[ebp]
	jmp	DWORD PTR __imp_??1?$basic_string@DU?$char_traits@D@std@@V?$allocator@D@2@@std@@QAE@XZ
__unwindfunclet$?HkGetOnLineTime@@YA?AW4HK_ERROR@@ABV?$basic_string@GU?$char_traits@G@std@@V?$allocator@G@2@@std@@AAH@Z$11:
	lea	ecx, DWORD PTR $T154025[ebp]
	jmp	DWORD PTR __imp_??1?$basic_string@DU?$char_traits@D@std@@V?$allocator@D@2@@std@@QAE@XZ
__unwindfunclet$?HkGetOnLineTime@@YA?AW4HK_ERROR@@ABV?$basic_string@GU?$char_traits@G@std@@V?$allocator@G@2@@std@@AAH@Z$12:
	lea	ecx, DWORD PTR $T154026[ebp]
	jmp	DWORD PTR __imp_??1?$basic_string@DU?$char_traits@D@std@@V?$allocator@D@2@@std@@QAE@XZ
__ehhandler$?HkGetOnLineTime@@YA?AW4HK_ERROR@@ABV?$basic_string@GU?$char_traits@G@std@@V?$allocator@G@2@@std@@AAH@Z:
	mov	edx, DWORD PTR [esp+8]
	lea	eax, DWORD PTR [edx+12]
	mov	ecx, DWORD PTR [edx-424]
	xor	ecx, eax
	call	@__security_check_cookie@4
	mov	ecx, DWORD PTR [edx-4]
	xor	ecx, eax
	call	@__security_check_cookie@4
	mov	eax, OFFSET __ehfuncinfo$?HkGetOnLineTime@@YA?AW4HK_ERROR@@ABV?$basic_string@GU?$char_traits@G@std@@V?$allocator@G@2@@std@@AAH@Z
	jmp	___CxxFrameHandler3
text$x	ENDS
?HkGetOnLineTime@@YA?AW4HK_ERROR@@ABV?$basic_string@GU?$char_traits@G@std@@V?$allocator@G@2@@std@@AAH@Z ENDP ; HkGetOnLineTime
PUBLIC	?GetParamToEnd@@YA?AV?$basic_string@GU?$char_traits@G@std@@V?$allocator@G@2@@std@@ABV12@GI@Z ; GetParamToEnd
EXTRN	__imp_?substr@?$basic_string@GU?$char_traits@G@std@@V?$allocator@G@2@@std@@QBE?AV12@II@Z:PROC
EXTRN	__imp_?npos@?$basic_string@GU?$char_traits@G@std@@V?$allocator@G@2@@std@@2IB:DWORD
EXTRN	__imp_??A?$basic_string@GU?$char_traits@G@std@@V?$allocator@G@2@@std@@QBEABGI@Z:PROC
xdata$x	SEGMENT
__unwindtable$?GetParamToEnd@@YA?AV?$basic_string@GU?$char_traits@G@std@@V?$allocator@G@2@@std@@ABV12@GI@Z DD 0ffffffffH
	DD	FLAT:__unwindfunclet$?GetParamToEnd@@YA?AV?$basic_string@GU?$char_traits@G@std@@V?$allocator@G@2@@std@@ABV12@GI@Z$0
__ehfuncinfo$?GetParamToEnd@@YA?AV?$basic_string@GU?$char_traits@G@std@@V?$allocator@G@2@@std@@ABV12@GI@Z DD 019930522H
	DD	01H
	DD	FLAT:__unwindtable$?GetParamToEnd@@YA?AV?$basic_string@GU?$char_traits@G@std@@V?$allocator@G@2@@std@@ABV12@GI@Z
	DD	2 DUP(00H)
	DD	2 DUP(00H)
	DD	00H
	DD	00H
; Function compile flags: /Odtp
xdata$x	ENDS
_TEXT	SEGMENT
$T154050 = -24						; size = 4
_j$142719 = -20						; size = 4
_i$142718 = -16						; size = 4
__$EHRec$ = -12						; size = 12
___$ReturnUdt$ = 8					; size = 4
_wscLine$ = 12						; size = 4
_wcSplitChar$ = 16					; size = 2
_iPos$ = 20						; size = 4
?GetParamToEnd@@YA?AV?$basic_string@GU?$char_traits@G@std@@V?$allocator@G@2@@std@@ABV12@GI@Z PROC ; GetParamToEnd
; Line 181
	push	ebp
	mov	ebp, esp
	push	-1
	push	__ehhandler$?GetParamToEnd@@YA?AV?$basic_string@GU?$char_traits@G@std@@V?$allocator@G@2@@std@@ABV12@GI@Z
	mov	eax, DWORD PTR fs:0
	push	eax
	sub	esp, 12					; 0000000cH
	push	esi
	mov	eax, DWORD PTR ___security_cookie
	xor	eax, ebp
	push	eax
	lea	eax, DWORD PTR __$EHRec$[ebp]
	mov	DWORD PTR fs:0, eax
	mov	DWORD PTR $T154050[ebp], 0
; Line 182
	mov	DWORD PTR _i$142718[ebp], 0
	mov	DWORD PTR _j$142719[ebp], 0
	jmp	SHORT $LN7@GetParamTo
$LN6@GetParamTo:
	mov	eax, DWORD PTR _j$142719[ebp]
	add	eax, 1
	mov	DWORD PTR _j$142719[ebp], eax
$LN7@GetParamTo:
	mov	ecx, DWORD PTR _i$142718[ebp]
	cmp	ecx, DWORD PTR _iPos$[ebp]
	ja	$LN5@GetParamTo
	mov	ecx, DWORD PTR _wscLine$[ebp]
	call	DWORD PTR __imp_?length@?$basic_string@GU?$char_traits@G@std@@V?$allocator@G@2@@std@@QBEIXZ
	cmp	DWORD PTR _j$142719[ebp], eax
	jae	$LN5@GetParamTo
; Line 184
	mov	edx, DWORD PTR _j$142719[ebp]
	push	edx
	mov	ecx, DWORD PTR _wscLine$[ebp]
	call	DWORD PTR __imp_??A?$basic_string@GU?$char_traits@G@std@@V?$allocator@G@2@@std@@QBEABGI@Z
	movzx	eax, WORD PTR [eax]
	movzx	ecx, WORD PTR _wcSplitChar$[ebp]
	cmp	eax, ecx
	jne	SHORT $LN4@GetParamTo
$LN3@GetParamTo:
; Line 186
	mov	esi, DWORD PTR _j$142719[ebp]
	add	esi, 1
	mov	ecx, DWORD PTR _wscLine$[ebp]
	call	DWORD PTR __imp_?length@?$basic_string@GU?$char_traits@G@std@@V?$allocator@G@2@@std@@QBEIXZ
	cmp	esi, eax
	jae	SHORT $LN2@GetParamTo
	mov	edx, DWORD PTR _j$142719[ebp]
	add	edx, 1
	push	edx
	mov	ecx, DWORD PTR _wscLine$[ebp]
	call	DWORD PTR __imp_??A?$basic_string@GU?$char_traits@G@std@@V?$allocator@G@2@@std@@QBEABGI@Z
	movzx	eax, WORD PTR [eax]
	movzx	ecx, WORD PTR _wcSplitChar$[ebp]
	cmp	eax, ecx
	jne	SHORT $LN2@GetParamTo
; Line 187
	mov	edx, DWORD PTR _j$142719[ebp]
	add	edx, 1
	mov	DWORD PTR _j$142719[ebp], edx
	jmp	SHORT $LN3@GetParamTo
$LN2@GetParamTo:
; Line 188
	mov	eax, DWORD PTR _i$142718[ebp]
	add	eax, 1
	mov	DWORD PTR _i$142718[ebp], eax
; Line 189
	jmp	$LN6@GetParamTo
$LN4@GetParamTo:
; Line 191
	mov	ecx, DWORD PTR _i$142718[ebp]
	cmp	ecx, DWORD PTR _iPos$[ebp]
	jne	SHORT $LN1@GetParamTo
; Line 193
	mov	edx, DWORD PTR __imp_?npos@?$basic_string@GU?$char_traits@G@std@@V?$allocator@G@2@@std@@2IB
	mov	eax, DWORD PTR [edx]
	push	eax
	mov	ecx, DWORD PTR _j$142719[ebp]
	push	ecx
	mov	edx, DWORD PTR ___$ReturnUdt$[ebp]
	push	edx
	mov	ecx, DWORD PTR _wscLine$[ebp]
	call	DWORD PTR __imp_?substr@?$basic_string@GU?$char_traits@G@std@@V?$allocator@G@2@@std@@QBE?AV12@II@Z
	mov	DWORD PTR __$EHRec$[ebp+8], 0
	mov	eax, DWORD PTR $T154050[ebp]
	or	eax, 1
	mov	DWORD PTR $T154050[ebp], eax
	mov	eax, DWORD PTR ___$ReturnUdt$[ebp]
	jmp	SHORT $LN8@GetParamTo
$LN1@GetParamTo:
; Line 195
	jmp	$LN6@GetParamTo
$LN5@GetParamTo:
; Line 196
	push	OFFSET $SG142729
	mov	ecx, DWORD PTR ___$ReturnUdt$[ebp]
	call	DWORD PTR __imp_??0?$basic_string@GU?$char_traits@G@std@@V?$allocator@G@2@@std@@QAE@PBG@Z
	mov	DWORD PTR __$EHRec$[ebp+8], 0
	mov	ecx, DWORD PTR $T154050[ebp]
	or	ecx, 1
	mov	DWORD PTR $T154050[ebp], ecx
	mov	eax, DWORD PTR ___$ReturnUdt$[ebp]
$LN8@GetParamTo:
; Line 197
	mov	ecx, DWORD PTR __$EHRec$[ebp]
	mov	DWORD PTR fs:0, ecx
	pop	ecx
	pop	esi
	mov	esp, ebp
	pop	ebp
	ret	0
_TEXT	ENDS
text$x	SEGMENT
__unwindfunclet$?GetParamToEnd@@YA?AV?$basic_string@GU?$char_traits@G@std@@V?$allocator@G@2@@std@@ABV12@GI@Z$0:
	mov	eax, DWORD PTR $T154050[ebp]
	and	eax, 1
	je	$LN11@GetParamTo
	and	DWORD PTR $T154050[ebp], -2		; fffffffeH
	mov	ecx, DWORD PTR ___$ReturnUdt$[ebp]
	jmp	DWORD PTR __imp_??1?$basic_string@GU?$char_traits@G@std@@V?$allocator@G@2@@std@@QAE@XZ
$LN11@GetParamTo:
	ret	0
__ehhandler$?GetParamToEnd@@YA?AV?$basic_string@GU?$char_traits@G@std@@V?$allocator@G@2@@std@@ABV12@GI@Z:
	mov	edx, DWORD PTR [esp+8]
	lea	eax, DWORD PTR [edx+12]
	mov	ecx, DWORD PTR [edx-20]
	xor	ecx, eax
	call	@__security_check_cookie@4
	mov	eax, OFFSET __ehfuncinfo$?GetParamToEnd@@YA?AV?$basic_string@GU?$char_traits@G@std@@V?$allocator@G@2@@std@@ABV12@GI@Z
	jmp	___CxxFrameHandler3
text$x	ENDS
?GetParamToEnd@@YA?AV?$basic_string@GU?$char_traits@G@std@@V?$allocator@G@2@@std@@ABV12@GI@Z ENDP ; GetParamToEnd
PUBLIC	__$ArrayPad$
PUBLIC	?GetParam@@YA?AV?$basic_string@DU?$char_traits@D@std@@V?$allocator@D@2@@std@@V12@DI@Z ; GetParam
EXTRN	__imp_??0?$basic_string@DU?$char_traits@D@std@@V?$allocator@D@2@@std@@QAE@ABV01@@Z:PROC
EXTRN	__imp_??Y?$basic_string@DU?$char_traits@D@std@@V?$allocator@D@2@@std@@QAEAAV01@D@Z:PROC
EXTRN	__imp_??A?$basic_string@DU?$char_traits@D@std@@V?$allocator@D@2@@std@@QAEAADI@Z:PROC
EXTRN	__imp_?length@?$basic_string@DU?$char_traits@D@std@@V?$allocator@D@2@@std@@QBEIXZ:PROC
xdata$x	SEGMENT
__unwindtable$?GetParam@@YA?AV?$basic_string@DU?$char_traits@D@std@@V?$allocator@D@2@@std@@V12@DI@Z DD 0ffffffffH
	DD	FLAT:__unwindfunclet$?GetParam@@YA?AV?$basic_string@DU?$char_traits@D@std@@V?$allocator@D@2@@std@@V12@DI@Z$2
	DD	00H
	DD	FLAT:__unwindfunclet$?GetParam@@YA?AV?$basic_string@DU?$char_traits@D@std@@V?$allocator@D@2@@std@@V12@DI@Z$0
	DD	01H
	DD	FLAT:__unwindfunclet$?GetParam@@YA?AV?$basic_string@DU?$char_traits@D@std@@V?$allocator@D@2@@std@@V12@DI@Z$1
__ehfuncinfo$?GetParam@@YA?AV?$basic_string@DU?$char_traits@D@std@@V?$allocator@D@2@@std@@V12@DI@Z DD 019930522H
	DD	03H
	DD	FLAT:__unwindtable$?GetParam@@YA?AV?$basic_string@DU?$char_traits@D@std@@V?$allocator@D@2@@std@@V12@DI@Z
	DD	2 DUP(00H)
	DD	2 DUP(00H)
	DD	00H
	DD	00H
; Function compile flags: /Odtp
xdata$x	ENDS
_TEXT	SEGMENT
$T154061 = -56						; size = 4
_j$ = -52						; size = 4
_scResult$ = -48					; size = 28
_i$ = -20						; size = 4
__$ArrayPad$ = -16					; size = 4
__$EHRec$ = -12						; size = 12
___$ReturnUdt$ = 8					; size = 4
_scLine$ = 12						; size = 28
_cSplitChar$ = 40					; size = 1
_iPos$ = 44						; size = 4
?GetParam@@YA?AV?$basic_string@DU?$char_traits@D@std@@V?$allocator@D@2@@std@@V12@DI@Z PROC ; GetParam
; Line 201
	push	ebp
	mov	ebp, esp
	push	-1
	push	__ehhandler$?GetParam@@YA?AV?$basic_string@DU?$char_traits@D@std@@V?$allocator@D@2@@std@@V12@DI@Z
	mov	eax, DWORD PTR fs:0
	push	eax
	sub	esp, 44					; 0000002cH
	mov	eax, DWORD PTR ___security_cookie
	xor	eax, ebp
	mov	DWORD PTR __$ArrayPad$[ebp], eax
	push	esi
	push	eax
	lea	eax, DWORD PTR __$EHRec$[ebp]
	mov	DWORD PTR fs:0, eax
	mov	DWORD PTR $T154061[ebp], 0
	mov	DWORD PTR __$EHRec$[ebp+8], 1
; Line 202
	mov	DWORD PTR _i$[ebp], 0
	mov	DWORD PTR _j$[ebp], 0
; Line 204
	push	OFFSET $SG142739
	lea	ecx, DWORD PTR _scResult$[ebp]
	call	DWORD PTR __imp_??0?$basic_string@DU?$char_traits@D@std@@V?$allocator@D@2@@std@@QAE@PBD@Z
	mov	BYTE PTR __$EHRec$[ebp+8], 2
; Line 205
	mov	DWORD PTR _i$[ebp], 0
	mov	DWORD PTR _j$[ebp], 0
	jmp	SHORT $LN7@GetParam
$LN6@GetParam:
	mov	eax, DWORD PTR _j$[ebp]
	add	eax, 1
	mov	DWORD PTR _j$[ebp], eax
$LN7@GetParam:
	mov	ecx, DWORD PTR _i$[ebp]
	cmp	ecx, DWORD PTR _iPos$[ebp]
	ja	$LN5@GetParam
	lea	ecx, DWORD PTR _scLine$[ebp]
	call	DWORD PTR __imp_?length@?$basic_string@DU?$char_traits@D@std@@V?$allocator@D@2@@std@@QBEIXZ
	cmp	DWORD PTR _j$[ebp], eax
	jae	$LN5@GetParam
; Line 207
	mov	edx, DWORD PTR _j$[ebp]
	push	edx
	lea	ecx, DWORD PTR _scLine$[ebp]
	call	DWORD PTR __imp_??A?$basic_string@DU?$char_traits@D@std@@V?$allocator@D@2@@std@@QAEAADI@Z
	movsx	eax, BYTE PTR [eax]
	movsx	ecx, BYTE PTR _cSplitChar$[ebp]
	cmp	eax, ecx
	jne	SHORT $LN4@GetParam
$LN3@GetParam:
; Line 209
	mov	esi, DWORD PTR _j$[ebp]
	add	esi, 1
	lea	ecx, DWORD PTR _scLine$[ebp]
	call	DWORD PTR __imp_?length@?$basic_string@DU?$char_traits@D@std@@V?$allocator@D@2@@std@@QBEIXZ
	cmp	esi, eax
	jae	SHORT $LN2@GetParam
	mov	edx, DWORD PTR _j$[ebp]
	add	edx, 1
	push	edx
	lea	ecx, DWORD PTR _scLine$[ebp]
	call	DWORD PTR __imp_??A?$basic_string@DU?$char_traits@D@std@@V?$allocator@D@2@@std@@QAEAADI@Z
	movsx	eax, BYTE PTR [eax]
	movsx	ecx, BYTE PTR _cSplitChar$[ebp]
	cmp	eax, ecx
	jne	SHORT $LN2@GetParam
; Line 210
	mov	edx, DWORD PTR _j$[ebp]
	add	edx, 1
	mov	DWORD PTR _j$[ebp], edx
	jmp	SHORT $LN3@GetParam
$LN2@GetParam:
; Line 212
	mov	eax, DWORD PTR _i$[ebp]
	add	eax, 1
	mov	DWORD PTR _i$[ebp], eax
; Line 213
	jmp	$LN6@GetParam
$LN4@GetParam:
; Line 216
	mov	ecx, DWORD PTR _i$[ebp]
	cmp	ecx, DWORD PTR _iPos$[ebp]
	jne	SHORT $LN1@GetParam
; Line 217
	mov	edx, DWORD PTR _j$[ebp]
	push	edx
	lea	ecx, DWORD PTR _scLine$[ebp]
	call	DWORD PTR __imp_??A?$basic_string@DU?$char_traits@D@std@@V?$allocator@D@2@@std@@QAEAADI@Z
	movzx	eax, BYTE PTR [eax]
	push	eax
	lea	ecx, DWORD PTR _scResult$[ebp]
	call	DWORD PTR __imp_??Y?$basic_string@DU?$char_traits@D@std@@V?$allocator@D@2@@std@@QAEAAV01@D@Z
$LN1@GetParam:
; Line 218
	jmp	$LN6@GetParam
$LN5@GetParam:
; Line 220
	lea	ecx, DWORD PTR _scResult$[ebp]
	push	ecx
	mov	ecx, DWORD PTR ___$ReturnUdt$[ebp]
	call	DWORD PTR __imp_??0?$basic_string@DU?$char_traits@D@std@@V?$allocator@D@2@@std@@QAE@ABV01@@Z
	mov	edx, DWORD PTR $T154061[ebp]
	or	edx, 1
	mov	DWORD PTR $T154061[ebp], edx
	mov	BYTE PTR __$EHRec$[ebp+8], 1
	lea	ecx, DWORD PTR _scResult$[ebp]
	call	DWORD PTR __imp_??1?$basic_string@DU?$char_traits@D@std@@V?$allocator@D@2@@std@@QAE@XZ
	mov	BYTE PTR __$EHRec$[ebp+8], 0
	lea	ecx, DWORD PTR _scLine$[ebp]
	call	DWORD PTR __imp_??1?$basic_string@DU?$char_traits@D@std@@V?$allocator@D@2@@std@@QAE@XZ
	mov	eax, DWORD PTR ___$ReturnUdt$[ebp]
; Line 221
	mov	ecx, DWORD PTR __$EHRec$[ebp]
	mov	DWORD PTR fs:0, ecx
	pop	ecx
	pop	esi
	mov	ecx, DWORD PTR __$ArrayPad$[ebp]
	xor	ecx, ebp
	call	@__security_check_cookie@4
	mov	esp, ebp
	pop	ebp
	ret	0
_TEXT	ENDS
text$x	SEGMENT
__unwindfunclet$?GetParam@@YA?AV?$basic_string@DU?$char_traits@D@std@@V?$allocator@D@2@@std@@V12@DI@Z$0:
	lea	ecx, DWORD PTR _scLine$[ebp]
	jmp	DWORD PTR __imp_??1?$basic_string@DU?$char_traits@D@std@@V?$allocator@D@2@@std@@QAE@XZ
__unwindfunclet$?GetParam@@YA?AV?$basic_string@DU?$char_traits@D@std@@V?$allocator@D@2@@std@@V12@DI@Z$1:
	lea	ecx, DWORD PTR _scResult$[ebp]
	jmp	DWORD PTR __imp_??1?$basic_string@DU?$char_traits@D@std@@V?$allocator@D@2@@std@@QAE@XZ
__unwindfunclet$?GetParam@@YA?AV?$basic_string@DU?$char_traits@D@std@@V?$allocator@D@2@@std@@V12@DI@Z$2:
	mov	eax, DWORD PTR $T154061[ebp]
	and	eax, 1
	je	$LN13@GetParam
	and	DWORD PTR $T154061[ebp], -2		; fffffffeH
	mov	ecx, DWORD PTR ___$ReturnUdt$[ebp]
	jmp	DWORD PTR __imp_??1?$basic_string@DU?$char_traits@D@std@@V?$allocator@D@2@@std@@QAE@XZ
$LN13@GetParam:
	ret	0
__ehhandler$?GetParam@@YA?AV?$basic_string@DU?$char_traits@D@std@@V?$allocator@D@2@@std@@V12@DI@Z:
	mov	edx, DWORD PTR [esp+8]
	lea	eax, DWORD PTR [edx+12]
	mov	ecx, DWORD PTR [edx-52]
	xor	ecx, eax
	call	@__security_check_cookie@4
	mov	ecx, DWORD PTR [edx-4]
	xor	ecx, eax
	call	@__security_check_cookie@4
	mov	eax, OFFSET __ehfuncinfo$?GetParam@@YA?AV?$basic_string@DU?$char_traits@D@std@@V?$allocator@D@2@@std@@V12@DI@Z
	jmp	___CxxFrameHandler3
text$x	ENDS
?GetParam@@YA?AV?$basic_string@DU?$char_traits@D@std@@V?$allocator@D@2@@std@@V12@DI@Z ENDP ; GetParam
PUBLIC	__$ArrayPad$
PUBLIC	?GetUserFilePath@@YA?AV?$basic_string@DU?$char_traits@D@std@@V?$allocator@D@2@@std@@ABV?$basic_string@GU?$char_traits@G@std@@V?$allocator@G@2@@2@ABV12@@Z ; GetUserFilePath
EXTRN	__imp_?GetUserDataPath@@YA_NQAD@Z:PROC
xdata$x	SEGMENT
__ehfuncinfo$?GetUserFilePath@@YA?AV?$basic_string@DU?$char_traits@D@std@@V?$allocator@D@2@@std@@ABV?$basic_string@GU?$char_traits@G@std@@V?$allocator@G@2@@2@ABV12@@Z DD 019930522H
	DD	0bH
	DD	FLAT:__unwindtable$?GetUserFilePath@@YA?AV?$basic_string@DU?$char_traits@D@std@@V?$allocator@D@2@@std@@ABV?$basic_string@GU?$char_traits@G@std@@V?$allocator@G@2@@2@ABV12@@Z
	DD	2 DUP(00H)
	DD	2 DUP(00H)
	DD	00H
	DD	00H
__unwindtable$?GetUserFilePath@@YA?AV?$basic_string@DU?$char_traits@D@std@@V?$allocator@D@2@@std@@ABV?$basic_string@GU?$char_traits@G@std@@V?$allocator@G@2@@2@ABV12@@Z DD 0ffffffffH
	DD	FLAT:__unwindfunclet$?GetUserFilePath@@YA?AV?$basic_string@DU?$char_traits@D@std@@V?$allocator@D@2@@std@@ABV?$basic_string@GU?$char_traits@G@std@@V?$allocator@G@2@@2@ABV12@@Z$4
	DD	00H
	DD	FLAT:__unwindfunclet$?GetUserFilePath@@YA?AV?$basic_string@DU?$char_traits@D@std@@V?$allocator@D@2@@std@@ABV?$basic_string@GU?$char_traits@G@std@@V?$allocator@G@2@@2@ABV12@@Z$0
	DD	01H
	DD	FLAT:__unwindfunclet$?GetUserFilePath@@YA?AV?$basic_string@DU?$char_traits@D@std@@V?$allocator@D@2@@std@@ABV?$basic_string@GU?$char_traits@G@std@@V?$allocator@G@2@@2@ABV12@@Z$1
	DD	00H
	DD	FLAT:__unwindfunclet$?GetUserFilePath@@YA?AV?$basic_string@DU?$char_traits@D@std@@V?$allocator@D@2@@std@@ABV?$basic_string@GU?$char_traits@G@std@@V?$allocator@G@2@@2@ABV12@@Z$1
	DD	03H
	DD	FLAT:__unwindfunclet$?GetUserFilePath@@YA?AV?$basic_string@DU?$char_traits@D@std@@V?$allocator@D@2@@std@@ABV?$basic_string@GU?$char_traits@G@std@@V?$allocator@G@2@@2@ABV12@@Z$2
	DD	04H
	DD	FLAT:__unwindfunclet$?GetUserFilePath@@YA?AV?$basic_string@DU?$char_traits@D@std@@V?$allocator@D@2@@std@@ABV?$basic_string@GU?$char_traits@G@std@@V?$allocator@G@2@@2@ABV12@@Z$3
	DD	05H
	DD	FLAT:__unwindfunclet$?GetUserFilePath@@YA?AV?$basic_string@DU?$char_traits@D@std@@V?$allocator@D@2@@std@@ABV?$basic_string@GU?$char_traits@G@std@@V?$allocator@G@2@@2@ABV12@@Z$5
	DD	06H
	DD	FLAT:__unwindfunclet$?GetUserFilePath@@YA?AV?$basic_string@DU?$char_traits@D@std@@V?$allocator@D@2@@std@@ABV?$basic_string@GU?$char_traits@G@std@@V?$allocator@G@2@@2@ABV12@@Z$6
	DD	07H
	DD	FLAT:__unwindfunclet$?GetUserFilePath@@YA?AV?$basic_string@DU?$char_traits@D@std@@V?$allocator@D@2@@std@@ABV?$basic_string@GU?$char_traits@G@std@@V?$allocator@G@2@@2@ABV12@@Z$7
	DD	08H
	DD	FLAT:__unwindfunclet$?GetUserFilePath@@YA?AV?$basic_string@DU?$char_traits@D@std@@V?$allocator@D@2@@std@@ABV?$basic_string@GU?$char_traits@G@std@@V?$allocator@G@2@@2@ABV12@@Z$8
	DD	09H
	DD	FLAT:__unwindfunclet$?GetUserFilePath@@YA?AV?$basic_string@DU?$char_traits@D@std@@V?$allocator@D@2@@std@@ABV?$basic_string@GU?$char_traits@G@std@@V?$allocator@G@2@@2@ABV12@@Z$9
; Function compile flags: /Odtp
xdata$x	ENDS
_TEXT	SEGMENT
tv187 = -588						; size = 4
tv193 = -584						; size = 4
tv185 = -580						; size = 4
tv64 = -576						; size = 4
tv183 = -572						; size = 4
tv76 = -568						; size = 4
tv181 = -564						; size = 4
tv79 = -560						; size = 4
tv179 = -556						; size = 4
tv94 = -552						; size = 4
tv163 = -548						; size = 4
tv192 = -544						; size = 4
$T154080 = -540						; size = 4
$T154074 = -536						; size = 28
$T154073 = -508						; size = 28
$T154072 = -480						; size = 28
$T154071 = -452						; size = 28
$T154070 = -424						; size = 28
$T154069 = -396						; size = 28
_wscDir$ = -368						; size = 28
_szDataPath$ = -340					; size = 260
_wscFile$ = -72						; size = 28
_scAcctPath$ = -44					; size = 28
__$ArrayPad$ = -16					; size = 4
__$EHRec$ = -12						; size = 12
___$ReturnUdt$ = 8					; size = 4
_wscCharname$ = 12					; size = 4
_scExtension$ = 16					; size = 4
?GetUserFilePath@@YA?AV?$basic_string@DU?$char_traits@D@std@@V?$allocator@D@2@@std@@ABV?$basic_string@GU?$char_traits@G@std@@V?$allocator@G@2@@2@ABV12@@Z PROC ; GetUserFilePath
; Line 229
	push	ebp
	mov	ebp, esp
	push	-1
	push	__ehhandler$?GetUserFilePath@@YA?AV?$basic_string@DU?$char_traits@D@std@@V?$allocator@D@2@@std@@ABV?$basic_string@GU?$char_traits@G@std@@V?$allocator@G@2@@2@ABV12@@Z
	mov	eax, DWORD PTR fs:0
	push	eax
	sub	esp, 576				; 00000240H
	mov	eax, DWORD PTR ___security_cookie
	xor	eax, ebp
	mov	DWORD PTR __$ArrayPad$[ebp], eax
	push	eax
	lea	eax, DWORD PTR __$EHRec$[ebp]
	mov	DWORD PTR fs:0, eax
	mov	DWORD PTR $T154080[ebp], 0
; Line 232
	lea	eax, DWORD PTR _szDataPath$[ebp]
	push	eax
	call	DWORD PTR __imp_?GetUserDataPath@@YA_NQAD@Z
	add	esp, 4
; Line 233
	push	OFFSET $SG142757
	lea	ecx, DWORD PTR _szDataPath$[ebp]
	push	ecx
	lea	ecx, DWORD PTR $T154069[ebp]
	call	DWORD PTR __imp_??0?$basic_string@DU?$char_traits@D@std@@V?$allocator@D@2@@std@@QAE@PBD@Z
	mov	DWORD PTR tv192[ebp], eax
	mov	edx, DWORD PTR tv192[ebp]
	mov	DWORD PTR tv163[ebp], edx
	mov	DWORD PTR __$EHRec$[ebp+8], 1
	mov	eax, DWORD PTR tv163[ebp]
	push	eax
	lea	ecx, DWORD PTR _scAcctPath$[ebp]
	push	ecx
	call	DWORD PTR __imp_??$?HDU?$char_traits@D@std@@V?$allocator@D@1@@std@@YA?AV?$basic_string@DU?$char_traits@D@std@@V?$allocator@D@2@@0@ABV10@PBD@Z
	add	esp, 12					; 0000000cH
	mov	BYTE PTR __$EHRec$[ebp+8], 3
	lea	ecx, DWORD PTR $T154069[ebp]
	call	DWORD PTR __imp_??1?$basic_string@DU?$char_traits@D@std@@V?$allocator@D@2@@std@@QAE@XZ
; Line 235
	lea	ecx, DWORD PTR _wscDir$[ebp]
	call	DWORD PTR __imp_??0?$basic_string@GU?$char_traits@G@std@@V?$allocator@G@2@@std@@QAE@XZ
	mov	BYTE PTR __$EHRec$[ebp+8], 4
; Line 236
	lea	ecx, DWORD PTR _wscFile$[ebp]
	call	DWORD PTR __imp_??0?$basic_string@GU?$char_traits@G@std@@V?$allocator@G@2@@std@@QAE@XZ
	mov	BYTE PTR __$EHRec$[ebp+8], 5
; Line 237
	lea	edx, DWORD PTR _wscDir$[ebp]
	push	edx
	mov	eax, DWORD PTR _wscCharname$[ebp]
	push	eax
	call	DWORD PTR __imp_?HkGetAccountDirName@@YA?AW4HK_ERROR@@ABV?$basic_string@GU?$char_traits@G@std@@V?$allocator@G@2@@std@@AAV23@@Z
	add	esp, 8
	test	eax, eax
	je	SHORT $LN2@GetUserFil
; Line 238
	push	OFFSET $SG142761
	mov	ecx, DWORD PTR ___$ReturnUdt$[ebp]
	call	DWORD PTR __imp_??0?$basic_string@DU?$char_traits@D@std@@V?$allocator@D@2@@std@@QAE@PBD@Z
	mov	ecx, DWORD PTR $T154080[ebp]
	or	ecx, 1
	mov	DWORD PTR $T154080[ebp], ecx
	mov	BYTE PTR __$EHRec$[ebp+8], 4
	lea	ecx, DWORD PTR _wscFile$[ebp]
	call	DWORD PTR __imp_??1?$basic_string@GU?$char_traits@G@std@@V?$allocator@G@2@@std@@QAE@XZ
	mov	BYTE PTR __$EHRec$[ebp+8], 3
	lea	ecx, DWORD PTR _wscDir$[ebp]
	call	DWORD PTR __imp_??1?$basic_string@GU?$char_traits@G@std@@V?$allocator@G@2@@std@@QAE@XZ
	mov	BYTE PTR __$EHRec$[ebp+8], 0
	lea	ecx, DWORD PTR _scAcctPath$[ebp]
	call	DWORD PTR __imp_??1?$basic_string@DU?$char_traits@D@std@@V?$allocator@D@2@@std@@QAE@XZ
	mov	eax, DWORD PTR ___$ReturnUdt$[ebp]
	jmp	$LN3@GetUserFil
$LN2@GetUserFil:
; Line 239
	lea	edx, DWORD PTR _wscFile$[ebp]
	push	edx
	mov	eax, DWORD PTR _wscCharname$[ebp]
	push	eax
	call	DWORD PTR __imp_?HkGetCharFileName@@YA?AW4HK_ERROR@@ABV?$basic_string@GU?$char_traits@G@std@@V?$allocator@G@2@@std@@AAV23@@Z
	add	esp, 8
	test	eax, eax
	je	SHORT $LN1@GetUserFil
; Line 240
	push	OFFSET $SG142763
	mov	ecx, DWORD PTR ___$ReturnUdt$[ebp]
	call	DWORD PTR __imp_??0?$basic_string@DU?$char_traits@D@std@@V?$allocator@D@2@@std@@QAE@PBD@Z
	mov	ecx, DWORD PTR $T154080[ebp]
	or	ecx, 1
	mov	DWORD PTR $T154080[ebp], ecx
	mov	BYTE PTR __$EHRec$[ebp+8], 4
	lea	ecx, DWORD PTR _wscFile$[ebp]
	call	DWORD PTR __imp_??1?$basic_string@GU?$char_traits@G@std@@V?$allocator@G@2@@std@@QAE@XZ
	mov	BYTE PTR __$EHRec$[ebp+8], 3
	lea	ecx, DWORD PTR _wscDir$[ebp]
	call	DWORD PTR __imp_??1?$basic_string@GU?$char_traits@G@std@@V?$allocator@G@2@@std@@QAE@XZ
	mov	BYTE PTR __$EHRec$[ebp+8], 0
	lea	ecx, DWORD PTR _scAcctPath$[ebp]
	call	DWORD PTR __imp_??1?$basic_string@DU?$char_traits@D@std@@V?$allocator@D@2@@std@@QAE@XZ
	mov	eax, DWORD PTR ___$ReturnUdt$[ebp]
	jmp	$LN3@GetUserFil
$LN1@GetUserFil:
; Line 242
	mov	edx, DWORD PTR _scExtension$[ebp]
	push	edx
	lea	eax, DWORD PTR _wscFile$[ebp]
	push	eax
	lea	ecx, DWORD PTR $T154070[ebp]
	push	ecx
	call	DWORD PTR __imp_?wstos@@YA?AV?$basic_string@DU?$char_traits@D@std@@V?$allocator@D@2@@std@@ABV?$basic_string@GU?$char_traits@G@std@@V?$allocator@G@2@@2@@Z
	add	esp, 8
	mov	DWORD PTR tv94[ebp], eax
	mov	edx, DWORD PTR tv94[ebp]
	mov	DWORD PTR tv179[ebp], edx
	mov	BYTE PTR __$EHRec$[ebp+8], 6
	mov	eax, DWORD PTR tv179[ebp]
	push	eax
	push	OFFSET $SG142770
	lea	ecx, DWORD PTR _wscDir$[ebp]
	push	ecx
	lea	edx, DWORD PTR $T154071[ebp]
	push	edx
	call	DWORD PTR __imp_?wstos@@YA?AV?$basic_string@DU?$char_traits@D@std@@V?$allocator@D@2@@std@@ABV?$basic_string@GU?$char_traits@G@std@@V?$allocator@G@2@@2@@Z
	add	esp, 8
	mov	DWORD PTR tv79[ebp], eax
	mov	eax, DWORD PTR tv79[ebp]
	mov	DWORD PTR tv181[ebp], eax
	mov	BYTE PTR __$EHRec$[ebp+8], 7
	mov	ecx, DWORD PTR tv181[ebp]
	push	ecx
	lea	edx, DWORD PTR _scAcctPath$[ebp]
	push	edx
	lea	eax, DWORD PTR $T154072[ebp]
	push	eax
	call	DWORD PTR __imp_??$?HDU?$char_traits@D@std@@V?$allocator@D@1@@std@@YA?AV?$basic_string@DU?$char_traits@D@std@@V?$allocator@D@2@@0@ABV10@0@Z
	add	esp, 12					; 0000000cH
	mov	DWORD PTR tv76[ebp], eax
	mov	ecx, DWORD PTR tv76[ebp]
	mov	DWORD PTR tv183[ebp], ecx
	mov	BYTE PTR __$EHRec$[ebp+8], 8
	mov	edx, DWORD PTR tv183[ebp]
	push	edx
	lea	eax, DWORD PTR $T154073[ebp]
	push	eax
	call	DWORD PTR __imp_??$?HDU?$char_traits@D@std@@V?$allocator@D@1@@std@@YA?AV?$basic_string@DU?$char_traits@D@std@@V?$allocator@D@2@@0@ABV10@PBD@Z
	add	esp, 12					; 0000000cH
	mov	DWORD PTR tv64[ebp], eax
	mov	ecx, DWORD PTR tv64[ebp]
	mov	DWORD PTR tv185[ebp], ecx
	mov	BYTE PTR __$EHRec$[ebp+8], 9
	mov	edx, DWORD PTR tv185[ebp]
	push	edx
	lea	eax, DWORD PTR $T154074[ebp]
	push	eax
	call	DWORD PTR __imp_??$?HDU?$char_traits@D@std@@V?$allocator@D@1@@std@@YA?AV?$basic_string@DU?$char_traits@D@std@@V?$allocator@D@2@@0@ABV10@0@Z
	add	esp, 12					; 0000000cH
	mov	DWORD PTR tv193[ebp], eax
	mov	ecx, DWORD PTR tv193[ebp]
	mov	DWORD PTR tv187[ebp], ecx
	mov	BYTE PTR __$EHRec$[ebp+8], 10		; 0000000aH
	mov	edx, DWORD PTR tv187[ebp]
	push	edx
	mov	eax, DWORD PTR ___$ReturnUdt$[ebp]
	push	eax
	call	DWORD PTR __imp_??$?HDU?$char_traits@D@std@@V?$allocator@D@1@@std@@YA?AV?$basic_string@DU?$char_traits@D@std@@V?$allocator@D@2@@0@ABV10@0@Z
	add	esp, 12					; 0000000cH
	mov	ecx, DWORD PTR $T154080[ebp]
	or	ecx, 1
	mov	DWORD PTR $T154080[ebp], ecx
	mov	BYTE PTR __$EHRec$[ebp+8], 9
	lea	ecx, DWORD PTR $T154074[ebp]
	call	DWORD PTR __imp_??1?$basic_string@DU?$char_traits@D@std@@V?$allocator@D@2@@std@@QAE@XZ
	mov	BYTE PTR __$EHRec$[ebp+8], 8
	lea	ecx, DWORD PTR $T154073[ebp]
	call	DWORD PTR __imp_??1?$basic_string@DU?$char_traits@D@std@@V?$allocator@D@2@@std@@QAE@XZ
	mov	BYTE PTR __$EHRec$[ebp+8], 7
	lea	ecx, DWORD PTR $T154072[ebp]
	call	DWORD PTR __imp_??1?$basic_string@DU?$char_traits@D@std@@V?$allocator@D@2@@std@@QAE@XZ
	mov	BYTE PTR __$EHRec$[ebp+8], 6
	lea	ecx, DWORD PTR $T154071[ebp]
	call	DWORD PTR __imp_??1?$basic_string@DU?$char_traits@D@std@@V?$allocator@D@2@@std@@QAE@XZ
	mov	BYTE PTR __$EHRec$[ebp+8], 5
	lea	ecx, DWORD PTR $T154070[ebp]
	call	DWORD PTR __imp_??1?$basic_string@DU?$char_traits@D@std@@V?$allocator@D@2@@std@@QAE@XZ
	mov	BYTE PTR __$EHRec$[ebp+8], 4
	lea	ecx, DWORD PTR _wscFile$[ebp]
	call	DWORD PTR __imp_??1?$basic_string@GU?$char_traits@G@std@@V?$allocator@G@2@@std@@QAE@XZ
	mov	BYTE PTR __$EHRec$[ebp+8], 3
	lea	ecx, DWORD PTR _wscDir$[ebp]
	call	DWORD PTR __imp_??1?$basic_string@GU?$char_traits@G@std@@V?$allocator@G@2@@std@@QAE@XZ
	mov	BYTE PTR __$EHRec$[ebp+8], 0
	lea	ecx, DWORD PTR _scAcctPath$[ebp]
	call	DWORD PTR __imp_??1?$basic_string@DU?$char_traits@D@std@@V?$allocator@D@2@@std@@QAE@XZ
	mov	eax, DWORD PTR ___$ReturnUdt$[ebp]
$LN3@GetUserFil:
; Line 243
	mov	ecx, DWORD PTR __$EHRec$[ebp]
	mov	DWORD PTR fs:0, ecx
	pop	ecx
	mov	ecx, DWORD PTR __$ArrayPad$[ebp]
	xor	ecx, ebp
	call	@__security_check_cookie@4
	mov	esp, ebp
	pop	ebp
	ret	0
_TEXT	ENDS
text$x	SEGMENT
__unwindfunclet$?GetUserFilePath@@YA?AV?$basic_string@DU?$char_traits@D@std@@V?$allocator@D@2@@std@@ABV?$basic_string@GU?$char_traits@G@std@@V?$allocator@G@2@@2@ABV12@@Z$0:
	lea	ecx, DWORD PTR $T154069[ebp]
	jmp	DWORD PTR __imp_??1?$basic_string@DU?$char_traits@D@std@@V?$allocator@D@2@@std@@QAE@XZ
__unwindfunclet$?GetUserFilePath@@YA?AV?$basic_string@DU?$char_traits@D@std@@V?$allocator@D@2@@std@@ABV?$basic_string@GU?$char_traits@G@std@@V?$allocator@G@2@@2@ABV12@@Z$1:
	lea	ecx, DWORD PTR _scAcctPath$[ebp]
	jmp	DWORD PTR __imp_??1?$basic_string@DU?$char_traits@D@std@@V?$allocator@D@2@@std@@QAE@XZ
__unwindfunclet$?GetUserFilePath@@YA?AV?$basic_string@DU?$char_traits@D@std@@V?$allocator@D@2@@std@@ABV?$basic_string@GU?$char_traits@G@std@@V?$allocator@G@2@@2@ABV12@@Z$2:
	lea	ecx, DWORD PTR _wscDir$[ebp]
	jmp	DWORD PTR __imp_??1?$basic_string@GU?$char_traits@G@std@@V?$allocator@G@2@@std@@QAE@XZ
__unwindfunclet$?GetUserFilePath@@YA?AV?$basic_string@DU?$char_traits@D@std@@V?$allocator@D@2@@std@@ABV?$basic_string@GU?$char_traits@G@std@@V?$allocator@G@2@@2@ABV12@@Z$3:
	lea	ecx, DWORD PTR _wscFile$[ebp]
	jmp	DWORD PTR __imp_??1?$basic_string@GU?$char_traits@G@std@@V?$allocator@G@2@@std@@QAE@XZ
__unwindfunclet$?GetUserFilePath@@YA?AV?$basic_string@DU?$char_traits@D@std@@V?$allocator@D@2@@std@@ABV?$basic_string@GU?$char_traits@G@std@@V?$allocator@G@2@@2@ABV12@@Z$4:
	mov	eax, DWORD PTR $T154080[ebp]
	and	eax, 1
	je	$LN10@GetUserFil
	and	DWORD PTR $T154080[ebp], -2		; fffffffeH
	mov	ecx, DWORD PTR ___$ReturnUdt$[ebp]
	jmp	DWORD PTR __imp_??1?$basic_string@DU?$char_traits@D@std@@V?$allocator@D@2@@std@@QAE@XZ
$LN10@GetUserFil:
	ret	0
__unwindfunclet$?GetUserFilePath@@YA?AV?$basic_string@DU?$char_traits@D@std@@V?$allocator@D@2@@std@@ABV?$basic_string@GU?$char_traits@G@std@@V?$allocator@G@2@@2@ABV12@@Z$5:
	lea	ecx, DWORD PTR $T154070[ebp]
	jmp	DWORD PTR __imp_??1?$basic_string@DU?$char_traits@D@std@@V?$allocator@D@2@@std@@QAE@XZ
__unwindfunclet$?GetUserFilePath@@YA?AV?$basic_string@DU?$char_traits@D@std@@V?$allocator@D@2@@std@@ABV?$basic_string@GU?$char_traits@G@std@@V?$allocator@G@2@@2@ABV12@@Z$6:
	lea	ecx, DWORD PTR $T154071[ebp]
	jmp	DWORD PTR __imp_??1?$basic_string@DU?$char_traits@D@std@@V?$allocator@D@2@@std@@QAE@XZ
__unwindfunclet$?GetUserFilePath@@YA?AV?$basic_string@DU?$char_traits@D@std@@V?$allocator@D@2@@std@@ABV?$basic_string@GU?$char_traits@G@std@@V?$allocator@G@2@@2@ABV12@@Z$7:
	lea	ecx, DWORD PTR $T154072[ebp]
	jmp	DWORD PTR __imp_??1?$basic_string@DU?$char_traits@D@std@@V?$allocator@D@2@@std@@QAE@XZ
__unwindfunclet$?GetUserFilePath@@YA?AV?$basic_string@DU?$char_traits@D@std@@V?$allocator@D@2@@std@@ABV?$basic_string@GU?$char_traits@G@std@@V?$allocator@G@2@@2@ABV12@@Z$8:
	lea	ecx, DWORD PTR $T154073[ebp]
	jmp	DWORD PTR __imp_??1?$basic_string@DU?$char_traits@D@std@@V?$allocator@D@2@@std@@QAE@XZ
__unwindfunclet$?GetUserFilePath@@YA?AV?$basic_string@DU?$char_traits@D@std@@V?$allocator@D@2@@std@@ABV?$basic_string@GU?$char_traits@G@std@@V?$allocator@G@2@@2@ABV12@@Z$9:
	lea	ecx, DWORD PTR $T154074[ebp]
	jmp	DWORD PTR __imp_??1?$basic_string@DU?$char_traits@D@std@@V?$allocator@D@2@@std@@QAE@XZ
__ehhandler$?GetUserFilePath@@YA?AV?$basic_string@DU?$char_traits@D@std@@V?$allocator@D@2@@std@@ABV?$basic_string@GU?$char_traits@G@std@@V?$allocator@G@2@@2@ABV12@@Z:
	mov	edx, DWORD PTR [esp+8]
	lea	eax, DWORD PTR [edx+12]
	mov	ecx, DWORD PTR [edx-580]
	xor	ecx, eax
	call	@__security_check_cookie@4
	mov	ecx, DWORD PTR [edx-4]
	xor	ecx, eax
	call	@__security_check_cookie@4
	mov	eax, OFFSET __ehfuncinfo$?GetUserFilePath@@YA?AV?$basic_string@DU?$char_traits@D@std@@V?$allocator@D@2@@std@@ABV?$basic_string@GU?$char_traits@G@std@@V?$allocator@G@2@@2@ABV12@@Z
	jmp	___CxxFrameHandler3
text$x	ENDS
?GetUserFilePath@@YA?AV?$basic_string@DU?$char_traits@D@std@@V?$allocator@D@2@@std@@ABV?$basic_string@GU?$char_traits@G@std@@V?$allocator@G@2@@2@ABV12@@Z ENDP ; GetUserFilePath
PUBLIC	__$ArrayPad$
PUBLIC	?HkFMsgEncodeMsg@@YA?AW4HK_ERROR@@ABV?$basic_string@GU?$char_traits@G@std@@V?$allocator@G@2@@std@@PADIAAI@Z ; HkFMsgEncodeMsg
EXTRN	__imp_?write_buffer@BinaryRDLWriter@@UAE_NABVRenderDisplayList@@PADIAAI@Z:PROC
EXTRN	__imp_??0BinaryRDLWriter@@QAE@XZ:PROC
EXTRN	__imp_??1RenderDisplayList@@QAE@XZ:PROC
EXTRN	__imp_?read_buffer@XMLReader@@UAE_NAAVRenderDisplayList@@PBDI@Z:PROC
EXTRN	__imp_?c_str@?$basic_string@GU?$char_traits@G@std@@V?$allocator@G@2@@std@@QBEPBGXZ:PROC
EXTRN	__imp_??Y?$basic_string@GU?$char_traits@G@std@@V?$allocator@G@2@@std@@QAEAAV01@PBG@Z:PROC
EXTRN	__imp_??Y?$basic_string@GU?$char_traits@G@std@@V?$allocator@G@2@@std@@QAEAAV01@ABV01@@Z:PROC
EXTRN	__imp_??$?HGU?$char_traits@G@std@@V?$allocator@G@1@@std@@YA?AV?$basic_string@GU?$char_traits@G@std@@V?$allocator@G@2@@0@ABV10@PBG@Z:PROC
EXTRN	__imp_??$?HGU?$char_traits@G@std@@V?$allocator@G@1@@std@@YA?AV?$basic_string@GU?$char_traits@G@std@@V?$allocator@G@2@@0@PBGABV10@@Z:PROC
EXTRN	__imp_?XMLText@@YA?AV?$basic_string@GU?$char_traits@G@std@@V?$allocator@G@2@@std@@ABV12@@Z:PROC
EXTRN	__imp_??0RenderDisplayList@@QAE@XZ:PROC
EXTRN	__imp_??0XMLReader@@QAE@XZ:PROC
EXTRN	__chkstk:PROC
xdata$x	SEGMENT
__ehfuncinfo$?HkFMsgEncodeMsg@@YA?AW4HK_ERROR@@ABV?$basic_string@GU?$char_traits@G@std@@V?$allocator@G@2@@std@@PADIAAI@Z DD 019930522H
	DD	05H
	DD	FLAT:__unwindtable$?HkFMsgEncodeMsg@@YA?AW4HK_ERROR@@ABV?$basic_string@GU?$char_traits@G@std@@V?$allocator@G@2@@std@@PADIAAI@Z
	DD	2 DUP(00H)
	DD	2 DUP(00H)
	DD	00H
	DD	00H
__unwindtable$?HkFMsgEncodeMsg@@YA?AW4HK_ERROR@@ABV?$basic_string@GU?$char_traits@G@std@@V?$allocator@G@2@@std@@PADIAAI@Z DD 0ffffffffH
	DD	FLAT:__unwindfunclet$?HkFMsgEncodeMsg@@YA?AW4HK_ERROR@@ABV?$basic_string@GU?$char_traits@G@std@@V?$allocator@G@2@@std@@PADIAAI@Z$0
	DD	00H
	DD	FLAT:__unwindfunclet$?HkFMsgEncodeMsg@@YA?AW4HK_ERROR@@ABV?$basic_string@GU?$char_traits@G@std@@V?$allocator@G@2@@std@@PADIAAI@Z$1
	DD	01H
	DD	FLAT:__unwindfunclet$?HkFMsgEncodeMsg@@YA?AW4HK_ERROR@@ABV?$basic_string@GU?$char_traits@G@std@@V?$allocator@G@2@@std@@PADIAAI@Z$2
	DD	02H
	DD	FLAT:__unwindfunclet$?HkFMsgEncodeMsg@@YA?AW4HK_ERROR@@ABV?$basic_string@GU?$char_traits@G@std@@V?$allocator@G@2@@std@@PADIAAI@Z$3
	DD	03H
	DD	FLAT:__unwindfunclet$?HkFMsgEncodeMsg@@YA?AW4HK_ERROR@@ABV?$basic_string@GU?$char_traits@G@std@@V?$allocator@G@2@@std@@PADIAAI@Z$4
; Function compile flags: /Odtp
xdata$x	ENDS
_TEXT	SEGMENT
tv150 = -5304						; size = 4
tv155 = -5300						; size = 4
tv148 = -5296						; size = 4
tv66 = -5292						; size = 4
tv146 = -5288						; size = 4
tv69 = -5284						; size = 4
$T154097 = -5280					; size = 4
$T154096 = -5276					; size = 4
$T154095 = -5272					; size = 28
$T154094 = -5244					; size = 28
$T154093 = -5216					; size = 28
_rdr$ = -5188						; size = 2052
_wscMsg$ = -3128					; size = 28
_rdlwrite$ = -3100					; size = 1028
_rdl$ = -2068						; size = 2048
__$ArrayPad$ = -16					; size = 4
__$EHRec$ = -12						; size = 12
_wscMessage$ = 8					; size = 4
_szBuf$ = 12						; size = 4
_iSize$ = 16						; size = 4
_iRet$ = 20						; size = 4
?HkFMsgEncodeMsg@@YA?AW4HK_ERROR@@ABV?$basic_string@GU?$char_traits@G@std@@V?$allocator@G@2@@std@@PADIAAI@Z PROC ; HkFMsgEncodeMsg
; Line 247
	push	ebp
	mov	ebp, esp
	push	-1
	push	__ehhandler$?HkFMsgEncodeMsg@@YA?AW4HK_ERROR@@ABV?$basic_string@GU?$char_traits@G@std@@V?$allocator@G@2@@std@@PADIAAI@Z
	mov	eax, DWORD PTR fs:0
	push	eax
	mov	eax, 5292				; 000014acH
	call	__chkstk
	mov	eax, DWORD PTR ___security_cookie
	xor	eax, ebp
	mov	DWORD PTR __$ArrayPad$[ebp], eax
	push	eax
	lea	eax, DWORD PTR __$EHRec$[ebp]
	mov	DWORD PTR fs:0, eax
; Line 248
	lea	ecx, DWORD PTR _rdr$[ebp]
	call	DWORD PTR __imp_??0XMLReader@@QAE@XZ
; Line 249
	lea	ecx, DWORD PTR _rdl$[ebp]
	call	DWORD PTR __imp_??0RenderDisplayList@@QAE@XZ
	mov	DWORD PTR __$EHRec$[ebp+8], 0
; Line 250
	push	OFFSET $SG142780
	lea	ecx, DWORD PTR _wscMsg$[ebp]
	call	DWORD PTR __imp_??0?$basic_string@GU?$char_traits@G@std@@V?$allocator@G@2@@std@@QAE@PBG@Z
	mov	BYTE PTR __$EHRec$[ebp+8], 1
; Line 251
	push	OFFSET $SG142784
	mov	eax, DWORD PTR _wscMessage$[ebp]
	push	eax
	lea	ecx, DWORD PTR $T154093[ebp]
	push	ecx
	call	DWORD PTR __imp_?XMLText@@YA?AV?$basic_string@GU?$char_traits@G@std@@V?$allocator@G@2@@std@@ABV12@@Z
	add	esp, 8
	mov	DWORD PTR tv69[ebp], eax
	mov	edx, DWORD PTR tv69[ebp]
	mov	DWORD PTR tv146[ebp], edx
	mov	BYTE PTR __$EHRec$[ebp+8], 2
	mov	eax, DWORD PTR tv146[ebp]
	push	eax
	push	OFFSET $SG142785
	lea	ecx, DWORD PTR $T154094[ebp]
	push	ecx
	call	DWORD PTR __imp_??$?HGU?$char_traits@G@std@@V?$allocator@G@1@@std@@YA?AV?$basic_string@GU?$char_traits@G@std@@V?$allocator@G@2@@0@PBGABV10@@Z
	add	esp, 12					; 0000000cH
	mov	DWORD PTR tv66[ebp], eax
	mov	edx, DWORD PTR tv66[ebp]
	mov	DWORD PTR tv148[ebp], edx
	mov	BYTE PTR __$EHRec$[ebp+8], 3
	mov	eax, DWORD PTR tv148[ebp]
	push	eax
	lea	ecx, DWORD PTR $T154095[ebp]
	push	ecx
	call	DWORD PTR __imp_??$?HGU?$char_traits@G@std@@V?$allocator@G@1@@std@@YA?AV?$basic_string@GU?$char_traits@G@std@@V?$allocator@G@2@@0@ABV10@PBG@Z
	add	esp, 12					; 0000000cH
	mov	DWORD PTR tv155[ebp], eax
	mov	edx, DWORD PTR tv155[ebp]
	mov	DWORD PTR tv150[ebp], edx
	mov	BYTE PTR __$EHRec$[ebp+8], 4
	mov	eax, DWORD PTR tv150[ebp]
	push	eax
	lea	ecx, DWORD PTR _wscMsg$[ebp]
	call	DWORD PTR __imp_??Y?$basic_string@GU?$char_traits@G@std@@V?$allocator@G@2@@std@@QAEAAV01@ABV01@@Z
	mov	BYTE PTR __$EHRec$[ebp+8], 3
	lea	ecx, DWORD PTR $T154095[ebp]
	call	DWORD PTR __imp_??1?$basic_string@GU?$char_traits@G@std@@V?$allocator@G@2@@std@@QAE@XZ
	mov	BYTE PTR __$EHRec$[ebp+8], 2
	lea	ecx, DWORD PTR $T154094[ebp]
	call	DWORD PTR __imp_??1?$basic_string@GU?$char_traits@G@std@@V?$allocator@G@2@@std@@QAE@XZ
	mov	BYTE PTR __$EHRec$[ebp+8], 1
	lea	ecx, DWORD PTR $T154093[ebp]
	call	DWORD PTR __imp_??1?$basic_string@GU?$char_traits@G@std@@V?$allocator@G@2@@std@@QAE@XZ
; Line 252
	push	OFFSET $SG142786
	lea	ecx, DWORD PTR _wscMsg$[ebp]
	call	DWORD PTR __imp_??Y?$basic_string@GU?$char_traits@G@std@@V?$allocator@G@2@@std@@QAEAAV01@PBG@Z
; Line 253
	lea	ecx, DWORD PTR _wscMsg$[ebp]
	call	DWORD PTR __imp_?length@?$basic_string@GU?$char_traits@G@std@@V?$allocator@G@2@@std@@QBEIXZ
	shl	eax, 1
	push	eax
	lea	ecx, DWORD PTR _wscMsg$[ebp]
	call	DWORD PTR __imp_?c_str@?$basic_string@GU?$char_traits@G@std@@V?$allocator@G@2@@std@@QBEPBGXZ
	push	eax
	lea	ecx, DWORD PTR _rdl$[ebp]
	push	ecx
	lea	ecx, DWORD PTR _rdr$[ebp]
	call	DWORD PTR __imp_?read_buffer@XMLReader@@UAE_NAAVRenderDisplayList@@PBDI@Z
	movzx	edx, al
	test	edx, edx
	jne	SHORT $LN1@HkFMsgEnco
; Line 254
	mov	DWORD PTR $T154096[ebp], 11		; 0000000bH
	mov	BYTE PTR __$EHRec$[ebp+8], 0
	lea	ecx, DWORD PTR _wscMsg$[ebp]
	call	DWORD PTR __imp_??1?$basic_string@GU?$char_traits@G@std@@V?$allocator@G@2@@std@@QAE@XZ
	mov	DWORD PTR __$EHRec$[ebp+8], -1
	lea	ecx, DWORD PTR _rdl$[ebp]
	call	DWORD PTR __imp_??1RenderDisplayList@@QAE@XZ
	mov	eax, DWORD PTR $T154096[ebp]
	jmp	SHORT $LN2@HkFMsgEnco
$LN1@HkFMsgEnco:
; Line 256
	lea	ecx, DWORD PTR _rdlwrite$[ebp]
	call	DWORD PTR __imp_??0BinaryRDLWriter@@QAE@XZ
; Line 257
	mov	eax, DWORD PTR _iRet$[ebp]
	push	eax
	mov	ecx, DWORD PTR _iSize$[ebp]
	push	ecx
	mov	edx, DWORD PTR _szBuf$[ebp]
	push	edx
	lea	eax, DWORD PTR _rdl$[ebp]
	push	eax
	lea	ecx, DWORD PTR _rdlwrite$[ebp]
	call	DWORD PTR __imp_?write_buffer@BinaryRDLWriter@@UAE_NABVRenderDisplayList@@PADIAAI@Z
; Line 259
	mov	DWORD PTR $T154097[ebp], 0
	mov	BYTE PTR __$EHRec$[ebp+8], 0
	lea	ecx, DWORD PTR _wscMsg$[ebp]
	call	DWORD PTR __imp_??1?$basic_string@GU?$char_traits@G@std@@V?$allocator@G@2@@std@@QAE@XZ
	mov	DWORD PTR __$EHRec$[ebp+8], -1
	lea	ecx, DWORD PTR _rdl$[ebp]
	call	DWORD PTR __imp_??1RenderDisplayList@@QAE@XZ
	mov	eax, DWORD PTR $T154097[ebp]
$LN2@HkFMsgEnco:
; Line 260
	mov	ecx, DWORD PTR __$EHRec$[ebp]
	mov	DWORD PTR fs:0, ecx
	pop	ecx
	mov	ecx, DWORD PTR __$ArrayPad$[ebp]
	xor	ecx, ebp
	call	@__security_check_cookie@4
	mov	esp, ebp
	pop	ebp
	ret	0
_TEXT	ENDS
text$x	SEGMENT
__unwindfunclet$?HkFMsgEncodeMsg@@YA?AW4HK_ERROR@@ABV?$basic_string@GU?$char_traits@G@std@@V?$allocator@G@2@@std@@PADIAAI@Z$0:
	lea	ecx, DWORD PTR _rdl$[ebp]
	jmp	DWORD PTR __imp_??1RenderDisplayList@@QAE@XZ
__unwindfunclet$?HkFMsgEncodeMsg@@YA?AW4HK_ERROR@@ABV?$basic_string@GU?$char_traits@G@std@@V?$allocator@G@2@@std@@PADIAAI@Z$1:
	lea	ecx, DWORD PTR _wscMsg$[ebp]
	jmp	DWORD PTR __imp_??1?$basic_string@GU?$char_traits@G@std@@V?$allocator@G@2@@std@@QAE@XZ
__unwindfunclet$?HkFMsgEncodeMsg@@YA?AW4HK_ERROR@@ABV?$basic_string@GU?$char_traits@G@std@@V?$allocator@G@2@@std@@PADIAAI@Z$2:
	lea	ecx, DWORD PTR $T154093[ebp]
	jmp	DWORD PTR __imp_??1?$basic_string@GU?$char_traits@G@std@@V?$allocator@G@2@@std@@QAE@XZ
__unwindfunclet$?HkFMsgEncodeMsg@@YA?AW4HK_ERROR@@ABV?$basic_string@GU?$char_traits@G@std@@V?$allocator@G@2@@std@@PADIAAI@Z$3:
	lea	ecx, DWORD PTR $T154094[ebp]
	jmp	DWORD PTR __imp_??1?$basic_string@GU?$char_traits@G@std@@V?$allocator@G@2@@std@@QAE@XZ
__unwindfunclet$?HkFMsgEncodeMsg@@YA?AW4HK_ERROR@@ABV?$basic_string@GU?$char_traits@G@std@@V?$allocator@G@2@@std@@PADIAAI@Z$4:
	lea	ecx, DWORD PTR $T154095[ebp]
	jmp	DWORD PTR __imp_??1?$basic_string@GU?$char_traits@G@std@@V?$allocator@G@2@@std@@QAE@XZ
__ehhandler$?HkFMsgEncodeMsg@@YA?AW4HK_ERROR@@ABV?$basic_string@GU?$char_traits@G@std@@V?$allocator@G@2@@std@@PADIAAI@Z:
	mov	edx, DWORD PTR [esp+8]
	lea	eax, DWORD PTR [edx+12]
	mov	ecx, DWORD PTR [edx-5296]
	xor	ecx, eax
	call	@__security_check_cookie@4
	mov	ecx, DWORD PTR [edx-4]
	xor	ecx, eax
	call	@__security_check_cookie@4
	mov	eax, OFFSET __ehfuncinfo$?HkFMsgEncodeMsg@@YA?AW4HK_ERROR@@ABV?$basic_string@GU?$char_traits@G@std@@V?$allocator@G@2@@std@@PADIAAI@Z
	jmp	___CxxFrameHandler3
text$x	ENDS
?HkFMsgEncodeMsg@@YA?AW4HK_ERROR@@ABV?$basic_string@GU?$char_traits@G@std@@V?$allocator@G@2@@std@@PADIAAI@Z ENDP ; HkFMsgEncodeMsg
PUBLIC	?ToInt@@YAHABV?$basic_string@DU?$char_traits@D@std@@V?$allocator@D@2@@std@@@Z ; ToInt
EXTRN	__imp__atoi:PROC
; Function compile flags: /Odtp
_TEXT	SEGMENT
_scStr$ = 8						; size = 4
?ToInt@@YAHABV?$basic_string@DU?$char_traits@D@std@@V?$allocator@D@2@@std@@@Z PROC ; ToInt
; Line 263
	push	ebp
	mov	ebp, esp
; Line 264
	mov	ecx, DWORD PTR _scStr$[ebp]
	call	DWORD PTR __imp_?c_str@?$basic_string@DU?$char_traits@D@std@@V?$allocator@D@2@@std@@QBEPBDXZ
	push	eax
	call	DWORD PTR __imp__atoi
	add	esp, 4
; Line 265
	pop	ebp
	ret	0
?ToInt@@YAHABV?$basic_string@DU?$char_traits@D@std@@V?$allocator@D@2@@std@@@Z ENDP ; ToInt
_TEXT	ENDS
PUBLIC	?ToUInt@@YAIABV?$basic_string@GU?$char_traits@G@std@@V?$allocator@G@2@@std@@@Z ; ToUInt
EXTRN	__imp__wcstoul:PROC
; Function compile flags: /Odtp
_TEXT	SEGMENT
_wscStr$ = 8						; size = 4
?ToUInt@@YAIABV?$basic_string@GU?$char_traits@G@std@@V?$allocator@G@2@@std@@@Z PROC ; ToUInt
; Line 268
	push	ebp
	mov	ebp, esp
; Line 269
	push	10					; 0000000aH
	push	0
	mov	ecx, DWORD PTR _wscStr$[ebp]
	call	DWORD PTR __imp_?c_str@?$basic_string@GU?$char_traits@G@std@@V?$allocator@G@2@@std@@QBEPBGXZ
	push	eax
	call	DWORD PTR __imp__wcstoul
	add	esp, 12					; 0000000cH
; Line 270
	pop	ebp
	ret	0
?ToUInt@@YAIABV?$basic_string@GU?$char_traits@G@std@@V?$allocator@G@2@@std@@@Z ENDP ; ToUInt
_TEXT	ENDS
PUBLIC	__$ArrayPad$
PUBLIC	?itohexs@@YA?AV?$basic_string@DU?$char_traits@D@std@@V?$allocator@D@2@@std@@I@Z ; itohexs
EXTRN	__imp__sprintf:PROC
xdata$x	SEGMENT
__unwindtable$?itohexs@@YA?AV?$basic_string@DU?$char_traits@D@std@@V?$allocator@D@2@@std@@I@Z DD 0ffffffffH
	DD	FLAT:__unwindfunclet$?itohexs@@YA?AV?$basic_string@DU?$char_traits@D@std@@V?$allocator@D@2@@std@@I@Z$0
__ehfuncinfo$?itohexs@@YA?AV?$basic_string@DU?$char_traits@D@std@@V?$allocator@D@2@@std@@I@Z DD 019930522H
	DD	01H
	DD	FLAT:__unwindtable$?itohexs@@YA?AV?$basic_string@DU?$char_traits@D@std@@V?$allocator@D@2@@std@@I@Z
	DD	2 DUP(00H)
	DD	2 DUP(00H)
	DD	00H
	DD	00H
; Function compile flags: /Odtp
xdata$x	ENDS
_TEXT	SEGMENT
$T154113 = -36						; size = 4
_buf$ = -32						; size = 16
__$ArrayPad$ = -16					; size = 4
__$EHRec$ = -12						; size = 12
___$ReturnUdt$ = 8					; size = 4
_value$ = 12						; size = 4
?itohexs@@YA?AV?$basic_string@DU?$char_traits@D@std@@V?$allocator@D@2@@std@@I@Z PROC ; itohexs
; Line 273
	push	ebp
	mov	ebp, esp
	push	-1
	push	__ehhandler$?itohexs@@YA?AV?$basic_string@DU?$char_traits@D@std@@V?$allocator@D@2@@std@@I@Z
	mov	eax, DWORD PTR fs:0
	push	eax
	sub	esp, 24					; 00000018H
	mov	eax, DWORD PTR ___security_cookie
	xor	eax, ebp
	mov	DWORD PTR __$ArrayPad$[ebp], eax
	push	eax
	lea	eax, DWORD PTR __$EHRec$[ebp]
	mov	DWORD PTR fs:0, eax
	mov	DWORD PTR $T154113[ebp], 0
; Line 275
	mov	eax, DWORD PTR _value$[ebp]
	push	eax
	push	OFFSET $SG142804
	lea	ecx, DWORD PTR _buf$[ebp]
	push	ecx
	call	DWORD PTR __imp__sprintf
	add	esp, 12					; 0000000cH
; Line 276
	lea	edx, DWORD PTR _buf$[ebp]
	push	edx
	mov	ecx, DWORD PTR ___$ReturnUdt$[ebp]
	call	DWORD PTR __imp_??0?$basic_string@DU?$char_traits@D@std@@V?$allocator@D@2@@std@@QAE@PBD@Z
	mov	DWORD PTR __$EHRec$[ebp+8], 0
	mov	eax, DWORD PTR $T154113[ebp]
	or	eax, 1
	mov	DWORD PTR $T154113[ebp], eax
	mov	eax, DWORD PTR ___$ReturnUdt$[ebp]
; Line 277
	mov	ecx, DWORD PTR __$EHRec$[ebp]
	mov	DWORD PTR fs:0, ecx
	pop	ecx
	mov	ecx, DWORD PTR __$ArrayPad$[ebp]
	xor	ecx, ebp
	call	@__security_check_cookie@4
	mov	esp, ebp
	pop	ebp
	ret	0
_TEXT	ENDS
text$x	SEGMENT
__unwindfunclet$?itohexs@@YA?AV?$basic_string@DU?$char_traits@D@std@@V?$allocator@D@2@@std@@I@Z$0:
	mov	eax, DWORD PTR $T154113[ebp]
	and	eax, 1
	je	$LN4@itohexs
	and	DWORD PTR $T154113[ebp], -2		; fffffffeH
	mov	ecx, DWORD PTR ___$ReturnUdt$[ebp]
	jmp	DWORD PTR __imp_??1?$basic_string@DU?$char_traits@D@std@@V?$allocator@D@2@@std@@QAE@XZ
$LN4@itohexs:
	ret	0
__ehhandler$?itohexs@@YA?AV?$basic_string@DU?$char_traits@D@std@@V?$allocator@D@2@@std@@I@Z:
	mov	edx, DWORD PTR [esp+8]
	lea	eax, DWORD PTR [edx+12]
	mov	ecx, DWORD PTR [edx-28]
	xor	ecx, eax
	call	@__security_check_cookie@4
	mov	ecx, DWORD PTR [edx-4]
	xor	ecx, eax
	call	@__security_check_cookie@4
	mov	eax, OFFSET __ehfuncinfo$?itohexs@@YA?AV?$basic_string@DU?$char_traits@D@std@@V?$allocator@D@2@@std@@I@Z
	jmp	___CxxFrameHandler3
text$x	ENDS
?itohexs@@YA?AV?$basic_string@DU?$char_traits@D@std@@V?$allocator@D@2@@std@@I@Z ENDP ; itohexs
PUBLIC	?PrintLocalUserCmdText@@YAXIABV?$basic_string@GU?$char_traits@G@std@@V?$allocator@G@2@@std@@M@Z ; PrintLocalUserCmdText
EXTRN	__imp_?PrintUserCmdText@@YAXIV?$basic_string@GU?$char_traits@G@std@@V?$allocator@G@2@@std@@ZZ:PROC
EXTRN	__imp_?HkGetClientIdFromPD@@YAIPAUPlayerData@@@Z:PROC
EXTRN	__imp_?traverse_active@PlayerDB@@QBEPAUPlayerData@@PAU2@@Z:PROC
EXTRN	__imp_?Players@@3VPlayerDB@@A:BYTE
EXTRN	__imp_?GetLocation@SpaceObj@pub@@YAHIAAVVector@@AAVMatrix@@@Z:PROC
xdata$x	SEGMENT
__unwindtable$?PrintLocalUserCmdText@@YAXIABV?$basic_string@GU?$char_traits@G@std@@V?$allocator@G@2@@std@@M@Z DD 0ffffffffH
	DD	FLAT:__unwindfunclet$?PrintLocalUserCmdText@@YAXIABV?$basic_string@GU?$char_traits@G@std@@V?$allocator@G@2@@std@@M@Z$0
__ehfuncinfo$?PrintLocalUserCmdText@@YAXIABV?$basic_string@GU?$char_traits@G@std@@V?$allocator@G@2@@std@@M@Z DD 019930522H
	DD	01H
	DD	FLAT:__unwindtable$?PrintLocalUserCmdText@@YAXIABV?$basic_string@GU?$char_traits@G@std@@V?$allocator@G@2@@std@@M@Z
	DD	2 DUP(00H)
	DD	2 DUP(00H)
	DD	00H
	DD	00H
; Function compile flags: /Odtp
xdata$x	ENDS
_TEXT	SEGMENT
tv143 = -144						; size = 4
tv144 = -140						; size = 4
$T154120 = -136						; size = 4
_rot2$142823 = -132					; size = 36
_iClientID2$142818 = -96				; size = 4
_iShip2$142821 = -92					; size = 4
_iSystem2$142819 = -88					; size = 4
_pos2$142822 = -84					; size = 12
_pos$ = -72						; size = 12
_pPD$ = -60						; size = 4
_rot$ = -56						; size = 36
_iShip$ = -20						; size = 4
_iSystem$ = -16						; size = 4
__$EHRec$ = -12						; size = 12
_iClientID$ = 8						; size = 4
_wscMsg$ = 12						; size = 4
_fDistance$ = 16					; size = 4
?PrintLocalUserCmdText@@YAXIABV?$basic_string@GU?$char_traits@G@std@@V?$allocator@G@2@@std@@M@Z PROC ; PrintLocalUserCmdText
; Line 281
	push	ebp
	mov	ebp, esp
	push	-1
	push	__ehhandler$?PrintLocalUserCmdText@@YAXIABV?$basic_string@GU?$char_traits@G@std@@V?$allocator@G@2@@std@@M@Z
	mov	eax, DWORD PTR fs:0
	push	eax
	sub	esp, 132				; 00000084H
	mov	eax, DWORD PTR ___security_cookie
	xor	eax, ebp
	push	eax
	lea	eax, DWORD PTR __$EHRec$[ebp]
	mov	DWORD PTR fs:0, eax
; Line 283
	lea	eax, DWORD PTR _iShip$[ebp]
	push	eax
	lea	ecx, DWORD PTR _iClientID$[ebp]
	push	ecx
	call	DWORD PTR __imp_?GetShip@Player@pub@@YAHABIAAI@Z
	add	esp, 8
; Line 287
	lea	edx, DWORD PTR _rot$[ebp]
	push	edx
	lea	eax, DWORD PTR _pos$[ebp]
	push	eax
	mov	ecx, DWORD PTR _iShip$[ebp]
	push	ecx
	call	DWORD PTR __imp_?GetLocation@SpaceObj@pub@@YAHIAAVVector@@AAVMatrix@@@Z
	add	esp, 12					; 0000000cH
; Line 290
	lea	edx, DWORD PTR _iSystem$[ebp]
	push	edx
	lea	eax, DWORD PTR _iClientID$[ebp]
	push	eax
	call	DWORD PTR __imp_?GetSystem@Player@pub@@YAHABIAAI@Z
	add	esp, 8
; Line 293
	mov	DWORD PTR _pPD$[ebp], 0
$LN9@PrintLocal:
; Line 294
	mov	ecx, DWORD PTR _pPD$[ebp]
	push	ecx
	mov	ecx, DWORD PTR __imp_?Players@@3VPlayerDB@@A
	call	DWORD PTR __imp_?traverse_active@PlayerDB@@QBEPAUPlayerData@@PAU2@@Z
	mov	DWORD PTR _pPD$[ebp], eax
	cmp	DWORD PTR _pPD$[ebp], 0
	je	$LN3@PrintLocal
; Line 297
	mov	edx, DWORD PTR _pPD$[ebp]
	push	edx
	call	DWORD PTR __imp_?HkGetClientIdFromPD@@YAIPAUPlayerData@@@Z
	add	esp, 4
	mov	DWORD PTR _iClientID2$142818[ebp], eax
; Line 298
	mov	DWORD PTR _iSystem2$142819[ebp], 0
; Line 299
	lea	eax, DWORD PTR _iSystem2$142819[ebp]
	push	eax
	lea	ecx, DWORD PTR _iClientID2$142818[ebp]
	push	ecx
	call	DWORD PTR __imp_?GetSystem@Player@pub@@YAHABIAAI@Z
	add	esp, 8
; Line 300
	mov	edx, DWORD PTR _iSystem$[ebp]
	cmp	edx, DWORD PTR _iSystem2$142819[ebp]
	je	SHORT $LN2@PrintLocal
; Line 301
	jmp	SHORT $LN9@PrintLocal
$LN2@PrintLocal:
; Line 304
	lea	eax, DWORD PTR _iShip2$142821[ebp]
	push	eax
	lea	ecx, DWORD PTR _iClientID2$142818[ebp]
	push	ecx
	call	DWORD PTR __imp_?GetShip@Player@pub@@YAHABIAAI@Z
	add	esp, 8
; Line 308
	lea	edx, DWORD PTR _rot2$142823[ebp]
	push	edx
	lea	eax, DWORD PTR _pos2$142822[ebp]
	push	eax
	mov	ecx, DWORD PTR _iShip2$142821[ebp]
	push	ecx
	call	DWORD PTR __imp_?GetLocation@SpaceObj@pub@@YAHIAAVVector@@AAVMatrix@@@Z
; Line 311
	mov	edx, esp
	mov	eax, DWORD PTR _pos2$142822[ebp]
	mov	DWORD PTR [edx], eax
	mov	ecx, DWORD PTR _pos2$142822[ebp+4]
	mov	DWORD PTR [edx+4], ecx
	mov	eax, DWORD PTR _pos2$142822[ebp+8]
	mov	DWORD PTR [edx+8], eax
	sub	esp, 12					; 0000000cH
	mov	ecx, esp
	mov	edx, DWORD PTR _pos$[ebp]
	mov	DWORD PTR [ecx], edx
	mov	eax, DWORD PTR _pos$[ebp+4]
	mov	DWORD PTR [ecx+4], eax
	mov	edx, DWORD PTR _pos$[ebp+8]
	mov	DWORD PTR [ecx+8], edx
	call	?HkDistance3D@@YAMVVector@@0@Z		; HkDistance3D
	add	esp, 24					; 00000018H
	fld	DWORD PTR _fDistance$[ebp]
	fcompp
	fnstsw	ax
	test	ah, 5
	jp	SHORT $LN1@PrintLocal
; Line 312
	jmp	$LN9@PrintLocal
$LN1@PrintLocal:
; Line 314
	mov	ecx, DWORD PTR _wscMsg$[ebp]
	call	DWORD PTR __imp_?c_str@?$basic_string@GU?$char_traits@G@std@@V?$allocator@G@2@@std@@QBEPBGXZ
	push	eax
	sub	esp, 28					; 0000001cH
	mov	ecx, esp
	mov	DWORD PTR $T154120[ebp], esp
	push	OFFSET $SG142826
	call	DWORD PTR __imp_??0?$basic_string@GU?$char_traits@G@std@@V?$allocator@G@2@@std@@QAE@PBG@Z
	mov	DWORD PTR tv144[ebp], eax
	mov	eax, DWORD PTR tv144[ebp]
	mov	DWORD PTR tv143[ebp], eax
	mov	DWORD PTR __$EHRec$[ebp+8], 0
	mov	ecx, DWORD PTR _iClientID2$142818[ebp]
	push	ecx
	mov	DWORD PTR __$EHRec$[ebp+8], -1
	call	DWORD PTR __imp_?PrintUserCmdText@@YAXIV?$basic_string@GU?$char_traits@G@std@@V?$allocator@G@2@@std@@ZZ
	add	esp, 36					; 00000024H
; Line 315
	jmp	$LN9@PrintLocal
$LN3@PrintLocal:
; Line 316
	mov	ecx, DWORD PTR __$EHRec$[ebp]
	mov	DWORD PTR fs:0, ecx
	pop	ecx
	mov	esp, ebp
	pop	ebp
	ret	0
_TEXT	ENDS
text$x	SEGMENT
__unwindfunclet$?PrintLocalUserCmdText@@YAXIABV?$basic_string@GU?$char_traits@G@std@@V?$allocator@G@2@@std@@M@Z$0:
	mov	ecx, DWORD PTR $T154120[ebp]
	jmp	DWORD PTR __imp_??1?$basic_string@GU?$char_traits@G@std@@V?$allocator@G@2@@std@@QAE@XZ
__ehhandler$?PrintLocalUserCmdText@@YAXIABV?$basic_string@GU?$char_traits@G@std@@V?$allocator@G@2@@std@@M@Z:
	mov	edx, DWORD PTR [esp+8]
	lea	eax, DWORD PTR [edx+12]
	mov	ecx, DWORD PTR [edx-136]
	xor	ecx, eax
	call	@__security_check_cookie@4
	mov	eax, OFFSET __ehfuncinfo$?PrintLocalUserCmdText@@YAXIABV?$basic_string@GU?$char_traits@G@std@@V?$allocator@G@2@@std@@M@Z
	jmp	___CxxFrameHandler3
text$x	ENDS
?PrintLocalUserCmdText@@YAXIABV?$basic_string@GU?$char_traits@G@std@@V?$allocator@G@2@@std@@M@Z ENDP ; PrintLocalUserCmdText
PUBLIC	??1?$list@UGROUP_MEMBER@@V?$allocator@UGROUP_MEMBER@@@std@@@std@@QAE@XZ ; std::list<GROUP_MEMBER,std::allocator<GROUP_MEMBER> >::~list<GROUP_MEMBER,std::allocator<GROUP_MEMBER> >
PUBLIC	??C?$_Iterator@$00@?$list@UGROUP_MEMBER@@V?$allocator@UGROUP_MEMBER@@@std@@@std@@QBEPAUGROUP_MEMBER@@XZ ; std::list<GROUP_MEMBER,std::allocator<GROUP_MEMBER> >::_Iterator<1>::operator->
PUBLIC	??9?$_Const_iterator@$00@?$list@UGROUP_MEMBER@@V?$allocator@UGROUP_MEMBER@@@std@@@std@@QBE_NABV012@@Z ; std::list<GROUP_MEMBER,std::allocator<GROUP_MEMBER> >::_Const_iterator<1>::operator!=
PUBLIC	?end@?$list@UGROUP_MEMBER@@V?$allocator@UGROUP_MEMBER@@@std@@@std@@QAE?AV?$_Iterator@$00@12@XZ ; std::list<GROUP_MEMBER,std::allocator<GROUP_MEMBER> >::end
PUBLIC	??E?$_Iterator@$00@?$list@UGROUP_MEMBER@@V?$allocator@UGROUP_MEMBER@@@std@@@std@@QAE?AV012@H@Z ; std::list<GROUP_MEMBER,std::allocator<GROUP_MEMBER> >::_Iterator<1>::operator++
PUBLIC	?begin@?$list@UGROUP_MEMBER@@V?$allocator@UGROUP_MEMBER@@@std@@@std@@QAE?AV?$_Iterator@$00@12@XZ ; std::list<GROUP_MEMBER,std::allocator<GROUP_MEMBER> >::begin
PUBLIC	??0?$list@UGROUP_MEMBER@@V?$allocator@UGROUP_MEMBER@@@std@@@std@@QAE@XZ ; std::list<GROUP_MEMBER,std::allocator<GROUP_MEMBER> >::list<GROUP_MEMBER,std::allocator<GROUP_MEMBER> >
PUBLIC	?IsInRange@@YA_NIM@Z				; IsInRange
EXTRN	__imp_?HkGetGroupMembers@@YA?AW4HK_ERROR@@ABV?$basic_string@GU?$char_traits@G@std@@V?$allocator@G@2@@std@@AAV?$list@UGROUP_MEMBER@@V?$allocator@UGROUP_MEMBER@@@std@@@3@@Z:PROC
EXTRN	__imp_?GetActiveCharacterName@PlayerDB@@QBEPBGI@Z:PROC
xdata$x	SEGMENT
__unwindtable$?IsInRange@@YA_NIM@Z DD 0ffffffffH
	DD	FLAT:__unwindfunclet$?IsInRange@@YA_NIM@Z$0
	DD	00H
	DD	FLAT:__unwindfunclet$?IsInRange@@YA_NIM@Z$1
__ehfuncinfo$?IsInRange@@YA_NIM@Z DD 019930522H
	DD	02H
	DD	FLAT:__unwindtable$?IsInRange@@YA_NIM@Z
	DD	2 DUP(00H)
	DD	2 DUP(00H)
	DD	00H
	DD	00H
; Function compile flags: /Odtp
xdata$x	ENDS
_TEXT	SEGMENT
$T154133 = -218						; size = 1
$T154132 = -217						; size = 1
$T154131 = -216						; size = 8
$T154130 = -208						; size = 8
$T154129 = -200						; size = 28
_gm$143507 = -172					; size = 8
_rot2$143366 = -164					; size = 36
_bGrouped$143367 = -125					; size = 1
_iClientID2$143361 = -124				; size = 4
_iShip2$143364 = -120					; size = 4
_iSystem2$143362 = -116					; size = 4
_pos2$143365 = -112					; size = 12
_pos$ = -100						; size = 12
_lstMembers$ = -88					; size = 28
_pPD$ = -60						; size = 4
_rot$ = -56						; size = 36
_iShip$ = -20						; size = 4
_iSystem$ = -16						; size = 4
__$EHRec$ = -12						; size = 12
_iClientID$ = 8						; size = 4
_fDistance$ = 12					; size = 4
?IsInRange@@YA_NIM@Z PROC				; IsInRange
; Line 321
	push	ebp
	mov	ebp, esp
	push	-1
	push	__ehhandler$?IsInRange@@YA_NIM@Z
	mov	eax, DWORD PTR fs:0
	push	eax
	sub	esp, 208				; 000000d0H
	mov	eax, DWORD PTR ___security_cookie
	xor	eax, ebp
	push	eax
	lea	eax, DWORD PTR __$EHRec$[ebp]
	mov	DWORD PTR fs:0, eax
; Line 322
	lea	ecx, DWORD PTR _lstMembers$[ebp]
	call	??0?$list@UGROUP_MEMBER@@V?$allocator@UGROUP_MEMBER@@@std@@@std@@QAE@XZ ; std::list<GROUP_MEMBER,std::allocator<GROUP_MEMBER> >::list<GROUP_MEMBER,std::allocator<GROUP_MEMBER> >
	mov	DWORD PTR __$EHRec$[ebp+8], 0
; Line 323
	mov	eax, DWORD PTR _iClientID$[ebp]
	push	eax
	mov	ecx, DWORD PTR __imp_?Players@@3VPlayerDB@@A
	call	DWORD PTR __imp_?GetActiveCharacterName@PlayerDB@@QBEPBGI@Z
	push	eax
	lea	ecx, DWORD PTR $T154129[ebp]
	call	DWORD PTR __imp_??0?$basic_string@GU?$char_traits@G@std@@V?$allocator@G@2@@std@@QAE@PBG@Z
	mov	BYTE PTR __$EHRec$[ebp+8], 1
	lea	ecx, DWORD PTR _lstMembers$[ebp]
	push	ecx
	lea	edx, DWORD PTR $T154129[ebp]
	push	edx
	call	DWORD PTR __imp_?HkGetGroupMembers@@YA?AW4HK_ERROR@@ABV?$basic_string@GU?$char_traits@G@std@@V?$allocator@G@2@@std@@AAV?$list@UGROUP_MEMBER@@V?$allocator@UGROUP_MEMBER@@@std@@@3@@Z
	add	esp, 8
	mov	BYTE PTR __$EHRec$[ebp+8], 0
	lea	ecx, DWORD PTR $T154129[ebp]
	call	DWORD PTR __imp_??1?$basic_string@GU?$char_traits@G@std@@V?$allocator@G@2@@std@@QAE@XZ
; Line 326
	lea	eax, DWORD PTR _iShip$[ebp]
	push	eax
	lea	ecx, DWORD PTR _iClientID$[ebp]
	push	ecx
	call	DWORD PTR __imp_?GetShip@Player@pub@@YAHABIAAI@Z
	add	esp, 8
; Line 330
	lea	edx, DWORD PTR _rot$[ebp]
	push	edx
	lea	eax, DWORD PTR _pos$[ebp]
	push	eax
	mov	ecx, DWORD PTR _iShip$[ebp]
	push	ecx
	call	DWORD PTR __imp_?GetLocation@SpaceObj@pub@@YAHIAAVVector@@AAVMatrix@@@Z
	add	esp, 12					; 0000000cH
; Line 333
	lea	edx, DWORD PTR _iSystem$[ebp]
	push	edx
	lea	eax, DWORD PTR _iClientID$[ebp]
	push	eax
	call	DWORD PTR __imp_?GetSystem@Player@pub@@YAHABIAAI@Z
	add	esp, 8
; Line 336
	mov	DWORD PTR _pPD$[ebp], 0
$LN15@IsInRange:
; Line 337
	mov	ecx, DWORD PTR _pPD$[ebp]
	push	ecx
	mov	ecx, DWORD PTR __imp_?Players@@3VPlayerDB@@A
	call	DWORD PTR __imp_?traverse_active@PlayerDB@@QBEPAUPlayerData@@PAU2@@Z
	mov	DWORD PTR _pPD$[ebp], eax
	cmp	DWORD PTR _pPD$[ebp], 0
	je	$LN8@IsInRange
; Line 340
	mov	edx, DWORD PTR _pPD$[ebp]
	push	edx
	call	DWORD PTR __imp_?HkGetClientIdFromPD@@YAIPAUPlayerData@@@Z
	add	esp, 4
	mov	DWORD PTR _iClientID2$143361[ebp], eax
; Line 341
	mov	DWORD PTR _iSystem2$143362[ebp], 0
; Line 342
	lea	eax, DWORD PTR _iSystem2$143362[ebp]
	push	eax
	lea	ecx, DWORD PTR _iClientID2$143361[ebp]
	push	ecx
	call	DWORD PTR __imp_?GetSystem@Player@pub@@YAHABIAAI@Z
	add	esp, 8
; Line 343
	mov	edx, DWORD PTR _iSystem$[ebp]
	cmp	edx, DWORD PTR _iSystem2$143362[ebp]
	je	SHORT $LN7@IsInRange
; Line 344
	jmp	SHORT $LN15@IsInRange
$LN7@IsInRange:
; Line 347
	lea	eax, DWORD PTR _iShip2$143364[ebp]
	push	eax
	lea	ecx, DWORD PTR _iClientID2$143361[ebp]
	push	ecx
	call	DWORD PTR __imp_?GetShip@Player@pub@@YAHABIAAI@Z
	add	esp, 8
; Line 351
	lea	edx, DWORD PTR _rot2$143366[ebp]
	push	edx
	lea	eax, DWORD PTR _pos2$143365[ebp]
	push	eax
	mov	ecx, DWORD PTR _iShip2$143364[ebp]
	push	ecx
	call	DWORD PTR __imp_?GetLocation@SpaceObj@pub@@YAHIAAVVector@@AAVMatrix@@@Z
	add	esp, 12					; 0000000cH
; Line 354
	mov	BYTE PTR _bGrouped$143367[ebp], 0
; Line 355
	lea	edx, DWORD PTR _gm$143507[ebp]
	push	edx
	lea	ecx, DWORD PTR _lstMembers$[ebp]
	call	?begin@?$list@UGROUP_MEMBER@@V?$allocator@UGROUP_MEMBER@@@std@@@std@@QAE?AV?$_Iterator@$00@12@XZ ; std::list<GROUP_MEMBER,std::allocator<GROUP_MEMBER> >::begin
	jmp	SHORT $LN6@IsInRange
$LN5@IsInRange:
	push	0
	lea	eax, DWORD PTR $T154130[ebp]
	push	eax
	lea	ecx, DWORD PTR _gm$143507[ebp]
	call	??E?$_Iterator@$00@?$list@UGROUP_MEMBER@@V?$allocator@UGROUP_MEMBER@@@std@@@std@@QAE?AV012@H@Z ; std::list<GROUP_MEMBER,std::allocator<GROUP_MEMBER> >::_Iterator<1>::operator++
$LN6@IsInRange:
	lea	ecx, DWORD PTR $T154131[ebp]
	push	ecx
	lea	ecx, DWORD PTR _lstMembers$[ebp]
	call	?end@?$list@UGROUP_MEMBER@@V?$allocator@UGROUP_MEMBER@@@std@@@std@@QAE?AV?$_Iterator@$00@12@XZ ; std::list<GROUP_MEMBER,std::allocator<GROUP_MEMBER> >::end
	push	eax
	lea	ecx, DWORD PTR _gm$143507[ebp]
	call	??9?$_Const_iterator@$00@?$list@UGROUP_MEMBER@@V?$allocator@UGROUP_MEMBER@@@std@@@std@@QBE_NABV012@@Z ; std::list<GROUP_MEMBER,std::allocator<GROUP_MEMBER> >::_Const_iterator<1>::operator!=
	movzx	edx, al
	test	edx, edx
	je	SHORT $LN4@IsInRange
; Line 357
	lea	ecx, DWORD PTR _gm$143507[ebp]
	call	??C?$_Iterator@$00@?$list@UGROUP_MEMBER@@V?$allocator@UGROUP_MEMBER@@@std@@@std@@QBEPAUGROUP_MEMBER@@XZ ; std::list<GROUP_MEMBER,std::allocator<GROUP_MEMBER> >::_Iterator<1>::operator->
	mov	eax, DWORD PTR [eax]
	cmp	eax, DWORD PTR _iClientID2$143361[ebp]
	jne	SHORT $LN3@IsInRange
; Line 359
	mov	BYTE PTR _bGrouped$143367[ebp], 1
; Line 360
	jmp	SHORT $LN4@IsInRange
$LN3@IsInRange:
; Line 362
	jmp	SHORT $LN5@IsInRange
$LN4@IsInRange:
; Line 363
	movzx	ecx, BYTE PTR _bGrouped$143367[ebp]
	test	ecx, ecx
	je	SHORT $LN2@IsInRange
; Line 364
	jmp	$LN15@IsInRange
$LN2@IsInRange:
; Line 367
	sub	esp, 12					; 0000000cH
	mov	edx, esp
	mov	eax, DWORD PTR _pos2$143365[ebp]
	mov	DWORD PTR [edx], eax
	mov	ecx, DWORD PTR _pos2$143365[ebp+4]
	mov	DWORD PTR [edx+4], ecx
	mov	eax, DWORD PTR _pos2$143365[ebp+8]
	mov	DWORD PTR [edx+8], eax
	sub	esp, 12					; 0000000cH
	mov	ecx, esp
	mov	edx, DWORD PTR _pos$[ebp]
	mov	DWORD PTR [ecx], edx
	mov	eax, DWORD PTR _pos$[ebp+4]
	mov	DWORD PTR [ecx+4], eax
	mov	edx, DWORD PTR _pos$[ebp+8]
	mov	DWORD PTR [ecx+8], edx
	call	?HkDistance3D@@YAMVVector@@0@Z		; HkDistance3D
	add	esp, 24					; 00000018H
	fld	DWORD PTR _fDistance$[ebp]
	fcompp
	fnstsw	ax
	test	ah, 65					; 00000041H
	jne	SHORT $LN1@IsInRange
; Line 368
	mov	BYTE PTR $T154132[ebp], 1
	mov	DWORD PTR __$EHRec$[ebp+8], -1
	lea	ecx, DWORD PTR _lstMembers$[ebp]
	call	??1?$list@UGROUP_MEMBER@@V?$allocator@UGROUP_MEMBER@@@std@@@std@@QAE@XZ ; std::list<GROUP_MEMBER,std::allocator<GROUP_MEMBER> >::~list<GROUP_MEMBER,std::allocator<GROUP_MEMBER> >
	mov	al, BYTE PTR $T154132[ebp]
	jmp	SHORT $LN10@IsInRange
$LN1@IsInRange:
; Line 369
	jmp	$LN15@IsInRange
$LN8@IsInRange:
; Line 370
	mov	BYTE PTR $T154133[ebp], 0
	mov	DWORD PTR __$EHRec$[ebp+8], -1
	lea	ecx, DWORD PTR _lstMembers$[ebp]
	call	??1?$list@UGROUP_MEMBER@@V?$allocator@UGROUP_MEMBER@@@std@@@std@@QAE@XZ ; std::list<GROUP_MEMBER,std::allocator<GROUP_MEMBER> >::~list<GROUP_MEMBER,std::allocator<GROUP_MEMBER> >
	mov	al, BYTE PTR $T154133[ebp]
$LN10@IsInRange:
; Line 371
	mov	ecx, DWORD PTR __$EHRec$[ebp]
	mov	DWORD PTR fs:0, ecx
	pop	ecx
	mov	esp, ebp
	pop	ebp
	ret	0
_TEXT	ENDS
text$x	SEGMENT
__unwindfunclet$?IsInRange@@YA_NIM@Z$0:
	lea	ecx, DWORD PTR _lstMembers$[ebp]
	jmp	??1?$list@UGROUP_MEMBER@@V?$allocator@UGROUP_MEMBER@@@std@@@std@@QAE@XZ ; std::list<GROUP_MEMBER,std::allocator<GROUP_MEMBER> >::~list<GROUP_MEMBER,std::allocator<GROUP_MEMBER> >
__unwindfunclet$?IsInRange@@YA_NIM@Z$1:
	lea	ecx, DWORD PTR $T154129[ebp]
	jmp	DWORD PTR __imp_??1?$basic_string@GU?$char_traits@G@std@@V?$allocator@G@2@@std@@QAE@XZ
__ehhandler$?IsInRange@@YA_NIM@Z:
	mov	edx, DWORD PTR [esp+8]
	lea	eax, DWORD PTR [edx+12]
	mov	ecx, DWORD PTR [edx-212]
	xor	ecx, eax
	call	@__security_check_cookie@4
	mov	eax, OFFSET __ehfuncinfo$?IsInRange@@YA_NIM@Z
	jmp	___CxxFrameHandler3
text$x	ENDS
?IsInRange@@YA_NIM@Z ENDP				; IsInRange
PUBLIC	?Trim@@YA?AV?$basic_string@GU?$char_traits@G@std@@V?$allocator@G@2@@std@@V12@@Z ; Trim
EXTRN	__imp_??0?$basic_string@GU?$char_traits@G@std@@V?$allocator@G@2@@std@@QAE@ABV01@@Z:PROC
EXTRN	__imp_??A?$basic_string@GU?$char_traits@G@std@@V?$allocator@G@2@@std@@QAEAAGI@Z:PROC
xdata$x	SEGMENT
__unwindtable$?Trim@@YA?AV?$basic_string@GU?$char_traits@G@std@@V?$allocator@G@2@@std@@V12@@Z DD 0ffffffffH
	DD	FLAT:__unwindfunclet$?Trim@@YA?AV?$basic_string@GU?$char_traits@G@std@@V?$allocator@G@2@@std@@V12@@Z$3
	DD	00H
	DD	FLAT:__unwindfunclet$?Trim@@YA?AV?$basic_string@GU?$char_traits@G@std@@V?$allocator@G@2@@std@@V12@@Z$0
	DD	01H
	DD	FLAT:__unwindfunclet$?Trim@@YA?AV?$basic_string@GU?$char_traits@G@std@@V?$allocator@G@2@@std@@V12@@Z$1
	DD	01H
	DD	FLAT:__unwindfunclet$?Trim@@YA?AV?$basic_string@GU?$char_traits@G@std@@V?$allocator@G@2@@std@@V12@@Z$2
__ehfuncinfo$?Trim@@YA?AV?$basic_string@GU?$char_traits@G@std@@V?$allocator@G@2@@std@@V12@@Z DD 019930522H
	DD	04H
	DD	FLAT:__unwindtable$?Trim@@YA?AV?$basic_string@GU?$char_traits@G@std@@V?$allocator@G@2@@std@@V12@@Z
	DD	2 DUP(00H)
	DD	2 DUP(00H)
	DD	00H
	DD	00H
; Function compile flags: /Odtp
xdata$x	ENDS
_TEXT	SEGMENT
tv184 = -92						; size = 4
tv191 = -88						; size = 4
tv182 = -84						; size = 4
tv190 = -80						; size = 4
$T154150 = -76						; size = 4
$T154145 = -72						; size = 28
$T154144 = -44						; size = 28
__$EHRec$ = -12						; size = 12
___$ReturnUdt$ = 8					; size = 4
_wscIn$ = 12						; size = 28
?Trim@@YA?AV?$basic_string@GU?$char_traits@G@std@@V?$allocator@G@2@@std@@V12@@Z PROC ; Trim
; Line 377
	push	ebp
	mov	ebp, esp
	push	-1
	push	__ehhandler$?Trim@@YA?AV?$basic_string@GU?$char_traits@G@std@@V?$allocator@G@2@@std@@V12@@Z
	mov	eax, DWORD PTR fs:0
	push	eax
	sub	esp, 80					; 00000050H
	mov	eax, DWORD PTR ___security_cookie
	xor	eax, ebp
	push	eax
	lea	eax, DWORD PTR __$EHRec$[ebp]
	mov	DWORD PTR fs:0, eax
	mov	DWORD PTR $T154150[ebp], 0
	mov	DWORD PTR __$EHRec$[ebp+8], 1
$LN6@Trim:
; Line 378
	lea	ecx, DWORD PTR _wscIn$[ebp]
	call	DWORD PTR __imp_?length@?$basic_string@GU?$char_traits@G@std@@V?$allocator@G@2@@std@@QBEIXZ
	test	eax, eax
	je	$LN3@Trim
	push	0
	lea	ecx, DWORD PTR _wscIn$[ebp]
	call	DWORD PTR __imp_??A?$basic_string@GU?$char_traits@G@std@@V?$allocator@G@2@@std@@QAEAAGI@Z
	movzx	eax, WORD PTR [eax]
	cmp	eax, 32					; 00000020H
	je	SHORT $LN4@Trim
	push	0
	lea	ecx, DWORD PTR _wscIn$[ebp]
	call	DWORD PTR __imp_??A?$basic_string@GU?$char_traits@G@std@@V?$allocator@G@2@@std@@QAEAAGI@Z
	movzx	ecx, WORD PTR [eax]
	cmp	ecx, 9
	je	SHORT $LN4@Trim
	push	0
	lea	ecx, DWORD PTR _wscIn$[ebp]
	call	DWORD PTR __imp_??A?$basic_string@GU?$char_traits@G@std@@V?$allocator@G@2@@std@@QAEAAGI@Z
	movzx	edx, WORD PTR [eax]
	cmp	edx, 10					; 0000000aH
	je	SHORT $LN4@Trim
	push	0
	lea	ecx, DWORD PTR _wscIn$[ebp]
	call	DWORD PTR __imp_??A?$basic_string@GU?$char_traits@G@std@@V?$allocator@G@2@@std@@QAEAAGI@Z
	movzx	eax, WORD PTR [eax]
	cmp	eax, 13					; 0000000dH
	jne	SHORT $LN3@Trim
$LN4@Trim:
; Line 380
	mov	ecx, DWORD PTR __imp_?npos@?$basic_string@GU?$char_traits@G@std@@V?$allocator@G@2@@std@@2IB
	mov	edx, DWORD PTR [ecx]
	push	edx
	push	1
	lea	eax, DWORD PTR $T154144[ebp]
	push	eax
	lea	ecx, DWORD PTR _wscIn$[ebp]
	call	DWORD PTR __imp_?substr@?$basic_string@GU?$char_traits@G@std@@V?$allocator@G@2@@std@@QBE?AV12@II@Z
	mov	DWORD PTR tv190[ebp], eax
	mov	ecx, DWORD PTR tv190[ebp]
	mov	DWORD PTR tv182[ebp], ecx
	mov	BYTE PTR __$EHRec$[ebp+8], 2
	mov	edx, DWORD PTR tv182[ebp]
	push	edx
	lea	ecx, DWORD PTR _wscIn$[ebp]
	call	DWORD PTR __imp_??4?$basic_string@GU?$char_traits@G@std@@V?$allocator@G@2@@std@@QAEAAV01@ABV01@@Z
	mov	BYTE PTR __$EHRec$[ebp+8], 1
	lea	ecx, DWORD PTR $T154144[ebp]
	call	DWORD PTR __imp_??1?$basic_string@GU?$char_traits@G@std@@V?$allocator@G@2@@std@@QAE@XZ
; Line 381
	jmp	$LN6@Trim
$LN3@Trim:
; Line 382
	lea	ecx, DWORD PTR _wscIn$[ebp]
	call	DWORD PTR __imp_?length@?$basic_string@GU?$char_traits@G@std@@V?$allocator@G@2@@std@@QBEIXZ
	test	eax, eax
	je	$LN2@Trim
	lea	ecx, DWORD PTR _wscIn$[ebp]
	call	DWORD PTR __imp_?length@?$basic_string@GU?$char_traits@G@std@@V?$allocator@G@2@@std@@QBEIXZ
	sub	eax, 1
	push	eax
	lea	ecx, DWORD PTR _wscIn$[ebp]
	call	DWORD PTR __imp_??A?$basic_string@GU?$char_traits@G@std@@V?$allocator@G@2@@std@@QAEAAGI@Z
	movzx	eax, WORD PTR [eax]
	cmp	eax, 32					; 00000020H
	je	SHORT $LN1@Trim
	lea	ecx, DWORD PTR _wscIn$[ebp]
	call	DWORD PTR __imp_?length@?$basic_string@GU?$char_traits@G@std@@V?$allocator@G@2@@std@@QBEIXZ
	sub	eax, 1
	push	eax
	lea	ecx, DWORD PTR _wscIn$[ebp]
	call	DWORD PTR __imp_??A?$basic_string@GU?$char_traits@G@std@@V?$allocator@G@2@@std@@QAEAAGI@Z
	movzx	ecx, WORD PTR [eax]
	cmp	ecx, 9
	je	SHORT $LN1@Trim
	lea	ecx, DWORD PTR _wscIn$[ebp]
	call	DWORD PTR __imp_?length@?$basic_string@GU?$char_traits@G@std@@V?$allocator@G@2@@std@@QBEIXZ
	sub	eax, 1
	push	eax
	lea	ecx, DWORD PTR _wscIn$[ebp]
	call	DWORD PTR __imp_??A?$basic_string@GU?$char_traits@G@std@@V?$allocator@G@2@@std@@QAEAAGI@Z
	movzx	edx, WORD PTR [eax]
	cmp	edx, 10					; 0000000aH
	je	SHORT $LN1@Trim
	lea	ecx, DWORD PTR _wscIn$[ebp]
	call	DWORD PTR __imp_?length@?$basic_string@GU?$char_traits@G@std@@V?$allocator@G@2@@std@@QBEIXZ
	sub	eax, 1
	push	eax
	lea	ecx, DWORD PTR _wscIn$[ebp]
	call	DWORD PTR __imp_??A?$basic_string@GU?$char_traits@G@std@@V?$allocator@G@2@@std@@QAEAAGI@Z
	movzx	eax, WORD PTR [eax]
	cmp	eax, 13					; 0000000dH
	jne	SHORT $LN2@Trim
$LN1@Trim:
; Line 384
	lea	ecx, DWORD PTR _wscIn$[ebp]
	call	DWORD PTR __imp_?length@?$basic_string@GU?$char_traits@G@std@@V?$allocator@G@2@@std@@QBEIXZ
	sub	eax, 1
	push	eax
	push	0
	lea	ecx, DWORD PTR $T154145[ebp]
	push	ecx
	lea	ecx, DWORD PTR _wscIn$[ebp]
	call	DWORD PTR __imp_?substr@?$basic_string@GU?$char_traits@G@std@@V?$allocator@G@2@@std@@QBE?AV12@II@Z
	mov	DWORD PTR tv191[ebp], eax
	mov	edx, DWORD PTR tv191[ebp]
	mov	DWORD PTR tv184[ebp], edx
	mov	BYTE PTR __$EHRec$[ebp+8], 3
	mov	eax, DWORD PTR tv184[ebp]
	push	eax
	lea	ecx, DWORD PTR _wscIn$[ebp]
	call	DWORD PTR __imp_??4?$basic_string@GU?$char_traits@G@std@@V?$allocator@G@2@@std@@QAEAAV01@ABV01@@Z
	mov	BYTE PTR __$EHRec$[ebp+8], 1
	lea	ecx, DWORD PTR $T154145[ebp]
	call	DWORD PTR __imp_??1?$basic_string@GU?$char_traits@G@std@@V?$allocator@G@2@@std@@QAE@XZ
; Line 385
	jmp	$LN3@Trim
$LN2@Trim:
; Line 386
	lea	ecx, DWORD PTR _wscIn$[ebp]
	push	ecx
	mov	ecx, DWORD PTR ___$ReturnUdt$[ebp]
	call	DWORD PTR __imp_??0?$basic_string@GU?$char_traits@G@std@@V?$allocator@G@2@@std@@QAE@ABV01@@Z
	mov	edx, DWORD PTR $T154150[ebp]
	or	edx, 1
	mov	DWORD PTR $T154150[ebp], edx
	mov	BYTE PTR __$EHRec$[ebp+8], 0
	lea	ecx, DWORD PTR _wscIn$[ebp]
	call	DWORD PTR __imp_??1?$basic_string@GU?$char_traits@G@std@@V?$allocator@G@2@@std@@QAE@XZ
	mov	eax, DWORD PTR ___$ReturnUdt$[ebp]
; Line 387
	mov	ecx, DWORD PTR __$EHRec$[ebp]
	mov	DWORD PTR fs:0, ecx
	pop	ecx
	mov	esp, ebp
	pop	ebp
	ret	0
_TEXT	ENDS
text$x	SEGMENT
__unwindfunclet$?Trim@@YA?AV?$basic_string@GU?$char_traits@G@std@@V?$allocator@G@2@@std@@V12@@Z$0:
	lea	ecx, DWORD PTR _wscIn$[ebp]
	jmp	DWORD PTR __imp_??1?$basic_string@GU?$char_traits@G@std@@V?$allocator@G@2@@std@@QAE@XZ
__unwindfunclet$?Trim@@YA?AV?$basic_string@GU?$char_traits@G@std@@V?$allocator@G@2@@std@@V12@@Z$1:
	lea	ecx, DWORD PTR $T154144[ebp]
	jmp	DWORD PTR __imp_??1?$basic_string@GU?$char_traits@G@std@@V?$allocator@G@2@@std@@QAE@XZ
__unwindfunclet$?Trim@@YA?AV?$basic_string@GU?$char_traits@G@std@@V?$allocator@G@2@@std@@V12@@Z$2:
	lea	ecx, DWORD PTR $T154145[ebp]
	jmp	DWORD PTR __imp_??1?$basic_string@GU?$char_traits@G@std@@V?$allocator@G@2@@std@@QAE@XZ
__unwindfunclet$?Trim@@YA?AV?$basic_string@GU?$char_traits@G@std@@V?$allocator@G@2@@std@@V12@@Z$3:
	mov	eax, DWORD PTR $T154150[ebp]
	and	eax, 1
	je	$LN13@Trim
	and	DWORD PTR $T154150[ebp], -2		; fffffffeH
	mov	ecx, DWORD PTR ___$ReturnUdt$[ebp]
	jmp	DWORD PTR __imp_??1?$basic_string@GU?$char_traits@G@std@@V?$allocator@G@2@@std@@QAE@XZ
$LN13@Trim:
	ret	0
__ehhandler$?Trim@@YA?AV?$basic_string@GU?$char_traits@G@std@@V?$allocator@G@2@@std@@V12@@Z:
	mov	edx, DWORD PTR [esp+8]
	lea	eax, DWORD PTR [edx+12]
	mov	ecx, DWORD PTR [edx-84]
	xor	ecx, eax
	call	@__security_check_cookie@4
	mov	eax, OFFSET __ehfuncinfo$?Trim@@YA?AV?$basic_string@GU?$char_traits@G@std@@V?$allocator@G@2@@std@@V12@@Z
	jmp	___CxxFrameHandler3
text$x	ENDS
?Trim@@YA?AV?$basic_string@GU?$char_traits@G@std@@V?$allocator@G@2@@std@@V12@@Z ENDP ; Trim
PUBLIC	?Trim@@YA?AV?$basic_string@DU?$char_traits@D@std@@V?$allocator@D@2@@std@@V12@@Z ; Trim
EXTRN	__imp_??4?$basic_string@DU?$char_traits@D@std@@V?$allocator@D@2@@std@@QAEAAV01@ABV01@@Z:PROC
EXTRN	__imp_?substr@?$basic_string@DU?$char_traits@D@std@@V?$allocator@D@2@@std@@QBE?AV12@II@Z:PROC
EXTRN	__imp_?npos@?$basic_string@DU?$char_traits@D@std@@V?$allocator@D@2@@std@@2IB:DWORD
xdata$x	SEGMENT
__unwindtable$?Trim@@YA?AV?$basic_string@DU?$char_traits@D@std@@V?$allocator@D@2@@std@@V12@@Z DD 0ffffffffH
	DD	FLAT:__unwindfunclet$?Trim@@YA?AV?$basic_string@DU?$char_traits@D@std@@V?$allocator@D@2@@std@@V12@@Z$3
	DD	00H
	DD	FLAT:__unwindfunclet$?Trim@@YA?AV?$basic_string@DU?$char_traits@D@std@@V?$allocator@D@2@@std@@V12@@Z$0
	DD	01H
	DD	FLAT:__unwindfunclet$?Trim@@YA?AV?$basic_string@DU?$char_traits@D@std@@V?$allocator@D@2@@std@@V12@@Z$1
	DD	01H
	DD	FLAT:__unwindfunclet$?Trim@@YA?AV?$basic_string@DU?$char_traits@D@std@@V?$allocator@D@2@@std@@V12@@Z$2
__ehfuncinfo$?Trim@@YA?AV?$basic_string@DU?$char_traits@D@std@@V?$allocator@D@2@@std@@V12@@Z DD 019930522H
	DD	04H
	DD	FLAT:__unwindtable$?Trim@@YA?AV?$basic_string@DU?$char_traits@D@std@@V?$allocator@D@2@@std@@V12@@Z
	DD	2 DUP(00H)
	DD	2 DUP(00H)
	DD	00H
	DD	00H
; Function compile flags: /Odtp
xdata$x	ENDS
_TEXT	SEGMENT
tv184 = -92						; size = 4
tv191 = -88						; size = 4
tv182 = -84						; size = 4
tv190 = -80						; size = 4
$T154164 = -76						; size = 4
$T154159 = -72						; size = 28
$T154158 = -44						; size = 28
__$EHRec$ = -12						; size = 12
___$ReturnUdt$ = 8					; size = 4
_scIn$ = 12						; size = 28
?Trim@@YA?AV?$basic_string@DU?$char_traits@D@std@@V?$allocator@D@2@@std@@V12@@Z PROC ; Trim
; Line 393
	push	ebp
	mov	ebp, esp
	push	-1
	push	__ehhandler$?Trim@@YA?AV?$basic_string@DU?$char_traits@D@std@@V?$allocator@D@2@@std@@V12@@Z
	mov	eax, DWORD PTR fs:0
	push	eax
	sub	esp, 80					; 00000050H
	mov	eax, DWORD PTR ___security_cookie
	xor	eax, ebp
	push	eax
	lea	eax, DWORD PTR __$EHRec$[ebp]
	mov	DWORD PTR fs:0, eax
	mov	DWORD PTR $T154164[ebp], 0
	mov	DWORD PTR __$EHRec$[ebp+8], 1
$LN6@Trim@2:
; Line 394
	lea	ecx, DWORD PTR _scIn$[ebp]
	call	DWORD PTR __imp_?length@?$basic_string@DU?$char_traits@D@std@@V?$allocator@D@2@@std@@QBEIXZ
	test	eax, eax
	je	$LN3@Trim@2
	push	0
	lea	ecx, DWORD PTR _scIn$[ebp]
	call	DWORD PTR __imp_??A?$basic_string@DU?$char_traits@D@std@@V?$allocator@D@2@@std@@QAEAADI@Z
	movsx	eax, BYTE PTR [eax]
	cmp	eax, 32					; 00000020H
	je	SHORT $LN4@Trim@2
	push	0
	lea	ecx, DWORD PTR _scIn$[ebp]
	call	DWORD PTR __imp_??A?$basic_string@DU?$char_traits@D@std@@V?$allocator@D@2@@std@@QAEAADI@Z
	movsx	ecx, BYTE PTR [eax]
	cmp	ecx, 9
	je	SHORT $LN4@Trim@2
	push	0
	lea	ecx, DWORD PTR _scIn$[ebp]
	call	DWORD PTR __imp_??A?$basic_string@DU?$char_traits@D@std@@V?$allocator@D@2@@std@@QAEAADI@Z
	movsx	edx, BYTE PTR [eax]
	cmp	edx, 10					; 0000000aH
	je	SHORT $LN4@Trim@2
	push	0
	lea	ecx, DWORD PTR _scIn$[ebp]
	call	DWORD PTR __imp_??A?$basic_string@DU?$char_traits@D@std@@V?$allocator@D@2@@std@@QAEAADI@Z
	movsx	eax, BYTE PTR [eax]
	cmp	eax, 13					; 0000000dH
	jne	SHORT $LN3@Trim@2
$LN4@Trim@2:
; Line 396
	mov	ecx, DWORD PTR __imp_?npos@?$basic_string@DU?$char_traits@D@std@@V?$allocator@D@2@@std@@2IB
	mov	edx, DWORD PTR [ecx]
	push	edx
	push	1
	lea	eax, DWORD PTR $T154158[ebp]
	push	eax
	lea	ecx, DWORD PTR _scIn$[ebp]
	call	DWORD PTR __imp_?substr@?$basic_string@DU?$char_traits@D@std@@V?$allocator@D@2@@std@@QBE?AV12@II@Z
	mov	DWORD PTR tv190[ebp], eax
	mov	ecx, DWORD PTR tv190[ebp]
	mov	DWORD PTR tv182[ebp], ecx
	mov	BYTE PTR __$EHRec$[ebp+8], 2
	mov	edx, DWORD PTR tv182[ebp]
	push	edx
	lea	ecx, DWORD PTR _scIn$[ebp]
	call	DWORD PTR __imp_??4?$basic_string@DU?$char_traits@D@std@@V?$allocator@D@2@@std@@QAEAAV01@ABV01@@Z
	mov	BYTE PTR __$EHRec$[ebp+8], 1
	lea	ecx, DWORD PTR $T154158[ebp]
	call	DWORD PTR __imp_??1?$basic_string@DU?$char_traits@D@std@@V?$allocator@D@2@@std@@QAE@XZ
; Line 397
	jmp	$LN6@Trim@2
$LN3@Trim@2:
; Line 398
	lea	ecx, DWORD PTR _scIn$[ebp]
	call	DWORD PTR __imp_?length@?$basic_string@DU?$char_traits@D@std@@V?$allocator@D@2@@std@@QBEIXZ
	test	eax, eax
	je	$LN2@Trim@2
	lea	ecx, DWORD PTR _scIn$[ebp]
	call	DWORD PTR __imp_?length@?$basic_string@DU?$char_traits@D@std@@V?$allocator@D@2@@std@@QBEIXZ
	sub	eax, 1
	push	eax
	lea	ecx, DWORD PTR _scIn$[ebp]
	call	DWORD PTR __imp_??A?$basic_string@DU?$char_traits@D@std@@V?$allocator@D@2@@std@@QAEAADI@Z
	movsx	eax, BYTE PTR [eax]
	cmp	eax, 32					; 00000020H
	je	SHORT $LN1@Trim@2
	lea	ecx, DWORD PTR _scIn$[ebp]
	call	DWORD PTR __imp_?length@?$basic_string@DU?$char_traits@D@std@@V?$allocator@D@2@@std@@QBEIXZ
	sub	eax, 1
	push	eax
	lea	ecx, DWORD PTR _scIn$[ebp]
	call	DWORD PTR __imp_??A?$basic_string@DU?$char_traits@D@std@@V?$allocator@D@2@@std@@QAEAADI@Z
	movsx	ecx, BYTE PTR [eax]
	cmp	ecx, 9
	je	SHORT $LN1@Trim@2
	lea	ecx, DWORD PTR _scIn$[ebp]
	call	DWORD PTR __imp_?length@?$basic_string@DU?$char_traits@D@std@@V?$allocator@D@2@@std@@QBEIXZ
	sub	eax, 1
	push	eax
	lea	ecx, DWORD PTR _scIn$[ebp]
	call	DWORD PTR __imp_??A?$basic_string@DU?$char_traits@D@std@@V?$allocator@D@2@@std@@QAEAADI@Z
	movsx	edx, BYTE PTR [eax]
	cmp	edx, 10					; 0000000aH
	je	SHORT $LN1@Trim@2
	lea	ecx, DWORD PTR _scIn$[ebp]
	call	DWORD PTR __imp_?length@?$basic_string@DU?$char_traits@D@std@@V?$allocator@D@2@@std@@QBEIXZ
	sub	eax, 1
	push	eax
	lea	ecx, DWORD PTR _scIn$[ebp]
	call	DWORD PTR __imp_??A?$basic_string@DU?$char_traits@D@std@@V?$allocator@D@2@@std@@QAEAADI@Z
	movsx	eax, BYTE PTR [eax]
	cmp	eax, 13					; 0000000dH
	jne	SHORT $LN2@Trim@2
$LN1@Trim@2:
; Line 400
	lea	ecx, DWORD PTR _scIn$[ebp]
	call	DWORD PTR __imp_?length@?$basic_string@DU?$char_traits@D@std@@V?$allocator@D@2@@std@@QBEIXZ
	sub	eax, 1
	push	eax
	push	0
	lea	ecx, DWORD PTR $T154159[ebp]
	push	ecx
	lea	ecx, DWORD PTR _scIn$[ebp]
	call	DWORD PTR __imp_?substr@?$basic_string@DU?$char_traits@D@std@@V?$allocator@D@2@@std@@QBE?AV12@II@Z
	mov	DWORD PTR tv191[ebp], eax
	mov	edx, DWORD PTR tv191[ebp]
	mov	DWORD PTR tv184[ebp], edx
	mov	BYTE PTR __$EHRec$[ebp+8], 3
	mov	eax, DWORD PTR tv184[ebp]
	push	eax
	lea	ecx, DWORD PTR _scIn$[ebp]
	call	DWORD PTR __imp_??4?$basic_string@DU?$char_traits@D@std@@V?$allocator@D@2@@std@@QAEAAV01@ABV01@@Z
	mov	BYTE PTR __$EHRec$[ebp+8], 1
	lea	ecx, DWORD PTR $T154159[ebp]
	call	DWORD PTR __imp_??1?$basic_string@DU?$char_traits@D@std@@V?$allocator@D@2@@std@@QAE@XZ
; Line 401
	jmp	$LN3@Trim@2
$LN2@Trim@2:
; Line 402
	lea	ecx, DWORD PTR _scIn$[ebp]
	push	ecx
	mov	ecx, DWORD PTR ___$ReturnUdt$[ebp]
	call	DWORD PTR __imp_??0?$basic_string@DU?$char_traits@D@std@@V?$allocator@D@2@@std@@QAE@ABV01@@Z
	mov	edx, DWORD PTR $T154164[ebp]
	or	edx, 1
	mov	DWORD PTR $T154164[ebp], edx
	mov	BYTE PTR __$EHRec$[ebp+8], 0
	lea	ecx, DWORD PTR _scIn$[ebp]
	call	DWORD PTR __imp_??1?$basic_string@DU?$char_traits@D@std@@V?$allocator@D@2@@std@@QAE@XZ
	mov	eax, DWORD PTR ___$ReturnUdt$[ebp]
; Line 403
	mov	ecx, DWORD PTR __$EHRec$[ebp]
	mov	DWORD PTR fs:0, ecx
	pop	ecx
	mov	esp, ebp
	pop	ebp
	ret	0
_TEXT	ENDS
text$x	SEGMENT
__unwindfunclet$?Trim@@YA?AV?$basic_string@DU?$char_traits@D@std@@V?$allocator@D@2@@std@@V12@@Z$0:
	lea	ecx, DWORD PTR _scIn$[ebp]
	jmp	DWORD PTR __imp_??1?$basic_string@DU?$char_traits@D@std@@V?$allocator@D@2@@std@@QAE@XZ
__unwindfunclet$?Trim@@YA?AV?$basic_string@DU?$char_traits@D@std@@V?$allocator@D@2@@std@@V12@@Z$1:
	lea	ecx, DWORD PTR $T154158[ebp]
	jmp	DWORD PTR __imp_??1?$basic_string@DU?$char_traits@D@std@@V?$allocator@D@2@@std@@QAE@XZ
__unwindfunclet$?Trim@@YA?AV?$basic_string@DU?$char_traits@D@std@@V?$allocator@D@2@@std@@V12@@Z$2:
	lea	ecx, DWORD PTR $T154159[ebp]
	jmp	DWORD PTR __imp_??1?$basic_string@DU?$char_traits@D@std@@V?$allocator@D@2@@std@@QAE@XZ
__unwindfunclet$?Trim@@YA?AV?$basic_string@DU?$char_traits@D@std@@V?$allocator@D@2@@std@@V12@@Z$3:
	mov	eax, DWORD PTR $T154164[ebp]
	and	eax, 1
	je	$LN13@Trim@2
	and	DWORD PTR $T154164[ebp], -2		; fffffffeH
	mov	ecx, DWORD PTR ___$ReturnUdt$[ebp]
	jmp	DWORD PTR __imp_??1?$basic_string@DU?$char_traits@D@std@@V?$allocator@D@2@@std@@QAE@XZ
$LN13@Trim@2:
	ret	0
__ehhandler$?Trim@@YA?AV?$basic_string@DU?$char_traits@D@std@@V?$allocator@D@2@@std@@V12@@Z:
	mov	edx, DWORD PTR [esp+8]
	lea	eax, DWORD PTR [edx+12]
	mov	ecx, DWORD PTR [edx-84]
	xor	ecx, eax
	call	@__security_check_cookie@4
	mov	eax, OFFSET __ehfuncinfo$?Trim@@YA?AV?$basic_string@DU?$char_traits@D@std@@V?$allocator@D@2@@std@@V12@@Z
	jmp	___CxxFrameHandler3
text$x	ENDS
?Trim@@YA?AV?$basic_string@DU?$char_traits@D@std@@V?$allocator@D@2@@std@@V12@@Z ENDP ; Trim
PUBLIC	?HkDeleteCharacter@@YA?AW4HK_ERROR@@PAVCAccount@@AAV?$basic_string@GU?$char_traits@G@std@@V?$allocator@G@2@@std@@@Z ; HkDeleteCharacter
EXTRN	__imp_?HkUnlockAccountAccess@@YAXPAVCAccount@@@Z:PROC
EXTRN	__imp_?FreeWString@@3P6AXPAV?$basic_string@GUci_wchar_traits@@V?$allocator@G@std@@@std@@@ZA:DWORD
EXTRN	__imp_?DeleteCharacterFromName@PlayerDB@@QAE_NAAV?$basic_string@GUci_wchar_traits@@V?$allocator@G@std@@@std@@@Z:PROC
EXTRN	__imp_?CreateWString@@3P6APAV?$basic_string@GUci_wchar_traits@@V?$allocator@G@std@@@std@@PBG@ZA:DWORD
EXTRN	__imp_?HkLockAccountAccess@@YAXPAVCAccount@@_N@Z:PROC
; Function compile flags: /Odtp
_TEXT	SEGMENT
_str$ = -4						; size = 4
_acc$ = 8						; size = 4
_wscCharname$ = 12					; size = 4
?HkDeleteCharacter@@YA?AW4HK_ERROR@@PAVCAccount@@AAV?$basic_string@GU?$char_traits@G@std@@V?$allocator@G@2@@std@@@Z PROC ; HkDeleteCharacter
; Line 409
	push	ebp
	mov	ebp, esp
	push	ecx
; Line 410
	push	1
	mov	eax, DWORD PTR _acc$[ebp]
	push	eax
	call	DWORD PTR __imp_?HkLockAccountAccess@@YAXPAVCAccount@@_N@Z
	add	esp, 8
; Line 411
	mov	ecx, DWORD PTR _wscCharname$[ebp]
	call	DWORD PTR __imp_?c_str@?$basic_string@GU?$char_traits@G@std@@V?$allocator@G@2@@std@@QBEPBGXZ
	push	eax
	mov	ecx, DWORD PTR __imp_?CreateWString@@3P6APAV?$basic_string@GUci_wchar_traits@@V?$allocator@G@std@@@std@@PBG@ZA
	mov	edx, DWORD PTR [ecx]
	call	edx
	add	esp, 4
	mov	DWORD PTR _str$[ebp], eax
; Line 412
	mov	eax, DWORD PTR _str$[ebp]
	push	eax
	mov	ecx, DWORD PTR __imp_?Players@@3VPlayerDB@@A
	call	DWORD PTR __imp_?DeleteCharacterFromName@PlayerDB@@QAE_NAAV?$basic_string@GUci_wchar_traits@@V?$allocator@G@std@@@std@@@Z
; Line 413
	mov	ecx, DWORD PTR _str$[ebp]
	push	ecx
	mov	edx, DWORD PTR __imp_?FreeWString@@3P6AXPAV?$basic_string@GUci_wchar_traits@@V?$allocator@G@std@@@std@@@ZA
	mov	eax, DWORD PTR [edx]
	call	eax
	add	esp, 4
; Line 414
	mov	ecx, DWORD PTR _acc$[ebp]
	push	ecx
	call	DWORD PTR __imp_?HkUnlockAccountAccess@@YAXPAVCAccount@@@Z
	add	esp, 4
; Line 415
	xor	eax, eax
; Line 416
	mov	esp, ebp
	pop	ebp
	ret	0
?HkDeleteCharacter@@YA?AW4HK_ERROR@@PAVCAccount@@AAV?$basic_string@GU?$char_traits@G@std@@V?$allocator@G@2@@std@@@Z ENDP ; HkDeleteCharacter
_TEXT	ENDS
PUBLIC	__$ArrayPad$
PUBLIC	?HkNewCharacter@@YA?AW4HK_ERROR@@PAVCAccount@@AAV?$basic_string@GU?$char_traits@G@std@@V?$allocator@G@2@@std@@@Z ; HkNewCharacter
EXTRN	__imp_?logout@PlayerDB@@QAEXI@Z:PROC
EXTRN	__imp_?HkSaveChar@@YA?AW4HK_ERROR@@ABV?$basic_string@GU?$char_traits@G@std@@V?$allocator@G@2@@std@@@Z:PROC
EXTRN	__imp_?CreateNewCharacter@IServerImpl@@UAEXABUSCreateCharacterInfo@@I@Z:PROC
EXTRN	__imp__Server:BYTE
EXTRN	__imp_?close@INI_Reader@@QAEXXZ:PROC
EXTRN	__imp_?CreateID@@YAIPBD@Z:PROC
EXTRN	__imp_?get_value_string@INI_Reader@@QAEPBDXZ:PROC
EXTRN	__imp_?is_value@INI_Reader@@QAE_NPBD@Z:PROC
EXTRN	__imp_?read_value@INI_Reader@@QAE_NXZ:PROC
EXTRN	__imp_?is_header@INI_Reader@@QAE_NPBD@Z:PROC
EXTRN	__imp_?read_header@INI_Reader@@QAE_NXZ:PROC
EXTRN	__imp_?login@PlayerDB@@QAEEABUSLoginInfo@@I@Z:PROC
EXTRN	__imp__wcsncpy:PROC
EXTRN	__imp_?HkGetAccountID@@YA?AV?$basic_string@GU?$char_traits@G@std@@V?$allocator@G@2@@std@@PAVCAccount@@@Z:PROC
EXTRN	__imp_??1INI_Reader@@QAE@XZ:PROC
EXTRN	__imp_?open@INI_Reader@@QAE_NPBD_N@Z:PROC
EXTRN	__imp_??0INI_Reader@@QAE@XZ:PROC
xdata$x	SEGMENT
__unwindtable$?HkNewCharacter@@YA?AW4HK_ERROR@@PAVCAccount@@AAV?$basic_string@GU?$char_traits@G@std@@V?$allocator@G@2@@std@@@Z DD 0ffffffffH
	DD	FLAT:__unwindfunclet$?HkNewCharacter@@YA?AW4HK_ERROR@@PAVCAccount@@AAV?$basic_string@GU?$char_traits@G@std@@V?$allocator@G@2@@std@@@Z$0
	DD	00H
	DD	FLAT:__unwindfunclet$?HkNewCharacter@@YA?AW4HK_ERROR@@PAVCAccount@@AAV?$basic_string@GU?$char_traits@G@std@@V?$allocator@G@2@@std@@@Z$1
__ehfuncinfo$?HkNewCharacter@@YA?AW4HK_ERROR@@PAVCAccount@@AAV?$basic_string@GU?$char_traits@G@std@@V?$allocator@G@2@@std@@@Z DD 019930522H
	DD	02H
	DD	FLAT:__unwindtable$?HkNewCharacter@@YA?AW4HK_ERROR@@PAVCAccount@@AAV?$basic_string@GU?$char_traits@G@std@@V?$allocator@G@2@@std@@@Z
	DD	2 DUP(00H)
	DD	2 DUP(00H)
	DD	00H
	DD	00H
; Function compile flags: /Odtp
xdata$x	ENDS
_TEXT	SEGMENT
tv210 = -6064						; size = 4
tv68 = -6060						; size = 4
$T154175 = -6056					; size = 4
$T154174 = -6052					; size = 28
$T154173 = -6024					; size = 4
_ini$ = -6020						; size = 5480
_newcharinfo$ = -540					; size = 448
_logindata$ = -92					; size = 72
__$ArrayPad$ = -16					; size = 4
__$EHRec$ = -12						; size = 12
_acc$ = 8						; size = 4
_wscCharname$ = 12					; size = 4
?HkNewCharacter@@YA?AW4HK_ERROR@@PAVCAccount@@AAV?$basic_string@GU?$char_traits@G@std@@V?$allocator@G@2@@std@@@Z PROC ; HkNewCharacter
; Line 423
	push	ebp
	mov	ebp, esp
	push	-1
	push	__ehhandler$?HkNewCharacter@@YA?AW4HK_ERROR@@PAVCAccount@@AAV?$basic_string@GU?$char_traits@G@std@@V?$allocator@G@2@@std@@@Z
	mov	eax, DWORD PTR fs:0
	push	eax
	mov	eax, 6052				; 000017a4H
	call	__chkstk
	mov	eax, DWORD PTR ___security_cookie
	xor	eax, ebp
	mov	DWORD PTR __$ArrayPad$[ebp], eax
	push	eax
	lea	eax, DWORD PTR __$EHRec$[ebp]
	mov	DWORD PTR fs:0, eax
; Line 424
	push	1
	mov	eax, DWORD PTR _acc$[ebp]
	push	eax
	call	DWORD PTR __imp_?HkLockAccountAccess@@YAXPAVCAccount@@_N@Z
	add	esp, 8
; Line 425
	mov	ecx, DWORD PTR _acc$[ebp]
	push	ecx
	call	DWORD PTR __imp_?HkUnlockAccountAccess@@YAXPAVCAccount@@@Z
	add	esp, 4
; Line 427
	lea	ecx, DWORD PTR _ini$[ebp]
	call	DWORD PTR __imp_??0INI_Reader@@QAE@XZ
	mov	DWORD PTR __$EHRec$[ebp+8], 0
; Line 428
	push	0
	push	OFFSET $SG143558
	lea	ecx, DWORD PTR _ini$[ebp]
	call	DWORD PTR __imp_?open@INI_Reader@@QAE_NPBD_N@Z
	movzx	edx, al
	test	edx, edx
	jne	SHORT $LN17@HkNewChara
; Line 429
	mov	DWORD PTR $T154173[ebp], 20		; 00000014H
	mov	DWORD PTR __$EHRec$[ebp+8], -1
	lea	ecx, DWORD PTR _ini$[ebp]
	call	DWORD PTR __imp_??1INI_Reader@@QAE@XZ
	mov	eax, DWORD PTR $T154173[ebp]
	jmp	$LN18@HkNewChara
$LN17@HkNewChara:
; Line 433
	push	36					; 00000024H
	mov	eax, DWORD PTR _acc$[ebp]
	push	eax
	lea	ecx, DWORD PTR $T154174[ebp]
	push	ecx
	call	DWORD PTR __imp_?HkGetAccountID@@YA?AV?$basic_string@GU?$char_traits@G@std@@V?$allocator@G@2@@std@@PAVCAccount@@@Z
	add	esp, 8
	mov	DWORD PTR tv68[ebp], eax
	mov	edx, DWORD PTR tv68[ebp]
	mov	DWORD PTR tv210[ebp], edx
	mov	BYTE PTR __$EHRec$[ebp+8], 1
	mov	ecx, DWORD PTR tv210[ebp]
	call	DWORD PTR __imp_?c_str@?$basic_string@GU?$char_traits@G@std@@V?$allocator@G@2@@std@@QBEPBGXZ
	push	eax
	lea	eax, DWORD PTR _logindata$[ebp]
	push	eax
	call	DWORD PTR __imp__wcsncpy
	add	esp, 12					; 0000000cH
	mov	BYTE PTR __$EHRec$[ebp+8], 0
	lea	ecx, DWORD PTR $T154174[ebp]
	call	DWORD PTR __imp_??1?$basic_string@GU?$char_traits@G@std@@V?$allocator@G@2@@std@@QAE@XZ
; Line 434
	push	250					; 000000faH
	lea	ecx, DWORD PTR _logindata$[ebp]
	push	ecx
	mov	ecx, DWORD PTR __imp_?Players@@3VPlayerDB@@A
	call	DWORD PTR __imp_?login@PlayerDB@@QAEEABUSLoginInfo@@I@Z
; Line 437
	push	23					; 00000017H
	mov	ecx, DWORD PTR _wscCharname$[ebp]
	call	DWORD PTR __imp_?c_str@?$basic_string@GU?$char_traits@G@std@@V?$allocator@G@2@@std@@QBEPBGXZ
	push	eax
	lea	edx, DWORD PTR _newcharinfo$[ebp]
	push	edx
	call	DWORD PTR __imp__wcsncpy
	add	esp, 12					; 0000000cH
; Line 438
	xor	eax, eax
	mov	WORD PTR _newcharinfo$[ebp+46], ax
; Line 440
	mov	DWORD PTR _newcharinfo$[ebp+48], 0
; Line 441
	mov	DWORD PTR _newcharinfo$[ebp+52], 0
; Line 442
	mov	DWORD PTR _newcharinfo$[ebp+56], 0
; Line 443
	mov	DWORD PTR _newcharinfo$[ebp+60], 0
$LN16@HkNewChara:
; Line 445
	lea	ecx, DWORD PTR _ini$[ebp]
	call	DWORD PTR __imp_?read_header@INI_Reader@@QAE_NXZ
	movzx	ecx, al
	test	ecx, ecx
	je	$LN15@HkNewChara
; Line 447
	push	OFFSET $SG143567
	lea	ecx, DWORD PTR _ini$[ebp]
	call	DWORD PTR __imp_?is_header@INI_Reader@@QAE_NPBD@Z
	movzx	edx, al
	test	edx, edx
	je	$LN14@HkNewChara
$LN13@HkNewChara:
; Line 449
	lea	ecx, DWORD PTR _ini$[ebp]
	call	DWORD PTR __imp_?read_value@INI_Reader@@QAE_NXZ
	movzx	eax, al
	test	eax, eax
	je	$LN12@HkNewChara
; Line 451
	push	OFFSET $SG143572
	lea	ecx, DWORD PTR _ini$[ebp]
	call	DWORD PTR __imp_?is_value@INI_Reader@@QAE_NPBD@Z
	movzx	ecx, al
	test	ecx, ecx
	je	SHORT $LN11@HkNewChara
; Line 452
	lea	ecx, DWORD PTR _ini$[ebp]
	call	DWORD PTR __imp_?get_value_string@INI_Reader@@QAEPBDXZ
	push	eax
	call	DWORD PTR __imp_?CreateID@@YAIPBD@Z
	add	esp, 4
	mov	DWORD PTR _newcharinfo$[ebp+48], eax
	jmp	$LN10@HkNewChara
$LN11@HkNewChara:
; Line 453
	push	OFFSET $SG143575
	lea	ecx, DWORD PTR _ini$[ebp]
	call	DWORD PTR __imp_?is_value@INI_Reader@@QAE_NPBD@Z
	movzx	edx, al
	test	edx, edx
	je	SHORT $LN9@HkNewChara
; Line 454
	lea	ecx, DWORD PTR _ini$[ebp]
	call	DWORD PTR __imp_?get_value_string@INI_Reader@@QAEPBDXZ
	push	eax
	call	DWORD PTR __imp_?CreateID@@YAIPBD@Z
	add	esp, 4
	mov	DWORD PTR _newcharinfo$[ebp+52], eax
	jmp	SHORT $LN10@HkNewChara
$LN9@HkNewChara:
; Line 455
	push	OFFSET $SG143578
	lea	ecx, DWORD PTR _ini$[ebp]
	call	DWORD PTR __imp_?is_value@INI_Reader@@QAE_NPBD@Z
	movzx	eax, al
	test	eax, eax
	je	SHORT $LN7@HkNewChara
; Line 456
	lea	ecx, DWORD PTR _ini$[ebp]
	call	DWORD PTR __imp_?get_value_string@INI_Reader@@QAEPBDXZ
	push	eax
	call	DWORD PTR __imp_?CreateID@@YAIPBD@Z
	add	esp, 4
	mov	DWORD PTR _newcharinfo$[ebp+56], eax
	jmp	SHORT $LN10@HkNewChara
$LN7@HkNewChara:
; Line 457
	push	OFFSET $SG143581
	lea	ecx, DWORD PTR _ini$[ebp]
	call	DWORD PTR __imp_?is_value@INI_Reader@@QAE_NPBD@Z
	movzx	ecx, al
	test	ecx, ecx
	je	SHORT $LN10@HkNewChara
; Line 458
	lea	ecx, DWORD PTR _ini$[ebp]
	call	DWORD PTR __imp_?get_value_string@INI_Reader@@QAEPBDXZ
	push	eax
	call	DWORD PTR __imp_?CreateID@@YAIPBD@Z
	add	esp, 4
	mov	DWORD PTR _newcharinfo$[ebp+60], eax
$LN10@HkNewChara:
; Line 459
	jmp	$LN13@HkNewChara
$LN12@HkNewChara:
; Line 460
	jmp	SHORT $LN15@HkNewChara
$LN14@HkNewChara:
; Line 462
	jmp	$LN16@HkNewChara
$LN15@HkNewChara:
; Line 463
	lea	ecx, DWORD PTR _ini$[ebp]
	call	DWORD PTR __imp_?close@INI_Reader@@QAEXXZ
; Line 465
	cmp	DWORD PTR _newcharinfo$[ebp+48], 0
	jne	SHORT $LN4@HkNewChara
; Line 466
	push	OFFSET $SG143583
	call	DWORD PTR __imp_?CreateID@@YAIPBD@Z
	add	esp, 4
	mov	DWORD PTR _newcharinfo$[ebp+48], eax
$LN4@HkNewChara:
; Line 467
	cmp	DWORD PTR _newcharinfo$[ebp+52], 0
	jne	SHORT $LN3@HkNewChara
; Line 468
	push	OFFSET $SG143585
	call	DWORD PTR __imp_?CreateID@@YAIPBD@Z
	add	esp, 4
	mov	DWORD PTR _newcharinfo$[ebp+52], eax
$LN3@HkNewChara:
; Line 469
	cmp	DWORD PTR _newcharinfo$[ebp+56], 0
	jne	SHORT $LN2@HkNewChara
; Line 470
	push	OFFSET $SG143587
	call	DWORD PTR __imp_?CreateID@@YAIPBD@Z
	add	esp, 4
	mov	DWORD PTR _newcharinfo$[ebp+56], eax
$LN2@HkNewChara:
; Line 471
	cmp	DWORD PTR _newcharinfo$[ebp+60], 0
	jne	SHORT $LN1@HkNewChara
; Line 472
	push	OFFSET $SG143589
	call	DWORD PTR __imp_?CreateID@@YAIPBD@Z
	add	esp, 4
	mov	DWORD PTR _newcharinfo$[ebp+60], eax
$LN1@HkNewChara:
; Line 475
	mov	DWORD PTR _newcharinfo$[ebp+80], 65536	; 00010000H
; Line 476
	mov	DWORD PTR _newcharinfo$[ebp+84], 65538	; 00010002H
; Line 477
	mov	DWORD PTR _newcharinfo$[ebp+88], 0
; Line 478
	mov	DWORD PTR _newcharinfo$[ebp+92], 1058642330 ; 3f19999aH
; Line 479
	mov	DWORD PTR _newcharinfo$[ebp+96], -1088841318 ; bf19999aH
; Line 480
	mov	DWORD PTR _newcharinfo$[ebp+100], 65537	; 00010001H
; Line 481
	mov	DWORD PTR _newcharinfo$[ebp+104], 0
; Line 482
	mov	DWORD PTR _newcharinfo$[ebp+108], -1088841318 ; bf19999aH
; Line 483
	mov	DWORD PTR _newcharinfo$[ebp+112], 65539	; 00010003H
; Line 484
	mov	DWORD PTR _newcharinfo$[ebp+116], 65540	; 00010004H
; Line 485
	mov	DWORD PTR _newcharinfo$[ebp+120], 65536	; 00010000H
; Line 486
	mov	DWORD PTR _newcharinfo$[ebp+124], 65538	; 00010002H
; Line 487
	push	250					; 000000faH
	lea	edx, DWORD PTR _newcharinfo$[ebp]
	push	edx
	mov	ecx, DWORD PTR __imp__Server
	call	DWORD PTR __imp_?CreateNewCharacter@IServerImpl@@UAEXABUSCreateCharacterInfo@@I@Z
; Line 488
	mov	eax, DWORD PTR _wscCharname$[ebp]
	push	eax
	call	DWORD PTR __imp_?HkSaveChar@@YA?AW4HK_ERROR@@ABV?$basic_string@GU?$char_traits@G@std@@V?$allocator@G@2@@std@@@Z
	add	esp, 4
; Line 489
	push	250					; 000000faH
	mov	ecx, DWORD PTR __imp_?Players@@3VPlayerDB@@A
	call	DWORD PTR __imp_?logout@PlayerDB@@QAEXI@Z
; Line 490
	mov	DWORD PTR $T154175[ebp], 0
	mov	DWORD PTR __$EHRec$[ebp+8], -1
	lea	ecx, DWORD PTR _ini$[ebp]
	call	DWORD PTR __imp_??1INI_Reader@@QAE@XZ
	mov	eax, DWORD PTR $T154175[ebp]
$LN18@HkNewChara:
; Line 491
	mov	ecx, DWORD PTR __$EHRec$[ebp]
	mov	DWORD PTR fs:0, ecx
	pop	ecx
	mov	ecx, DWORD PTR __$ArrayPad$[ebp]
	xor	ecx, ebp
	call	@__security_check_cookie@4
	mov	esp, ebp
	pop	ebp
	ret	0
_TEXT	ENDS
text$x	SEGMENT
__unwindfunclet$?HkNewCharacter@@YA?AW4HK_ERROR@@PAVCAccount@@AAV?$basic_string@GU?$char_traits@G@std@@V?$allocator@G@2@@std@@@Z$0:
	lea	ecx, DWORD PTR _ini$[ebp]
	jmp	DWORD PTR __imp_??1INI_Reader@@QAE@XZ
__unwindfunclet$?HkNewCharacter@@YA?AW4HK_ERROR@@PAVCAccount@@AAV?$basic_string@GU?$char_traits@G@std@@V?$allocator@G@2@@std@@@Z$1:
	lea	ecx, DWORD PTR $T154174[ebp]
	jmp	DWORD PTR __imp_??1?$basic_string@GU?$char_traits@G@std@@V?$allocator@G@2@@std@@QAE@XZ
__ehhandler$?HkNewCharacter@@YA?AW4HK_ERROR@@PAVCAccount@@AAV?$basic_string@GU?$char_traits@G@std@@V?$allocator@G@2@@std@@@Z:
	mov	edx, DWORD PTR [esp+8]
	lea	eax, DWORD PTR [edx+12]
	mov	ecx, DWORD PTR [edx-6056]
	xor	ecx, eax
	call	@__security_check_cookie@4
	mov	ecx, DWORD PTR [edx-4]
	xor	ecx, eax
	call	@__security_check_cookie@4
	mov	eax, OFFSET __ehfuncinfo$?HkNewCharacter@@YA?AW4HK_ERROR@@PAVCAccount@@AAV?$basic_string@GU?$char_traits@G@std@@V?$allocator@G@2@@std@@@Z
	jmp	___CxxFrameHandler3
text$x	ENDS
?HkNewCharacter@@YA?AW4HK_ERROR@@PAVCAccount@@AAV?$basic_string@GU?$char_traits@G@std@@V?$allocator@G@2@@std@@@Z ENDP ; HkNewCharacter
PUBLIC	__$ArrayPad$
PUBLIC	?GetUserFilePath@@YA_NAAV?$basic_string@DU?$char_traits@D@std@@V?$allocator@D@2@@std@@ABV?$basic_string@GU?$char_traits@G@std@@V?$allocator@G@2@@2@ABV12@@Z ; GetUserFilePath
xdata$x	SEGMENT
__ehfuncinfo$?GetUserFilePath@@YA_NAAV?$basic_string@DU?$char_traits@D@std@@V?$allocator@D@2@@std@@ABV?$basic_string@GU?$char_traits@G@std@@V?$allocator@G@2@@2@ABV12@@Z DD 019930522H
	DD	0bH
	DD	FLAT:__unwindtable$?GetUserFilePath@@YA_NAAV?$basic_string@DU?$char_traits@D@std@@V?$allocator@D@2@@std@@ABV?$basic_string@GU?$char_traits@G@std@@V?$allocator@G@2@@2@ABV12@@Z
	DD	2 DUP(00H)
	DD	2 DUP(00H)
	DD	00H
	DD	00H
__unwindtable$?GetUserFilePath@@YA_NAAV?$basic_string@DU?$char_traits@D@std@@V?$allocator@D@2@@std@@ABV?$basic_string@GU?$char_traits@G@std@@V?$allocator@G@2@@2@ABV12@@Z DD 0ffffffffH
	DD	FLAT:__unwindfunclet$?GetUserFilePath@@YA_NAAV?$basic_string@DU?$char_traits@D@std@@V?$allocator@D@2@@std@@ABV?$basic_string@GU?$char_traits@G@std@@V?$allocator@G@2@@2@ABV12@@Z$0
	DD	00H
	DD	FLAT:__unwindfunclet$?GetUserFilePath@@YA_NAAV?$basic_string@DU?$char_traits@D@std@@V?$allocator@D@2@@std@@ABV?$basic_string@GU?$char_traits@G@std@@V?$allocator@G@2@@2@ABV12@@Z$1
	DD	0ffffffffH
	DD	FLAT:__unwindfunclet$?GetUserFilePath@@YA_NAAV?$basic_string@DU?$char_traits@D@std@@V?$allocator@D@2@@std@@ABV?$basic_string@GU?$char_traits@G@std@@V?$allocator@G@2@@2@ABV12@@Z$1
	DD	02H
	DD	FLAT:__unwindfunclet$?GetUserFilePath@@YA_NAAV?$basic_string@DU?$char_traits@D@std@@V?$allocator@D@2@@std@@ABV?$basic_string@GU?$char_traits@G@std@@V?$allocator@G@2@@2@ABV12@@Z$2
	DD	03H
	DD	FLAT:__unwindfunclet$?GetUserFilePath@@YA_NAAV?$basic_string@DU?$char_traits@D@std@@V?$allocator@D@2@@std@@ABV?$basic_string@GU?$char_traits@G@std@@V?$allocator@G@2@@2@ABV12@@Z$3
	DD	04H
	DD	FLAT:__unwindfunclet$?GetUserFilePath@@YA_NAAV?$basic_string@DU?$char_traits@D@std@@V?$allocator@D@2@@std@@ABV?$basic_string@GU?$char_traits@G@std@@V?$allocator@G@2@@2@ABV12@@Z$4
	DD	05H
	DD	FLAT:__unwindfunclet$?GetUserFilePath@@YA_NAAV?$basic_string@DU?$char_traits@D@std@@V?$allocator@D@2@@std@@ABV?$basic_string@GU?$char_traits@G@std@@V?$allocator@G@2@@2@ABV12@@Z$5
	DD	06H
	DD	FLAT:__unwindfunclet$?GetUserFilePath@@YA_NAAV?$basic_string@DU?$char_traits@D@std@@V?$allocator@D@2@@std@@ABV?$basic_string@GU?$char_traits@G@std@@V?$allocator@G@2@@2@ABV12@@Z$6
	DD	07H
	DD	FLAT:__unwindfunclet$?GetUserFilePath@@YA_NAAV?$basic_string@DU?$char_traits@D@std@@V?$allocator@D@2@@std@@ABV?$basic_string@GU?$char_traits@G@std@@V?$allocator@G@2@@2@ABV12@@Z$7
	DD	08H
	DD	FLAT:__unwindfunclet$?GetUserFilePath@@YA_NAAV?$basic_string@DU?$char_traits@D@std@@V?$allocator@D@2@@std@@ABV?$basic_string@GU?$char_traits@G@std@@V?$allocator@G@2@@2@ABV12@@Z$8
	DD	09H
	DD	FLAT:__unwindfunclet$?GetUserFilePath@@YA_NAAV?$basic_string@DU?$char_traits@D@std@@V?$allocator@D@2@@std@@ABV?$basic_string@GU?$char_traits@G@std@@V?$allocator@G@2@@2@ABV12@@Z$9
; Function compile flags: /Odtp
xdata$x	ENDS
_TEXT	SEGMENT
tv179 = -628						; size = 4
tv186 = -624						; size = 4
tv177 = -620						; size = 4
tv185 = -616						; size = 4
tv175 = -612						; size = 4
tv184 = -608						; size = 4
tv173 = -604						; size = 4
tv64 = -600						; size = 4
tv171 = -596						; size = 4
tv76 = -592						; size = 4
tv169 = -588						; size = 4
tv79 = -584						; size = 4
tv158 = -580						; size = 4
tv183 = -576						; size = 4
$T154193 = -569						; size = 1
$T154192 = -568						; size = 28
$T154191 = -540						; size = 28
$T154190 = -512						; size = 28
$T154189 = -484						; size = 28
$T154188 = -456						; size = 28
$T154187 = -428						; size = 28
$T154186 = -398						; size = 1
$T154185 = -397						; size = 1
$T154184 = -396						; size = 28
_wscDir$ = -368						; size = 28
_szDataPath$ = -340					; size = 260
_wscFile$ = -72						; size = 28
_scAcctPath$ = -44					; size = 28
__$ArrayPad$ = -16					; size = 4
__$EHRec$ = -12						; size = 12
_path$ = 8						; size = 4
_wscCharname$ = 12					; size = 4
_extension$ = 16					; size = 4
?GetUserFilePath@@YA_NAAV?$basic_string@DU?$char_traits@D@std@@V?$allocator@D@2@@std@@ABV?$basic_string@GU?$char_traits@G@std@@V?$allocator@G@2@@2@ABV12@@Z PROC ; GetUserFilePath
; Line 499
	push	ebp
	mov	ebp, esp
	push	-1
	push	__ehhandler$?GetUserFilePath@@YA_NAAV?$basic_string@DU?$char_traits@D@std@@V?$allocator@D@2@@std@@ABV?$basic_string@GU?$char_traits@G@std@@V?$allocator@G@2@@2@ABV12@@Z
	mov	eax, DWORD PTR fs:0
	push	eax
	sub	esp, 616				; 00000268H
	mov	eax, DWORD PTR ___security_cookie
	xor	eax, ebp
	mov	DWORD PTR __$ArrayPad$[ebp], eax
	push	eax
	lea	eax, DWORD PTR __$EHRec$[ebp]
	mov	DWORD PTR fs:0, eax
; Line 502
	lea	eax, DWORD PTR _szDataPath$[ebp]
	push	eax
	call	DWORD PTR __imp_?GetUserDataPath@@YA_NQAD@Z
	add	esp, 4
; Line 503
	push	OFFSET $SG143600
	lea	ecx, DWORD PTR _szDataPath$[ebp]
	push	ecx
	lea	ecx, DWORD PTR $T154184[ebp]
	call	DWORD PTR __imp_??0?$basic_string@DU?$char_traits@D@std@@V?$allocator@D@2@@std@@QAE@PBD@Z
	mov	DWORD PTR tv183[ebp], eax
	mov	edx, DWORD PTR tv183[ebp]
	mov	DWORD PTR tv158[ebp], edx
	mov	DWORD PTR __$EHRec$[ebp+8], 0
	mov	eax, DWORD PTR tv158[ebp]
	push	eax
	lea	ecx, DWORD PTR _scAcctPath$[ebp]
	push	ecx
	call	DWORD PTR __imp_??$?HDU?$char_traits@D@std@@V?$allocator@D@1@@std@@YA?AV?$basic_string@DU?$char_traits@D@std@@V?$allocator@D@2@@0@ABV10@PBD@Z
	add	esp, 12					; 0000000cH
	mov	BYTE PTR __$EHRec$[ebp+8], 2
	lea	ecx, DWORD PTR $T154184[ebp]
	call	DWORD PTR __imp_??1?$basic_string@DU?$char_traits@D@std@@V?$allocator@D@2@@std@@QAE@XZ
; Line 505
	lea	ecx, DWORD PTR _wscDir$[ebp]
	call	DWORD PTR __imp_??0?$basic_string@GU?$char_traits@G@std@@V?$allocator@G@2@@std@@QAE@XZ
	mov	BYTE PTR __$EHRec$[ebp+8], 3
; Line 506
	lea	ecx, DWORD PTR _wscFile$[ebp]
	call	DWORD PTR __imp_??0?$basic_string@GU?$char_traits@G@std@@V?$allocator@G@2@@std@@QAE@XZ
	mov	BYTE PTR __$EHRec$[ebp+8], 4
; Line 507
	lea	edx, DWORD PTR _wscDir$[ebp]
	push	edx
	mov	eax, DWORD PTR _wscCharname$[ebp]
	push	eax
	call	DWORD PTR __imp_?HkGetAccountDirName@@YA?AW4HK_ERROR@@ABV?$basic_string@GU?$char_traits@G@std@@V?$allocator@G@2@@std@@AAV23@@Z
	add	esp, 8
	test	eax, eax
	je	SHORT $LN2@GetUserFil@2
; Line 508
	mov	BYTE PTR $T154185[ebp], 0
	mov	BYTE PTR __$EHRec$[ebp+8], 3
	lea	ecx, DWORD PTR _wscFile$[ebp]
	call	DWORD PTR __imp_??1?$basic_string@GU?$char_traits@G@std@@V?$allocator@G@2@@std@@QAE@XZ
	mov	BYTE PTR __$EHRec$[ebp+8], 2
	lea	ecx, DWORD PTR _wscDir$[ebp]
	call	DWORD PTR __imp_??1?$basic_string@GU?$char_traits@G@std@@V?$allocator@G@2@@std@@QAE@XZ
	mov	DWORD PTR __$EHRec$[ebp+8], -1
	lea	ecx, DWORD PTR _scAcctPath$[ebp]
	call	DWORD PTR __imp_??1?$basic_string@DU?$char_traits@D@std@@V?$allocator@D@2@@std@@QAE@XZ
	mov	al, BYTE PTR $T154185[ebp]
	jmp	$LN3@GetUserFil@2
$LN2@GetUserFil@2:
; Line 509
	lea	ecx, DWORD PTR _wscFile$[ebp]
	push	ecx
	mov	edx, DWORD PTR _wscCharname$[ebp]
	push	edx
	call	DWORD PTR __imp_?HkGetCharFileName@@YA?AW4HK_ERROR@@ABV?$basic_string@GU?$char_traits@G@std@@V?$allocator@G@2@@std@@AAV23@@Z
	add	esp, 8
	test	eax, eax
	je	SHORT $LN1@GetUserFil@2
; Line 510
	mov	BYTE PTR $T154186[ebp], 0
	mov	BYTE PTR __$EHRec$[ebp+8], 3
	lea	ecx, DWORD PTR _wscFile$[ebp]
	call	DWORD PTR __imp_??1?$basic_string@GU?$char_traits@G@std@@V?$allocator@G@2@@std@@QAE@XZ
	mov	BYTE PTR __$EHRec$[ebp+8], 2
	lea	ecx, DWORD PTR _wscDir$[ebp]
	call	DWORD PTR __imp_??1?$basic_string@GU?$char_traits@G@std@@V?$allocator@G@2@@std@@QAE@XZ
	mov	DWORD PTR __$EHRec$[ebp+8], -1
	lea	ecx, DWORD PTR _scAcctPath$[ebp]
	call	DWORD PTR __imp_??1?$basic_string@DU?$char_traits@D@std@@V?$allocator@D@2@@std@@QAE@XZ
	mov	al, BYTE PTR $T154186[ebp]
	jmp	$LN3@GetUserFil@2
$LN1@GetUserFil@2:
; Line 511
	mov	eax, DWORD PTR _extension$[ebp]
	push	eax
	lea	ecx, DWORD PTR _wscFile$[ebp]
	push	ecx
	lea	edx, DWORD PTR $T154187[ebp]
	push	edx
	call	DWORD PTR __imp_?wstos@@YA?AV?$basic_string@DU?$char_traits@D@std@@V?$allocator@D@2@@std@@ABV?$basic_string@GU?$char_traits@G@std@@V?$allocator@G@2@@2@@Z
	add	esp, 8
	mov	DWORD PTR tv79[ebp], eax
	mov	eax, DWORD PTR tv79[ebp]
	mov	DWORD PTR tv169[ebp], eax
	mov	BYTE PTR __$EHRec$[ebp+8], 5
	mov	ecx, DWORD PTR tv169[ebp]
	push	ecx
	push	OFFSET $SG143613
	lea	edx, DWORD PTR _wscDir$[ebp]
	push	edx
	lea	eax, DWORD PTR $T154188[ebp]
	push	eax
	call	DWORD PTR __imp_?wstos@@YA?AV?$basic_string@DU?$char_traits@D@std@@V?$allocator@D@2@@std@@ABV?$basic_string@GU?$char_traits@G@std@@V?$allocator@G@2@@2@@Z
	add	esp, 8
	mov	DWORD PTR tv76[ebp], eax
	mov	ecx, DWORD PTR tv76[ebp]
	mov	DWORD PTR tv171[ebp], ecx
	mov	BYTE PTR __$EHRec$[ebp+8], 6
	mov	edx, DWORD PTR tv171[ebp]
	push	edx
	lea	eax, DWORD PTR _scAcctPath$[ebp]
	push	eax
	lea	ecx, DWORD PTR $T154189[ebp]
	push	ecx
	call	DWORD PTR __imp_??$?HDU?$char_traits@D@std@@V?$allocator@D@1@@std@@YA?AV?$basic_string@DU?$char_traits@D@std@@V?$allocator@D@2@@0@ABV10@0@Z
	add	esp, 12					; 0000000cH
	mov	DWORD PTR tv64[ebp], eax
	mov	edx, DWORD PTR tv64[ebp]
	mov	DWORD PTR tv173[ebp], edx
	mov	BYTE PTR __$EHRec$[ebp+8], 7
	mov	eax, DWORD PTR tv173[ebp]
	push	eax
	lea	ecx, DWORD PTR $T154190[ebp]
	push	ecx
	call	DWORD PTR __imp_??$?HDU?$char_traits@D@std@@V?$allocator@D@1@@std@@YA?AV?$basic_string@DU?$char_traits@D@std@@V?$allocator@D@2@@0@ABV10@PBD@Z
	add	esp, 12					; 0000000cH
	mov	DWORD PTR tv184[ebp], eax
	mov	edx, DWORD PTR tv184[ebp]
	mov	DWORD PTR tv175[ebp], edx
	mov	BYTE PTR __$EHRec$[ebp+8], 8
	mov	eax, DWORD PTR tv175[ebp]
	push	eax
	lea	ecx, DWORD PTR $T154191[ebp]
	push	ecx
	call	DWORD PTR __imp_??$?HDU?$char_traits@D@std@@V?$allocator@D@1@@std@@YA?AV?$basic_string@DU?$char_traits@D@std@@V?$allocator@D@2@@0@ABV10@0@Z
	add	esp, 12					; 0000000cH
	mov	DWORD PTR tv185[ebp], eax
	mov	edx, DWORD PTR tv185[ebp]
	mov	DWORD PTR tv177[ebp], edx
	mov	BYTE PTR __$EHRec$[ebp+8], 9
	mov	eax, DWORD PTR tv177[ebp]
	push	eax
	lea	ecx, DWORD PTR $T154192[ebp]
	push	ecx
	call	DWORD PTR __imp_??$?HDU?$char_traits@D@std@@V?$allocator@D@1@@std@@YA?AV?$basic_string@DU?$char_traits@D@std@@V?$allocator@D@2@@0@ABV10@0@Z
	add	esp, 12					; 0000000cH
	mov	DWORD PTR tv186[ebp], eax
	mov	edx, DWORD PTR tv186[ebp]
	mov	DWORD PTR tv179[ebp], edx
	mov	BYTE PTR __$EHRec$[ebp+8], 10		; 0000000aH
	mov	eax, DWORD PTR tv179[ebp]
	push	eax
	mov	ecx, DWORD PTR _path$[ebp]
	call	DWORD PTR __imp_??4?$basic_string@DU?$char_traits@D@std@@V?$allocator@D@2@@std@@QAEAAV01@ABV01@@Z
	mov	BYTE PTR __$EHRec$[ebp+8], 9
	lea	ecx, DWORD PTR $T154192[ebp]
	call	DWORD PTR __imp_??1?$basic_string@DU?$char_traits@D@std@@V?$allocator@D@2@@std@@QAE@XZ
	mov	BYTE PTR __$EHRec$[ebp+8], 8
	lea	ecx, DWORD PTR $T154191[ebp]
	call	DWORD PTR __imp_??1?$basic_string@DU?$char_traits@D@std@@V?$allocator@D@2@@std@@QAE@XZ
	mov	BYTE PTR __$EHRec$[ebp+8], 7
	lea	ecx, DWORD PTR $T154190[ebp]
	call	DWORD PTR __imp_??1?$basic_string@DU?$char_traits@D@std@@V?$allocator@D@2@@std@@QAE@XZ
	mov	BYTE PTR __$EHRec$[ebp+8], 6
	lea	ecx, DWORD PTR $T154189[ebp]
	call	DWORD PTR __imp_??1?$basic_string@DU?$char_traits@D@std@@V?$allocator@D@2@@std@@QAE@XZ
	mov	BYTE PTR __$EHRec$[ebp+8], 5
	lea	ecx, DWORD PTR $T154188[ebp]
	call	DWORD PTR __imp_??1?$basic_string@DU?$char_traits@D@std@@V?$allocator@D@2@@std@@QAE@XZ
	mov	BYTE PTR __$EHRec$[ebp+8], 4
	lea	ecx, DWORD PTR $T154187[ebp]
	call	DWORD PTR __imp_??1?$basic_string@DU?$char_traits@D@std@@V?$allocator@D@2@@std@@QAE@XZ
; Line 512
	mov	BYTE PTR $T154193[ebp], 1
	mov	BYTE PTR __$EHRec$[ebp+8], 3
	lea	ecx, DWORD PTR _wscFile$[ebp]
	call	DWORD PTR __imp_??1?$basic_string@GU?$char_traits@G@std@@V?$allocator@G@2@@std@@QAE@XZ
	mov	BYTE PTR __$EHRec$[ebp+8], 2
	lea	ecx, DWORD PTR _wscDir$[ebp]
	call	DWORD PTR __imp_??1?$basic_string@GU?$char_traits@G@std@@V?$allocator@G@2@@std@@QAE@XZ
	mov	DWORD PTR __$EHRec$[ebp+8], -1
	lea	ecx, DWORD PTR _scAcctPath$[ebp]
	call	DWORD PTR __imp_??1?$basic_string@DU?$char_traits@D@std@@V?$allocator@D@2@@std@@QAE@XZ
	mov	al, BYTE PTR $T154193[ebp]
$LN3@GetUserFil@2:
; Line 513
	mov	ecx, DWORD PTR __$EHRec$[ebp]
	mov	DWORD PTR fs:0, ecx
	pop	ecx
	mov	ecx, DWORD PTR __$ArrayPad$[ebp]
	xor	ecx, ebp
	call	@__security_check_cookie@4
	mov	esp, ebp
	pop	ebp
	ret	0
_TEXT	ENDS
text$x	SEGMENT
__unwindfunclet$?GetUserFilePath@@YA_NAAV?$basic_string@DU?$char_traits@D@std@@V?$allocator@D@2@@std@@ABV?$basic_string@GU?$char_traits@G@std@@V?$allocator@G@2@@2@ABV12@@Z$0:
	lea	ecx, DWORD PTR $T154184[ebp]
	jmp	DWORD PTR __imp_??1?$basic_string@DU?$char_traits@D@std@@V?$allocator@D@2@@std@@QAE@XZ
__unwindfunclet$?GetUserFilePath@@YA_NAAV?$basic_string@DU?$char_traits@D@std@@V?$allocator@D@2@@std@@ABV?$basic_string@GU?$char_traits@G@std@@V?$allocator@G@2@@2@ABV12@@Z$1:
	lea	ecx, DWORD PTR _scAcctPath$[ebp]
	jmp	DWORD PTR __imp_??1?$basic_string@DU?$char_traits@D@std@@V?$allocator@D@2@@std@@QAE@XZ
__unwindfunclet$?GetUserFilePath@@YA_NAAV?$basic_string@DU?$char_traits@D@std@@V?$allocator@D@2@@std@@ABV?$basic_string@GU?$char_traits@G@std@@V?$allocator@G@2@@2@ABV12@@Z$2:
	lea	ecx, DWORD PTR _wscDir$[ebp]
	jmp	DWORD PTR __imp_??1?$basic_string@GU?$char_traits@G@std@@V?$allocator@G@2@@std@@QAE@XZ
__unwindfunclet$?GetUserFilePath@@YA_NAAV?$basic_string@DU?$char_traits@D@std@@V?$allocator@D@2@@std@@ABV?$basic_string@GU?$char_traits@G@std@@V?$allocator@G@2@@2@ABV12@@Z$3:
	lea	ecx, DWORD PTR _wscFile$[ebp]
	jmp	DWORD PTR __imp_??1?$basic_string@GU?$char_traits@G@std@@V?$allocator@G@2@@std@@QAE@XZ
__unwindfunclet$?GetUserFilePath@@YA_NAAV?$basic_string@DU?$char_traits@D@std@@V?$allocator@D@2@@std@@ABV?$basic_string@GU?$char_traits@G@std@@V?$allocator@G@2@@2@ABV12@@Z$4:
	lea	ecx, DWORD PTR $T154187[ebp]
	jmp	DWORD PTR __imp_??1?$basic_string@DU?$char_traits@D@std@@V?$allocator@D@2@@std@@QAE@XZ
__unwindfunclet$?GetUserFilePath@@YA_NAAV?$basic_string@DU?$char_traits@D@std@@V?$allocator@D@2@@std@@ABV?$basic_string@GU?$char_traits@G@std@@V?$allocator@G@2@@2@ABV12@@Z$5:
	lea	ecx, DWORD PTR $T154188[ebp]
	jmp	DWORD PTR __imp_??1?$basic_string@DU?$char_traits@D@std@@V?$allocator@D@2@@std@@QAE@XZ
__unwindfunclet$?GetUserFilePath@@YA_NAAV?$basic_string@DU?$char_traits@D@std@@V?$allocator@D@2@@std@@ABV?$basic_string@GU?$char_traits@G@std@@V?$allocator@G@2@@2@ABV12@@Z$6:
	lea	ecx, DWORD PTR $T154189[ebp]
	jmp	DWORD PTR __imp_??1?$basic_string@DU?$char_traits@D@std@@V?$allocator@D@2@@std@@QAE@XZ
__unwindfunclet$?GetUserFilePath@@YA_NAAV?$basic_string@DU?$char_traits@D@std@@V?$allocator@D@2@@std@@ABV?$basic_string@GU?$char_traits@G@std@@V?$allocator@G@2@@2@ABV12@@Z$7:
	lea	ecx, DWORD PTR $T154190[ebp]
	jmp	DWORD PTR __imp_??1?$basic_string@DU?$char_traits@D@std@@V?$allocator@D@2@@std@@QAE@XZ
__unwindfunclet$?GetUserFilePath@@YA_NAAV?$basic_string@DU?$char_traits@D@std@@V?$allocator@D@2@@std@@ABV?$basic_string@GU?$char_traits@G@std@@V?$allocator@G@2@@2@ABV12@@Z$8:
	lea	ecx, DWORD PTR $T154191[ebp]
	jmp	DWORD PTR __imp_??1?$basic_string@DU?$char_traits@D@std@@V?$allocator@D@2@@std@@QAE@XZ
__unwindfunclet$?GetUserFilePath@@YA_NAAV?$basic_string@DU?$char_traits@D@std@@V?$allocator@D@2@@std@@ABV?$basic_string@GU?$char_traits@G@std@@V?$allocator@G@2@@2@ABV12@@Z$9:
	lea	ecx, DWORD PTR $T154192[ebp]
	jmp	DWORD PTR __imp_??1?$basic_string@DU?$char_traits@D@std@@V?$allocator@D@2@@std@@QAE@XZ
__ehhandler$?GetUserFilePath@@YA_NAAV?$basic_string@DU?$char_traits@D@std@@V?$allocator@D@2@@std@@ABV?$basic_string@GU?$char_traits@G@std@@V?$allocator@G@2@@2@ABV12@@Z:
	mov	edx, DWORD PTR [esp+8]
	lea	eax, DWORD PTR [edx+12]
	mov	ecx, DWORD PTR [edx-620]
	xor	ecx, eax
	call	@__security_check_cookie@4
	mov	ecx, DWORD PTR [edx-4]
	xor	ecx, eax
	call	@__security_check_cookie@4
	mov	eax, OFFSET __ehfuncinfo$?GetUserFilePath@@YA_NAAV?$basic_string@DU?$char_traits@D@std@@V?$allocator@D@2@@std@@ABV?$basic_string@GU?$char_traits@G@std@@V?$allocator@G@2@@2@ABV12@@Z
	jmp	___CxxFrameHandler3
text$x	ENDS
?GetUserFilePath@@YA_NAAV?$basic_string@DU?$char_traits@D@std@@V?$allocator@D@2@@std@@ABV?$basic_string@GU?$char_traits@G@std@@V?$allocator@G@2@@2@ABV12@@Z ENDP ; GetUserFilePath
PUBLIC	?HkAntiCheat@@YA?AW4HK_ERROR@@I@Z		; HkAntiCheat
EXTRN	__imp_?HkKick@@YA?AW4HK_ERROR@@ABV?$basic_string@GU?$char_traits@G@std@@V?$allocator@G@2@@std@@@Z:PROC
EXTRN	__imp_??$?HGU?$char_traits@G@std@@V?$allocator@G@1@@std@@YA?AV?$basic_string@GU?$char_traits@G@std@@V?$allocator@G@2@@0@ABV10@0@Z:PROC
EXTRN	__imp_?stows@@YA?AV?$basic_string@GU?$char_traits@G@std@@V?$allocator@G@2@@std@@ABV?$basic_string@DU?$char_traits@D@std@@V?$allocator@D@2@@2@@Z:PROC
EXTRN	__imp_?itos@@YA?AV?$basic_string@DU?$char_traits@D@std@@V?$allocator@D@2@@std@@H@Z:PROC
EXTRN	_memcpy:PROC
EXTRN	__imp_?hModServer@@3PAUHINSTANCE__@@A:DWORD
xdata$x	SEGMENT
__ehfuncinfo$?HkAntiCheat@@YA?AW4HK_ERROR@@I@Z DD 019930522H
	DD	010H
	DD	FLAT:__unwindtable$?HkAntiCheat@@YA?AW4HK_ERROR@@I@Z
	DD	2 DUP(00H)
	DD	2 DUP(00H)
	DD	00H
	DD	00H
__unwindtable$?HkAntiCheat@@YA?AW4HK_ERROR@@I@Z DD 0ffffffffH
	DD	FLAT:__unwindfunclet$?HkAntiCheat@@YA?AW4HK_ERROR@@I@Z$0
	DD	00H
	DD	FLAT:__unwindfunclet$?HkAntiCheat@@YA?AW4HK_ERROR@@I@Z$1
	DD	01H
	DD	FLAT:__unwindfunclet$?HkAntiCheat@@YA?AW4HK_ERROR@@I@Z$2
	DD	02H
	DD	FLAT:__unwindfunclet$?HkAntiCheat@@YA?AW4HK_ERROR@@I@Z$3
	DD	0ffffffffH
	DD	FLAT:__unwindfunclet$?HkAntiCheat@@YA?AW4HK_ERROR@@I@Z$4
	DD	04H
	DD	FLAT:__unwindfunclet$?HkAntiCheat@@YA?AW4HK_ERROR@@I@Z$5
	DD	05H
	DD	FLAT:__unwindfunclet$?HkAntiCheat@@YA?AW4HK_ERROR@@I@Z$6
	DD	06H
	DD	FLAT:__unwindfunclet$?HkAntiCheat@@YA?AW4HK_ERROR@@I@Z$7
	DD	0ffffffffH
	DD	FLAT:__unwindfunclet$?HkAntiCheat@@YA?AW4HK_ERROR@@I@Z$8
	DD	08H
	DD	FLAT:__unwindfunclet$?HkAntiCheat@@YA?AW4HK_ERROR@@I@Z$9
	DD	09H
	DD	FLAT:__unwindfunclet$?HkAntiCheat@@YA?AW4HK_ERROR@@I@Z$10
	DD	0aH
	DD	FLAT:__unwindfunclet$?HkAntiCheat@@YA?AW4HK_ERROR@@I@Z$11
	DD	0ffffffffH
	DD	FLAT:__unwindfunclet$?HkAntiCheat@@YA?AW4HK_ERROR@@I@Z$12
	DD	0cH
	DD	FLAT:__unwindfunclet$?HkAntiCheat@@YA?AW4HK_ERROR@@I@Z$13
	DD	0dH
	DD	FLAT:__unwindfunclet$?HkAntiCheat@@YA?AW4HK_ERROR@@I@Z$14
	DD	0eH
	DD	FLAT:__unwindfunclet$?HkAntiCheat@@YA?AW4HK_ERROR@@I@Z$15
; Function compile flags: /Odtp
xdata$x	ENDS
_TEXT	SEGMENT
tv236 = -628						; size = 4
tv252 = -624						; size = 4
tv234 = -620						; size = 4
tv251 = -616						; size = 4
tv232 = -612						; size = 4
tv250 = -608						; size = 4
tv230 = -604						; size = 4
tv249 = -600						; size = 4
tv228 = -596						; size = 4
tv248 = -592						; size = 4
tv226 = -588						; size = 4
tv247 = -584						; size = 4
tv224 = -580						; size = 4
tv246 = -576						; size = 4
tv222 = -572						; size = 4
tv245 = -568						; size = 4
tv220 = -564						; size = 4
tv244 = -560						; size = 4
tv218 = -556						; size = 4
tv243 = -552						; size = 4
tv216 = -548						; size = 4
tv242 = -544						; size = 4
tv214 = -540						; size = 4
tv241 = -536						; size = 4
tv212 = -532						; size = 4
tv240 = -528						; size = 4
tv210 = -524						; size = 4
tv239 = -520						; size = 4
tv208 = -516						; size = 4
tv238 = -512						; size = 4
tv206 = -508						; size = 4
tv237 = -504						; size = 4
$T154224 = -500						; size = 28
$T154223 = -472						; size = 28
$T154222 = -444						; size = 28
$T154221 = -416						; size = 28
$T154220 = -388						; size = 28
$T154219 = -360						; size = 28
$T154218 = -332						; size = 28
$T154217 = -304						; size = 28
$T154216 = -276						; size = 28
$T154215 = -248						; size = 28
$T154214 = -220						; size = 28
$T154213 = -192						; size = 28
$T154212 = -164						; size = 28
$T154211 = -136						; size = 28
$T154210 = -108						; size = 28
$T154209 = -80						; size = 28
_lCompare$ = -52					; size = 4
_FLPossibleCheatingDetected$ = -48			; size = 4
_FLAntiCheat4$ = -44					; size = 4
_cRes$ = -37						; size = 1
_lRet$ = -36						; size = 4
_FLAntiCheat1$ = -32					; size = 4
_iShip$ = -28						; size = 4
_FLAntiCheat2$ = -24					; size = 4
_szObjPtr$ = -20					; size = 4
_FLAntiCheat3$ = -16					; size = 4
__$EHRec$ = -12						; size = 12
_iClientID$ = 8						; size = 4
?HkAntiCheat@@YA?AW4HK_ERROR@@I@Z PROC			; HkAntiCheat
; Line 520
	push	ebp
	mov	ebp, esp
	push	-1
	push	__ehhandler$?HkAntiCheat@@YA?AW4HK_ERROR@@I@Z
	mov	eax, DWORD PTR fs:0
	push	eax
	sub	esp, 616				; 00000268H
	mov	eax, DWORD PTR ___security_cookie
	xor	eax, ebp
	push	eax
	lea	eax, DWORD PTR __$EHRec$[ebp]
	mov	DWORD PTR fs:0, eax
; Line 527
	mov	eax, DWORD PTR __imp_?hModServer@@3PAUHINSTANCE__@@A
	mov	ecx, DWORD PTR [eax]
	add	ecx, 459040				; 00070120H
	mov	DWORD PTR _FLAntiCheat1$[ebp], ecx
; Line 528
	mov	edx, DWORD PTR __imp_?hModServer@@3PAUHINSTANCE__@@A
	mov	eax, DWORD PTR [edx]
	add	eax, 458016				; 0006fd20H
	mov	DWORD PTR _FLAntiCheat2$[ebp], eax
; Line 529
	mov	ecx, DWORD PTR __imp_?hModServer@@3PAUHINSTANCE__@@A
	mov	edx, DWORD PTR [ecx]
	add	edx, 457456				; 0006faf0H
	mov	DWORD PTR _FLAntiCheat3$[ebp], edx
; Line 530
	mov	eax, DWORD PTR __imp_?hModServer@@3PAUHINSTANCE__@@A
	mov	ecx, DWORD PTR [eax]
	add	ecx, 457376				; 0006faa0H
	mov	DWORD PTR _FLAntiCheat4$[ebp], ecx
; Line 531
	mov	edx, DWORD PTR __imp_?hModServer@@3PAUHINSTANCE__@@A
	mov	eax, DWORD PTR [edx]
	add	eax, 456048				; 0006f570H
	mov	DWORD PTR _FLPossibleCheatingDetected$[ebp], eax
; Line 534
	mov	DWORD PTR _iShip$[ebp], 0
; Line 535
	lea	ecx, DWORD PTR _iShip$[ebp]
	push	ecx
	lea	edx, DWORD PTR _iClientID$[ebp]
	push	edx
	call	DWORD PTR __imp_?GetShip@Player@pub@@YAHABIAAI@Z
	add	esp, 8
; Line 536
	cmp	DWORD PTR _iShip$[ebp], 0
	je	SHORT $LN5@HkAntiChea
; Line 537
	xor	eax, eax
	jmp	$LN6@HkAntiChea
$LN5@HkAntiChea:
; Line 540
	push	4
	mov	eax, DWORD PTR __imp_?Players@@3VPlayerDB@@A
	push	eax
	lea	ecx, DWORD PTR _szObjPtr$[ebp]
	push	ecx
	call	_memcpy
	add	esp, 12					; 0000000cH
; Line 541
	mov	edx, DWORD PTR _iClientID$[ebp]
	sub	edx, 1
	imul	edx, 1048				; 00000418H
	add	edx, DWORD PTR _szObjPtr$[ebp]
	mov	DWORD PTR _szObjPtr$[ebp], edx
; Line 548
	mov	ecx, DWORD PTR _szObjPtr$[ebp]
; Line 549
	call	DWORD PTR _FLAntiCheat1$[ebp]
; Line 550
	mov	BYTE PTR _cRes$[ebp], al
; Line 553
	movsx	eax, BYTE PTR _cRes$[ebp]
	test	eax, eax
	je	$LN4@HkAntiChea
; Line 555
	mov	ecx, DWORD PTR _iClientID$[ebp]
	push	ecx
	lea	edx, DWORD PTR $T154209[ebp]
	push	edx
	call	DWORD PTR __imp_?itos@@YA?AV?$basic_string@DU?$char_traits@D@std@@V?$allocator@D@2@@std@@H@Z
	add	esp, 8
	mov	DWORD PTR tv237[ebp], eax
	mov	eax, DWORD PTR tv237[ebp]
	mov	DWORD PTR tv206[ebp], eax
	mov	DWORD PTR __$EHRec$[ebp+8], 0
	mov	ecx, DWORD PTR tv206[ebp]
	push	ecx
	lea	edx, DWORD PTR $T154210[ebp]
	push	edx
	call	DWORD PTR __imp_?stows@@YA?AV?$basic_string@GU?$char_traits@G@std@@V?$allocator@G@2@@std@@ABV?$basic_string@DU?$char_traits@D@std@@V?$allocator@D@2@@2@@Z
	add	esp, 8
	mov	DWORD PTR tv238[ebp], eax
	mov	eax, DWORD PTR tv238[ebp]
	mov	DWORD PTR tv208[ebp], eax
	mov	BYTE PTR __$EHRec$[ebp+8], 1
	mov	ecx, DWORD PTR tv208[ebp]
	push	ecx
	push	OFFSET $SG143645
	lea	ecx, DWORD PTR $T154211[ebp]
	call	DWORD PTR __imp_??0?$basic_string@GU?$char_traits@G@std@@V?$allocator@G@2@@std@@QAE@PBG@Z
	mov	DWORD PTR tv239[ebp], eax
	mov	edx, DWORD PTR tv239[ebp]
	mov	DWORD PTR tv210[ebp], edx
	mov	BYTE PTR __$EHRec$[ebp+8], 2
	mov	eax, DWORD PTR tv210[ebp]
	push	eax
	lea	ecx, DWORD PTR $T154212[ebp]
	push	ecx
	call	DWORD PTR __imp_??$?HGU?$char_traits@G@std@@V?$allocator@G@1@@std@@YA?AV?$basic_string@GU?$char_traits@G@std@@V?$allocator@G@2@@0@ABV10@0@Z
	add	esp, 12					; 0000000cH
	mov	DWORD PTR tv240[ebp], eax
	mov	edx, DWORD PTR tv240[ebp]
	mov	DWORD PTR tv212[ebp], edx
	mov	BYTE PTR __$EHRec$[ebp+8], 3
	mov	eax, DWORD PTR tv212[ebp]
	push	eax
	call	DWORD PTR __imp_?HkKick@@YA?AW4HK_ERROR@@ABV?$basic_string@GU?$char_traits@G@std@@V?$allocator@G@2@@std@@@Z
	add	esp, 4
	mov	BYTE PTR __$EHRec$[ebp+8], 2
	lea	ecx, DWORD PTR $T154212[ebp]
	call	DWORD PTR __imp_??1?$basic_string@GU?$char_traits@G@std@@V?$allocator@G@2@@std@@QAE@XZ
	mov	BYTE PTR __$EHRec$[ebp+8], 1
	lea	ecx, DWORD PTR $T154211[ebp]
	call	DWORD PTR __imp_??1?$basic_string@GU?$char_traits@G@std@@V?$allocator@G@2@@std@@QAE@XZ
	mov	BYTE PTR __$EHRec$[ebp+8], 0
	lea	ecx, DWORD PTR $T154210[ebp]
	call	DWORD PTR __imp_??1?$basic_string@GU?$char_traits@G@std@@V?$allocator@G@2@@std@@QAE@XZ
	mov	DWORD PTR __$EHRec$[ebp+8], -1
	lea	ecx, DWORD PTR $T154209[ebp]
	call	DWORD PTR __imp_??1?$basic_string@DU?$char_traits@D@std@@V?$allocator@D@2@@std@@QAE@XZ
; Line 556
	mov	eax, 25					; 00000019H
	jmp	$LN6@HkAntiChea
$LN4@HkAntiChea:
; Line 562
	mov	ecx, DWORD PTR _szObjPtr$[ebp]
; Line 563
	call	DWORD PTR _FLAntiCheat2$[ebp]
; Line 564
	mov	BYTE PTR _cRes$[ebp], al
; Line 567
	movsx	ecx, BYTE PTR _cRes$[ebp]
	test	ecx, ecx
	je	$LN3@HkAntiChea
; Line 569
	mov	edx, DWORD PTR _iClientID$[ebp]
	push	edx
	lea	eax, DWORD PTR $T154213[ebp]
	push	eax
	call	DWORD PTR __imp_?itos@@YA?AV?$basic_string@DU?$char_traits@D@std@@V?$allocator@D@2@@std@@H@Z
	add	esp, 8
	mov	DWORD PTR tv241[ebp], eax
	mov	ecx, DWORD PTR tv241[ebp]
	mov	DWORD PTR tv214[ebp], ecx
	mov	DWORD PTR __$EHRec$[ebp+8], 4
	mov	edx, DWORD PTR tv214[ebp]
	push	edx
	lea	eax, DWORD PTR $T154214[ebp]
	push	eax
	call	DWORD PTR __imp_?stows@@YA?AV?$basic_string@GU?$char_traits@G@std@@V?$allocator@G@2@@std@@ABV?$basic_string@DU?$char_traits@D@std@@V?$allocator@D@2@@2@@Z
	add	esp, 8
	mov	DWORD PTR tv242[ebp], eax
	mov	ecx, DWORD PTR tv242[ebp]
	mov	DWORD PTR tv216[ebp], ecx
	mov	BYTE PTR __$EHRec$[ebp+8], 5
	mov	edx, DWORD PTR tv216[ebp]
	push	edx
	push	OFFSET $SG143651
	lea	ecx, DWORD PTR $T154215[ebp]
	call	DWORD PTR __imp_??0?$basic_string@GU?$char_traits@G@std@@V?$allocator@G@2@@std@@QAE@PBG@Z
	mov	DWORD PTR tv243[ebp], eax
	mov	eax, DWORD PTR tv243[ebp]
	mov	DWORD PTR tv218[ebp], eax
	mov	BYTE PTR __$EHRec$[ebp+8], 6
	mov	ecx, DWORD PTR tv218[ebp]
	push	ecx
	lea	edx, DWORD PTR $T154216[ebp]
	push	edx
	call	DWORD PTR __imp_??$?HGU?$char_traits@G@std@@V?$allocator@G@1@@std@@YA?AV?$basic_string@GU?$char_traits@G@std@@V?$allocator@G@2@@0@ABV10@0@Z
	add	esp, 12					; 0000000cH
	mov	DWORD PTR tv244[ebp], eax
	mov	eax, DWORD PTR tv244[ebp]
	mov	DWORD PTR tv220[ebp], eax
	mov	BYTE PTR __$EHRec$[ebp+8], 7
	mov	ecx, DWORD PTR tv220[ebp]
	push	ecx
	call	DWORD PTR __imp_?HkKick@@YA?AW4HK_ERROR@@ABV?$basic_string@GU?$char_traits@G@std@@V?$allocator@G@2@@std@@@Z
	add	esp, 4
	mov	BYTE PTR __$EHRec$[ebp+8], 6
	lea	ecx, DWORD PTR $T154216[ebp]
	call	DWORD PTR __imp_??1?$basic_string@GU?$char_traits@G@std@@V?$allocator@G@2@@std@@QAE@XZ
	mov	BYTE PTR __$EHRec$[ebp+8], 5
	lea	ecx, DWORD PTR $T154215[ebp]
	call	DWORD PTR __imp_??1?$basic_string@GU?$char_traits@G@std@@V?$allocator@G@2@@std@@QAE@XZ
	mov	BYTE PTR __$EHRec$[ebp+8], 4
	lea	ecx, DWORD PTR $T154214[ebp]
	call	DWORD PTR __imp_??1?$basic_string@GU?$char_traits@G@std@@V?$allocator@G@2@@std@@QAE@XZ
	mov	DWORD PTR __$EHRec$[ebp+8], -1
	lea	ecx, DWORD PTR $T154213[ebp]
	call	DWORD PTR __imp_??1?$basic_string@DU?$char_traits@D@std@@V?$allocator@D@2@@std@@QAE@XZ
; Line 570
	mov	eax, 25					; 00000019H
	jmp	$LN6@HkAntiChea
$LN3@HkAntiChea:
; Line 578
	mov	ecx, DWORD PTR _szObjPtr$[ebp]
; Line 579
	mov	eax, DWORD PTR [ecx+800]
; Line 580
	mov	DWORD PTR _lCompare$[ebp], eax
; Line 581
	call	DWORD PTR _FLAntiCheat3$[ebp]
; Line 582
	mov	DWORD PTR _lRet$[ebp], eax
; Line 585
	mov	edx, DWORD PTR _lRet$[ebp]
	cmp	edx, DWORD PTR _lCompare$[ebp]
	jbe	$LN2@HkAntiChea
; Line 587
	mov	eax, DWORD PTR _iClientID$[ebp]
	push	eax
	lea	ecx, DWORD PTR $T154217[ebp]
	push	ecx
	call	DWORD PTR __imp_?itos@@YA?AV?$basic_string@DU?$char_traits@D@std@@V?$allocator@D@2@@std@@H@Z
	add	esp, 8
	mov	DWORD PTR tv245[ebp], eax
	mov	edx, DWORD PTR tv245[ebp]
	mov	DWORD PTR tv222[ebp], edx
	mov	DWORD PTR __$EHRec$[ebp+8], 8
	mov	eax, DWORD PTR tv222[ebp]
	push	eax
	lea	ecx, DWORD PTR $T154218[ebp]
	push	ecx
	call	DWORD PTR __imp_?stows@@YA?AV?$basic_string@GU?$char_traits@G@std@@V?$allocator@G@2@@std@@ABV?$basic_string@DU?$char_traits@D@std@@V?$allocator@D@2@@2@@Z
	add	esp, 8
	mov	DWORD PTR tv246[ebp], eax
	mov	edx, DWORD PTR tv246[ebp]
	mov	DWORD PTR tv224[ebp], edx
	mov	BYTE PTR __$EHRec$[ebp+8], 9
	mov	eax, DWORD PTR tv224[ebp]
	push	eax
	push	OFFSET $SG143659
	lea	ecx, DWORD PTR $T154219[ebp]
	call	DWORD PTR __imp_??0?$basic_string@GU?$char_traits@G@std@@V?$allocator@G@2@@std@@QAE@PBG@Z
	mov	DWORD PTR tv247[ebp], eax
	mov	ecx, DWORD PTR tv247[ebp]
	mov	DWORD PTR tv226[ebp], ecx
	mov	BYTE PTR __$EHRec$[ebp+8], 10		; 0000000aH
	mov	edx, DWORD PTR tv226[ebp]
	push	edx
	lea	eax, DWORD PTR $T154220[ebp]
	push	eax
	call	DWORD PTR __imp_??$?HGU?$char_traits@G@std@@V?$allocator@G@1@@std@@YA?AV?$basic_string@GU?$char_traits@G@std@@V?$allocator@G@2@@0@ABV10@0@Z
	add	esp, 12					; 0000000cH
	mov	DWORD PTR tv248[ebp], eax
	mov	ecx, DWORD PTR tv248[ebp]
	mov	DWORD PTR tv228[ebp], ecx
	mov	BYTE PTR __$EHRec$[ebp+8], 11		; 0000000bH
	mov	edx, DWORD PTR tv228[ebp]
	push	edx
	call	DWORD PTR __imp_?HkKick@@YA?AW4HK_ERROR@@ABV?$basic_string@GU?$char_traits@G@std@@V?$allocator@G@2@@std@@@Z
	add	esp, 4
	mov	BYTE PTR __$EHRec$[ebp+8], 10		; 0000000aH
	lea	ecx, DWORD PTR $T154220[ebp]
	call	DWORD PTR __imp_??1?$basic_string@GU?$char_traits@G@std@@V?$allocator@G@2@@std@@QAE@XZ
	mov	BYTE PTR __$EHRec$[ebp+8], 9
	lea	ecx, DWORD PTR $T154219[ebp]
	call	DWORD PTR __imp_??1?$basic_string@GU?$char_traits@G@std@@V?$allocator@G@2@@std@@QAE@XZ
	mov	BYTE PTR __$EHRec$[ebp+8], 8
	lea	ecx, DWORD PTR $T154218[ebp]
	call	DWORD PTR __imp_??1?$basic_string@GU?$char_traits@G@std@@V?$allocator@G@2@@std@@QAE@XZ
	mov	DWORD PTR __$EHRec$[ebp+8], -1
	lea	ecx, DWORD PTR $T154217[ebp]
	call	DWORD PTR __imp_??1?$basic_string@DU?$char_traits@D@std@@V?$allocator@D@2@@std@@QAE@XZ
; Line 588
	mov	eax, 25					; 00000019H
	jmp	$LN6@HkAntiChea
$LN2@HkAntiChea:
; Line 594
	mov	ecx, DWORD PTR _szObjPtr$[ebp]
; Line 595
	call	DWORD PTR _FLAntiCheat4$[ebp]
; Line 596
	mov	BYTE PTR _cRes$[ebp], al
; Line 599
	movsx	eax, BYTE PTR _cRes$[ebp]
	test	eax, eax
	je	$LN1@HkAntiChea
; Line 601
	mov	ecx, DWORD PTR _iClientID$[ebp]
	push	ecx
	lea	edx, DWORD PTR $T154221[ebp]
	push	edx
	call	DWORD PTR __imp_?itos@@YA?AV?$basic_string@DU?$char_traits@D@std@@V?$allocator@D@2@@std@@H@Z
	add	esp, 8
	mov	DWORD PTR tv249[ebp], eax
	mov	eax, DWORD PTR tv249[ebp]
	mov	DWORD PTR tv230[ebp], eax
	mov	DWORD PTR __$EHRec$[ebp+8], 12		; 0000000cH
	mov	ecx, DWORD PTR tv230[ebp]
	push	ecx
	lea	edx, DWORD PTR $T154222[ebp]
	push	edx
	call	DWORD PTR __imp_?stows@@YA?AV?$basic_string@GU?$char_traits@G@std@@V?$allocator@G@2@@std@@ABV?$basic_string@DU?$char_traits@D@std@@V?$allocator@D@2@@2@@Z
	add	esp, 8
	mov	DWORD PTR tv250[ebp], eax
	mov	eax, DWORD PTR tv250[ebp]
	mov	DWORD PTR tv232[ebp], eax
	mov	BYTE PTR __$EHRec$[ebp+8], 13		; 0000000dH
	mov	ecx, DWORD PTR tv232[ebp]
	push	ecx
	push	OFFSET $SG143665
	lea	ecx, DWORD PTR $T154223[ebp]
	call	DWORD PTR __imp_??0?$basic_string@GU?$char_traits@G@std@@V?$allocator@G@2@@std@@QAE@PBG@Z
	mov	DWORD PTR tv251[ebp], eax
	mov	edx, DWORD PTR tv251[ebp]
	mov	DWORD PTR tv234[ebp], edx
	mov	BYTE PTR __$EHRec$[ebp+8], 14		; 0000000eH
	mov	eax, DWORD PTR tv234[ebp]
	push	eax
	lea	ecx, DWORD PTR $T154224[ebp]
	push	ecx
	call	DWORD PTR __imp_??$?HGU?$char_traits@G@std@@V?$allocator@G@1@@std@@YA?AV?$basic_string@GU?$char_traits@G@std@@V?$allocator@G@2@@0@ABV10@0@Z
	add	esp, 12					; 0000000cH
	mov	DWORD PTR tv252[ebp], eax
	mov	edx, DWORD PTR tv252[ebp]
	mov	DWORD PTR tv236[ebp], edx
	mov	BYTE PTR __$EHRec$[ebp+8], 15		; 0000000fH
	mov	eax, DWORD PTR tv236[ebp]
	push	eax
	call	DWORD PTR __imp_?HkKick@@YA?AW4HK_ERROR@@ABV?$basic_string@GU?$char_traits@G@std@@V?$allocator@G@2@@std@@@Z
	add	esp, 4
	mov	BYTE PTR __$EHRec$[ebp+8], 14		; 0000000eH
	lea	ecx, DWORD PTR $T154224[ebp]
	call	DWORD PTR __imp_??1?$basic_string@GU?$char_traits@G@std@@V?$allocator@G@2@@std@@QAE@XZ
	mov	BYTE PTR __$EHRec$[ebp+8], 13		; 0000000dH
	lea	ecx, DWORD PTR $T154223[ebp]
	call	DWORD PTR __imp_??1?$basic_string@GU?$char_traits@G@std@@V?$allocator@G@2@@std@@QAE@XZ
	mov	BYTE PTR __$EHRec$[ebp+8], 12		; 0000000cH
	lea	ecx, DWORD PTR $T154222[ebp]
	call	DWORD PTR __imp_??1?$basic_string@GU?$char_traits@G@std@@V?$allocator@G@2@@std@@QAE@XZ
	mov	DWORD PTR __$EHRec$[ebp+8], -1
	lea	ecx, DWORD PTR $T154221[ebp]
	call	DWORD PTR __imp_??1?$basic_string@DU?$char_traits@D@std@@V?$allocator@D@2@@std@@QAE@XZ
; Line 602
	mov	eax, 25					; 00000019H
	jmp	SHORT $LN6@HkAntiChea
$LN1@HkAntiChea:
; Line 605
	xor	eax, eax
$LN6@HkAntiChea:
; Line 606
	mov	ecx, DWORD PTR __$EHRec$[ebp]
	mov	DWORD PTR fs:0, ecx
	pop	ecx
	mov	esp, ebp
	pop	ebp
	ret	0
_TEXT	ENDS
text$x	SEGMENT
__unwindfunclet$?HkAntiCheat@@YA?AW4HK_ERROR@@I@Z$0:
	lea	ecx, DWORD PTR $T154209[ebp]
	jmp	DWORD PTR __imp_??1?$basic_string@DU?$char_traits@D@std@@V?$allocator@D@2@@std@@QAE@XZ
__unwindfunclet$?HkAntiCheat@@YA?AW4HK_ERROR@@I@Z$1:
	lea	ecx, DWORD PTR $T154210[ebp]
	jmp	DWORD PTR __imp_??1?$basic_string@GU?$char_traits@G@std@@V?$allocator@G@2@@std@@QAE@XZ
__unwindfunclet$?HkAntiCheat@@YA?AW4HK_ERROR@@I@Z$2:
	lea	ecx, DWORD PTR $T154211[ebp]
	jmp	DWORD PTR __imp_??1?$basic_string@GU?$char_traits@G@std@@V?$allocator@G@2@@std@@QAE@XZ
__unwindfunclet$?HkAntiCheat@@YA?AW4HK_ERROR@@I@Z$3:
	lea	ecx, DWORD PTR $T154212[ebp]
	jmp	DWORD PTR __imp_??1?$basic_string@GU?$char_traits@G@std@@V?$allocator@G@2@@std@@QAE@XZ
__unwindfunclet$?HkAntiCheat@@YA?AW4HK_ERROR@@I@Z$4:
	lea	ecx, DWORD PTR $T154213[ebp]
	jmp	DWORD PTR __imp_??1?$basic_string@DU?$char_traits@D@std@@V?$allocator@D@2@@std@@QAE@XZ
__unwindfunclet$?HkAntiCheat@@YA?AW4HK_ERROR@@I@Z$5:
	lea	ecx, DWORD PTR $T154214[ebp]
	jmp	DWORD PTR __imp_??1?$basic_string@GU?$char_traits@G@std@@V?$allocator@G@2@@std@@QAE@XZ
__unwindfunclet$?HkAntiCheat@@YA?AW4HK_ERROR@@I@Z$6:
	lea	ecx, DWORD PTR $T154215[ebp]
	jmp	DWORD PTR __imp_??1?$basic_string@GU?$char_traits@G@std@@V?$allocator@G@2@@std@@QAE@XZ
__unwindfunclet$?HkAntiCheat@@YA?AW4HK_ERROR@@I@Z$7:
	lea	ecx, DWORD PTR $T154216[ebp]
	jmp	DWORD PTR __imp_??1?$basic_string@GU?$char_traits@G@std@@V?$allocator@G@2@@std@@QAE@XZ
__unwindfunclet$?HkAntiCheat@@YA?AW4HK_ERROR@@I@Z$8:
	lea	ecx, DWORD PTR $T154217[ebp]
	jmp	DWORD PTR __imp_??1?$basic_string@DU?$char_traits@D@std@@V?$allocator@D@2@@std@@QAE@XZ
__unwindfunclet$?HkAntiCheat@@YA?AW4HK_ERROR@@I@Z$9:
	lea	ecx, DWORD PTR $T154218[ebp]
	jmp	DWORD PTR __imp_??1?$basic_string@GU?$char_traits@G@std@@V?$allocator@G@2@@std@@QAE@XZ
__unwindfunclet$?HkAntiCheat@@YA?AW4HK_ERROR@@I@Z$10:
	lea	ecx, DWORD PTR $T154219[ebp]
	jmp	DWORD PTR __imp_??1?$basic_string@GU?$char_traits@G@std@@V?$allocator@G@2@@std@@QAE@XZ
__unwindfunclet$?HkAntiCheat@@YA?AW4HK_ERROR@@I@Z$11:
	lea	ecx, DWORD PTR $T154220[ebp]
	jmp	DWORD PTR __imp_??1?$basic_string@GU?$char_traits@G@std@@V?$allocator@G@2@@std@@QAE@XZ
__unwindfunclet$?HkAntiCheat@@YA?AW4HK_ERROR@@I@Z$12:
	lea	ecx, DWORD PTR $T154221[ebp]
	jmp	DWORD PTR __imp_??1?$basic_string@DU?$char_traits@D@std@@V?$allocator@D@2@@std@@QAE@XZ
__unwindfunclet$?HkAntiCheat@@YA?AW4HK_ERROR@@I@Z$13:
	lea	ecx, DWORD PTR $T154222[ebp]
	jmp	DWORD PTR __imp_??1?$basic_string@GU?$char_traits@G@std@@V?$allocator@G@2@@std@@QAE@XZ
__unwindfunclet$?HkAntiCheat@@YA?AW4HK_ERROR@@I@Z$14:
	lea	ecx, DWORD PTR $T154223[ebp]
	jmp	DWORD PTR __imp_??1?$basic_string@GU?$char_traits@G@std@@V?$allocator@G@2@@std@@QAE@XZ
__unwindfunclet$?HkAntiCheat@@YA?AW4HK_ERROR@@I@Z$15:
	lea	ecx, DWORD PTR $T154224[ebp]
	jmp	DWORD PTR __imp_??1?$basic_string@GU?$char_traits@G@std@@V?$allocator@G@2@@std@@QAE@XZ
__ehhandler$?HkAntiCheat@@YA?AW4HK_ERROR@@I@Z:
	mov	edx, DWORD PTR [esp+8]
	lea	eax, DWORD PTR [edx+12]
	mov	ecx, DWORD PTR [edx-620]
	xor	ecx, eax
	call	@__security_check_cookie@4
	mov	eax, OFFSET __ehfuncinfo$?HkAntiCheat@@YA?AW4HK_ERROR@@I@Z
	jmp	___CxxFrameHandler3
text$x	ENDS
?HkAntiCheat@@YA?AW4HK_ERROR@@I@Z ENDP			; HkAntiCheat
PUBLIC	??D?$_Iterator@$00@?$list@UIGNORE_INFO@@V?$allocator@UIGNORE_INFO@@@std@@@std@@QBEAAUIGNORE_INFO@@XZ ; std::list<IGNORE_INFO,std::allocator<IGNORE_INFO> >::_Iterator<1>::operator*
PUBLIC	??9?$_Const_iterator@$00@?$list@UIGNORE_INFO@@V?$allocator@UIGNORE_INFO@@@std@@@std@@QBE_NABV012@@Z ; std::list<IGNORE_INFO,std::allocator<IGNORE_INFO> >::_Const_iterator<1>::operator!=
PUBLIC	?end@?$list@UIGNORE_INFO@@V?$allocator@UIGNORE_INFO@@@std@@@std@@QAE?AV?$_Iterator@$00@12@XZ ; std::list<IGNORE_INFO,std::allocator<IGNORE_INFO> >::end
PUBLIC	??E?$_Iterator@$00@?$list@UIGNORE_INFO@@V?$allocator@UIGNORE_INFO@@@std@@@std@@QAE?AV012@H@Z ; std::list<IGNORE_INFO,std::allocator<IGNORE_INFO> >::_Iterator<1>::operator++
PUBLIC	?begin@?$list@UIGNORE_INFO@@V?$allocator@UIGNORE_INFO@@@std@@@std@@QAE?AV?$_Iterator@$00@12@XZ ; std::list<IGNORE_INFO,std::allocator<IGNORE_INFO> >::begin
PUBLIC	__$ArrayPad$
PUBLIC	?FormatSendChat@@YAXIABV?$basic_string@GU?$char_traits@G@std@@V?$allocator@G@2@@std@@00@Z ; FormatSendChat
EXTRN	__imp_?HkFMsg@@YA?AW4HK_ERROR@@IABV?$basic_string@GU?$char_traits@G@std@@V?$allocator@G@2@@std@@@Z:PROC
EXTRN	__imp_?find@?$basic_string@GU?$char_traits@G@std@@V?$allocator@G@2@@std@@QBEIABV12@I@Z:PROC
EXTRN	__imp_?compare@?$basic_string@GU?$char_traits@G@std@@V?$allocator@G@2@@std@@QBEHABV12@@Z:PROC
EXTRN	__imp_?ToLower@@YA?AV?$basic_string@GU?$char_traits@G@std@@V?$allocator@G@2@@std@@ABV12@@Z:PROC
EXTRN	__imp_?find@?$basic_string@GU?$char_traits@G@std@@V?$allocator@G@2@@std@@QBEIPBGI@Z:PROC
EXTRN	__imp_?set_bUserCmdIgnore@@3_NA:BYTE
xdata$x	SEGMENT
__ehfuncinfo$?FormatSendChat@@YAXIABV?$basic_string@GU?$char_traits@G@std@@V?$allocator@G@2@@std@@00@Z DD 019930522H
	DD	01fH
	DD	FLAT:__unwindtable$?FormatSendChat@@YAXIABV?$basic_string@GU?$char_traits@G@std@@V?$allocator@G@2@@std@@00@Z
	DD	2 DUP(00H)
	DD	2 DUP(00H)
	DD	00H
	DD	00H
__unwindtable$?FormatSendChat@@YAXIABV?$basic_string@GU?$char_traits@G@std@@V?$allocator@G@2@@std@@00@Z DD 0ffffffffH
	DD	FLAT:__unwindfunclet$?FormatSendChat@@YAXIABV?$basic_string@GU?$char_traits@G@std@@V?$allocator@G@2@@std@@00@Z$0
	DD	00H
	DD	FLAT:__unwindfunclet$?FormatSendChat@@YAXIABV?$basic_string@GU?$char_traits@G@std@@V?$allocator@G@2@@std@@00@Z$1
	DD	0ffffffffH
	DD	FLAT:__unwindfunclet$?FormatSendChat@@YAXIABV?$basic_string@GU?$char_traits@G@std@@V?$allocator@G@2@@std@@00@Z$2
	DD	02H
	DD	FLAT:__unwindfunclet$?FormatSendChat@@YAXIABV?$basic_string@GU?$char_traits@G@std@@V?$allocator@G@2@@std@@00@Z$3
	DD	0ffffffffH
	DD	FLAT:__unwindfunclet$?FormatSendChat@@YAXIABV?$basic_string@GU?$char_traits@G@std@@V?$allocator@G@2@@std@@00@Z$4
	DD	04H
	DD	FLAT:__unwindfunclet$?FormatSendChat@@YAXIABV?$basic_string@GU?$char_traits@G@std@@V?$allocator@G@2@@std@@00@Z$5
	DD	05H
	DD	FLAT:__unwindfunclet$?FormatSendChat@@YAXIABV?$basic_string@GU?$char_traits@G@std@@V?$allocator@G@2@@std@@00@Z$6
	DD	06H
	DD	FLAT:__unwindfunclet$?FormatSendChat@@YAXIABV?$basic_string@GU?$char_traits@G@std@@V?$allocator@G@2@@std@@00@Z$7
	DD	07H
	DD	FLAT:__unwindfunclet$?FormatSendChat@@YAXIABV?$basic_string@GU?$char_traits@G@std@@V?$allocator@G@2@@std@@00@Z$8
	DD	08H
	DD	FLAT:__unwindfunclet$?FormatSendChat@@YAXIABV?$basic_string@GU?$char_traits@G@std@@V?$allocator@G@2@@std@@00@Z$9
	DD	09H
	DD	FLAT:__unwindfunclet$?FormatSendChat@@YAXIABV?$basic_string@GU?$char_traits@G@std@@V?$allocator@G@2@@std@@00@Z$10
	DD	0aH
	DD	FLAT:__unwindfunclet$?FormatSendChat@@YAXIABV?$basic_string@GU?$char_traits@G@std@@V?$allocator@G@2@@std@@00@Z$11
	DD	0bH
	DD	FLAT:__unwindfunclet$?FormatSendChat@@YAXIABV?$basic_string@GU?$char_traits@G@std@@V?$allocator@G@2@@std@@00@Z$12
	DD	0cH
	DD	FLAT:__unwindfunclet$?FormatSendChat@@YAXIABV?$basic_string@GU?$char_traits@G@std@@V?$allocator@G@2@@std@@00@Z$13
	DD	0dH
	DD	FLAT:__unwindfunclet$?FormatSendChat@@YAXIABV?$basic_string@GU?$char_traits@G@std@@V?$allocator@G@2@@std@@00@Z$14
	DD	0eH
	DD	FLAT:__unwindfunclet$?FormatSendChat@@YAXIABV?$basic_string@GU?$char_traits@G@std@@V?$allocator@G@2@@std@@00@Z$15
	DD	0fH
	DD	FLAT:__unwindfunclet$?FormatSendChat@@YAXIABV?$basic_string@GU?$char_traits@G@std@@V?$allocator@G@2@@std@@00@Z$16
	DD	010H
	DD	FLAT:__unwindfunclet$?FormatSendChat@@YAXIABV?$basic_string@GU?$char_traits@G@std@@V?$allocator@G@2@@std@@00@Z$17
	DD	011H
	DD	FLAT:__unwindfunclet$?FormatSendChat@@YAXIABV?$basic_string@GU?$char_traits@G@std@@V?$allocator@G@2@@std@@00@Z$18
	DD	010H
	DD	FLAT:__unwindfunclet$?FormatSendChat@@YAXIABV?$basic_string@GU?$char_traits@G@std@@V?$allocator@G@2@@std@@00@Z$18
	DD	0fH
	DD	FLAT:__unwindfunclet$?FormatSendChat@@YAXIABV?$basic_string@GU?$char_traits@G@std@@V?$allocator@G@2@@std@@00@Z$18
	DD	0eH
	DD	FLAT:__unwindfunclet$?FormatSendChat@@YAXIABV?$basic_string@GU?$char_traits@G@std@@V?$allocator@G@2@@std@@00@Z$18
	DD	0dH
	DD	FLAT:__unwindfunclet$?FormatSendChat@@YAXIABV?$basic_string@GU?$char_traits@G@std@@V?$allocator@G@2@@std@@00@Z$18
	DD	0cH
	DD	FLAT:__unwindfunclet$?FormatSendChat@@YAXIABV?$basic_string@GU?$char_traits@G@std@@V?$allocator@G@2@@std@@00@Z$18
	DD	0bH
	DD	FLAT:__unwindfunclet$?FormatSendChat@@YAXIABV?$basic_string@GU?$char_traits@G@std@@V?$allocator@G@2@@std@@00@Z$18
	DD	0aH
	DD	FLAT:__unwindfunclet$?FormatSendChat@@YAXIABV?$basic_string@GU?$char_traits@G@std@@V?$allocator@G@2@@std@@00@Z$18
	DD	09H
	DD	FLAT:__unwindfunclet$?FormatSendChat@@YAXIABV?$basic_string@GU?$char_traits@G@std@@V?$allocator@G@2@@std@@00@Z$18
	DD	08H
	DD	FLAT:__unwindfunclet$?FormatSendChat@@YAXIABV?$basic_string@GU?$char_traits@G@std@@V?$allocator@G@2@@std@@00@Z$18
	DD	07H
	DD	FLAT:__unwindfunclet$?FormatSendChat@@YAXIABV?$basic_string@GU?$char_traits@G@std@@V?$allocator@G@2@@std@@00@Z$18
	DD	06H
	DD	FLAT:__unwindfunclet$?FormatSendChat@@YAXIABV?$basic_string@GU?$char_traits@G@std@@V?$allocator@G@2@@std@@00@Z$18
	DD	05H
	DD	FLAT:__unwindfunclet$?FormatSendChat@@YAXIABV?$basic_string@GU?$char_traits@G@std@@V?$allocator@G@2@@std@@00@Z$18
; Function compile flags: /Odtp
xdata$x	ENDS
_TEXT	SEGMENT
tv379 = -748						; size = 4
tv398 = -744						; size = 4
tv377 = -740						; size = 4
tv397 = -736						; size = 4
tv375 = -732						; size = 4
tv396 = -728						; size = 4
tv373 = -724						; size = 4
tv395 = -720						; size = 4
tv371 = -716						; size = 4
tv394 = -712						; size = 4
tv369 = -708						; size = 4
tv393 = -704						; size = 4
tv367 = -700						; size = 4
tv392 = -696						; size = 4
tv365 = -692						; size = 4
tv391 = -688						; size = 4
tv363 = -684						; size = 4
tv390 = -680						; size = 4
tv361 = -676						; size = 4
tv389 = -672						; size = 4
tv359 = -668						; size = 4
tv210 = -664						; size = 4
tv357 = -660						; size = 4
tv214 = -656						; size = 4
tv191 = -652						; size = 4
tv185 = -648						; size = 4
tv178 = -644						; size = 4
tv317 = -640						; size = 4
tv387 = -636						; size = 4
tv312 = -632						; size = 4
tv385 = -628						; size = 4
tv149 = -624						; size = 4
tv303 = -620						; size = 4
tv383 = -616						; size = 4
tv298 = -612						; size = 4
tv381 = -608						; size = 4
$T154271 = -604						; size = 4
$T154270 = -600						; size = 28
$T154269 = -572						; size = 28
$T154268 = -544						; size = 28
$T154267 = -516						; size = 28
$T154266 = -488						; size = 28
$T154265 = -460						; size = 28
$T154264 = -432						; size = 28
$T154263 = -404						; size = 28
$T154262 = -376						; size = 28
$T154261 = -348						; size = 28
$T154260 = -320						; size = 28
$T154259 = -292						; size = 28
$T154256 = -264						; size = 28
$T154255 = -236						; size = 28
$T154254 = -205						; size = 1
$T154251 = -204						; size = 28
$T154250 = -176						; size = 28
$T154249 = -145						; size = 1
$T154248 = -144						; size = 8
$T154247 = -136						; size = 8
_it$143812 = -128					; size = 8
_wscTRADataSenderColor$ = -120				; size = 28
_wscXML$ = -92						; size = 28
_cFormat$ = -61						; size = 1
_wszFormatBuf$ = -60					; size = 16
_wscTRADataFormat$ = -44				; size = 28
__$ArrayPad$ = -16					; size = 4
__$EHRec$ = -12						; size = 12
_iToClientID$ = 8					; size = 4
_wscSender$ = 12					; size = 4
_wscText$ = 16						; size = 4
_wscTextColor$ = 20					; size = 4
?FormatSendChat@@YAXIABV?$basic_string@GU?$char_traits@G@std@@V?$allocator@G@2@@std@@00@Z PROC ; FormatSendChat
; Line 614
	push	ebp
	mov	ebp, esp
	push	-1
	push	__ehhandler$?FormatSendChat@@YAXIABV?$basic_string@GU?$char_traits@G@std@@V?$allocator@G@2@@std@@00@Z
	mov	eax, DWORD PTR fs:0
	push	eax
	sub	esp, 736				; 000002e0H
	mov	eax, DWORD PTR ___security_cookie
	xor	eax, ebp
	mov	DWORD PTR __$ArrayPad$[ebp], eax
	push	eax
	lea	eax, DWORD PTR __$EHRec$[ebp]
	mov	DWORD PTR fs:0, eax
	mov	DWORD PTR $T154271[ebp], 0
; Line 617
	mov	eax, DWORD PTR __imp_?set_bUserCmdIgnore@@3_NA
	movzx	ecx, BYTE PTR [eax]
	test	ecx, ecx
	je	$LN18@FormatSend
; Line 619
	lea	edx, DWORD PTR _it$143812[ebp]
	push	edx
	mov	eax, DWORD PTR _iToClientID$[ebp]
	imul	eax, 2368				; 00000940H
	mov	ecx, DWORD PTR __imp_?ClientInfo@@3PAUCLIENT_INFO@@A
	lea	ecx, DWORD PTR [ecx+eax+2144]
	call	?begin@?$list@UIGNORE_INFO@@V?$allocator@UIGNORE_INFO@@@std@@@std@@QAE?AV?$_Iterator@$00@12@XZ ; std::list<IGNORE_INFO,std::allocator<IGNORE_INFO> >::begin
	jmp	SHORT $LN17@FormatSend
$LN16@FormatSend:
	push	0
	lea	edx, DWORD PTR $T154247[ebp]
	push	edx
	lea	ecx, DWORD PTR _it$143812[ebp]
	call	??E?$_Iterator@$00@?$list@UIGNORE_INFO@@V?$allocator@UIGNORE_INFO@@@std@@@std@@QAE?AV012@H@Z ; std::list<IGNORE_INFO,std::allocator<IGNORE_INFO> >::_Iterator<1>::operator++
$LN17@FormatSend:
	lea	eax, DWORD PTR $T154248[ebp]
	push	eax
	mov	ecx, DWORD PTR _iToClientID$[ebp]
	imul	ecx, 2368				; 00000940H
	mov	edx, DWORD PTR __imp_?ClientInfo@@3PAUCLIENT_INFO@@A
	lea	ecx, DWORD PTR [edx+ecx+2144]
	call	?end@?$list@UIGNORE_INFO@@V?$allocator@UIGNORE_INFO@@@std@@@std@@QAE?AV?$_Iterator@$00@12@XZ ; std::list<IGNORE_INFO,std::allocator<IGNORE_INFO> >::end
	push	eax
	lea	ecx, DWORD PTR _it$143812[ebp]
	call	??9?$_Const_iterator@$00@?$list@UIGNORE_INFO@@V?$allocator@UIGNORE_INFO@@@std@@@std@@QBE_NABV012@@Z ; std::list<IGNORE_INFO,std::allocator<IGNORE_INFO> >::_Const_iterator<1>::operator!=
	movzx	eax, al
	test	eax, eax
	je	$LN18@FormatSend
; Line 621
	push	0
	push	OFFSET $SG143823
	lea	ecx, DWORD PTR _it$143812[ebp]
	call	??D?$_Iterator@$00@?$list@UIGNORE_INFO@@V?$allocator@UIGNORE_INFO@@@std@@@std@@QBEAAUIGNORE_INFO@@XZ ; std::list<IGNORE_INFO,std::allocator<IGNORE_INFO> >::_Iterator<1>::operator*
	add	eax, 28					; 0000001cH
	mov	ecx, eax
	call	DWORD PTR __imp_?find@?$basic_string@GU?$char_traits@G@std@@V?$allocator@G@2@@std@@QBEIPBGI@Z
	cmp	eax, -1
	jne	$LN21@FormatSend
	lea	ecx, DWORD PTR _it$143812[ebp]
	call	??D?$_Iterator@$00@?$list@UIGNORE_INFO@@V?$allocator@UIGNORE_INFO@@@std@@@std@@QBEAAUIGNORE_INFO@@XZ ; std::list<IGNORE_INFO,std::allocator<IGNORE_INFO> >::_Iterator<1>::operator*
	push	eax
	lea	ecx, DWORD PTR $T154251[ebp]
	push	ecx
	call	DWORD PTR __imp_?ToLower@@YA?AV?$basic_string@GU?$char_traits@G@std@@V?$allocator@G@2@@std@@ABV12@@Z
	add	esp, 8
	mov	DWORD PTR tv381[ebp], eax
	mov	edx, DWORD PTR tv381[ebp]
	mov	DWORD PTR tv298[ebp], edx
	mov	DWORD PTR __$EHRec$[ebp+8], 0
	mov	eax, DWORD PTR $T154271[ebp]
	or	eax, 1
	mov	DWORD PTR $T154271[ebp], eax
	mov	ecx, DWORD PTR tv298[ebp]
	push	ecx
	mov	edx, DWORD PTR _wscSender$[ebp]
	push	edx
	lea	eax, DWORD PTR $T154250[ebp]
	push	eax
	call	DWORD PTR __imp_?ToLower@@YA?AV?$basic_string@GU?$char_traits@G@std@@V?$allocator@G@2@@std@@ABV12@@Z
	add	esp, 8
	mov	DWORD PTR tv383[ebp], eax
	mov	ecx, DWORD PTR tv383[ebp]
	mov	DWORD PTR tv303[ebp], ecx
	mov	DWORD PTR __$EHRec$[ebp+8], 1
	mov	edx, DWORD PTR $T154271[ebp]
	or	edx, 2
	mov	DWORD PTR $T154271[ebp], edx
	mov	ecx, DWORD PTR tv303[ebp]
	call	DWORD PTR __imp_?compare@?$basic_string@GU?$char_traits@G@std@@V?$allocator@G@2@@std@@QBEHABV12@@Z
	test	eax, eax
	jne	SHORT $LN21@FormatSend
	mov	DWORD PTR tv149[ebp], 1
	jmp	SHORT $LN22@FormatSend
$LN21@FormatSend:
	mov	DWORD PTR tv149[ebp], 0
$LN22@FormatSend:
	mov	al, BYTE PTR tv149[ebp]
	mov	BYTE PTR $T154249[ebp], al
	mov	DWORD PTR __$EHRec$[ebp+8], 0
	mov	ecx, DWORD PTR $T154271[ebp]
	and	ecx, 2
	je	SHORT $LN29@FormatSend
	and	DWORD PTR $T154271[ebp], -3		; fffffffdH
	lea	ecx, DWORD PTR $T154250[ebp]
	call	DWORD PTR __imp_??1?$basic_string@GU?$char_traits@G@std@@V?$allocator@G@2@@std@@QAE@XZ
$LN29@FormatSend:
	mov	DWORD PTR __$EHRec$[ebp+8], -1
	mov	edx, DWORD PTR $T154271[ebp]
	and	edx, 1
	je	SHORT $LN30@FormatSend
	and	DWORD PTR $T154271[ebp], -2		; fffffffeH
	lea	ecx, DWORD PTR $T154251[ebp]
	call	DWORD PTR __imp_??1?$basic_string@GU?$char_traits@G@std@@V?$allocator@G@2@@std@@QAE@XZ
$LN30@FormatSend:
	movzx	eax, BYTE PTR $T154249[ebp]
	test	eax, eax
	je	SHORT $LN14@FormatSend
	jmp	$LN19@FormatSend
; Line 622
	jmp	$LN13@FormatSend
$LN14@FormatSend:
; Line 623
	push	0
	push	OFFSET $SG143829
	lea	ecx, DWORD PTR _it$143812[ebp]
	call	??D?$_Iterator@$00@?$list@UIGNORE_INFO@@V?$allocator@UIGNORE_INFO@@@std@@@std@@QBEAAUIGNORE_INFO@@XZ ; std::list<IGNORE_INFO,std::allocator<IGNORE_INFO> >::_Iterator<1>::operator*
	add	eax, 28					; 0000001cH
	mov	ecx, eax
	call	DWORD PTR __imp_?find@?$basic_string@GU?$char_traits@G@std@@V?$allocator@G@2@@std@@QBEIPBGI@Z
	cmp	eax, -1
	je	$LN23@FormatSend
	push	0
	lea	ecx, DWORD PTR _it$143812[ebp]
	call	??D?$_Iterator@$00@?$list@UIGNORE_INFO@@V?$allocator@UIGNORE_INFO@@@std@@@std@@QBEAAUIGNORE_INFO@@XZ ; std::list<IGNORE_INFO,std::allocator<IGNORE_INFO> >::_Iterator<1>::operator*
	push	eax
	lea	ecx, DWORD PTR $T154256[ebp]
	push	ecx
	call	DWORD PTR __imp_?ToLower@@YA?AV?$basic_string@GU?$char_traits@G@std@@V?$allocator@G@2@@std@@ABV12@@Z
	add	esp, 8
	mov	DWORD PTR tv385[ebp], eax
	mov	edx, DWORD PTR tv385[ebp]
	mov	DWORD PTR tv312[ebp], edx
	mov	DWORD PTR __$EHRec$[ebp+8], 2
	mov	eax, DWORD PTR $T154271[ebp]
	or	eax, 4
	mov	DWORD PTR $T154271[ebp], eax
	mov	ecx, DWORD PTR tv312[ebp]
	push	ecx
	mov	edx, DWORD PTR _wscSender$[ebp]
	push	edx
	lea	eax, DWORD PTR $T154255[ebp]
	push	eax
	call	DWORD PTR __imp_?ToLower@@YA?AV?$basic_string@GU?$char_traits@G@std@@V?$allocator@G@2@@std@@ABV12@@Z
	add	esp, 8
	mov	DWORD PTR tv387[ebp], eax
	mov	ecx, DWORD PTR tv387[ebp]
	mov	DWORD PTR tv317[ebp], ecx
	mov	DWORD PTR __$EHRec$[ebp+8], 3
	mov	edx, DWORD PTR $T154271[ebp]
	or	edx, 8
	mov	DWORD PTR $T154271[ebp], edx
	mov	ecx, DWORD PTR tv317[ebp]
	call	DWORD PTR __imp_?find@?$basic_string@GU?$char_traits@G@std@@V?$allocator@G@2@@std@@QBEIABV12@I@Z
	cmp	eax, -1
	je	SHORT $LN23@FormatSend
	mov	DWORD PTR tv178[ebp], 1
	jmp	SHORT $LN24@FormatSend
$LN23@FormatSend:
	mov	DWORD PTR tv178[ebp], 0
$LN24@FormatSend:
	mov	al, BYTE PTR tv178[ebp]
	mov	BYTE PTR $T154254[ebp], al
	mov	DWORD PTR __$EHRec$[ebp+8], 2
	mov	ecx, DWORD PTR $T154271[ebp]
	and	ecx, 8
	je	SHORT $LN35@FormatSend
	and	DWORD PTR $T154271[ebp], -9		; fffffff7H
	lea	ecx, DWORD PTR $T154255[ebp]
	call	DWORD PTR __imp_??1?$basic_string@GU?$char_traits@G@std@@V?$allocator@G@2@@std@@QAE@XZ
$LN35@FormatSend:
	mov	DWORD PTR __$EHRec$[ebp+8], -1
	mov	edx, DWORD PTR $T154271[ebp]
	and	edx, 4
	je	SHORT $LN36@FormatSend
	and	DWORD PTR $T154271[ebp], -5		; fffffffbH
	lea	ecx, DWORD PTR $T154256[ebp]
	call	DWORD PTR __imp_??1?$basic_string@GU?$char_traits@G@std@@V?$allocator@G@2@@std@@QAE@XZ
$LN36@FormatSend:
	movzx	eax, BYTE PTR $T154254[ebp]
	test	eax, eax
	je	SHORT $LN13@FormatSend
; Line 624
	jmp	$LN19@FormatSend
$LN13@FormatSend:
; Line 625
	jmp	$LN16@FormatSend
$LN18@FormatSend:
; Line 630
	mov	ecx, DWORD PTR _iToClientID$[ebp]
	imul	ecx, 2368				; 00000940H
	mov	edx, DWORD PTR __imp_?ClientInfo@@3PAUCLIENT_INFO@@A
	mov	eax, DWORD PTR [edx+ecx+2184]
	mov	DWORD PTR tv185[ebp], eax
	cmp	DWORD PTR tv185[ebp], 1
	je	SHORT $LN9@FormatSend
	cmp	DWORD PTR tv185[ebp], 2
	je	SHORT $LN8@FormatSend
	jmp	SHORT $LN7@FormatSend
$LN9@FormatSend:
; Line 632
	mov	BYTE PTR _cFormat$[ebp], 144		; 00000090H
	jmp	SHORT $LN10@FormatSend
$LN8@FormatSend:
; Line 633
	mov	BYTE PTR _cFormat$[ebp], 16		; 00000010H
	jmp	SHORT $LN10@FormatSend
$LN7@FormatSend:
; Line 634
	mov	BYTE PTR _cFormat$[ebp], 0
$LN10@FormatSend:
; Line 638
	mov	ecx, DWORD PTR _iToClientID$[ebp]
	imul	ecx, 2368				; 00000940H
	mov	edx, DWORD PTR __imp_?ClientInfo@@3PAUCLIENT_INFO@@A
	mov	eax, DWORD PTR [edx+ecx+2188]
	mov	DWORD PTR tv191[ebp], eax
	cmp	DWORD PTR tv191[ebp], 1
	je	SHORT $LN4@FormatSend
	cmp	DWORD PTR tv191[ebp], 2
	je	SHORT $LN3@FormatSend
	cmp	DWORD PTR tv191[ebp], 3
	je	SHORT $LN2@FormatSend
	jmp	SHORT $LN1@FormatSend
$LN4@FormatSend:
; Line 640
	movzx	ecx, BYTE PTR _cFormat$[ebp]
	add	ecx, 1
	mov	BYTE PTR _cFormat$[ebp], cl
	jmp	SHORT $LN5@FormatSend
$LN3@FormatSend:
; Line 641
	movzx	edx, BYTE PTR _cFormat$[ebp]
	add	edx, 2
	mov	BYTE PTR _cFormat$[ebp], dl
	jmp	SHORT $LN5@FormatSend
$LN2@FormatSend:
; Line 642
	movzx	eax, BYTE PTR _cFormat$[ebp]
	add	eax, 4
	mov	BYTE PTR _cFormat$[ebp], al
	jmp	SHORT $LN5@FormatSend
$LN1@FormatSend:
; Line 643
	mov	cl, BYTE PTR _cFormat$[ebp]
	mov	BYTE PTR _cFormat$[ebp], cl
$LN5@FormatSend:
; Line 647
	movzx	edx, BYTE PTR _cFormat$[ebp]
	push	edx
	push	OFFSET $SG143853
	push	8
	lea	eax, DWORD PTR _wszFormatBuf$[ebp]
	push	eax
	call	_swprintf
	add	esp, 16					; 00000010H
; Line 648
	lea	ecx, DWORD PTR _wszFormatBuf$[ebp]
	push	ecx
	lea	ecx, DWORD PTR _wscTRADataFormat$[ebp]
	call	DWORD PTR __imp_??0?$basic_string@GU?$char_traits@G@std@@V?$allocator@G@2@@std@@QAE@PBG@Z
	mov	DWORD PTR __$EHRec$[ebp+8], 4
; Line 649
	push	OFFSET $SG143856
	lea	ecx, DWORD PTR _wscTRADataSenderColor$[ebp]
	call	DWORD PTR __imp_??0?$basic_string@GU?$char_traits@G@std@@V?$allocator@G@2@@std@@QAE@PBG@Z
	mov	BYTE PTR __$EHRec$[ebp+8], 5
; Line 652
	push	OFFSET $SG143871
	mov	edx, DWORD PTR _wscText$[ebp]
	push	edx
	lea	eax, DWORD PTR $T154259[ebp]
	push	eax
	call	DWORD PTR __imp_?XMLText@@YA?AV?$basic_string@GU?$char_traits@G@std@@V?$allocator@G@2@@std@@ABV12@@Z
	add	esp, 8
	mov	DWORD PTR tv214[ebp], eax
	mov	ecx, DWORD PTR tv214[ebp]
	mov	DWORD PTR tv357[ebp], ecx
	mov	BYTE PTR __$EHRec$[ebp+8], 6
	mov	edx, DWORD PTR tv357[ebp]
	push	edx
	push	OFFSET $SG143872
	lea	eax, DWORD PTR _wscTRADataFormat$[ebp]
	push	eax
	mov	ecx, DWORD PTR _wscTextColor$[ebp]
	push	ecx
	push	OFFSET $SG143873
	push	OFFSET $SG143874
	mov	edx, DWORD PTR _wscSender$[ebp]
	push	edx
	lea	eax, DWORD PTR $T154260[ebp]
	push	eax
	call	DWORD PTR __imp_?XMLText@@YA?AV?$basic_string@GU?$char_traits@G@std@@V?$allocator@G@2@@std@@ABV12@@Z
	add	esp, 8
	mov	DWORD PTR tv210[ebp], eax
	mov	ecx, DWORD PTR tv210[ebp]
	mov	DWORD PTR tv359[ebp], ecx
	mov	BYTE PTR __$EHRec$[ebp+8], 7
	mov	edx, DWORD PTR tv359[ebp]
	push	edx
	push	OFFSET $SG143875
	lea	eax, DWORD PTR _wscTRADataFormat$[ebp]
	push	eax
	lea	ecx, DWORD PTR _wscTRADataSenderColor$[ebp]
	push	ecx
	push	OFFSET $SG143876
	lea	edx, DWORD PTR $T154261[ebp]
	push	edx
	call	DWORD PTR __imp_??$?HGU?$char_traits@G@std@@V?$allocator@G@1@@std@@YA?AV?$basic_string@GU?$char_traits@G@std@@V?$allocator@G@2@@0@PBGABV10@@Z
	add	esp, 12					; 0000000cH
	mov	DWORD PTR tv389[ebp], eax
	mov	eax, DWORD PTR tv389[ebp]
	mov	DWORD PTR tv361[ebp], eax
	mov	BYTE PTR __$EHRec$[ebp+8], 8
	mov	ecx, DWORD PTR tv361[ebp]
	push	ecx
	lea	edx, DWORD PTR $T154262[ebp]
	push	edx
	call	DWORD PTR __imp_??$?HGU?$char_traits@G@std@@V?$allocator@G@1@@std@@YA?AV?$basic_string@GU?$char_traits@G@std@@V?$allocator@G@2@@0@ABV10@0@Z
	add	esp, 12					; 0000000cH
	mov	DWORD PTR tv390[ebp], eax
	mov	eax, DWORD PTR tv390[ebp]
	mov	DWORD PTR tv363[ebp], eax
	mov	BYTE PTR __$EHRec$[ebp+8], 9
	mov	ecx, DWORD PTR tv363[ebp]
	push	ecx
	lea	edx, DWORD PTR $T154263[ebp]
	push	edx
	call	DWORD PTR __imp_??$?HGU?$char_traits@G@std@@V?$allocator@G@1@@std@@YA?AV?$basic_string@GU?$char_traits@G@std@@V?$allocator@G@2@@0@ABV10@PBG@Z
	add	esp, 12					; 0000000cH
	mov	DWORD PTR tv391[ebp], eax
	mov	eax, DWORD PTR tv391[ebp]
	mov	DWORD PTR tv365[ebp], eax
	mov	BYTE PTR __$EHRec$[ebp+8], 10		; 0000000aH
	mov	ecx, DWORD PTR tv365[ebp]
	push	ecx
	lea	edx, DWORD PTR $T154264[ebp]
	push	edx
	call	DWORD PTR __imp_??$?HGU?$char_traits@G@std@@V?$allocator@G@1@@std@@YA?AV?$basic_string@GU?$char_traits@G@std@@V?$allocator@G@2@@0@ABV10@0@Z
	add	esp, 12					; 0000000cH
	mov	DWORD PTR tv392[ebp], eax
	mov	eax, DWORD PTR tv392[ebp]
	mov	DWORD PTR tv367[ebp], eax
	mov	BYTE PTR __$EHRec$[ebp+8], 11		; 0000000bH
	mov	ecx, DWORD PTR tv367[ebp]
	push	ecx
	lea	edx, DWORD PTR $T154265[ebp]
	push	edx
	call	DWORD PTR __imp_??$?HGU?$char_traits@G@std@@V?$allocator@G@1@@std@@YA?AV?$basic_string@GU?$char_traits@G@std@@V?$allocator@G@2@@0@ABV10@PBG@Z
	add	esp, 12					; 0000000cH
	mov	DWORD PTR tv393[ebp], eax
	mov	eax, DWORD PTR tv393[ebp]
	mov	DWORD PTR tv369[ebp], eax
	mov	BYTE PTR __$EHRec$[ebp+8], 12		; 0000000cH
	mov	ecx, DWORD PTR tv369[ebp]
	push	ecx
	lea	edx, DWORD PTR $T154266[ebp]
	push	edx
	call	DWORD PTR __imp_??$?HGU?$char_traits@G@std@@V?$allocator@G@1@@std@@YA?AV?$basic_string@GU?$char_traits@G@std@@V?$allocator@G@2@@0@ABV10@PBG@Z
	add	esp, 12					; 0000000cH
	mov	DWORD PTR tv394[ebp], eax
	mov	eax, DWORD PTR tv394[ebp]
	mov	DWORD PTR tv371[ebp], eax
	mov	BYTE PTR __$EHRec$[ebp+8], 13		; 0000000dH
	mov	ecx, DWORD PTR tv371[ebp]
	push	ecx
	lea	edx, DWORD PTR $T154267[ebp]
	push	edx
	call	DWORD PTR __imp_??$?HGU?$char_traits@G@std@@V?$allocator@G@1@@std@@YA?AV?$basic_string@GU?$char_traits@G@std@@V?$allocator@G@2@@0@ABV10@0@Z
	add	esp, 12					; 0000000cH
	mov	DWORD PTR tv395[ebp], eax
	mov	eax, DWORD PTR tv395[ebp]
	mov	DWORD PTR tv373[ebp], eax
	mov	BYTE PTR __$EHRec$[ebp+8], 14		; 0000000eH
	mov	ecx, DWORD PTR tv373[ebp]
	push	ecx
	lea	edx, DWORD PTR $T154268[ebp]
	push	edx
	call	DWORD PTR __imp_??$?HGU?$char_traits@G@std@@V?$allocator@G@1@@std@@YA?AV?$basic_string@GU?$char_traits@G@std@@V?$allocator@G@2@@0@ABV10@0@Z
	add	esp, 12					; 0000000cH
	mov	DWORD PTR tv396[ebp], eax
	mov	eax, DWORD PTR tv396[ebp]
	mov	DWORD PTR tv375[ebp], eax
	mov	BYTE PTR __$EHRec$[ebp+8], 15		; 0000000fH
	mov	ecx, DWORD PTR tv375[ebp]
	push	ecx
	lea	edx, DWORD PTR $T154269[ebp]
	push	edx
	call	DWORD PTR __imp_??$?HGU?$char_traits@G@std@@V?$allocator@G@1@@std@@YA?AV?$basic_string@GU?$char_traits@G@std@@V?$allocator@G@2@@0@ABV10@PBG@Z
	add	esp, 12					; 0000000cH
	mov	DWORD PTR tv397[ebp], eax
	mov	eax, DWORD PTR tv397[ebp]
	mov	DWORD PTR tv377[ebp], eax
	mov	BYTE PTR __$EHRec$[ebp+8], 16		; 00000010H
	mov	ecx, DWORD PTR tv377[ebp]
	push	ecx
	lea	edx, DWORD PTR $T154270[ebp]
	push	edx
	call	DWORD PTR __imp_??$?HGU?$char_traits@G@std@@V?$allocator@G@1@@std@@YA?AV?$basic_string@GU?$char_traits@G@std@@V?$allocator@G@2@@0@ABV10@0@Z
	add	esp, 12					; 0000000cH
	mov	DWORD PTR tv398[ebp], eax
	mov	eax, DWORD PTR tv398[ebp]
	mov	DWORD PTR tv379[ebp], eax
	mov	BYTE PTR __$EHRec$[ebp+8], 17		; 00000011H
	mov	ecx, DWORD PTR tv379[ebp]
	push	ecx
	lea	edx, DWORD PTR _wscXML$[ebp]
	push	edx
	call	DWORD PTR __imp_??$?HGU?$char_traits@G@std@@V?$allocator@G@1@@std@@YA?AV?$basic_string@GU?$char_traits@G@std@@V?$allocator@G@2@@0@ABV10@PBG@Z
	add	esp, 12					; 0000000cH
	mov	BYTE PTR __$EHRec$[ebp+8], 19		; 00000013H
	lea	ecx, DWORD PTR $T154270[ebp]
	call	DWORD PTR __imp_??1?$basic_string@GU?$char_traits@G@std@@V?$allocator@G@2@@std@@QAE@XZ
	mov	BYTE PTR __$EHRec$[ebp+8], 20		; 00000014H
	lea	ecx, DWORD PTR $T154269[ebp]
	call	DWORD PTR __imp_??1?$basic_string@GU?$char_traits@G@std@@V?$allocator@G@2@@std@@QAE@XZ
	mov	BYTE PTR __$EHRec$[ebp+8], 21		; 00000015H
	lea	ecx, DWORD PTR $T154268[ebp]
	call	DWORD PTR __imp_??1?$basic_string@GU?$char_traits@G@std@@V?$allocator@G@2@@std@@QAE@XZ
	mov	BYTE PTR __$EHRec$[ebp+8], 22		; 00000016H
	lea	ecx, DWORD PTR $T154267[ebp]
	call	DWORD PTR __imp_??1?$basic_string@GU?$char_traits@G@std@@V?$allocator@G@2@@std@@QAE@XZ
	mov	BYTE PTR __$EHRec$[ebp+8], 23		; 00000017H
	lea	ecx, DWORD PTR $T154266[ebp]
	call	DWORD PTR __imp_??1?$basic_string@GU?$char_traits@G@std@@V?$allocator@G@2@@std@@QAE@XZ
	mov	BYTE PTR __$EHRec$[ebp+8], 24		; 00000018H
	lea	ecx, DWORD PTR $T154265[ebp]
	call	DWORD PTR __imp_??1?$basic_string@GU?$char_traits@G@std@@V?$allocator@G@2@@std@@QAE@XZ
	mov	BYTE PTR __$EHRec$[ebp+8], 25		; 00000019H
	lea	ecx, DWORD PTR $T154264[ebp]
	call	DWORD PTR __imp_??1?$basic_string@GU?$char_traits@G@std@@V?$allocator@G@2@@std@@QAE@XZ
	mov	BYTE PTR __$EHRec$[ebp+8], 26		; 0000001aH
	lea	ecx, DWORD PTR $T154263[ebp]
	call	DWORD PTR __imp_??1?$basic_string@GU?$char_traits@G@std@@V?$allocator@G@2@@std@@QAE@XZ
	mov	BYTE PTR __$EHRec$[ebp+8], 27		; 0000001bH
	lea	ecx, DWORD PTR $T154262[ebp]
	call	DWORD PTR __imp_??1?$basic_string@GU?$char_traits@G@std@@V?$allocator@G@2@@std@@QAE@XZ
	mov	BYTE PTR __$EHRec$[ebp+8], 28		; 0000001cH
	lea	ecx, DWORD PTR $T154261[ebp]
	call	DWORD PTR __imp_??1?$basic_string@GU?$char_traits@G@std@@V?$allocator@G@2@@std@@QAE@XZ
	mov	BYTE PTR __$EHRec$[ebp+8], 29		; 0000001dH
	lea	ecx, DWORD PTR $T154260[ebp]
	call	DWORD PTR __imp_??1?$basic_string@GU?$char_traits@G@std@@V?$allocator@G@2@@std@@QAE@XZ
	mov	BYTE PTR __$EHRec$[ebp+8], 30		; 0000001eH
	lea	ecx, DWORD PTR $T154259[ebp]
	call	DWORD PTR __imp_??1?$basic_string@GU?$char_traits@G@std@@V?$allocator@G@2@@std@@QAE@XZ
; Line 654
	lea	eax, DWORD PTR _wscXML$[ebp]
	push	eax
	mov	ecx, DWORD PTR _iToClientID$[ebp]
	push	ecx
	call	DWORD PTR __imp_?HkFMsg@@YA?AW4HK_ERROR@@IABV?$basic_string@GU?$char_traits@G@std@@V?$allocator@G@2@@std@@@Z
	add	esp, 8
; Line 655
	mov	BYTE PTR __$EHRec$[ebp+8], 5
	lea	ecx, DWORD PTR _wscXML$[ebp]
	call	DWORD PTR __imp_??1?$basic_string@GU?$char_traits@G@std@@V?$allocator@G@2@@std@@QAE@XZ
	mov	BYTE PTR __$EHRec$[ebp+8], 4
	lea	ecx, DWORD PTR _wscTRADataSenderColor$[ebp]
	call	DWORD PTR __imp_??1?$basic_string@GU?$char_traits@G@std@@V?$allocator@G@2@@std@@QAE@XZ
	mov	DWORD PTR __$EHRec$[ebp+8], -1
	lea	ecx, DWORD PTR _wscTRADataFormat$[ebp]
	call	DWORD PTR __imp_??1?$basic_string@GU?$char_traits@G@std@@V?$allocator@G@2@@std@@QAE@XZ
$LN19@FormatSend:
	mov	ecx, DWORD PTR __$EHRec$[ebp]
	mov	DWORD PTR fs:0, ecx
	pop	ecx
	mov	ecx, DWORD PTR __$ArrayPad$[ebp]
	xor	ecx, ebp
	call	@__security_check_cookie@4
	mov	esp, ebp
	pop	ebp
	ret	0
_TEXT	ENDS
text$x	SEGMENT
__unwindfunclet$?FormatSendChat@@YAXIABV?$basic_string@GU?$char_traits@G@std@@V?$allocator@G@2@@std@@00@Z$0:
	mov	eax, DWORD PTR $T154271[ebp]
	and	eax, 1
	je	$LN26@FormatSend
	and	DWORD PTR $T154271[ebp], -2		; fffffffeH
	lea	ecx, DWORD PTR $T154251[ebp]
	jmp	DWORD PTR __imp_??1?$basic_string@GU?$char_traits@G@std@@V?$allocator@G@2@@std@@QAE@XZ
$LN26@FormatSend:
	ret	0
__unwindfunclet$?FormatSendChat@@YAXIABV?$basic_string@GU?$char_traits@G@std@@V?$allocator@G@2@@std@@00@Z$1:
	mov	eax, DWORD PTR $T154271[ebp]
	and	eax, 2
	je	$LN28@FormatSend
	and	DWORD PTR $T154271[ebp], -3		; fffffffdH
	lea	ecx, DWORD PTR $T154250[ebp]
	jmp	DWORD PTR __imp_??1?$basic_string@GU?$char_traits@G@std@@V?$allocator@G@2@@std@@QAE@XZ
$LN28@FormatSend:
	ret	0
__unwindfunclet$?FormatSendChat@@YAXIABV?$basic_string@GU?$char_traits@G@std@@V?$allocator@G@2@@std@@00@Z$2:
	mov	eax, DWORD PTR $T154271[ebp]
	and	eax, 4
	je	$LN32@FormatSend
	and	DWORD PTR $T154271[ebp], -5		; fffffffbH
	lea	ecx, DWORD PTR $T154256[ebp]
	jmp	DWORD PTR __imp_??1?$basic_string@GU?$char_traits@G@std@@V?$allocator@G@2@@std@@QAE@XZ
$LN32@FormatSend:
	ret	0
__unwindfunclet$?FormatSendChat@@YAXIABV?$basic_string@GU?$char_traits@G@std@@V?$allocator@G@2@@std@@00@Z$3:
	mov	eax, DWORD PTR $T154271[ebp]
	and	eax, 8
	je	$LN34@FormatSend
	and	DWORD PTR $T154271[ebp], -9		; fffffff7H
	lea	ecx, DWORD PTR $T154255[ebp]
	jmp	DWORD PTR __imp_??1?$basic_string@GU?$char_traits@G@std@@V?$allocator@G@2@@std@@QAE@XZ
$LN34@FormatSend:
	ret	0
__unwindfunclet$?FormatSendChat@@YAXIABV?$basic_string@GU?$char_traits@G@std@@V?$allocator@G@2@@std@@00@Z$4:
	lea	ecx, DWORD PTR _wscTRADataFormat$[ebp]
	jmp	DWORD PTR __imp_??1?$basic_string@GU?$char_traits@G@std@@V?$allocator@G@2@@std@@QAE@XZ
__unwindfunclet$?FormatSendChat@@YAXIABV?$basic_string@GU?$char_traits@G@std@@V?$allocator@G@2@@std@@00@Z$5:
	lea	ecx, DWORD PTR _wscTRADataSenderColor$[ebp]
	jmp	DWORD PTR __imp_??1?$basic_string@GU?$char_traits@G@std@@V?$allocator@G@2@@std@@QAE@XZ
__unwindfunclet$?FormatSendChat@@YAXIABV?$basic_string@GU?$char_traits@G@std@@V?$allocator@G@2@@std@@00@Z$6:
	lea	ecx, DWORD PTR $T154259[ebp]
	jmp	DWORD PTR __imp_??1?$basic_string@GU?$char_traits@G@std@@V?$allocator@G@2@@std@@QAE@XZ
__unwindfunclet$?FormatSendChat@@YAXIABV?$basic_string@GU?$char_traits@G@std@@V?$allocator@G@2@@std@@00@Z$7:
	lea	ecx, DWORD PTR $T154260[ebp]
	jmp	DWORD PTR __imp_??1?$basic_string@GU?$char_traits@G@std@@V?$allocator@G@2@@std@@QAE@XZ
__unwindfunclet$?FormatSendChat@@YAXIABV?$basic_string@GU?$char_traits@G@std@@V?$allocator@G@2@@std@@00@Z$8:
	lea	ecx, DWORD PTR $T154261[ebp]
	jmp	DWORD PTR __imp_??1?$basic_string@GU?$char_traits@G@std@@V?$allocator@G@2@@std@@QAE@XZ
__unwindfunclet$?FormatSendChat@@YAXIABV?$basic_string@GU?$char_traits@G@std@@V?$allocator@G@2@@std@@00@Z$9:
	lea	ecx, DWORD PTR $T154262[ebp]
	jmp	DWORD PTR __imp_??1?$basic_string@GU?$char_traits@G@std@@V?$allocator@G@2@@std@@QAE@XZ
__unwindfunclet$?FormatSendChat@@YAXIABV?$basic_string@GU?$char_traits@G@std@@V?$allocator@G@2@@std@@00@Z$10:
	lea	ecx, DWORD PTR $T154263[ebp]
	jmp	DWORD PTR __imp_??1?$basic_string@GU?$char_traits@G@std@@V?$allocator@G@2@@std@@QAE@XZ
__unwindfunclet$?FormatSendChat@@YAXIABV?$basic_string@GU?$char_traits@G@std@@V?$allocator@G@2@@std@@00@Z$11:
	lea	ecx, DWORD PTR $T154264[ebp]
	jmp	DWORD PTR __imp_??1?$basic_string@GU?$char_traits@G@std@@V?$allocator@G@2@@std@@QAE@XZ
__unwindfunclet$?FormatSendChat@@YAXIABV?$basic_string@GU?$char_traits@G@std@@V?$allocator@G@2@@std@@00@Z$12:
	lea	ecx, DWORD PTR $T154265[ebp]
	jmp	DWORD PTR __imp_??1?$basic_string@GU?$char_traits@G@std@@V?$allocator@G@2@@std@@QAE@XZ
__unwindfunclet$?FormatSendChat@@YAXIABV?$basic_string@GU?$char_traits@G@std@@V?$allocator@G@2@@std@@00@Z$13:
	lea	ecx, DWORD PTR $T154266[ebp]
	jmp	DWORD PTR __imp_??1?$basic_string@GU?$char_traits@G@std@@V?$allocator@G@2@@std@@QAE@XZ
__unwindfunclet$?FormatSendChat@@YAXIABV?$basic_string@GU?$char_traits@G@std@@V?$allocator@G@2@@std@@00@Z$14:
	lea	ecx, DWORD PTR $T154267[ebp]
	jmp	DWORD PTR __imp_??1?$basic_string@GU?$char_traits@G@std@@V?$allocator@G@2@@std@@QAE@XZ
__unwindfunclet$?FormatSendChat@@YAXIABV?$basic_string@GU?$char_traits@G@std@@V?$allocator@G@2@@std@@00@Z$15:
	lea	ecx, DWORD PTR $T154268[ebp]
	jmp	DWORD PTR __imp_??1?$basic_string@GU?$char_traits@G@std@@V?$allocator@G@2@@std@@QAE@XZ
__unwindfunclet$?FormatSendChat@@YAXIABV?$basic_string@GU?$char_traits@G@std@@V?$allocator@G@2@@std@@00@Z$16:
	lea	ecx, DWORD PTR $T154269[ebp]
	jmp	DWORD PTR __imp_??1?$basic_string@GU?$char_traits@G@std@@V?$allocator@G@2@@std@@QAE@XZ
__unwindfunclet$?FormatSendChat@@YAXIABV?$basic_string@GU?$char_traits@G@std@@V?$allocator@G@2@@std@@00@Z$17:
	lea	ecx, DWORD PTR $T154270[ebp]
	jmp	DWORD PTR __imp_??1?$basic_string@GU?$char_traits@G@std@@V?$allocator@G@2@@std@@QAE@XZ
__unwindfunclet$?FormatSendChat@@YAXIABV?$basic_string@GU?$char_traits@G@std@@V?$allocator@G@2@@std@@00@Z$18:
	lea	ecx, DWORD PTR _wscXML$[ebp]
	jmp	DWORD PTR __imp_??1?$basic_string@GU?$char_traits@G@std@@V?$allocator@G@2@@std@@QAE@XZ
__ehhandler$?FormatSendChat@@YAXIABV?$basic_string@GU?$char_traits@G@std@@V?$allocator@G@2@@std@@00@Z:
	mov	edx, DWORD PTR [esp+8]
	lea	eax, DWORD PTR [edx+12]
	mov	ecx, DWORD PTR [edx-740]
	xor	ecx, eax
	call	@__security_check_cookie@4
	mov	ecx, DWORD PTR [edx-4]
	xor	ecx, eax
	call	@__security_check_cookie@4
	mov	eax, OFFSET __ehfuncinfo$?FormatSendChat@@YAXIABV?$basic_string@GU?$char_traits@G@std@@V?$allocator@G@2@@std@@00@Z
	jmp	___CxxFrameHandler3
text$x	ENDS
?FormatSendChat@@YAXIABV?$basic_string@GU?$char_traits@G@std@@V?$allocator@G@2@@std@@00@Z ENDP ; FormatSendChat
EXTRN	__imp___vswprintf_c_l:PROC
; Function compile flags: /Odtp
_TEXT	SEGMENT
__Ret$ = -8						; size = 4
__Arglist$ = -4						; size = 4
__String$ = 8						; size = 4
__Count$ = 12						; size = 4
__Format$ = 16						; size = 4
_swprintf PROC
; File c:\program files (x86)\microsoft visual studio 9.0\vc\include\swprintf.inl
; Line 37
	push	ebp
	mov	ebp, esp
	sub	esp, 8
; Line 40
	lea	eax, DWORD PTR __Format$[ebp+4]
	mov	DWORD PTR __Arglist$[ebp], eax
; Line 41
	mov	ecx, DWORD PTR __Arglist$[ebp]
	push	ecx
	push	0
	mov	edx, DWORD PTR __Format$[ebp]
	push	edx
	mov	eax, DWORD PTR __Count$[ebp]
	push	eax
	mov	ecx, DWORD PTR __String$[ebp]
	push	ecx
	call	DWORD PTR __imp___vswprintf_c_l
	add	esp, 20					; 00000014H
	mov	DWORD PTR __Ret$[ebp], eax
; Line 42
	mov	DWORD PTR __Arglist$[ebp], 0
; Line 43
	mov	eax, DWORD PTR __Ret$[ebp]
; Line 44
	mov	esp, ebp
	pop	ebp
	ret	0
_swprintf ENDP
_TEXT	ENDS
PUBLIC	__$ArrayPad$
PUBLIC	?SendPrivateChat@@YAXIIABV?$basic_string@GU?$char_traits@G@std@@V?$allocator@G@2@@std@@@Z ; SendPrivateChat
xdata$x	SEGMENT
__unwindtable$?SendPrivateChat@@YAXIIABV?$basic_string@GU?$char_traits@G@std@@V?$allocator@G@2@@std@@@Z DD 0ffffffffH
	DD	FLAT:__unwindfunclet$?SendPrivateChat@@YAXIIABV?$basic_string@GU?$char_traits@G@std@@V?$allocator@G@2@@std@@@Z$0
	DD	00H
	DD	FLAT:__unwindfunclet$?SendPrivateChat@@YAXIIABV?$basic_string@GU?$char_traits@G@std@@V?$allocator@G@2@@std@@@Z$1
	DD	00H
	DD	FLAT:__unwindfunclet$?SendPrivateChat@@YAXIIABV?$basic_string@GU?$char_traits@G@std@@V?$allocator@G@2@@std@@@Z$2
__ehfuncinfo$?SendPrivateChat@@YAXIIABV?$basic_string@GU?$char_traits@G@std@@V?$allocator@G@2@@std@@@Z DD 019930522H
	DD	03H
	DD	FLAT:__unwindtable$?SendPrivateChat@@YAXIIABV?$basic_string@GU?$char_traits@G@std@@V?$allocator@G@2@@std@@@Z
	DD	2 DUP(00H)
	DD	2 DUP(00H)
	DD	00H
	DD	00H
; Function compile flags: /Odtp
xdata$x	ENDS
_TEXT	SEGMENT
$T154309 = -124						; size = 28
$T154308 = -96						; size = 28
$T154307 = -68						; size = 8
$T154306 = -60						; size = 8
_it$143889 = -52					; size = 8
_wscSender$ = -44					; size = 28
__$ArrayPad$ = -16					; size = 4
__$EHRec$ = -12						; size = 12
_iFromClientID$ = 8					; size = 4
_iToClientID$ = 12					; size = 4
_wscText$ = 16						; size = 4
?SendPrivateChat@@YAXIIABV?$basic_string@GU?$char_traits@G@std@@V?$allocator@G@2@@std@@@Z PROC ; SendPrivateChat
; File g:\max\bastelstube\fl\flhook source\flhookplugin_mod\plugins\playercntl_plugin\src\pluginutilities.cpp
; Line 659
	push	ebp
	mov	ebp, esp
	push	-1
	push	__ehhandler$?SendPrivateChat@@YAXIIABV?$basic_string@GU?$char_traits@G@std@@V?$allocator@G@2@@std@@@Z
	mov	eax, DWORD PTR fs:0
	push	eax
	sub	esp, 112				; 00000070H
	mov	eax, DWORD PTR ___security_cookie
	xor	eax, ebp
	mov	DWORD PTR __$ArrayPad$[ebp], eax
	push	eax
	lea	eax, DWORD PTR __$EHRec$[ebp]
	mov	DWORD PTR fs:0, eax
; Line 660
	mov	eax, DWORD PTR _iFromClientID$[ebp]
	push	eax
	mov	ecx, DWORD PTR __imp_?Players@@3VPlayerDB@@A
	call	DWORD PTR __imp_?GetActiveCharacterName@PlayerDB@@QBEPBGI@Z
	push	eax
	lea	ecx, DWORD PTR _wscSender$[ebp]
	call	DWORD PTR __imp_??0?$basic_string@GU?$char_traits@G@std@@V?$allocator@G@2@@std@@QAE@PBG@Z
	mov	DWORD PTR __$EHRec$[ebp+8], 0
; Line 662
	mov	ecx, DWORD PTR __imp_?set_bUserCmdIgnore@@3_NA
	movzx	edx, BYTE PTR [ecx]
	test	edx, edx
	je	$LN5@SendPrivat
; Line 664
	lea	eax, DWORD PTR _it$143889[ebp]
	push	eax
	mov	ecx, DWORD PTR _iToClientID$[ebp]
	imul	ecx, 2368				; 00000940H
	mov	edx, DWORD PTR __imp_?ClientInfo@@3PAUCLIENT_INFO@@A
	lea	ecx, DWORD PTR [edx+ecx+2144]
	call	?begin@?$list@UIGNORE_INFO@@V?$allocator@UIGNORE_INFO@@@std@@@std@@QAE?AV?$_Iterator@$00@12@XZ ; std::list<IGNORE_INFO,std::allocator<IGNORE_INFO> >::begin
	jmp	SHORT $LN4@SendPrivat
$LN3@SendPrivat:
	push	0
	lea	eax, DWORD PTR $T154306[ebp]
	push	eax
	lea	ecx, DWORD PTR _it$143889[ebp]
	call	??E?$_Iterator@$00@?$list@UIGNORE_INFO@@V?$allocator@UIGNORE_INFO@@@std@@@std@@QAE?AV012@H@Z ; std::list<IGNORE_INFO,std::allocator<IGNORE_INFO> >::_Iterator<1>::operator++
$LN4@SendPrivat:
	lea	ecx, DWORD PTR $T154307[ebp]
	push	ecx
	mov	edx, DWORD PTR _iToClientID$[ebp]
	imul	edx, 2368				; 00000940H
	mov	eax, DWORD PTR __imp_?ClientInfo@@3PAUCLIENT_INFO@@A
	lea	ecx, DWORD PTR [eax+edx+2144]
	call	?end@?$list@UIGNORE_INFO@@V?$allocator@UIGNORE_INFO@@@std@@@std@@QAE?AV?$_Iterator@$00@12@XZ ; std::list<IGNORE_INFO,std::allocator<IGNORE_INFO> >::end
	push	eax
	lea	ecx, DWORD PTR _it$143889[ebp]
	call	??9?$_Const_iterator@$00@?$list@UIGNORE_INFO@@V?$allocator@UIGNORE_INFO@@@std@@@std@@QBE_NABV012@@Z ; std::list<IGNORE_INFO,std::allocator<IGNORE_INFO> >::_Const_iterator<1>::operator!=
	movzx	ecx, al
	test	ecx, ecx
	je	SHORT $LN5@SendPrivat
; Line 666
	push	0
	push	OFFSET $SG143897
	lea	ecx, DWORD PTR _it$143889[ebp]
	call	??D?$_Iterator@$00@?$list@UIGNORE_INFO@@V?$allocator@UIGNORE_INFO@@@std@@@std@@QBEAAUIGNORE_INFO@@XZ ; std::list<IGNORE_INFO,std::allocator<IGNORE_INFO> >::_Iterator<1>::operator*
	add	eax, 28					; 0000001cH
	mov	ecx, eax
	call	DWORD PTR __imp_?find@?$basic_string@GU?$char_traits@G@std@@V?$allocator@G@2@@std@@QBEIPBGI@Z
	cmp	eax, -1
	je	SHORT $LN1@SendPrivat
; Line 667
	mov	DWORD PTR __$EHRec$[ebp+8], -1
	lea	ecx, DWORD PTR _wscSender$[ebp]
	call	DWORD PTR __imp_??1?$basic_string@GU?$char_traits@G@std@@V?$allocator@G@2@@std@@QAE@XZ
	jmp	$LN6@SendPrivat
$LN1@SendPrivat:
; Line 668
	jmp	SHORT $LN3@SendPrivat
$LN5@SendPrivat:
; Line 672
	push	OFFSET $SG143899
	lea	ecx, DWORD PTR $T154308[ebp]
	call	DWORD PTR __imp_??0?$basic_string@GU?$char_traits@G@std@@V?$allocator@G@2@@std@@QAE@PBG@Z
	mov	BYTE PTR __$EHRec$[ebp+8], 1
	lea	edx, DWORD PTR $T154308[ebp]
	push	edx
	mov	eax, DWORD PTR _wscText$[ebp]
	push	eax
	lea	ecx, DWORD PTR _wscSender$[ebp]
	push	ecx
	mov	edx, DWORD PTR _iToClientID$[ebp]
	push	edx
	call	?FormatSendChat@@YAXIABV?$basic_string@GU?$char_traits@G@std@@V?$allocator@G@2@@std@@00@Z ; FormatSendChat
	add	esp, 16					; 00000010H
	mov	BYTE PTR __$EHRec$[ebp+8], 0
	lea	ecx, DWORD PTR $T154308[ebp]
	call	DWORD PTR __imp_??1?$basic_string@GU?$char_traits@G@std@@V?$allocator@G@2@@std@@QAE@XZ
; Line 673
	push	OFFSET $SG143901
	lea	ecx, DWORD PTR $T154309[ebp]
	call	DWORD PTR __imp_??0?$basic_string@GU?$char_traits@G@std@@V?$allocator@G@2@@std@@QAE@PBG@Z
	mov	BYTE PTR __$EHRec$[ebp+8], 2
	lea	eax, DWORD PTR $T154309[ebp]
	push	eax
	mov	ecx, DWORD PTR _wscText$[ebp]
	push	ecx
	lea	edx, DWORD PTR _wscSender$[ebp]
	push	edx
	mov	eax, DWORD PTR _iFromClientID$[ebp]
	push	eax
	call	?FormatSendChat@@YAXIABV?$basic_string@GU?$char_traits@G@std@@V?$allocator@G@2@@std@@00@Z ; FormatSendChat
	add	esp, 16					; 00000010H
	mov	BYTE PTR __$EHRec$[ebp+8], 0
	lea	ecx, DWORD PTR $T154309[ebp]
	call	DWORD PTR __imp_??1?$basic_string@GU?$char_traits@G@std@@V?$allocator@G@2@@std@@QAE@XZ
; Line 674
	mov	DWORD PTR __$EHRec$[ebp+8], -1
	lea	ecx, DWORD PTR _wscSender$[ebp]
	call	DWORD PTR __imp_??1?$basic_string@GU?$char_traits@G@std@@V?$allocator@G@2@@std@@QAE@XZ
$LN6@SendPrivat:
	mov	ecx, DWORD PTR __$EHRec$[ebp]
	mov	DWORD PTR fs:0, ecx
	pop	ecx
	mov	ecx, DWORD PTR __$ArrayPad$[ebp]
	xor	ecx, ebp
	call	@__security_check_cookie@4
	mov	esp, ebp
	pop	ebp
	ret	0
_TEXT	ENDS
text$x	SEGMENT
__unwindfunclet$?SendPrivateChat@@YAXIIABV?$basic_string@GU?$char_traits@G@std@@V?$allocator@G@2@@std@@@Z$0:
	lea	ecx, DWORD PTR _wscSender$[ebp]
	jmp	DWORD PTR __imp_??1?$basic_string@GU?$char_traits@G@std@@V?$allocator@G@2@@std@@QAE@XZ
__unwindfunclet$?SendPrivateChat@@YAXIIABV?$basic_string@GU?$char_traits@G@std@@V?$allocator@G@2@@std@@@Z$1:
	lea	ecx, DWORD PTR $T154308[ebp]
	jmp	DWORD PTR __imp_??1?$basic_string@GU?$char_traits@G@std@@V?$allocator@G@2@@std@@QAE@XZ
__unwindfunclet$?SendPrivateChat@@YAXIIABV?$basic_string@GU?$char_traits@G@std@@V?$allocator@G@2@@std@@@Z$2:
	lea	ecx, DWORD PTR $T154309[ebp]
	jmp	DWORD PTR __imp_??1?$basic_string@GU?$char_traits@G@std@@V?$allocator@G@2@@std@@QAE@XZ
__ehhandler$?SendPrivateChat@@YAXIIABV?$basic_string@GU?$char_traits@G@std@@V?$allocator@G@2@@std@@@Z:
	mov	edx, DWORD PTR [esp+8]
	lea	eax, DWORD PTR [edx+12]
	mov	ecx, DWORD PTR [edx-116]
	xor	ecx, eax
	call	@__security_check_cookie@4
	mov	ecx, DWORD PTR [edx-4]
	xor	ecx, eax
	call	@__security_check_cookie@4
	mov	eax, OFFSET __ehfuncinfo$?SendPrivateChat@@YAXIIABV?$basic_string@GU?$char_traits@G@std@@V?$allocator@G@2@@std@@@Z
	jmp	___CxxFrameHandler3
text$x	ENDS
?SendPrivateChat@@YAXIIABV?$basic_string@GU?$char_traits@G@std@@V?$allocator@G@2@@std@@@Z ENDP ; SendPrivateChat
PUBLIC	__$ArrayPad$
PUBLIC	?SendSystemChat@@YAXIABV?$basic_string@GU?$char_traits@G@std@@V?$allocator@G@2@@std@@@Z ; SendSystemChat
xdata$x	SEGMENT
__unwindtable$?SendSystemChat@@YAXIABV?$basic_string@GU?$char_traits@G@std@@V?$allocator@G@2@@std@@@Z DD 0ffffffffH
	DD	FLAT:__unwindfunclet$?SendSystemChat@@YAXIABV?$basic_string@GU?$char_traits@G@std@@V?$allocator@G@2@@std@@@Z$0
	DD	00H
	DD	FLAT:__unwindfunclet$?SendSystemChat@@YAXIABV?$basic_string@GU?$char_traits@G@std@@V?$allocator@G@2@@std@@@Z$1
__ehfuncinfo$?SendSystemChat@@YAXIABV?$basic_string@GU?$char_traits@G@std@@V?$allocator@G@2@@std@@@Z DD 019930522H
	DD	02H
	DD	FLAT:__unwindtable$?SendSystemChat@@YAXIABV?$basic_string@GU?$char_traits@G@std@@V?$allocator@G@2@@std@@@Z
	DD	2 DUP(00H)
	DD	2 DUP(00H)
	DD	00H
	DD	00H
; Function compile flags: /Odtp
xdata$x	ENDS
_TEXT	SEGMENT
$T154319 = -88						; size = 28
_iClientID$143913 = -60					; size = 4
_iClientSystemID$143914 = -56				; size = 4
_iSystemID$ = -52					; size = 4
_pPD$ = -48						; size = 4
_wscSender$ = -44					; size = 28
__$ArrayPad$ = -16					; size = 4
__$EHRec$ = -12						; size = 12
_iFromClientID$ = 8					; size = 4
_wscText$ = 12						; size = 4
?SendSystemChat@@YAXIABV?$basic_string@GU?$char_traits@G@std@@V?$allocator@G@2@@std@@@Z PROC ; SendSystemChat
; Line 678
	push	ebp
	mov	ebp, esp
	push	-1
	push	__ehhandler$?SendSystemChat@@YAXIABV?$basic_string@GU?$char_traits@G@std@@V?$allocator@G@2@@std@@@Z
	mov	eax, DWORD PTR fs:0
	push	eax
	sub	esp, 76					; 0000004cH
	mov	eax, DWORD PTR ___security_cookie
	xor	eax, ebp
	mov	DWORD PTR __$ArrayPad$[ebp], eax
	push	eax
	lea	eax, DWORD PTR __$EHRec$[ebp]
	mov	DWORD PTR fs:0, eax
; Line 679
	mov	eax, DWORD PTR _iFromClientID$[ebp]
	push	eax
	mov	ecx, DWORD PTR __imp_?Players@@3VPlayerDB@@A
	call	DWORD PTR __imp_?GetActiveCharacterName@PlayerDB@@QBEPBGI@Z
	push	eax
	lea	ecx, DWORD PTR _wscSender$[ebp]
	call	DWORD PTR __imp_??0?$basic_string@GU?$char_traits@G@std@@V?$allocator@G@2@@std@@QAE@PBG@Z
	mov	DWORD PTR __$EHRec$[ebp+8], 0
; Line 683
	lea	ecx, DWORD PTR _iSystemID$[ebp]
	push	ecx
	lea	edx, DWORD PTR _iFromClientID$[ebp]
	push	edx
	call	DWORD PTR __imp_?GetSystem@Player@pub@@YAHABIAAI@Z
	add	esp, 8
; Line 686
	mov	DWORD PTR _pPD$[ebp], 0
$LN3@SendSystem:
; Line 687
	mov	eax, DWORD PTR _pPD$[ebp]
	push	eax
	mov	ecx, DWORD PTR __imp_?Players@@3VPlayerDB@@A
	call	DWORD PTR __imp_?traverse_active@PlayerDB@@QBEPAUPlayerData@@PAU2@@Z
	mov	DWORD PTR _pPD$[ebp], eax
	cmp	DWORD PTR _pPD$[ebp], 0
	je	SHORT $LN2@SendSystem
; Line 689
	mov	ecx, DWORD PTR _pPD$[ebp]
	push	ecx
	call	DWORD PTR __imp_?HkGetClientIdFromPD@@YAIPAUPlayerData@@@Z
	add	esp, 4
	mov	DWORD PTR _iClientID$143913[ebp], eax
; Line 690
	mov	DWORD PTR _iClientSystemID$143914[ebp], 0
; Line 691
	lea	edx, DWORD PTR _iClientSystemID$143914[ebp]
	push	edx
	lea	eax, DWORD PTR _iClientID$143913[ebp]
	push	eax
	call	DWORD PTR __imp_?GetSystem@Player@pub@@YAHABIAAI@Z
	add	esp, 8
; Line 692
	mov	ecx, DWORD PTR _iSystemID$[ebp]
	cmp	ecx, DWORD PTR _iClientSystemID$143914[ebp]
	jne	SHORT $LN1@SendSystem
; Line 695
	push	OFFSET $SG143917
	lea	ecx, DWORD PTR $T154319[ebp]
	call	DWORD PTR __imp_??0?$basic_string@GU?$char_traits@G@std@@V?$allocator@G@2@@std@@QAE@PBG@Z
	mov	BYTE PTR __$EHRec$[ebp+8], 1
	lea	edx, DWORD PTR $T154319[ebp]
	push	edx
	mov	eax, DWORD PTR _wscText$[ebp]
	push	eax
	lea	ecx, DWORD PTR _wscSender$[ebp]
	push	ecx
	mov	edx, DWORD PTR _iClientID$143913[ebp]
	push	edx
	call	?FormatSendChat@@YAXIABV?$basic_string@GU?$char_traits@G@std@@V?$allocator@G@2@@std@@00@Z ; FormatSendChat
	add	esp, 16					; 00000010H
	mov	BYTE PTR __$EHRec$[ebp+8], 0
	lea	ecx, DWORD PTR $T154319[ebp]
	call	DWORD PTR __imp_??1?$basic_string@GU?$char_traits@G@std@@V?$allocator@G@2@@std@@QAE@XZ
$LN1@SendSystem:
; Line 697
	jmp	$LN3@SendSystem
$LN2@SendSystem:
; Line 698
	mov	DWORD PTR __$EHRec$[ebp+8], -1
	lea	ecx, DWORD PTR _wscSender$[ebp]
	call	DWORD PTR __imp_??1?$basic_string@GU?$char_traits@G@std@@V?$allocator@G@2@@std@@QAE@XZ
	mov	ecx, DWORD PTR __$EHRec$[ebp]
	mov	DWORD PTR fs:0, ecx
	pop	ecx
	mov	ecx, DWORD PTR __$ArrayPad$[ebp]
	xor	ecx, ebp
	call	@__security_check_cookie@4
	mov	esp, ebp
	pop	ebp
	ret	0
_TEXT	ENDS
text$x	SEGMENT
__unwindfunclet$?SendSystemChat@@YAXIABV?$basic_string@GU?$char_traits@G@std@@V?$allocator@G@2@@std@@@Z$0:
	lea	ecx, DWORD PTR _wscSender$[ebp]
	jmp	DWORD PTR __imp_??1?$basic_string@GU?$char_traits@G@std@@V?$allocator@G@2@@std@@QAE@XZ
__unwindfunclet$?SendSystemChat@@YAXIABV?$basic_string@GU?$char_traits@G@std@@V?$allocator@G@2@@std@@@Z$1:
	lea	ecx, DWORD PTR $T154319[ebp]
	jmp	DWORD PTR __imp_??1?$basic_string@GU?$char_traits@G@std@@V?$allocator@G@2@@std@@QAE@XZ
__ehhandler$?SendSystemChat@@YAXIABV?$basic_string@GU?$char_traits@G@std@@V?$allocator@G@2@@std@@@Z:
	mov	edx, DWORD PTR [esp+8]
	lea	eax, DWORD PTR [edx+12]
	mov	ecx, DWORD PTR [edx-80]
	xor	ecx, eax
	call	@__security_check_cookie@4
	mov	ecx, DWORD PTR [edx-4]
	xor	ecx, eax
	call	@__security_check_cookie@4
	mov	eax, OFFSET __ehfuncinfo$?SendSystemChat@@YAXIABV?$basic_string@GU?$char_traits@G@std@@V?$allocator@G@2@@std@@@Z
	jmp	___CxxFrameHandler3
text$x	ENDS
?SendSystemChat@@YAXIABV?$basic_string@GU?$char_traits@G@std@@V?$allocator@G@2@@std@@@Z ENDP ; SendSystemChat
PUBLIC	__real@40cd4b8000000000
PUBLIC	?pow@@YAMMH@Z					; pow
PUBLIC	__$ArrayPad$
PUBLIC	?SendLocalSystemChat@@YAXIABV?$basic_string@GU?$char_traits@G@std@@V?$allocator@G@2@@std@@@Z ; SendLocalSystemChat
;	COMDAT __real@40cd4b8000000000
CONST	SEGMENT
__real@40cd4b8000000000 DQ 040cd4b8000000000r	; 14999
CONST	ENDS
xdata$x	SEGMENT
__unwindtable$?SendLocalSystemChat@@YAXIABV?$basic_string@GU?$char_traits@G@std@@V?$allocator@G@2@@std@@@Z DD 0ffffffffH
	DD	FLAT:__unwindfunclet$?SendLocalSystemChat@@YAXIABV?$basic_string@GU?$char_traits@G@std@@V?$allocator@G@2@@std@@@Z$0
	DD	00H
	DD	FLAT:__unwindfunclet$?SendLocalSystemChat@@YAXIABV?$basic_string@GU?$char_traits@G@std@@V?$allocator@G@2@@std@@@Z$1
__ehfuncinfo$?SendLocalSystemChat@@YAXIABV?$basic_string@GU?$char_traits@G@std@@V?$allocator@G@2@@std@@@Z DD 019930522H
	DD	02H
	DD	FLAT:__unwindtable$?SendLocalSystemChat@@YAXIABV?$basic_string@GU?$char_traits@G@std@@V?$allocator@G@2@@std@@@Z
	DD	2 DUP(00H)
	DD	2 DUP(00H)
	DD	00H
	DD	00H
; Function compile flags: /Odtp
xdata$x	ENDS
_TEXT	SEGMENT
tv187 = -216						; size = 4
tv199 = -212						; size = 8
tv180 = -204						; size = 4
tv175 = -200						; size = 4
$T154328 = -196						; size = 28
_iClientID$143932 = -168				; size = 4
_mShipDir$143937 = -164					; size = 36
_iClientSystemID$143933 = -128				; size = 4
_vShipLoc$143936 = -124					; size = 12
_iShip$143935 = -112					; size = 4
_fDistance$143938 = -108				; size = 4
_iSystemID$ = -104					; size = 4
_vFromShipLoc$ = -100					; size = 12
_pPD$ = -88						; size = 4
_mFromShipDir$ = -84					; size = 36
_wscSender$ = -48					; size = 28
__$ArrayPad$ = -20					; size = 4
_iFromShip$ = -16					; size = 4
__$EHRec$ = -12						; size = 12
_iFromClientID$ = 8					; size = 4
_wscText$ = 12						; size = 4
?SendLocalSystemChat@@YAXIABV?$basic_string@GU?$char_traits@G@std@@V?$allocator@G@2@@std@@@Z PROC ; SendLocalSystemChat
; Line 703
	push	ebp
	mov	ebp, esp
	push	-1
	push	__ehhandler$?SendLocalSystemChat@@YAXIABV?$basic_string@GU?$char_traits@G@std@@V?$allocator@G@2@@std@@@Z
	mov	eax, DWORD PTR fs:0
	push	eax
	sub	esp, 204				; 000000ccH
	mov	eax, DWORD PTR ___security_cookie
	xor	eax, ebp
	mov	DWORD PTR __$ArrayPad$[ebp], eax
	push	eax
	lea	eax, DWORD PTR __$EHRec$[ebp]
	mov	DWORD PTR fs:0, eax
; Line 704
	mov	eax, DWORD PTR _iFromClientID$[ebp]
	push	eax
	mov	ecx, DWORD PTR __imp_?Players@@3VPlayerDB@@A
	call	DWORD PTR __imp_?GetActiveCharacterName@PlayerDB@@QBEPBGI@Z
	push	eax
	lea	ecx, DWORD PTR _wscSender$[ebp]
	call	DWORD PTR __imp_??0?$basic_string@GU?$char_traits@G@std@@V?$allocator@G@2@@std@@QAE@PBG@Z
	mov	DWORD PTR __$EHRec$[ebp+8], 0
; Line 708
	lea	ecx, DWORD PTR _iSystemID$[ebp]
	push	ecx
	lea	edx, DWORD PTR _iFromClientID$[ebp]
	push	edx
	call	DWORD PTR __imp_?GetSystem@Player@pub@@YAHABIAAI@Z
	add	esp, 8
; Line 711
	lea	eax, DWORD PTR _iFromShip$[ebp]
	push	eax
	lea	ecx, DWORD PTR _iFromClientID$[ebp]
	push	ecx
	call	DWORD PTR __imp_?GetShip@Player@pub@@YAHABIAAI@Z
	add	esp, 8
; Line 715
	lea	edx, DWORD PTR _mFromShipDir$[ebp]
	push	edx
	lea	eax, DWORD PTR _vFromShipLoc$[ebp]
	push	eax
	mov	ecx, DWORD PTR _iFromShip$[ebp]
	push	ecx
	call	DWORD PTR __imp_?GetLocation@SpaceObj@pub@@YAHIAAVVector@@AAVMatrix@@@Z
	add	esp, 12					; 0000000cH
; Line 718
	mov	DWORD PTR _pPD$[ebp], 0
$LN10@SendLocalS:
; Line 719
	mov	edx, DWORD PTR _pPD$[ebp]
	push	edx
	mov	ecx, DWORD PTR __imp_?Players@@3VPlayerDB@@A
	call	DWORD PTR __imp_?traverse_active@PlayerDB@@QBEPAUPlayerData@@PAU2@@Z
	mov	DWORD PTR _pPD$[ebp], eax
	cmp	DWORD PTR _pPD$[ebp], 0
	je	$LN3@SendLocalS
; Line 722
	mov	eax, DWORD PTR _pPD$[ebp]
	push	eax
	call	DWORD PTR __imp_?HkGetClientIdFromPD@@YAIPAUPlayerData@@@Z
	add	esp, 4
	mov	DWORD PTR _iClientID$143932[ebp], eax
; Line 723
	mov	DWORD PTR _iClientSystemID$143933[ebp], 0
; Line 724
	lea	ecx, DWORD PTR _iClientSystemID$143933[ebp]
	push	ecx
	lea	edx, DWORD PTR _iClientID$143932[ebp]
	push	edx
	call	DWORD PTR __imp_?GetSystem@Player@pub@@YAHABIAAI@Z
	add	esp, 8
; Line 725
	mov	eax, DWORD PTR _iSystemID$[ebp]
	cmp	eax, DWORD PTR _iClientSystemID$143933[ebp]
	je	SHORT $LN2@SendLocalS
; Line 726
	jmp	SHORT $LN10@SendLocalS
$LN2@SendLocalS:
; Line 729
	lea	ecx, DWORD PTR _iShip$143935[ebp]
	push	ecx
	lea	edx, DWORD PTR _iClientID$143932[ebp]
	push	edx
	call	DWORD PTR __imp_?GetShip@Player@pub@@YAHABIAAI@Z
	add	esp, 8
; Line 733
	lea	eax, DWORD PTR _mShipDir$143937[ebp]
	push	eax
	lea	ecx, DWORD PTR _vShipLoc$143936[ebp]
	push	ecx
	mov	edx, DWORD PTR _iShip$143935[ebp]
	push	edx
	call	DWORD PTR __imp_?GetLocation@SpaceObj@pub@@YAHIAAVVector@@AAVMatrix@@@Z
	add	esp, 12					; 0000000cH
; Line 736
	push	2
	fld	DWORD PTR _vShipLoc$143936[ebp]
	fsub	DWORD PTR _vFromShipLoc$[ebp]
	fstp	DWORD PTR tv175[ebp]
	fld	DWORD PTR tv175[ebp]
	push	ecx
	fstp	DWORD PTR [esp]
	call	?pow@@YAMMH@Z				; pow
	add	esp, 8
	push	2
	fld	DWORD PTR _vShipLoc$143936[ebp+8]
	fsub	DWORD PTR _vFromShipLoc$[ebp+8]
	fstp	DWORD PTR tv180[ebp]
	fld	DWORD PTR tv180[ebp]
	push	ecx
	fstp	DWORD PTR [esp]
	fstp	QWORD PTR tv199[ebp]
	call	?pow@@YAMMH@Z				; pow
	add	esp, 8
	fadd	QWORD PTR tv199[ebp]
	fstp	DWORD PTR tv187[ebp]
	fld	DWORD PTR tv187[ebp]
	push	ecx
	fstp	DWORD PTR [esp]
	call	?sqrt@@YAMM@Z				; sqrt
	add	esp, 4
	fstp	DWORD PTR _fDistance$143938[ebp]
; Line 739
	fld	DWORD PTR _fDistance$143938[ebp]
	fcomp	QWORD PTR __real@40cd4b8000000000
	fnstsw	ax
	test	ah, 65					; 00000041H
	jne	SHORT $LN1@SendLocalS
; Line 740
	jmp	$LN10@SendLocalS
$LN1@SendLocalS:
; Line 743
	push	OFFSET $SG143941
	lea	ecx, DWORD PTR $T154328[ebp]
	call	DWORD PTR __imp_??0?$basic_string@GU?$char_traits@G@std@@V?$allocator@G@2@@std@@QAE@PBG@Z
	mov	BYTE PTR __$EHRec$[ebp+8], 1
	lea	eax, DWORD PTR $T154328[ebp]
	push	eax
	mov	ecx, DWORD PTR _wscText$[ebp]
	push	ecx
	lea	edx, DWORD PTR _wscSender$[ebp]
	push	edx
	mov	eax, DWORD PTR _iClientID$143932[ebp]
	push	eax
	call	?FormatSendChat@@YAXIABV?$basic_string@GU?$char_traits@G@std@@V?$allocator@G@2@@std@@00@Z ; FormatSendChat
	add	esp, 16					; 00000010H
	mov	BYTE PTR __$EHRec$[ebp+8], 0
	lea	ecx, DWORD PTR $T154328[ebp]
	call	DWORD PTR __imp_??1?$basic_string@GU?$char_traits@G@std@@V?$allocator@G@2@@std@@QAE@XZ
; Line 744
	jmp	$LN10@SendLocalS
$LN3@SendLocalS:
; Line 745
	mov	DWORD PTR __$EHRec$[ebp+8], -1
	lea	ecx, DWORD PTR _wscSender$[ebp]
	call	DWORD PTR __imp_??1?$basic_string@GU?$char_traits@G@std@@V?$allocator@G@2@@std@@QAE@XZ
	mov	ecx, DWORD PTR __$EHRec$[ebp]
	mov	DWORD PTR fs:0, ecx
	pop	ecx
	mov	ecx, DWORD PTR __$ArrayPad$[ebp]
	xor	ecx, ebp
	call	@__security_check_cookie@4
	mov	esp, ebp
	pop	ebp
	ret	0
_TEXT	ENDS
text$x	SEGMENT
__unwindfunclet$?SendLocalSystemChat@@YAXIABV?$basic_string@GU?$char_traits@G@std@@V?$allocator@G@2@@std@@@Z$0:
	lea	ecx, DWORD PTR _wscSender$[ebp]
	jmp	DWORD PTR __imp_??1?$basic_string@GU?$char_traits@G@std@@V?$allocator@G@2@@std@@QAE@XZ
__unwindfunclet$?SendLocalSystemChat@@YAXIABV?$basic_string@GU?$char_traits@G@std@@V?$allocator@G@2@@std@@@Z$1:
	lea	ecx, DWORD PTR $T154328[ebp]
	jmp	DWORD PTR __imp_??1?$basic_string@GU?$char_traits@G@std@@V?$allocator@G@2@@std@@QAE@XZ
__ehhandler$?SendLocalSystemChat@@YAXIABV?$basic_string@GU?$char_traits@G@std@@V?$allocator@G@2@@std@@@Z:
	mov	edx, DWORD PTR [esp+8]
	lea	eax, DWORD PTR [edx+12]
	mov	ecx, DWORD PTR [edx-208]
	xor	ecx, eax
	call	@__security_check_cookie@4
	mov	ecx, DWORD PTR [edx-8]
	xor	ecx, eax
	call	@__security_check_cookie@4
	mov	eax, OFFSET __ehfuncinfo$?SendLocalSystemChat@@YAXIABV?$basic_string@GU?$char_traits@G@std@@V?$allocator@G@2@@std@@@Z
	jmp	___CxxFrameHandler3
text$x	ENDS
?SendLocalSystemChat@@YAXIABV?$basic_string@GU?$char_traits@G@std@@V?$allocator@G@2@@std@@@Z ENDP ; SendLocalSystemChat
PUBLIC	??$_Pow_int@M@@YAMMH@Z				; _Pow_int<float>
; Function compile flags: /Odtp
;	COMDAT ?pow@@YAMMH@Z
_TEXT	SEGMENT
__X$ = 8						; size = 4
__Y$ = 12						; size = 4
?pow@@YAMMH@Z PROC					; pow, COMDAT
; File c:\program files (x86)\microsoft visual studio 9.0\vc\include\math.h
; Line 528
	push	ebp
	mov	ebp, esp
	mov	eax, DWORD PTR __Y$[ebp]
	push	eax
	push	ecx
	fld	DWORD PTR __X$[ebp]
	fstp	DWORD PTR [esp]
	call	??$_Pow_int@M@@YAMMH@Z			; _Pow_int<float>
	add	esp, 8
	pop	ebp
	ret	0
?pow@@YAMMH@Z ENDP					; pow
_TEXT	ENDS
PUBLIC	?SendGroupChat@@YAXIABV?$basic_string@GU?$char_traits@G@std@@V?$allocator@G@2@@std@@@Z ; SendGroupChat
xdata$x	SEGMENT
__unwindtable$?SendGroupChat@@YAXIABV?$basic_string@GU?$char_traits@G@std@@V?$allocator@G@2@@std@@@Z DD 0ffffffffH
	DD	FLAT:__unwindfunclet$?SendGroupChat@@YAXIABV?$basic_string@GU?$char_traits@G@std@@V?$allocator@G@2@@std@@@Z$0
	DD	00H
	DD	FLAT:__unwindfunclet$?SendGroupChat@@YAXIABV?$basic_string@GU?$char_traits@G@std@@V?$allocator@G@2@@std@@@Z$1
	DD	00H
	DD	FLAT:__unwindfunclet$?SendGroupChat@@YAXIABV?$basic_string@GU?$char_traits@G@std@@V?$allocator@G@2@@std@@@Z$2
	DD	02H
	DD	FLAT:__unwindfunclet$?SendGroupChat@@YAXIABV?$basic_string@GU?$char_traits@G@std@@V?$allocator@G@2@@std@@@Z$3
__ehfuncinfo$?SendGroupChat@@YAXIABV?$basic_string@GU?$char_traits@G@std@@V?$allocator@G@2@@std@@@Z DD 019930522H
	DD	04H
	DD	FLAT:__unwindtable$?SendGroupChat@@YAXIABV?$basic_string@GU?$char_traits@G@std@@V?$allocator@G@2@@std@@@Z
	DD	2 DUP(00H)
	DD	2 DUP(00H)
	DD	00H
	DD	00H
; Function compile flags: /Odtp
xdata$x	ENDS
_TEXT	SEGMENT
$T154346 = -152						; size = 28
$T154345 = -124						; size = 28
$T154344 = -96						; size = 8
$T154343 = -88						; size = 8
$T154342 = -80						; size = 28
_g$143958 = -52						; size = 8
_lstMembers$ = -44					; size = 28
_wscSender$ = -16					; size = 4
__$EHRec$ = -12						; size = 12
_iFromClientID$ = 8					; size = 4
_wscText$ = 12						; size = 4
?SendGroupChat@@YAXIABV?$basic_string@GU?$char_traits@G@std@@V?$allocator@G@2@@std@@@Z PROC ; SendGroupChat
; File g:\max\bastelstube\fl\flhook source\flhookplugin_mod\plugins\playercntl_plugin\src\pluginutilities.cpp
; Line 749
	push	ebp
	mov	ebp, esp
	push	-1
	push	__ehhandler$?SendGroupChat@@YAXIABV?$basic_string@GU?$char_traits@G@std@@V?$allocator@G@2@@std@@@Z
	mov	eax, DWORD PTR fs:0
	push	eax
	sub	esp, 140				; 0000008cH
	mov	eax, DWORD PTR ___security_cookie
	xor	eax, ebp
	push	eax
	lea	eax, DWORD PTR __$EHRec$[ebp]
	mov	DWORD PTR fs:0, eax
; Line 750
	mov	eax, DWORD PTR _iFromClientID$[ebp]
	push	eax
	mov	ecx, DWORD PTR __imp_?Players@@3VPlayerDB@@A
	call	DWORD PTR __imp_?GetActiveCharacterName@PlayerDB@@QBEPBGI@Z
	mov	DWORD PTR _wscSender$[ebp], eax
; Line 752
	lea	ecx, DWORD PTR _lstMembers$[ebp]
	call	??0?$list@UGROUP_MEMBER@@V?$allocator@UGROUP_MEMBER@@@std@@@std@@QAE@XZ ; std::list<GROUP_MEMBER,std::allocator<GROUP_MEMBER> >::list<GROUP_MEMBER,std::allocator<GROUP_MEMBER> >
	mov	DWORD PTR __$EHRec$[ebp+8], 0
; Line 753
	mov	ecx, DWORD PTR _wscSender$[ebp]
	push	ecx
	lea	ecx, DWORD PTR $T154342[ebp]
	call	DWORD PTR __imp_??0?$basic_string@GU?$char_traits@G@std@@V?$allocator@G@2@@std@@QAE@PBG@Z
	mov	BYTE PTR __$EHRec$[ebp+8], 1
	lea	edx, DWORD PTR _lstMembers$[ebp]
	push	edx
	lea	eax, DWORD PTR $T154342[ebp]
	push	eax
	call	DWORD PTR __imp_?HkGetGroupMembers@@YA?AW4HK_ERROR@@ABV?$basic_string@GU?$char_traits@G@std@@V?$allocator@G@2@@std@@AAV?$list@UGROUP_MEMBER@@V?$allocator@UGROUP_MEMBER@@@std@@@3@@Z
	add	esp, 8
	mov	BYTE PTR __$EHRec$[ebp+8], 0
	lea	ecx, DWORD PTR $T154342[ebp]
	call	DWORD PTR __imp_??1?$basic_string@GU?$char_traits@G@std@@V?$allocator@G@2@@std@@QAE@XZ
; Line 754
	lea	ecx, DWORD PTR _g$143958[ebp]
	push	ecx
	lea	ecx, DWORD PTR _lstMembers$[ebp]
	call	?begin@?$list@UGROUP_MEMBER@@V?$allocator@UGROUP_MEMBER@@@std@@@std@@QAE?AV?$_Iterator@$00@12@XZ ; std::list<GROUP_MEMBER,std::allocator<GROUP_MEMBER> >::begin
	jmp	SHORT $LN3@SendGroupC
$LN2@SendGroupC:
	push	0
	lea	edx, DWORD PTR $T154343[ebp]
	push	edx
	lea	ecx, DWORD PTR _g$143958[ebp]
	call	??E?$_Iterator@$00@?$list@UGROUP_MEMBER@@V?$allocator@UGROUP_MEMBER@@@std@@@std@@QAE?AV012@H@Z ; std::list<GROUP_MEMBER,std::allocator<GROUP_MEMBER> >::_Iterator<1>::operator++
$LN3@SendGroupC:
	lea	eax, DWORD PTR $T154344[ebp]
	push	eax
	lea	ecx, DWORD PTR _lstMembers$[ebp]
	call	?end@?$list@UGROUP_MEMBER@@V?$allocator@UGROUP_MEMBER@@@std@@@std@@QAE?AV?$_Iterator@$00@12@XZ ; std::list<GROUP_MEMBER,std::allocator<GROUP_MEMBER> >::end
	push	eax
	lea	ecx, DWORD PTR _g$143958[ebp]
	call	??9?$_Const_iterator@$00@?$list@UGROUP_MEMBER@@V?$allocator@UGROUP_MEMBER@@@std@@@std@@QBE_NABV012@@Z ; std::list<GROUP_MEMBER,std::allocator<GROUP_MEMBER> >::_Const_iterator<1>::operator!=
	movzx	ecx, al
	test	ecx, ecx
	je	SHORT $LN1@SendGroupC
; Line 756
	push	OFFSET $SG143967
	lea	ecx, DWORD PTR $T154345[ebp]
