; Listing generated by Microsoft (R) Optimizing Compiler Version 15.00.30729.01 

	TITLE	g:\Max\Bastelstube\GitHub\FL-MoD-FLHook\plugins\playercntl_plugin\src\Rename.cpp
	.686P
	.XMM
	include listing.inc
	.model	flat

INCLUDELIB MSVCRT
INCLUDELIB OLDNAMES

PUBLIC	?_Value@?$_Is_swap_move@U_Swap_move_tag@std@@@std@@2_NB ; std::_Is_swap_move<std::_Swap_move_tag>::_Value
PUBLIC	?collate@?$_Locbase@H@std@@2HB			; std::_Locbase<int>::collate
PUBLIC	?ctype@?$_Locbase@H@std@@2HB			; std::_Locbase<int>::ctype
PUBLIC	?monetary@?$_Locbase@H@std@@2HB			; std::_Locbase<int>::monetary
PUBLIC	?numeric@?$_Locbase@H@std@@2HB			; std::_Locbase<int>::numeric
PUBLIC	?time@?$_Locbase@H@std@@2HB			; std::_Locbase<int>::time
PUBLIC	?messages@?$_Locbase@H@std@@2HB			; std::_Locbase<int>::messages
PUBLIC	?all@?$_Locbase@H@std@@2HB			; std::_Locbase<int>::all
PUBLIC	?none@?$_Locbase@H@std@@2HB			; std::_Locbase<int>::none
PUBLIC	?skipws@?$_Iosb@H@std@@2W4_Fmtflags@12@B	; std::_Iosb<int>::skipws
PUBLIC	?unitbuf@?$_Iosb@H@std@@2W4_Fmtflags@12@B	; std::_Iosb<int>::unitbuf
PUBLIC	?uppercase@?$_Iosb@H@std@@2W4_Fmtflags@12@B	; std::_Iosb<int>::uppercase
PUBLIC	?showbase@?$_Iosb@H@std@@2W4_Fmtflags@12@B	; std::_Iosb<int>::showbase
PUBLIC	?showpoint@?$_Iosb@H@std@@2W4_Fmtflags@12@B	; std::_Iosb<int>::showpoint
PUBLIC	?showpos@?$_Iosb@H@std@@2W4_Fmtflags@12@B	; std::_Iosb<int>::showpos
PUBLIC	?left@?$_Iosb@H@std@@2W4_Fmtflags@12@B		; std::_Iosb<int>::left
PUBLIC	?right@?$_Iosb@H@std@@2W4_Fmtflags@12@B		; std::_Iosb<int>::right
PUBLIC	?internal@?$_Iosb@H@std@@2W4_Fmtflags@12@B	; std::_Iosb<int>::internal
PUBLIC	?dec@?$_Iosb@H@std@@2W4_Fmtflags@12@B		; std::_Iosb<int>::dec
PUBLIC	?oct@?$_Iosb@H@std@@2W4_Fmtflags@12@B		; std::_Iosb<int>::oct
PUBLIC	?hex@?$_Iosb@H@std@@2W4_Fmtflags@12@B		; std::_Iosb<int>::hex
PUBLIC	?scientific@?$_Iosb@H@std@@2W4_Fmtflags@12@B	; std::_Iosb<int>::scientific
PUBLIC	?fixed@?$_Iosb@H@std@@2W4_Fmtflags@12@B		; std::_Iosb<int>::fixed
PUBLIC	?hexfloat@?$_Iosb@H@std@@2W4_Fmtflags@12@B	; std::_Iosb<int>::hexfloat
PUBLIC	?boolalpha@?$_Iosb@H@std@@2W4_Fmtflags@12@B	; std::_Iosb<int>::boolalpha
PUBLIC	?_Stdio@?$_Iosb@H@std@@2W4_Fmtflags@12@B	; std::_Iosb<int>::_Stdio
PUBLIC	?adjustfield@?$_Iosb@H@std@@2W4_Fmtflags@12@B	; std::_Iosb<int>::adjustfield
PUBLIC	?basefield@?$_Iosb@H@std@@2W4_Fmtflags@12@B	; std::_Iosb<int>::basefield
PUBLIC	?floatfield@?$_Iosb@H@std@@2W4_Fmtflags@12@B	; std::_Iosb<int>::floatfield
PUBLIC	?goodbit@?$_Iosb@H@std@@2W4_Iostate@12@B	; std::_Iosb<int>::goodbit
PUBLIC	?eofbit@?$_Iosb@H@std@@2W4_Iostate@12@B		; std::_Iosb<int>::eofbit
PUBLIC	?failbit@?$_Iosb@H@std@@2W4_Iostate@12@B	; std::_Iosb<int>::failbit
PUBLIC	?badbit@?$_Iosb@H@std@@2W4_Iostate@12@B		; std::_Iosb<int>::badbit
PUBLIC	?_Hardfail@?$_Iosb@H@std@@2W4_Iostate@12@B	; std::_Iosb<int>::_Hardfail
PUBLIC	?in@?$_Iosb@H@std@@2W4_Openmode@12@B		; std::_Iosb<int>::in
PUBLIC	?out@?$_Iosb@H@std@@2W4_Openmode@12@B		; std::_Iosb<int>::out
PUBLIC	?ate@?$_Iosb@H@std@@2W4_Openmode@12@B		; std::_Iosb<int>::ate
PUBLIC	?app@?$_Iosb@H@std@@2W4_Openmode@12@B		; std::_Iosb<int>::app
PUBLIC	?trunc@?$_Iosb@H@std@@2W4_Openmode@12@B		; std::_Iosb<int>::trunc
PUBLIC	?_Nocreate@?$_Iosb@H@std@@2W4_Openmode@12@B	; std::_Iosb<int>::_Nocreate
PUBLIC	?_Noreplace@?$_Iosb@H@std@@2W4_Openmode@12@B	; std::_Iosb<int>::_Noreplace
PUBLIC	?binary@?$_Iosb@H@std@@2W4_Openmode@12@B	; std::_Iosb<int>::binary
PUBLIC	?beg@?$_Iosb@H@std@@2W4_Seekdir@12@B		; std::_Iosb<int>::beg
PUBLIC	?cur@?$_Iosb@H@std@@2W4_Seekdir@12@B		; std::_Iosb<int>::cur
PUBLIC	?end@?$_Iosb@H@std@@2W4_Seekdir@12@B		; std::_Iosb<int>::end
PUBLIC	?value@?$integral_constant@_N$0A@@tr1@std@@2_NB	; std::tr1::integral_constant<bool,0>::value
PUBLIC	?value@?$integral_constant@_N$00@tr1@std@@2_NB	; std::tr1::integral_constant<bool,1>::value
PUBLIC	?set_iMoveCost@Rename@@3HA			; Rename::set_iMoveCost
PUBLIC	?set_iRenameCost@Rename@@3HA			; Rename::set_iRenameCost
PUBLIC	?set_iRenameTimeLimit@Rename@@3HA		; Rename::set_iRenameTimeLimit
PUBLIC	?set_bCharnameTags@Rename@@3_NA			; Rename::set_bCharnameTags
PUBLIC	?set_bAsciiCharnameOnly@Rename@@3_NA		; Rename::set_bAsciiCharnameOnly
PUBLIC	?set_iMakeTagCost@Rename@@3HA			; Rename::set_iMakeTagCost
_BSS	SEGMENT
?set_iMoveCost@Rename@@3HA DD 01H DUP (?)		; Rename::set_iMoveCost
?set_iRenameCost@Rename@@3HA DD 01H DUP (?)		; Rename::set_iRenameCost
?set_iRenameTimeLimit@Rename@@3HA DD 01H DUP (?)	; Rename::set_iRenameTimeLimit
?set_bCharnameTags@Rename@@3_NA DB 01H DUP (?)		; Rename::set_bCharnameTags
	ALIGN	4

?set_bAsciiCharnameOnly@Rename@@3_NA DB 01H DUP (?)	; Rename::set_bAsciiCharnameOnly
_BSS	ENDS
;	COMDAT ?value@?$integral_constant@_N$00@tr1@std@@2_NB
CONST	SEGMENT
?value@?$integral_constant@_N$00@tr1@std@@2_NB DB 01H	; std::tr1::integral_constant<bool,1>::value
CONST	ENDS
;	COMDAT ?value@?$integral_constant@_N$0A@@tr1@std@@2_NB
CONST	SEGMENT
?value@?$integral_constant@_N$0A@@tr1@std@@2_NB DB 00H	; std::tr1::integral_constant<bool,0>::value
CONST	ENDS
;	COMDAT ?end@?$_Iosb@H@std@@2W4_Seekdir@12@B
CONST	SEGMENT
?end@?$_Iosb@H@std@@2W4_Seekdir@12@B DD 02H		; std::_Iosb<int>::end
CONST	ENDS
;	COMDAT ?cur@?$_Iosb@H@std@@2W4_Seekdir@12@B
CONST	SEGMENT
?cur@?$_Iosb@H@std@@2W4_Seekdir@12@B DD 01H		; std::_Iosb<int>::cur
CONST	ENDS
;	COMDAT ?beg@?$_Iosb@H@std@@2W4_Seekdir@12@B
CONST	SEGMENT
?beg@?$_Iosb@H@std@@2W4_Seekdir@12@B DD 00H		; std::_Iosb<int>::beg
CONST	ENDS
;	COMDAT ?binary@?$_Iosb@H@std@@2W4_Openmode@12@B
CONST	SEGMENT
?binary@?$_Iosb@H@std@@2W4_Openmode@12@B DD 020H	; std::_Iosb<int>::binary
CONST	ENDS
;	COMDAT ?_Noreplace@?$_Iosb@H@std@@2W4_Openmode@12@B
CONST	SEGMENT
?_Noreplace@?$_Iosb@H@std@@2W4_Openmode@12@B DD 080H	; std::_Iosb<int>::_Noreplace
CONST	ENDS
;	COMDAT ?_Nocreate@?$_Iosb@H@std@@2W4_Openmode@12@B
CONST	SEGMENT
?_Nocreate@?$_Iosb@H@std@@2W4_Openmode@12@B DD 040H	; std::_Iosb<int>::_Nocreate
CONST	ENDS
;	COMDAT ?trunc@?$_Iosb@H@std@@2W4_Openmode@12@B
CONST	SEGMENT
?trunc@?$_Iosb@H@std@@2W4_Openmode@12@B DD 010H		; std::_Iosb<int>::trunc
CONST	ENDS
;	COMDAT ?app@?$_Iosb@H@std@@2W4_Openmode@12@B
CONST	SEGMENT
?app@?$_Iosb@H@std@@2W4_Openmode@12@B DD 08H		; std::_Iosb<int>::app
CONST	ENDS
;	COMDAT ?ate@?$_Iosb@H@std@@2W4_Openmode@12@B
CONST	SEGMENT
?ate@?$_Iosb@H@std@@2W4_Openmode@12@B DD 04H		; std::_Iosb<int>::ate
CONST	ENDS
;	COMDAT ?out@?$_Iosb@H@std@@2W4_Openmode@12@B
CONST	SEGMENT
?out@?$_Iosb@H@std@@2W4_Openmode@12@B DD 02H		; std::_Iosb<int>::out
CONST	ENDS
;	COMDAT ?in@?$_Iosb@H@std@@2W4_Openmode@12@B
CONST	SEGMENT
?in@?$_Iosb@H@std@@2W4_Openmode@12@B DD 01H		; std::_Iosb<int>::in
CONST	ENDS
;	COMDAT ?_Hardfail@?$_Iosb@H@std@@2W4_Iostate@12@B
CONST	SEGMENT
?_Hardfail@?$_Iosb@H@std@@2W4_Iostate@12@B DD 010H	; std::_Iosb<int>::_Hardfail
CONST	ENDS
;	COMDAT ?badbit@?$_Iosb@H@std@@2W4_Iostate@12@B
CONST	SEGMENT
?badbit@?$_Iosb@H@std@@2W4_Iostate@12@B DD 04H		; std::_Iosb<int>::badbit
CONST	ENDS
;	COMDAT ?failbit@?$_Iosb@H@std@@2W4_Iostate@12@B
CONST	SEGMENT
?failbit@?$_Iosb@H@std@@2W4_Iostate@12@B DD 02H		; std::_Iosb<int>::failbit
CONST	ENDS
;	COMDAT ?eofbit@?$_Iosb@H@std@@2W4_Iostate@12@B
CONST	SEGMENT
?eofbit@?$_Iosb@H@std@@2W4_Iostate@12@B DD 01H		; std::_Iosb<int>::eofbit
CONST	ENDS
;	COMDAT ?goodbit@?$_Iosb@H@std@@2W4_Iostate@12@B
CONST	SEGMENT
?goodbit@?$_Iosb@H@std@@2W4_Iostate@12@B DD 00H		; std::_Iosb<int>::goodbit
CONST	ENDS
;	COMDAT ?floatfield@?$_Iosb@H@std@@2W4_Fmtflags@12@B
CONST	SEGMENT
?floatfield@?$_Iosb@H@std@@2W4_Fmtflags@12@B DD 03000H	; std::_Iosb<int>::floatfield
CONST	ENDS
;	COMDAT ?basefield@?$_Iosb@H@std@@2W4_Fmtflags@12@B
CONST	SEGMENT
?basefield@?$_Iosb@H@std@@2W4_Fmtflags@12@B DD 0e00H	; std::_Iosb<int>::basefield
CONST	ENDS
;	COMDAT ?adjustfield@?$_Iosb@H@std@@2W4_Fmtflags@12@B
CONST	SEGMENT
?adjustfield@?$_Iosb@H@std@@2W4_Fmtflags@12@B DD 01c0H	; std::_Iosb<int>::adjustfield
CONST	ENDS
;	COMDAT ?_Stdio@?$_Iosb@H@std@@2W4_Fmtflags@12@B
CONST	SEGMENT
?_Stdio@?$_Iosb@H@std@@2W4_Fmtflags@12@B DD 08000H	; std::_Iosb<int>::_Stdio
CONST	ENDS
;	COMDAT ?boolalpha@?$_Iosb@H@std@@2W4_Fmtflags@12@B
CONST	SEGMENT
?boolalpha@?$_Iosb@H@std@@2W4_Fmtflags@12@B DD 04000H	; std::_Iosb<int>::boolalpha
CONST	ENDS
;	COMDAT ?hexfloat@?$_Iosb@H@std@@2W4_Fmtflags@12@B
CONST	SEGMENT
?hexfloat@?$_Iosb@H@std@@2W4_Fmtflags@12@B DD 03000H	; std::_Iosb<int>::hexfloat
CONST	ENDS
;	COMDAT ?fixed@?$_Iosb@H@std@@2W4_Fmtflags@12@B
CONST	SEGMENT
?fixed@?$_Iosb@H@std@@2W4_Fmtflags@12@B DD 02000H	; std::_Iosb<int>::fixed
CONST	ENDS
;	COMDAT ?scientific@?$_Iosb@H@std@@2W4_Fmtflags@12@B
CONST	SEGMENT
?scientific@?$_Iosb@H@std@@2W4_Fmtflags@12@B DD 01000H	; std::_Iosb<int>::scientific
CONST	ENDS
;	COMDAT ?hex@?$_Iosb@H@std@@2W4_Fmtflags@12@B
CONST	SEGMENT
?hex@?$_Iosb@H@std@@2W4_Fmtflags@12@B DD 0800H		; std::_Iosb<int>::hex
CONST	ENDS
;	COMDAT ?oct@?$_Iosb@H@std@@2W4_Fmtflags@12@B
CONST	SEGMENT
?oct@?$_Iosb@H@std@@2W4_Fmtflags@12@B DD 0400H		; std::_Iosb<int>::oct
CONST	ENDS
;	COMDAT ?dec@?$_Iosb@H@std@@2W4_Fmtflags@12@B
CONST	SEGMENT
?dec@?$_Iosb@H@std@@2W4_Fmtflags@12@B DD 0200H		; std::_Iosb<int>::dec
CONST	ENDS
;	COMDAT ?internal@?$_Iosb@H@std@@2W4_Fmtflags@12@B
CONST	SEGMENT
?internal@?$_Iosb@H@std@@2W4_Fmtflags@12@B DD 0100H	; std::_Iosb<int>::internal
CONST	ENDS
;	COMDAT ?right@?$_Iosb@H@std@@2W4_Fmtflags@12@B
CONST	SEGMENT
?right@?$_Iosb@H@std@@2W4_Fmtflags@12@B DD 080H		; std::_Iosb<int>::right
CONST	ENDS
;	COMDAT ?left@?$_Iosb@H@std@@2W4_Fmtflags@12@B
CONST	SEGMENT
?left@?$_Iosb@H@std@@2W4_Fmtflags@12@B DD 040H		; std::_Iosb<int>::left
CONST	ENDS
;	COMDAT ?showpos@?$_Iosb@H@std@@2W4_Fmtflags@12@B
CONST	SEGMENT
?showpos@?$_Iosb@H@std@@2W4_Fmtflags@12@B DD 020H	; std::_Iosb<int>::showpos
CONST	ENDS
;	COMDAT ?showpoint@?$_Iosb@H@std@@2W4_Fmtflags@12@B
CONST	SEGMENT
?showpoint@?$_Iosb@H@std@@2W4_Fmtflags@12@B DD 010H	; std::_Iosb<int>::showpoint
CONST	ENDS
;	COMDAT ?showbase@?$_Iosb@H@std@@2W4_Fmtflags@12@B
CONST	SEGMENT
?showbase@?$_Iosb@H@std@@2W4_Fmtflags@12@B DD 08H	; std::_Iosb<int>::showbase
CONST	ENDS
;	COMDAT ?uppercase@?$_Iosb@H@std@@2W4_Fmtflags@12@B
CONST	SEGMENT
?uppercase@?$_Iosb@H@std@@2W4_Fmtflags@12@B DD 04H	; std::_Iosb<int>::uppercase
CONST	ENDS
;	COMDAT ?unitbuf@?$_Iosb@H@std@@2W4_Fmtflags@12@B
CONST	SEGMENT
?unitbuf@?$_Iosb@H@std@@2W4_Fmtflags@12@B DD 02H	; std::_Iosb<int>::unitbuf
CONST	ENDS
;	COMDAT ?skipws@?$_Iosb@H@std@@2W4_Fmtflags@12@B
CONST	SEGMENT
?skipws@?$_Iosb@H@std@@2W4_Fmtflags@12@B DD 01H		; std::_Iosb<int>::skipws
CONST	ENDS
;	COMDAT ?none@?$_Locbase@H@std@@2HB
CONST	SEGMENT
?none@?$_Locbase@H@std@@2HB DD 00H			; std::_Locbase<int>::none
CONST	ENDS
;	COMDAT ?all@?$_Locbase@H@std@@2HB
CONST	SEGMENT
?all@?$_Locbase@H@std@@2HB DD 03fH			; std::_Locbase<int>::all
CONST	ENDS
;	COMDAT ?messages@?$_Locbase@H@std@@2HB
CONST	SEGMENT
?messages@?$_Locbase@H@std@@2HB DD 020H			; std::_Locbase<int>::messages
CONST	ENDS
;	COMDAT ?time@?$_Locbase@H@std@@2HB
CONST	SEGMENT
?time@?$_Locbase@H@std@@2HB DD 010H			; std::_Locbase<int>::time
CONST	ENDS
;	COMDAT ?numeric@?$_Locbase@H@std@@2HB
CONST	SEGMENT
?numeric@?$_Locbase@H@std@@2HB DD 08H			; std::_Locbase<int>::numeric
CONST	ENDS
;	COMDAT ?monetary@?$_Locbase@H@std@@2HB
CONST	SEGMENT
?monetary@?$_Locbase@H@std@@2HB DD 04H			; std::_Locbase<int>::monetary
CONST	ENDS
;	COMDAT ?ctype@?$_Locbase@H@std@@2HB
CONST	SEGMENT
?ctype@?$_Locbase@H@std@@2HB DD 02H			; std::_Locbase<int>::ctype
CONST	ENDS
;	COMDAT ?collate@?$_Locbase@H@std@@2HB
CONST	SEGMENT
?collate@?$_Locbase@H@std@@2HB DD 01H			; std::_Locbase<int>::collate
CONST	ENDS
;	COMDAT ?_Value@?$_Is_swap_move@U_Swap_move_tag@std@@@std@@2_NB
CONST	SEGMENT
?_Value@?$_Is_swap_move@U_Swap_move_tag@std@@@std@@2_NB DB 01H ; std::_Is_swap_move<std::_Swap_move_tag>::_Value
CONST	ENDS
_DATA	SEGMENT
__bad_alloc_Message DD FLAT:$SG63979
?set_iMakeTagCost@Rename@@3HA DD 02faf080H		; Rename::set_iMakeTagCost
_DATA	ENDS
CONST	SEGMENT
$SG63979 DB	'bad allocation', 00H
	ORG $+1
$SG141722 DB	'%s=', 00H
$SG141730 DB	'%02x%02x', 00H
	ORG $+3
$SG141731 DB	0aH, 00H
	ORG $+2
$SG141737 DB	00H, 00H
	ORG $+2
$SG141743 DB	'%02X%02X', 00H
	ORG $+3
$SG142535 DB	'RenameCost', 00H
	ORG $+1
$SG142536 DB	'Rename', 00H
	ORG $+1
$SG142539 DB	'RenameTimeLimit', 00H
$SG142540 DB	'Rename', 00H
	ORG $+1
$SG142543 DB	'MoveCost', 00H
	ORG $+3
$SG142544 DB	'Rename', 00H
	ORG $+1
$SG142547 DB	'CharnameTag', 00H
$SG142548 DB	'Rename', 00H
	ORG $+1
$SG142551 DB	'AsciiCharnameOnly', 00H
	ORG $+2
$SG142552 DB	'Rename', 00H
	ORG $+1
$SG142555 DB	'MakeTagCost', 00H
$SG142556 DB	'Rename', 00H
	ORG $+1
$SG142561 DB	'\Accts\MultiPlayer\tags.ini', 00H
$SG142568 DB	'faction', 00H
$SG142574 DB	'tag', 00H
$SG142577 DB	'master_password', 00H
$SG142581 DB	'rename_password', 00H
$SG142585 DB	'last_access', 00H
$SG142588 DB	'description', 00H
$SG142596 DB	'\Accts\MultiPlayer\tags.ini', 00H
$SG142598 DB	'w', 00H
	ORG $+2
$SG142716 DB	'[faction]', 0aH, 00H
	ORG $+1
$SG142746 DB	'tag', 00H
$SG142748 DB	'master_password', 00H
$SG142750 DB	'rename_password', 00H
$SG142752 DB	'description', 00H
$SG142753 DB	'last_access = %u', 0aH, 00H
	ORG $+2
$SG142828 DB	'E', 00H, 'R', 00H, 'R', 00H, ' ', 00H, 'I', 00H, 'n', 00H
	DB	'v', 00H, 'a', 00H, 'l', 00H, 'i', 00H, 'd', 00H, ' ', 00H, 'p'
	DB	00H, 'a', 00H, 'r', 00H, 'a', 00H, 'm', 00H, 'e', 00H, 't', 00H
	DB	'e', 00H, 'r', 00H, 's', 00H, 00H, 00H
	ORG $+2
$SG142833 DB	'E', 00H, 'R', 00H, 'R', 00H, ' ', 00H, 'N', 00H, 'o', 00H
	DB	't', 00H, ' ', 00H, 'i', 00H, 'n', 00H, ' ', 00H, 'b', 00H, 'a'
	DB	00H, 's', 00H, 'e', 00H, 00H, 00H
$SG142842 DB	'E', 00H, 'R', 00H, 'R', 00H, ' ', 00H, 'T', 00H, 'a', 00H
	DB	'g', 00H, ' ', 00H, 't', 00H, 'o', 00H, 'o', 00H, ' ', 00H, 's'
	DB	00H, 'h', 00H, 'o', 00H, 'r', 00H, 't', 00H, 00H, 00H
$SG142847 DB	'E', 00H, 'R', 00H, 'R', 00H, ' ', 00H, 'P', 00H, 'a', 00H
	DB	's', 00H, 's', 00H, 'w', 00H, 'o', 00H, 'r', 00H, 'd', 00H, ' '
	DB	00H, 'n', 00H, 'o', 00H, 't', 00H, ' ', 00H, 's', 00H, 'e', 00H
	DB	't', 00H, 00H, 00H
	ORG $+2
$SG142852 DB	'E', 00H, 'R', 00H, 'R', 00H, ' ', 00H, 'D', 00H, 'e', 00H
	DB	's', 00H, 'c', 00H, 'r', 00H, 'i', 00H, 'p', 00H, 't', 00H, 'i'
	DB	00H, 'o', 00H, 'n', 00H, ' ', 00H, 'n', 00H, 'o', 00H, 't', 00H
	DB	' ', 00H, 's', 00H, 'e', 00H, 't', 00H, 00H, 00H
$SG142877 DB	'E', 00H, 'R', 00H, 'R', 00H, ' ', 00H, 'T', 00H, 'a', 00H
	DB	'g', 00H, ' ', 00H, 'a', 00H, 'l', 00H, 'r', 00H, 'e', 00H, 'a'
	DB	00H, 'd', 00H, 'y', 00H, ' ', 00H, 'e', 00H, 'x', 00H, 'i', 00H
	DB	's', 00H, 't', 00H, 's', 00H, ' ', 00H, 'o', 00H, 'r', 00H, ' '
	DB	00H, 'c', 00H, 'o', 00H, 'n', 00H, 'f', 00H, 'l', 00H, 'i', 00H
	DB	'c', 00H, 't', 00H, 's', 00H, ' ', 00H, 'w', 00H, 'i', 00H, 't'
	DB	00H, 'h', 00H, ' ', 00H, 'e', 00H, 'x', 00H, 'i', 00H, 's', 00H
	DB	't', 00H, 'i', 00H, 'n', 00H, 'g', 00H, ' ', 00H, 't', 00H, 'a'
	DB	00H, 'g', 00H, 00H, 00H
$SG142888 DB	'E', 00H, 'R', 00H, 'R', 00H, ' ', 00H, 00H, 00H
	ORG $+2
$SG142892 DB	'E', 00H, 'R', 00H, 'R', 00H, ' ', 00H, 'I', 00H, 'n', 00H
	DB	's', 00H, 'u', 00H, 'f', 00H, 'f', 00H, 'i', 00H, 'c', 00H, 'i'
	DB	00H, 'e', 00H, 'n', 00H, 't', 00H, ' ', 00H, 'c', 00H, 'r', 00H
	DB	'e', 00H, 'd', 00H, 'i', 00H, 't', 00H, 's', 00H, 00H, 00H
	ORG $+2
$SG142894 DB	00H, 00H
	ORG $+2
$SG142897 DB	'C', 00H, 'r', 00H, 'e', 00H, 'a', 00H, 't', 00H, 'e', 00H
	DB	'd', 00H, ' ', 00H, 'f', 00H, 'a', 00H, 'c', 00H, 't', 00H, 'i'
	DB	00H, 'o', 00H, 'n', 00H, ' ', 00H, 't', 00H, 'a', 00H, 'g', 00H
	DB	' ', 00H, '%', 00H, 's', 00H, ' ', 00H, 'w', 00H, 'i', 00H, 't'
	DB	00H, 'h', 00H, ' ', 00H, 'm', 00H, 'a', 00H, 's', 00H, 't', 00H
	DB	'e', 00H, 'r', 00H, ' ', 00H, 'p', 00H, 'a', 00H, 's', 00H, 's'
	DB	00H, 'w', 00H, 'o', 00H, 'r', 00H, 'd', 00H, ' ', 00H, '%', 00H
	DB	's', 00H, 00H, 00H
	ORG $+2
$SG142902 DB	'NOTICE: Tag %s created by %s (%s)', 00H
	ORG $+2
$SG142913 DB	'E', 00H, 'R', 00H, 'R', 00H, ' ', 00H, 'I', 00H, 'n', 00H
	DB	'v', 00H, 'a', 00H, 'l', 00H, 'i', 00H, 'd', 00H, ' ', 00H, 'p'
	DB	00H, 'a', 00H, 'r', 00H, 'a', 00H, 'm', 00H, 'e', 00H, 't', 00H
	DB	'e', 00H, 'r', 00H, 's', 00H, 00H, 00H
	ORG $+2
$SG142941 DB	'O', 00H, 'K', 00H, ' ', 00H, 'T', 00H, 'a', 00H, 'g', 00H
	DB	' ', 00H, 'd', 00H, 'r', 00H, 'o', 00H, 'p', 00H, 'p', 00H, 'e'
	DB	00H, 'd', 00H, 00H, 00H
	ORG $+2
$SG142946 DB	'NOTICE: Tag %s dropped by %s (%s)', 00H
	ORG $+2
$SG142949 DB	'E', 00H, 'R', 00H, 'R', 00H, ' ', 00H, 't', 00H, 'a', 00H
	DB	'g', 00H, ' ', 00H, 'o', 00H, 'r', 00H, ' ', 00H, 'm', 00H, 'a'
	DB	00H, 's', 00H, 't', 00H, 'e', 00H, 'r', 00H, ' ', 00H, 'p', 00H
	DB	'a', 00H, 's', 00H, 's', 00H, 'w', 00H, 'o', 00H, 'r', 00H, 'd'
	DB	00H, ' ', 00H, 'a', 00H, 'r', 00H, 'e', 00H, ' ', 00H, 'i', 00H
	DB	'n', 00H, 'v', 00H, 'a', 00H, 'l', 00H, 'i', 00H, 'd', 00H, 00H
	DB	00H
	ORG $+2
$SG142960 DB	'E', 00H, 'R', 00H, 'R', 00H, ' ', 00H, 'I', 00H, 'n', 00H
	DB	'v', 00H, 'a', 00H, 'l', 00H, 'i', 00H, 'd', 00H, ' ', 00H, 'p'
	DB	00H, 'a', 00H, 'r', 00H, 'a', 00H, 'm', 00H, 'e', 00H, 't', 00H
	DB	'e', 00H, 'r', 00H, 's', 00H, 00H, 00H
	ORG $+2
$SG142989 DB	'O', 00H, 'K', 00H, ' ', 00H, 'C', 00H, 'r', 00H, 'e', 00H
	DB	'a', 00H, 't', 00H, 'e', 00H, 'd', 00H, ' ', 00H, 'r', 00H, 'e'
	DB	00H, 'n', 00H, 'a', 00H, 'm', 00H, 'e', 00H, ' ', 00H, 'p', 00H
	DB	'a', 00H, 's', 00H, 's', 00H, 'w', 00H, 'o', 00H, 'r', 00H, 'd'
	DB	00H, ' ', 00H, '%', 00H, 's', 00H, ' ', 00H, 'f', 00H, 'o', 00H
	DB	'r', 00H, ' ', 00H, 't', 00H, 'a', 00H, 'g', 00H, ' ', 00H, '%'
	DB	00H, 's', 00H, 00H, 00H
	ORG $+6
$SG142992 DB	'E', 00H, 'R', 00H, 'R', 00H, ' ', 00H, 't', 00H, 'a', 00H
	DB	'g', 00H, ' ', 00H, 'o', 00H, 'r', 00H, ' ', 00H, 'm', 00H, 'a'
	DB	00H, 's', 00H, 't', 00H, 'e', 00H, 'r', 00H, ' ', 00H, 'p', 00H
	DB	'a', 00H, 's', 00H, 's', 00H, 'w', 00H, 'o', 00H, 'r', 00H, 'd'
	DB	00H, ' ', 00H, 'a', 00H, 'r', 00H, 'e', 00H, ' ', 00H, 'i', 00H
	DB	'n', 00H, 'v', 00H, 'a', 00H, 'l', 00H, 'i', 00H, 'd', 00H, 00H
	DB	00H
	ORG $+2
$SG144097 DB	'no acc', 00H
	ORG $+1
$SG144100 DB	'move src to temp failed', 00H
$SG144103 DB	'Name', 00H
	ORG $+3
$SG144104 DB	'Player', 00H
	ORG $+1
$SG144108 DB	'move failed', 00H
$SG144111 DB	'src still exists', 00H
	ORG $+3
$SG144114 DB	'dest does not exist', 00H
$SG144119 DB	'NOTICE: User rename %s to %s (%s)', 00H
	ORG $+2
$SG144125 DB	'ERROR: User rename failed (%s) from %s to %s (%s)', 00H
	ORG $+2
$SG144137 DB	'move src to temp failed', 00H
$SG144140 DB	'move failed', 00H
$SG144143 DB	'src still exists', 00H
	ORG $+3
$SG144146 DB	'dest does not exist', 00H
$SG144152 DB	'NOTICE: Character %s moved from %s to %s', 00H
	ORG $+3
$SG144159 DB	'ERROR: Character %s move failed (%s) from %s to %s', 00H
	ORG $+1
$SG144180 DB	'E', 00H, 'R', 00H, 'R', 00H, ' ', 00H, 'I', 00H, 'n', 00H
	DB	'v', 00H, 'a', 00H, 'l', 00H, 'i', 00H, 'd', 00H, ' ', 00H, 'p'
	DB	00H, 'a', 00H, 'r', 00H, 'a', 00H, 'm', 00H, 'e', 00H, 't', 00H
	DB	'e', 00H, 'r', 00H, 's', 00H, 00H, 00H
	ORG $+2
$SG144185 DB	'E', 00H, 'R', 00H, 'R', 00H, ' ', 00H, 'N', 00H, 'o', 00H
	DB	't', 00H, ' ', 00H, 'i', 00H, 'n', 00H, ' ', 00H, 'b', 00H, 'a'
	DB	00H, 's', 00H, 'e', 00H, 00H, 00H
$SG144191 DB	' ', 00H, 00H, 00H
$SG144201 DB	'E', 00H, 'R', 00H, 'R', 00H, ' ', 00H, 'N', 00H, 'a', 00H
	DB	'm', 00H, 'e', 00H, ' ', 00H, 't', 00H, 'o', 00H, ' ', 00H, 'l'
	DB	00H, 'o', 00H, 'n', 00H, 'g', 00H, 00H, 00H
	ORG $+2
$SG144193 DB	'E', 00H, 'R', 00H, 'R', 00H, ' ', 00H, 'S', 00H, 'p', 00H
	DB	'a', 00H, 'c', 00H, 'e', 00H, ' ', 00H, 'c', 00H, 'h', 00H, 'a'
	DB	00H, 'r', 00H, 'a', 00H, 'c', 00H, 't', 00H, 'e', 00H, 'r', 00H
	DB	's', 00H, ' ', 00H, 'n', 00H, 'o', 00H, 't', 00H, ' ', 00H, 'a'
	DB	00H, 'l', 00H, 'l', 00H, 'o', 00H, 'w', 00H, 'e', 00H, 'd', 00H
	DB	' ', 00H, 'i', 00H, 'n', 00H, ' ', 00H, 'n', 00H, 'a', 00H, 'm'
	DB	00H, 'e', 00H, 00H, 00H
	ORG $+2
$SG144197 DB	'E', 00H, 'R', 00H, 'R', 00H, ' ', 00H, 'N', 00H, 'a', 00H
	DB	'm', 00H, 'e', 00H, ' ', 00H, 'a', 00H, 'l', 00H, 'r', 00H, 'e'
	DB	00H, 'a', 00H, 'd', 00H, 'y', 00H, ' ', 00H, 'e', 00H, 'x', 00H
	DB	'i', 00H, 's', 00H, 't', 00H, 's', 00H, 00H, 00H
$SG144205 DB	'E', 00H, 'R', 00H, 'R', 00H, ' ', 00H, 'N', 00H, 'a', 00H
	DB	'm', 00H, 'e', 00H, ' ', 00H, 't', 00H, 'o', 00H, ' ', 00H, 's'
	DB	00H, 'h', 00H, 'o', 00H, 'r', 00H, 't', 00H, 00H, 00H
$SG144234 DB	'E', 00H, 'R', 00H, 'R', 00H, ' ', 00H, 'N', 00H, 'a', 00H
	DB	'm', 00H, 'e', 00H, ' ', 00H, 's', 00H, 't', 00H, 'a', 00H, 'r'
	DB	00H, 't', 00H, 's', 00H, ' ', 00H, 'w', 00H, 'i', 00H, 't', 00H
	DB	'h', 00H, ' ', 00H, 'a', 00H, 'n', 00H, ' ', 00H, 'o', 00H, 'w'
	DB	00H, 'n', 00H, 'e', 00H, 'd', 00H, ' ', 00H, 't', 00H, 'a', 00H
	DB	'g', 00H, '.', 00H, ' ', 00H, 'P', 00H, 'a', 00H, 's', 00H, 's'
	DB	00H, 'w', 00H, 'o', 00H, 'r', 00H, 'd', 00H, ' ', 00H, 'i', 00H
	DB	's', 00H, ' ', 00H, 'r', 00H, 'e', 00H, 'q', 00H, 'u', 00H, 'i'
	DB	00H, 'r', 00H, 'e', 00H, 'd', 00H, '.', 00H, 00H, 00H
	ORG $+6
$SG144239 DB	'E', 00H, 'R', 00H, 'R', 00H, ' ', 00H, 'N', 00H, 'a', 00H
	DB	'm', 00H, 'e', 00H, ' ', 00H, 's', 00H, 't', 00H, 'a', 00H, 'r'
	DB	00H, 't', 00H, 's', 00H, ' ', 00H, 'w', 00H, 'i', 00H, 't', 00H
	DB	'h', 00H, ' ', 00H, 'a', 00H, 'n', 00H, ' ', 00H, 'o', 00H, 'w'
	DB	00H, 'n', 00H, 'e', 00H, 'd', 00H, ' ', 00H, 't', 00H, 'a', 00H
	DB	'g', 00H, '.', 00H, ' ', 00H, 'P', 00H, 'a', 00H, 's', 00H, 's'
	DB	00H, 'w', 00H, 'o', 00H, 'r', 00H, 'd', 00H, ' ', 00H, 'i', 00H
	DB	's', 00H, ' ', 00H, 'w', 00H, 'r', 00H, 'o', 00H, 'n', 00H, 'g'
	DB	00H, '.', 00H, 00H, 00H
$SG144250 DB	'E', 00H, 'R', 00H, 'R', 00H, ' ', 00H, 00H, 00H
	ORG $+2
$SG144254 DB	'E', 00H, 'R', 00H, 'R', 00H, ' ', 00H, 'I', 00H, 'n', 00H
	DB	's', 00H, 'u', 00H, 'f', 00H, 'f', 00H, 'i', 00H, 'c', 00H, 'i'
	DB	00H, 'e', 00H, 'n', 00H, 't', 00H, ' ', 00H, 'c', 00H, 'r', 00H
	DB	'e', 00H, 'd', 00H, 'i', 00H, 't', 00H, 's', 00H, 00H, 00H
	ORG $+2
$SG144261 DB	'E', 00H, 'R', 00H, 'R', 00H, ' ', 00H, 00H, 00H
	ORG $+2
$SG144268 DB	'rename.ini', 00H
	ORG $+1
$SG144269 DB	'\', 00H
	ORG $+2
$SG144273 DB	'General', 00H
$SG144279 DB	'E', 00H, 'R', 00H, 'R', 00H, ' ', 00H, 'R', 00H, 'e', 00H
	DB	'n', 00H, 'a', 00H, 'm', 00H, 'e', 00H, ' ', 00H, 't', 00H, 'i'
	DB	00H, 'm', 00H, 'e', 00H, ' ', 00H, 'l', 00H, 'i', 00H, 'm', 00H
	DB	'i', 00H, 't', 00H, 00H, 00H
$SG144285 DB	'\Accts\MultiPlayer\', 00H
$SG144291 DB	'E', 00H, 'R', 00H, 'R', 00H, ' ', 00H, 00H, 00H
	ORG $+2
$SG144298 DB	'E', 00H, 'R', 00H, 'R', 00H, ' ', 00H, 00H, 00H
	ORG $+2
$SG144308 DB	'.fl', 00H
$SG144309 DB	'\', 00H
	ORG $+2
$SG144316 DB	'.fl', 00H
$SG144317 DB	'\', 00H
	ORG $+2
$SG144324 DB	'.fl.renaming', 00H
	ORG $+3
$SG144325 DB	'\', 00H
	ORG $+6
$SG144327 DB	'U', 00H, 'p', 00H, 'd', 00H, 'a', 00H, 't', 00H, 'i', 00H
	DB	'n', 00H, 'g', 00H, ' ', 00H, 'c', 00H, 'h', 00H, 'a', 00H, 'r'
	DB	00H, 'a', 00H, 'c', 00H, 't', 00H, 'e', 00H, 'r', 00H, ',', 00H
	DB	' ', 00H, 'p', 00H, 'l', 00H, 'e', 00H, 'a', 00H, 's', 00H, 'e'
	DB	00H, ' ', 00H, 'w', 00H, 'a', 00H, 'i', 00H, 't', 00H, ' ', 00H
	DB	'1', 00H, '0', 00H, ' ', 00H, 's', 00H, 'e', 00H, 'c', 00H, 'o'
	DB	00H, 'n', 00H, 'd', 00H, 's', 00H, ' ', 00H, 'b', 00H, 'e', 00H
	DB	'f', 00H, 'o', 00H, 'r', 00H, 'e', 00H, ' ', 00H, 'r', 00H, 'e'
	DB	00H, 'c', 00H, 'o', 00H, 'n', 00H, 'n', 00H, 'e', 00H, 'c', 00H
	DB	't', 00H, 'i', 00H, 'n', 00H, 'g', 00H, 00H, 00H
	ORG $+2
$SG144332 DB	'General', 00H
$SG144345 DB	'E', 00H, 'R', 00H, 'R', 00H, ' ', 00H, 'I', 00H, 'n', 00H
	DB	'v', 00H, 'a', 00H, 'l', 00H, 'i', 00H, 'd', 00H, ' ', 00H, 'p'
	DB	00H, 'a', 00H, 'r', 00H, 'a', 00H, 'm', 00H, 'e', 00H, 't', 00H
	DB	'e', 00H, 'r', 00H, 's', 00H, 00H, 00H
	ORG $+2
$SG144353 DB	'-movechar.ini', 00H
	ORG $+2
$SG144355 DB	'E', 00H, 'R', 00H, 'R', 00H, ' ', 00H, 'C', 00H, 'h', 00H
	DB	'a', 00H, 'r', 00H, 'a', 00H, 'c', 00H, 't', 00H, 'e', 00H, 'r'
	DB	00H, ' ', 00H, 'd', 00H, 'o', 00H, 'e', 00H, 's', 00H, ' ', 00H
	DB	'n', 00H, 'o', 00H, 't', 00H, ' ', 00H, 'e', 00H, 'x', 00H, 'i'
	DB	00H, 's', 00H, 't', 00H, 00H, 00H
	ORG $+2
$SG144362 DB	'n', 00H, 'o', 00H, 'n', 00H, 'e', 00H, 00H, 00H
	ORG $+2
$SG144366 DB	00H, 00H
	ORG $+2
$SG144367 DB	'Code', 00H
	ORG $+3
$SG144368 DB	'Settings', 00H
	ORG $+3
$SG144370 DB	'O', 00H, 'K', 00H, ' ', 00H, 'M', 00H, 'o', 00H, 'v', 00H
	DB	'e', 00H, 'c', 00H, 'h', 00H, 'a', 00H, 'r', 00H, ' ', 00H, 'c'
	DB	00H, 'o', 00H, 'd', 00H, 'e', 00H, ' ', 00H, 'c', 00H, 'l', 00H
	DB	'e', 00H, 'a', 00H, 'r', 00H, 'e', 00H, 'd', 00H, 00H, 00H
	ORG $+2
$SG144374 DB	'Code', 00H
	ORG $+3
$SG144375 DB	'Settings', 00H
	ORG $+3
$SG144378 DB	'O', 00H, 'K', 00H, ' ', 00H, 'M', 00H, 'o', 00H, 'v', 00H
	DB	'e', 00H, 'c', 00H, 'h', 00H, 'a', 00H, 'r', 00H, ' ', 00H, 'c'
	DB	00H, 'o', 00H, 'd', 00H, 'e', 00H, ' ', 00H, 's', 00H, 'e', 00H
	DB	't', 00H, ' ', 00H, 't', 00H, 'o', 00H, ' ', 00H, 00H, 00H
	ORG $+2
$SG144391 DB	'\banned', 00H
$SG144392 DB	'\Accts\MultiPlayer\', 00H
$SG144394 DB	'r', 00H
	ORG $+2
$SG144408 DB	'E', 00H, 'R', 00H, 'R', 00H, ' ', 00H, 'I', 00H, 'n', 00H
	DB	'v', 00H, 'a', 00H, 'l', 00H, 'i', 00H, 'd', 00H, ' ', 00H, 'p'
	DB	00H, 'a', 00H, 'r', 00H, 'a', 00H, 'm', 00H, 'e', 00H, 't', 00H
	DB	'e', 00H, 'r', 00H, 's', 00H, 00H, 00H
	ORG $+2
$SG144413 DB	'E', 00H, 'R', 00H, 'R', 00H, ' ', 00H, 'N', 00H, 'o', 00H
	DB	't', 00H, ' ', 00H, 'i', 00H, 'n', 00H, ' ', 00H, 'b', 00H, 'a'
	DB	00H, 's', 00H, 'e', 00H, 00H, 00H
$SG144422 DB	'-movechar.ini', 00H
	ORG $+2
$SG144424 DB	'E', 00H, 'R', 00H, 'R', 00H, ' ', 00H, 'C', 00H, 'h', 00H
	DB	'a', 00H, 'r', 00H, 'a', 00H, 'c', 00H, 't', 00H, 'e', 00H, 'r'
	DB	00H, ' ', 00H, 'd', 00H, 'o', 00H, 'e', 00H, 's', 00H, ' ', 00H
	DB	'n', 00H, 'o', 00H, 't', 00H, ' ', 00H, 'e', 00H, 'x', 00H, 'i'
	DB	00H, 's', 00H, 't', 00H, 00H, 00H
	ORG $+2
$SG144435 DB	00H, 00H
	ORG $+2
$SG144436 DB	'Code', 00H
	ORG $+3
$SG144437 DB	'Settings', 00H
	ORG $+3
$SG144441 DB	'E', 00H, 'R', 00H, 'R', 00H, ' ', 00H, 'M', 00H, 'o', 00H
	DB	'v', 00H, 'e', 00H, ' ', 00H, 'c', 00H, 'h', 00H, 'a', 00H, 'r'
	DB	00H, 'a', 00H, 'c', 00H, 't', 00H, 'e', 00H, 'r', 00H, ' ', 00H
	DB	'a', 00H, 'c', 00H, 'c', 00H, 'e', 00H, 's', 00H, 's', 00H, ' '
	DB	00H, 'd', 00H, 'e', 00H, 'n', 00H, 'i', 00H, 'e', 00H, 'd', 00H
	DB	00H, 00H
	ORG $+2
$SG144446 DB	'E', 00H, 'R', 00H, 'R', 00H, ' ', 00H, 'n', 00H, 'o', 00H
	DB	't', 00H, ' ', 00H, 'p', 00H, 'e', 00H, 'r', 00H, 'm', 00H, 'i'
	DB	00H, 't', 00H, 't', 00H, 'e', 00H, 'd', 00H, 00H, 00H
$SG144455 DB	'E', 00H, 'R', 00H, 'R', 00H, ' ', 00H, 00H, 00H
	ORG $+2
$SG144459 DB	'E', 00H, 'R', 00H, 'R', 00H, ' ', 00H, 'I', 00H, 'n', 00H
	DB	's', 00H, 'u', 00H, 'f', 00H, 'f', 00H, 'i', 00H, 'c', 00H, 'i'
	DB	00H, 'e', 00H, 'n', 00H, 't', 00H, ' ', 00H, 'c', 00H, 'r', 00H
	DB	'e', 00H, 'd', 00H, 'i', 00H, 't', 00H, 's', 00H, 00H, 00H
	ORG $+2
$SG144464 DB	'E', 00H, 'R', 00H, 'R', 00H, ' ', 00H, 'T', 00H, 'o', 00H
	DB	'o', 00H, ' ', 00H, 'm', 00H, 'a', 00H, 'n', 00H, 'y', 00H, ' '
	DB	00H, 'c', 00H, 'h', 00H, 'a', 00H, 'r', 00H, 'a', 00H, 'c', 00H
	DB	't', 00H, 'e', 00H, 'r', 00H, 's', 00H, ' ', 00H, 'i', 00H, 'n'
	DB	00H, ' ', 00H, 'a', 00H, 'c', 00H, 'c', 00H, 'o', 00H, 'u', 00H
	DB	'n', 00H, 't', 00H, 00H, 00H
	ORG $+2
$SG144470 DB	'\Accts\MultiPlayer\', 00H
$SG144478 DB	'E', 00H, 'R', 00H, 'R', 00H, ' ', 00H, 00H, 00H
	ORG $+2
$SG144484 DB	'E', 00H, 'R', 00H, 'R', 00H, ' ', 00H, 00H, 00H
	ORG $+2
$SG144490 DB	'E', 00H, 'R', 00H, 'R', 00H, ' ', 00H, 00H, 00H
	ORG $+2
$SG144500 DB	'.fl', 00H
$SG144501 DB	'\', 00H
	ORG $+2
$SG144508 DB	'.fl', 00H
$SG144509 DB	'\', 00H
	ORG $+2
$SG144516 DB	'.fl.moving', 00H
	ORG $+1
$SG144517 DB	'\', 00H
	ORG $+2
$SG144519 DB	'M', 00H, 'o', 00H, 'v', 00H, 'i', 00H, 'n', 00H, 'g', 00H
	DB	' ', 00H, 'c', 00H, 'h', 00H, 'a', 00H, 'r', 00H, 'a', 00H, 'c'
	DB	00H, 't', 00H, 'e', 00H, 'r', 00H, ',', 00H, ' ', 00H, 'p', 00H
	DB	'l', 00H, 'e', 00H, 'a', 00H, 's', 00H, 'e', 00H, ' ', 00H, 'w'
	DB	00H, 'a', 00H, 'i', 00H, 't', 00H, ' ', 00H, '1', 00H, '0', 00H
	DB	' ', 00H, 's', 00H, 'e', 00H, 'c', 00H, 'o', 00H, 'n', 00H, 'd'
	DB	00H, 's', 00H, ' ', 00H, 'b', 00H, 'e', 00H, 'f', 00H, 'o', 00H
	DB	'r', 00H, 'e', 00H, ' ', 00H, 'r', 00H, 'e', 00H, 'c', 00H, 'o'
	DB	00H, 'n', 00H, 'n', 00H, 'e', 00H, 'c', 00H, 't', 00H, 'i', 00H
	DB	'n', 00H, 'g', 00H, 00H, 00H
	ORG $+6
$SG144521 DB	'M', 00H, 'o', 00H, 'v', 00H, 'i', 00H, 'n', 00H, 'g', 00H
	DB	' ', 00H, 'c', 00H, 'h', 00H, 'a', 00H, 'r', 00H, 'a', 00H, 'c'
	DB	00H, 't', 00H, 'e', 00H, 'r', 00H, ',', 00H, ' ', 00H, 'p', 00H
	DB	'l', 00H, 'e', 00H, 'a', 00H, 's', 00H, 'e', 00H, ' ', 00H, 'w'
	DB	00H, 'a', 00H, 'i', 00H, 't', 00H, ' ', 00H, '1', 00H, '0', 00H
	DB	' ', 00H, 's', 00H, 'e', 00H, 'c', 00H, 'o', 00H, 'n', 00H, 'd'
	DB	00H, 's', 00H, ' ', 00H, 'b', 00H, 'e', 00H, 'f', 00H, 'o', 00H
	DB	'r', 00H, 'e', 00H, ' ', 00H, 'r', 00H, 'e', 00H, 'c', 00H, 'o'
	DB	00H, 'n', 00H, 'n', 00H, 'e', 00H, 'c', 00H, 't', 00H, 'i', 00H
	DB	'n', 00H, 'g', 00H, 00H, 00H
	ORG $+2
$SG144533 DB	'E', 00H, 'R', 00H, 'R', 00H, ' ', 00H, 'N', 00H, 'o', 00H
	DB	' ', 00H, 'p', 00H, 'e', 00H, 'r', 00H, 'm', 00H, 'i', 00H, 's'
	DB	00H, 's', 00H, 'i', 00H, 'o', 00H, 'n', 00H, 0aH, 00H, 00H, 00H
	ORG $+2
$SG144537 DB	'E', 00H, 'R', 00H, 'R', 00H, ' ', 00H, 'C', 00H, 'h', 00H
	DB	'a', 00H, 'r', 00H, 'n', 00H, 'a', 00H, 'm', 00H, 'e', 00H, ' '
	DB	00H, 'n', 00H, 'o', 00H, 't', 00H, ' ', 00H, 'f', 00H, 'o', 00H
	DB	'u', 00H, 'n', 00H, 'd', 00H, 0aH, 00H, 00H, 00H
$SG144549 DB	'\Accts\MultiPlayer\', 00H
$SG144540 DB	'E', 00H, 'R', 00H, 'R', 00H, ' ', 00H, 'C', 00H, 'o', 00H
	DB	'd', 00H, 'e', 00H, ' ', 00H, 't', 00H, 'o', 00H, 'o', 00H, ' '
	DB	00H, 's', 00H, 'm', 00H, 'a', 00H, 'l', 00H, 'l', 00H, ',', 00H
	DB	' ', 00H, 's', 00H, 'e', 00H, 't', 00H, ' ', 00H, 't', 00H, 'o'
	DB	00H, ' ', 00H, 'n', 00H, 'o', 00H, 'n', 00H, 'e', 00H, ' ', 00H
	DB	't', 00H, 'o', 00H, ' ', 00H, 'c', 00H, 'l', 00H, 'e', 00H, 'a'
	DB	00H, 'r', 00H, '.', 00H, 0aH, 00H, 00H, 00H
	ORG $+2
$SG144548 DB	'\*.fl', 00H
	ORG $+2
$SG144556 DB	'E', 00H, 'R', 00H, 'R', 00H, ' ', 00H, 'A', 00H, 'c', 00H
	DB	'c', 00H, 'o', 00H, 'u', 00H, 'n', 00H, 't', 00H, ' ', 00H, 'd'
	DB	00H, 'i', 00H, 'r', 00H, 'e', 00H, 'c', 00H, 't', 00H, 'o', 00H
	DB	'r', 00H, 'y', 00H, ' ', 00H, 'n', 00H, 'o', 00H, 't', 00H, ' '
	DB	00H, 'f', 00H, 'o', 00H, 'u', 00H, 'n', 00H, 'd', 00H, 0aH, 00H
	DB	00H, 00H
	ORG $+2
$SG144570 DB	'-movechar.ini', 00H
	ORG $+2
$SG144571 DB	'\', 00H
	ORG $+2
$SG144572 DB	'\Accts\MultiPlayer\', 00H
$SG144574 DB	'n', 00H, 'o', 00H, 'n', 00H, 'e', 00H, 00H, 00H
	ORG $+2
$SG144578 DB	00H, 00H
	ORG $+2
$SG144579 DB	'Code', 00H
	ORG $+3
$SG144580 DB	'Settings', 00H
	ORG $+3
$SG144585 DB	0aH, 00H, 00H, 00H
$SG144586 DB	'O', 00H, 'K', 00H, ' ', 00H, 'M', 00H, 'o', 00H, 'v', 00H
	DB	'e', 00H, 'c', 00H, 'h', 00H, 'a', 00H, 'r', 00H, ' ', 00H, 'c'
	DB	00H, 'o', 00H, 'd', 00H, 'e', 00H, ' ', 00H, 'c', 00H, 'l', 00H
	DB	'e', 00H, 'a', 00H, 'r', 00H, 'e', 00H, 'd', 00H, ' ', 00H, 'o'
	DB	00H, 'n', 00H, ' ', 00H, 00H, 00H
	ORG $+2
$SG144590 DB	'Code', 00H
	ORG $+3
$SG144591 DB	'Settings', 00H
	ORG $+3
$SG144598 DB	0aH, 00H, 00H, 00H
$SG144599 DB	' ', 00H, 'o', 00H, 'n', 00H, ' ', 00H, 00H, 00H
	ORG $+2
$SG144600 DB	'O', 00H, 'K', 00H, ' ', 00H, 'M', 00H, 'o', 00H, 'v', 00H
	DB	'e', 00H, 'c', 00H, 'h', 00H, 'a', 00H, 'r', 00H, ' ', 00H, 'c'
	DB	00H, 'o', 00H, 'd', 00H, 'e', 00H, ' ', 00H, 's', 00H, 'e', 00H
	DB	't', 00H, ' ', 00H, 't', 00H, 'o', 00H, ' ', 00H, 00H, 00H
	ORG $+2
$SG144602 DB	'O', 00H, 'K', 00H, 0aH, 00H, 00H, 00H
$SG144608 DB	'E', 00H, 'R', 00H, 'R', 00H, ' ', 00H, 'N', 00H, 'o', 00H
	DB	' ', 00H, 'p', 00H, 'e', 00H, 'r', 00H, 'm', 00H, 'i', 00H, 's'
	DB	00H, 's', 00H, 'i', 00H, 'o', 00H, 'n', 00H, 0aH, 00H, 00H, 00H
	ORG $+2
$SG144633 DB	't', 00H, 'a', 00H, 'g', 00H, '=', 00H, '%', 00H, 's', 00H
	DB	' ', 00H, 'm', 00H, 'a', 00H, 's', 00H, 't', 00H, 'e', 00H, 'r'
	DB	00H, '_', 00H, 'p', 00H, 'a', 00H, 's', 00H, 's', 00H, 'w', 00H
	DB	'o', 00H, 'r', 00H, 'd', 00H, '=', 00H, '%', 00H, 's', 00H, ' '
	DB	00H, 'r', 00H, 'e', 00H, 'n', 00H, 'a', 00H, 'm', 00H, 'e', 00H
	DB	'_', 00H, 'p', 00H, 'a', 00H, 's', 00H, 's', 00H, 'w', 00H, 'o'
	DB	00H, 'r', 00H, 'd', 00H, '=', 00H, '%', 00H, 's', 00H, ' ', 00H
	DB	'l', 00H, 'a', 00H, 's', 00H, 't', 00H, '_', 00H, 'a', 00H, 'c'
	DB	00H, 'c', 00H, 'e', 00H, 's', 00H, 's', 00H, '=', 00H, '%', 00H
	DB	'u', 00H, ' ', 00H, 'd', 00H, 'a', 00H, 'y', 00H, 's', 00H, ' '
	DB	00H, 'd', 00H, 'e', 00H, 's', 00H, 'c', 00H, 'r', 00H, 'i', 00H
	DB	'p', 00H, 't', 00H, 'i', 00H, 'o', 00H, 'n', 00H, '=', 00H, '%'
	DB	00H, 's', 00H, 0aH, 00H, 00H, 00H
	ORG $+2
$SG144635 DB	'O', 00H, 'K', 00H, 0aH, 00H, 00H, 00H
$SG144644 DB	'E', 00H, 'R', 00H, 'R', 00H, ' ', 00H, 'N', 00H, 'o', 00H
	DB	' ', 00H, 'p', 00H, 'e', 00H, 'r', 00H, 'm', 00H, 'i', 00H, 's'
	DB	00H, 's', 00H, 'i', 00H, 'o', 00H, 'n', 00H, 0aH, 00H, 00H, 00H
	ORG $+2
$SG144647 DB	'E', 00H, 'R', 00H, 'R', 00H, ' ', 00H, 'T', 00H, 'a', 00H
	DB	'g', 00H, ' ', 00H, 't', 00H, 'o', 00H, 'o', 00H, ' ', 00H, 's'
	DB	00H, 'h', 00H, 'o', 00H, 'r', 00H, 't', 00H, 0aH, 00H, 00H, 00H
	ORG $+2
$SG144650 DB	'E', 00H, 'R', 00H, 'R', 00H, ' ', 00H, 'P', 00H, 'a', 00H
	DB	's', 00H, 's', 00H, 'w', 00H, 'o', 00H, 'r', 00H, 'd', 00H, ' '
	DB	00H, 'n', 00H, 'o', 00H, 't', 00H, ' ', 00H, 's', 00H, 'e', 00H
	DB	't', 00H, 0aH, 00H, 00H, 00H
$SG144653 DB	'E', 00H, 'R', 00H, 'R', 00H, ' ', 00H, 'D', 00H, 'e', 00H
	DB	's', 00H, 'c', 00H, 'r', 00H, 'i', 00H, 'p', 00H, 't', 00H, 'i'
	DB	00H, 'o', 00H, 'n', 00H, ' ', 00H, 'n', 00H, 'o', 00H, 't', 00H
	DB	' ', 00H, 's', 00H, 'e', 00H, 't', 00H, 0aH, 00H, 00H, 00H
	ORG $+6
$SG144676 DB	'E', 00H, 'R', 00H, 'R', 00H, ' ', 00H, 'T', 00H, 'a', 00H
	DB	'g', 00H, ' ', 00H, 'a', 00H, 'l', 00H, 'r', 00H, 'e', 00H, 'a'
	DB	00H, 'd', 00H, 'y', 00H, ' ', 00H, 'e', 00H, 'x', 00H, 'i', 00H
	DB	's', 00H, 't', 00H, 's', 00H, ' ', 00H, 'o', 00H, 'r', 00H, ' '
	DB	00H, 'c', 00H, 'o', 00H, 'n', 00H, 'f', 00H, 'l', 00H, 'i', 00H
	DB	'c', 00H, 't', 00H, 's', 00H, ' ', 00H, 'w', 00H, 'i', 00H, 't'
	DB	00H, 'h', 00H, ' ', 00H, 'a', 00H, 'n', 00H, 'o', 00H, 't', 00H
	DB	'h', 00H, 'e', 00H, 'r', 00H, ' ', 00H, 't', 00H, 'a', 00H, 'g'
	DB	00H, 0aH, 00H, 00H, 00H
$SG144677 DB	00H, 00H
	ORG $+2
$SG144680 DB	'C', 00H, 'r', 00H, 'e', 00H, 'a', 00H, 't', 00H, 'e', 00H
	DB	'd', 00H, ' ', 00H, 'f', 00H, 'a', 00H, 'c', 00H, 't', 00H, 'i'
	DB	00H, 'o', 00H, 'n', 00H, ' ', 00H, 't', 00H, 'a', 00H, 'g', 00H
	DB	' ', 00H, '%', 00H, 's', 00H, ' ', 00H, 'w', 00H, 'i', 00H, 't'
	DB	00H, 'h', 00H, ' ', 00H, 'm', 00H, 'a', 00H, 's', 00H, 't', 00H
	DB	'e', 00H, 'r', 00H, ' ', 00H, 'p', 00H, 'a', 00H, 's', 00H, 's'
	DB	00H, 'w', 00H, 'o', 00H, 'r', 00H, 'd', 00H, ' ', 00H, '%', 00H
	DB	's', 00H, 0aH, 00H, 00H, 00H
$SG144687 DB	'E', 00H, 'R', 00H, 'R', 00H, ' ', 00H, 'N', 00H, 'o', 00H
	DB	' ', 00H, 'p', 00H, 'e', 00H, 'r', 00H, 'm', 00H, 'i', 00H, 's'
	DB	00H, 's', 00H, 'i', 00H, 'o', 00H, 'n', 00H, 0aH, 00H, 00H, 00H
	ORG $+2
$SG144709 DB	'O', 00H, 'K', 00H, ' ', 00H, 'T', 00H, 'a', 00H, 'g', 00H
	DB	' ', 00H, 'd', 00H, 'r', 00H, 'o', 00H, 'p', 00H, 'p', 00H, 'e'
	DB	00H, 'd', 00H, 0aH, 00H, 00H, 00H
$SG144711 DB	'E', 00H, 'R', 00H, 'R', 00H, ' ', 00H, 't', 00H, 'a', 00H
	DB	'g', 00H, ' ', 00H, 'i', 00H, 's', 00H, ' ', 00H, 'i', 00H, 'n'
	DB	00H, 'v', 00H, 'a', 00H, 'l', 00H, 'i', 00H, 'd', 00H, 0aH, 00H
	DB	00H, 00H
CONST	ENDS
PUBLIC	??A?$map@V?$basic_string@GU?$char_traits@G@std@@V?$allocator@G@2@@std@@UTAG_DATA@Rename@@U?$less@V?$basic_string@GU?$char_traits@G@std@@V?$allocator@G@2@@std@@@2@V?$allocator@U?$pair@$$CBV?$basic_string@GU?$char_traits@G@std@@V?$allocator@G@2@@std@@UTAG_DATA@Rename@@@std@@@2@@std@@QAEAAUTAG_DATA@Rename@@ABV?$basic_string@GU?$char_traits@G@std@@V?$allocator@G@2@@1@@Z ; std::map<std::basic_string<unsigned short,std::char_traits<unsigned short>,std::allocator<unsigned short> >,Rename::TAG_DATA,std::less<std::basic_string<unsigned short,std::char_traits<unsigned short>,std::allocator<unsigned short> > >,std::allocator<std::pair<std::basic_string<unsigned short,std::char_traits<unsigned short>,std::allocator<unsigned short> > const ,Rename::TAG_DATA> > >::operator[]
PUBLIC	__$ArrayPad$
PUBLIC	?LoadSettings@Rename@@YAXABV?$basic_string@DU?$char_traits@D@std@@V?$allocator@D@2@@std@@@Z ; Rename::LoadSettings
EXTRN	__imp_??1INI_Reader@@QAE@XZ:PROC
EXTRN	__imp_?close@INI_Reader@@QAEXXZ:PROC
EXTRN	__imp_?get_value_int@INI_Reader@@QAEHI@Z:PROC
EXTRN	__imp_??1?$basic_string@GU?$char_traits@G@std@@V?$allocator@G@2@@std@@QAE@XZ:PROC
EXTRN	__imp_??4?$basic_string@GU?$char_traits@G@std@@V?$allocator@G@2@@std@@QAEAAV01@ABV01@@Z:PROC
EXTRN	__imp_?is_value@INI_Reader@@QAE_NPBD@Z:PROC
EXTRN	__imp_?read_value@INI_Reader@@QAE_NXZ:PROC
EXTRN	__imp_??0?$basic_string@GU?$char_traits@G@std@@V?$allocator@G@2@@std@@QAE@XZ:PROC
EXTRN	__imp_?is_header@INI_Reader@@QAE_NPBD@Z:PROC
EXTRN	__imp_?read_header@INI_Reader@@QAE_NXZ:PROC
EXTRN	__imp_?open@INI_Reader@@QAE_NPBD_N@Z:PROC
EXTRN	__imp_?c_str@?$basic_string@DU?$char_traits@D@std@@V?$allocator@D@2@@std@@QBEPBDXZ:PROC
EXTRN	__imp_??0INI_Reader@@QAE@XZ:PROC
EXTRN	__imp_??$?HDU?$char_traits@D@std@@V?$allocator@D@1@@std@@YA?AV?$basic_string@DU?$char_traits@D@std@@V?$allocator@D@2@@0@ABV10@PBD@Z:PROC
EXTRN	__imp_?GetUserDataPath@@YA_NQAD@Z:PROC
EXTRN	__imp_?IniGetB@@YA_NABV?$basic_string@DU?$char_traits@D@std@@V?$allocator@D@2@@std@@00_N@Z:PROC
EXTRN	__imp_??1?$basic_string@DU?$char_traits@D@std@@V?$allocator@D@2@@std@@QAE@XZ:PROC
EXTRN	__imp_?IniGetI@@YAHABV?$basic_string@DU?$char_traits@D@std@@V?$allocator@D@2@@std@@00H@Z:PROC
EXTRN	__imp_??0?$basic_string@DU?$char_traits@D@std@@V?$allocator@D@2@@std@@QAE@PBD@Z:PROC
EXTRN	___security_cookie:DWORD
EXTRN	___CxxFrameHandler3:PROC
EXTRN	@__security_check_cookie@4:PROC
EXTRN	__chkstk:PROC
xdata$x	SEGMENT
__ehfuncinfo$?LoadSettings@Rename@@YAXABV?$basic_string@DU?$char_traits@D@std@@V?$allocator@D@2@@std@@@Z DD 019930522H
	DD	014H
	DD	FLAT:__unwindtable$?LoadSettings@Rename@@YAXABV?$basic_string@DU?$char_traits@D@std@@V?$allocator@D@2@@std@@@Z
	DD	2 DUP(00H)
	DD	2 DUP(00H)
	DD	00H
	DD	00H
__unwindtable$?LoadSettings@Rename@@YAXABV?$basic_string@DU?$char_traits@D@std@@V?$allocator@D@2@@std@@@Z DD 0ffffffffH
	DD	FLAT:__unwindfunclet$?LoadSettings@Rename@@YAXABV?$basic_string@DU?$char_traits@D@std@@V?$allocator@D@2@@std@@@Z$0
	DD	00H
	DD	FLAT:__unwindfunclet$?LoadSettings@Rename@@YAXABV?$basic_string@DU?$char_traits@D@std@@V?$allocator@D@2@@std@@@Z$1
	DD	0ffffffffH
	DD	FLAT:__unwindfunclet$?LoadSettings@Rename@@YAXABV?$basic_string@DU?$char_traits@D@std@@V?$allocator@D@2@@std@@@Z$2
	DD	02H
	DD	FLAT:__unwindfunclet$?LoadSettings@Rename@@YAXABV?$basic_string@DU?$char_traits@D@std@@V?$allocator@D@2@@std@@@Z$3
	DD	0ffffffffH
	DD	FLAT:__unwindfunclet$?LoadSettings@Rename@@YAXABV?$basic_string@DU?$char_traits@D@std@@V?$allocator@D@2@@std@@@Z$4
	DD	04H
	DD	FLAT:__unwindfunclet$?LoadSettings@Rename@@YAXABV?$basic_string@DU?$char_traits@D@std@@V?$allocator@D@2@@std@@@Z$5
	DD	0ffffffffH
	DD	FLAT:__unwindfunclet$?LoadSettings@Rename@@YAXABV?$basic_string@DU?$char_traits@D@std@@V?$allocator@D@2@@std@@@Z$6
	DD	06H
	DD	FLAT:__unwindfunclet$?LoadSettings@Rename@@YAXABV?$basic_string@DU?$char_traits@D@std@@V?$allocator@D@2@@std@@@Z$7
	DD	0ffffffffH
	DD	FLAT:__unwindfunclet$?LoadSettings@Rename@@YAXABV?$basic_string@DU?$char_traits@D@std@@V?$allocator@D@2@@std@@@Z$8
	DD	08H
	DD	FLAT:__unwindfunclet$?LoadSettings@Rename@@YAXABV?$basic_string@DU?$char_traits@D@std@@V?$allocator@D@2@@std@@@Z$9
	DD	0ffffffffH
	DD	FLAT:__unwindfunclet$?LoadSettings@Rename@@YAXABV?$basic_string@DU?$char_traits@D@std@@V?$allocator@D@2@@std@@@Z$10
	DD	0aH
	DD	FLAT:__unwindfunclet$?LoadSettings@Rename@@YAXABV?$basic_string@DU?$char_traits@D@std@@V?$allocator@D@2@@std@@@Z$11
	DD	0ffffffffH
	DD	FLAT:__unwindfunclet$?LoadSettings@Rename@@YAXABV?$basic_string@DU?$char_traits@D@std@@V?$allocator@D@2@@std@@@Z$12
	DD	0cH
	DD	FLAT:__unwindfunclet$?LoadSettings@Rename@@YAXABV?$basic_string@DU?$char_traits@D@std@@V?$allocator@D@2@@std@@@Z$13
	DD	0ffffffffH
	DD	FLAT:__unwindfunclet$?LoadSettings@Rename@@YAXABV?$basic_string@DU?$char_traits@D@std@@V?$allocator@D@2@@std@@@Z$13
	DD	0eH
	DD	FLAT:__unwindfunclet$?LoadSettings@Rename@@YAXABV?$basic_string@DU?$char_traits@D@std@@V?$allocator@D@2@@std@@@Z$14
	DD	0fH
	DD	FLAT:__unwindfunclet$?LoadSettings@Rename@@YAXABV?$basic_string@DU?$char_traits@D@std@@V?$allocator@D@2@@std@@@Z$15
	DD	010H
	DD	FLAT:__unwindfunclet$?LoadSettings@Rename@@YAXABV?$basic_string@DU?$char_traits@D@std@@V?$allocator@D@2@@std@@@Z$16
	DD	010H
	DD	FLAT:__unwindfunclet$?LoadSettings@Rename@@YAXABV?$basic_string@DU?$char_traits@D@std@@V?$allocator@D@2@@std@@@Z$17
	DD	010H
	DD	FLAT:__unwindfunclet$?LoadSettings@Rename@@YAXABV?$basic_string@DU?$char_traits@D@std@@V?$allocator@D@2@@std@@@Z$18
; Function compile flags: /Odtp
xdata$x	ENDS
_TEXT	SEGMENT
tv298 = -6276						; size = 4
tv169 = -6272						; size = 4
$T150873 = -6268					; size = 28
$T150872 = -6240					; size = 28
$T150871 = -6212					; size = 28
$T150870 = -6184					; size = 28
$T150869 = -6156					; size = 28
$T150868 = -6128					; size = 28
$T150867 = -6100					; size = 28
$T150866 = -6072					; size = 28
$T150865 = -6044					; size = 28
$T150864 = -6016					; size = 28
$T150863 = -5988					; size = 28
$T150862 = -5960					; size = 28
$T150861 = -5932					; size = 28
_description$142589 = -5904				; size = 28
_pass$142582 = -5876					; size = 28
_pass$142578 = -5848					; size = 28
_tag$142569 = -5820					; size = 28
_scPath$ = -5792					; size = 28
_ini$ = -5764						; size = 5480
_szDataPath$ = -284					; size = 260
__$ArrayPad$ = -16					; size = 4
__$EHRec$ = -12						; size = 12
_scPluginCfgFile$ = 8					; size = 4
?LoadSettings@Rename@@YAXABV?$basic_string@DU?$char_traits@D@std@@V?$allocator@D@2@@std@@@Z PROC ; Rename::LoadSettings
; File g:\max\bastelstube\github\fl-mod-flhook\plugins\playercntl_plugin\src\rename.cpp
; Line 89
	push	ebp
	mov	ebp, esp
	push	-1
	push	__ehhandler$?LoadSettings@Rename@@YAXABV?$basic_string@DU?$char_traits@D@std@@V?$allocator@D@2@@std@@@Z
	mov	eax, DWORD PTR fs:0
	push	eax
	mov	eax, 6264				; 00001878H
	call	__chkstk
	mov	eax, DWORD PTR ___security_cookie
	xor	eax, ebp
	mov	DWORD PTR __$ArrayPad$[ebp], eax
	push	esi
	push	eax
	lea	eax, DWORD PTR __$EHRec$[ebp]
	mov	DWORD PTR fs:0, eax
; Line 90
	push	OFFSET $SG142535
	lea	ecx, DWORD PTR $T150861[ebp]
	call	DWORD PTR __imp_??0?$basic_string@DU?$char_traits@D@std@@V?$allocator@D@2@@std@@QAE@PBD@Z
	mov	DWORD PTR __$EHRec$[ebp+8], 0
	push	OFFSET $SG142536
	lea	ecx, DWORD PTR $T150862[ebp]
	call	DWORD PTR __imp_??0?$basic_string@DU?$char_traits@D@std@@V?$allocator@D@2@@std@@QAE@PBD@Z
	mov	BYTE PTR __$EHRec$[ebp+8], 1
	push	5000000					; 004c4b40H
	lea	eax, DWORD PTR $T150861[ebp]
	push	eax
	lea	ecx, DWORD PTR $T150862[ebp]
	push	ecx
	mov	edx, DWORD PTR _scPluginCfgFile$[ebp]
	push	edx
	call	DWORD PTR __imp_?IniGetI@@YAHABV?$basic_string@DU?$char_traits@D@std@@V?$allocator@D@2@@std@@00H@Z
	add	esp, 16					; 00000010H
	mov	DWORD PTR ?set_iRenameCost@Rename@@3HA, eax ; Rename::set_iRenameCost
	mov	BYTE PTR __$EHRec$[ebp+8], 0
	lea	ecx, DWORD PTR $T150862[ebp]
	call	DWORD PTR __imp_??1?$basic_string@DU?$char_traits@D@std@@V?$allocator@D@2@@std@@QAE@XZ
	mov	DWORD PTR __$EHRec$[ebp+8], -1
	lea	ecx, DWORD PTR $T150861[ebp]
	call	DWORD PTR __imp_??1?$basic_string@DU?$char_traits@D@std@@V?$allocator@D@2@@std@@QAE@XZ
; Line 91
	push	OFFSET $SG142539
	lea	ecx, DWORD PTR $T150863[ebp]
	call	DWORD PTR __imp_??0?$basic_string@DU?$char_traits@D@std@@V?$allocator@D@2@@std@@QAE@PBD@Z
	mov	DWORD PTR __$EHRec$[ebp+8], 2
	push	OFFSET $SG142540
	lea	ecx, DWORD PTR $T150864[ebp]
	call	DWORD PTR __imp_??0?$basic_string@DU?$char_traits@D@std@@V?$allocator@D@2@@std@@QAE@PBD@Z
	mov	BYTE PTR __$EHRec$[ebp+8], 3
	push	3600					; 00000e10H
	lea	eax, DWORD PTR $T150863[ebp]
	push	eax
	lea	ecx, DWORD PTR $T150864[ebp]
	push	ecx
	mov	edx, DWORD PTR _scPluginCfgFile$[ebp]
	push	edx
	call	DWORD PTR __imp_?IniGetI@@YAHABV?$basic_string@DU?$char_traits@D@std@@V?$allocator@D@2@@std@@00H@Z
	add	esp, 16					; 00000010H
	mov	DWORD PTR ?set_iRenameTimeLimit@Rename@@3HA, eax ; Rename::set_iRenameTimeLimit
	mov	BYTE PTR __$EHRec$[ebp+8], 2
	lea	ecx, DWORD PTR $T150864[ebp]
	call	DWORD PTR __imp_??1?$basic_string@DU?$char_traits@D@std@@V?$allocator@D@2@@std@@QAE@XZ
	mov	DWORD PTR __$EHRec$[ebp+8], -1
	lea	ecx, DWORD PTR $T150863[ebp]
	call	DWORD PTR __imp_??1?$basic_string@DU?$char_traits@D@std@@V?$allocator@D@2@@std@@QAE@XZ
; Line 92
	push	OFFSET $SG142543
	lea	ecx, DWORD PTR $T150865[ebp]
	call	DWORD PTR __imp_??0?$basic_string@DU?$char_traits@D@std@@V?$allocator@D@2@@std@@QAE@PBD@Z
	mov	DWORD PTR __$EHRec$[ebp+8], 4
	push	OFFSET $SG142544
	lea	ecx, DWORD PTR $T150866[ebp]
	call	DWORD PTR __imp_??0?$basic_string@DU?$char_traits@D@std@@V?$allocator@D@2@@std@@QAE@PBD@Z
	mov	BYTE PTR __$EHRec$[ebp+8], 5
	push	5000000					; 004c4b40H
	lea	eax, DWORD PTR $T150865[ebp]
	push	eax
	lea	ecx, DWORD PTR $T150866[ebp]
	push	ecx
	mov	edx, DWORD PTR _scPluginCfgFile$[ebp]
	push	edx
	call	DWORD PTR __imp_?IniGetI@@YAHABV?$basic_string@DU?$char_traits@D@std@@V?$allocator@D@2@@std@@00H@Z
	add	esp, 16					; 00000010H
	mov	DWORD PTR ?set_iMoveCost@Rename@@3HA, eax ; Rename::set_iMoveCost
	mov	BYTE PTR __$EHRec$[ebp+8], 4
	lea	ecx, DWORD PTR $T150866[ebp]
	call	DWORD PTR __imp_??1?$basic_string@DU?$char_traits@D@std@@V?$allocator@D@2@@std@@QAE@XZ
	mov	DWORD PTR __$EHRec$[ebp+8], -1
	lea	ecx, DWORD PTR $T150865[ebp]
	call	DWORD PTR __imp_??1?$basic_string@DU?$char_traits@D@std@@V?$allocator@D@2@@std@@QAE@XZ
; Line 93
	push	OFFSET $SG142547
	lea	ecx, DWORD PTR $T150867[ebp]
	call	DWORD PTR __imp_??0?$basic_string@DU?$char_traits@D@std@@V?$allocator@D@2@@std@@QAE@PBD@Z
	mov	DWORD PTR __$EHRec$[ebp+8], 6
	push	OFFSET $SG142548
	lea	ecx, DWORD PTR $T150868[ebp]
	call	DWORD PTR __imp_??0?$basic_string@DU?$char_traits@D@std@@V?$allocator@D@2@@std@@QAE@PBD@Z
	mov	BYTE PTR __$EHRec$[ebp+8], 7
	push	0
	lea	eax, DWORD PTR $T150867[ebp]
	push	eax
	lea	ecx, DWORD PTR $T150868[ebp]
	push	ecx
	mov	edx, DWORD PTR _scPluginCfgFile$[ebp]
	push	edx
	call	DWORD PTR __imp_?IniGetB@@YA_NABV?$basic_string@DU?$char_traits@D@std@@V?$allocator@D@2@@std@@00_N@Z
	add	esp, 16					; 00000010H
	mov	BYTE PTR ?set_bCharnameTags@Rename@@3_NA, al ; Rename::set_bCharnameTags
	mov	BYTE PTR __$EHRec$[ebp+8], 6
	lea	ecx, DWORD PTR $T150868[ebp]
	call	DWORD PTR __imp_??1?$basic_string@DU?$char_traits@D@std@@V?$allocator@D@2@@std@@QAE@XZ
	mov	DWORD PTR __$EHRec$[ebp+8], -1
	lea	ecx, DWORD PTR $T150867[ebp]
	call	DWORD PTR __imp_??1?$basic_string@DU?$char_traits@D@std@@V?$allocator@D@2@@std@@QAE@XZ
; Line 94
	push	OFFSET $SG142551
	lea	ecx, DWORD PTR $T150869[ebp]
	call	DWORD PTR __imp_??0?$basic_string@DU?$char_traits@D@std@@V?$allocator@D@2@@std@@QAE@PBD@Z
	mov	DWORD PTR __$EHRec$[ebp+8], 8
	push	OFFSET $SG142552
	lea	ecx, DWORD PTR $T150870[ebp]
	call	DWORD PTR __imp_??0?$basic_string@DU?$char_traits@D@std@@V?$allocator@D@2@@std@@QAE@PBD@Z
	mov	BYTE PTR __$EHRec$[ebp+8], 9
	push	1
	lea	eax, DWORD PTR $T150869[ebp]
	push	eax
	lea	ecx, DWORD PTR $T150870[ebp]
	push	ecx
	mov	edx, DWORD PTR _scPluginCfgFile$[ebp]
	push	edx
	call	DWORD PTR __imp_?IniGetB@@YA_NABV?$basic_string@DU?$char_traits@D@std@@V?$allocator@D@2@@std@@00_N@Z
	add	esp, 16					; 00000010H
	mov	BYTE PTR ?set_bAsciiCharnameOnly@Rename@@3_NA, al ; Rename::set_bAsciiCharnameOnly
	mov	BYTE PTR __$EHRec$[ebp+8], 8
	lea	ecx, DWORD PTR $T150870[ebp]
	call	DWORD PTR __imp_??1?$basic_string@DU?$char_traits@D@std@@V?$allocator@D@2@@std@@QAE@XZ
	mov	DWORD PTR __$EHRec$[ebp+8], -1
	lea	ecx, DWORD PTR $T150869[ebp]
	call	DWORD PTR __imp_??1?$basic_string@DU?$char_traits@D@std@@V?$allocator@D@2@@std@@QAE@XZ
; Line 95
	push	OFFSET $SG142555
	lea	ecx, DWORD PTR $T150871[ebp]
	call	DWORD PTR __imp_??0?$basic_string@DU?$char_traits@D@std@@V?$allocator@D@2@@std@@QAE@PBD@Z
	mov	DWORD PTR __$EHRec$[ebp+8], 10		; 0000000aH
	push	OFFSET $SG142556
	lea	ecx, DWORD PTR $T150872[ebp]
	call	DWORD PTR __imp_??0?$basic_string@DU?$char_traits@D@std@@V?$allocator@D@2@@std@@QAE@PBD@Z
	mov	BYTE PTR __$EHRec$[ebp+8], 11		; 0000000bH
	push	50000000				; 02faf080H
	lea	eax, DWORD PTR $T150871[ebp]
	push	eax
	lea	ecx, DWORD PTR $T150872[ebp]
	push	ecx
	mov	edx, DWORD PTR _scPluginCfgFile$[ebp]
	push	edx
	call	DWORD PTR __imp_?IniGetI@@YAHABV?$basic_string@DU?$char_traits@D@std@@V?$allocator@D@2@@std@@00H@Z
	add	esp, 16					; 00000010H
	mov	DWORD PTR ?set_iMakeTagCost@Rename@@3HA, eax ; Rename::set_iMakeTagCost
	mov	BYTE PTR __$EHRec$[ebp+8], 10		; 0000000aH
	lea	ecx, DWORD PTR $T150872[ebp]
	call	DWORD PTR __imp_??1?$basic_string@DU?$char_traits@D@std@@V?$allocator@D@2@@std@@QAE@XZ
	mov	DWORD PTR __$EHRec$[ebp+8], -1
	lea	ecx, DWORD PTR $T150871[ebp]
	call	DWORD PTR __imp_??1?$basic_string@DU?$char_traits@D@std@@V?$allocator@D@2@@std@@QAE@XZ
; Line 98
	lea	eax, DWORD PTR _szDataPath$[ebp]
	push	eax
	call	DWORD PTR __imp_?GetUserDataPath@@YA_NQAD@Z
	add	esp, 4
; Line 99
	push	OFFSET $SG142561
	lea	ecx, DWORD PTR _szDataPath$[ebp]
	push	ecx
	lea	ecx, DWORD PTR $T150873[ebp]
	call	DWORD PTR __imp_??0?$basic_string@DU?$char_traits@D@std@@V?$allocator@D@2@@std@@QAE@PBD@Z
	mov	DWORD PTR tv169[ebp], eax
	mov	edx, DWORD PTR tv169[ebp]
	mov	DWORD PTR tv298[ebp], edx
	mov	DWORD PTR __$EHRec$[ebp+8], 12		; 0000000cH
	mov	eax, DWORD PTR tv298[ebp]
	push	eax
	lea	ecx, DWORD PTR _scPath$[ebp]
	push	ecx
	call	DWORD PTR __imp_??$?HDU?$char_traits@D@std@@V?$allocator@D@1@@std@@YA?AV?$basic_string@DU?$char_traits@D@std@@V?$allocator@D@2@@0@ABV10@PBD@Z
	add	esp, 12					; 0000000cH
	mov	BYTE PTR __$EHRec$[ebp+8], 14		; 0000000eH
	lea	ecx, DWORD PTR $T150873[ebp]
	call	DWORD PTR __imp_??1?$basic_string@DU?$char_traits@D@std@@V?$allocator@D@2@@std@@QAE@XZ
; Line 101
	lea	ecx, DWORD PTR _ini$[ebp]
	call	DWORD PTR __imp_??0INI_Reader@@QAE@XZ
	mov	BYTE PTR __$EHRec$[ebp+8], 15		; 0000000fH
; Line 102
	push	0
	lea	ecx, DWORD PTR _scPath$[ebp]
	call	DWORD PTR __imp_?c_str@?$basic_string@DU?$char_traits@D@std@@V?$allocator@D@2@@std@@QBEPBDXZ
	push	eax
	lea	ecx, DWORD PTR _ini$[ebp]
	call	DWORD PTR __imp_?open@INI_Reader@@QAE_NPBD_N@Z
	movzx	edx, al
	test	edx, edx
	je	$LN15@LoadSettin
$LN14@LoadSettin:
; Line 104
	lea	ecx, DWORD PTR _ini$[ebp]
	call	DWORD PTR __imp_?read_header@INI_Reader@@QAE_NXZ
	movzx	eax, al
	test	eax, eax
	je	$LN13@LoadSettin
; Line 106
	push	OFFSET $SG142568
	lea	ecx, DWORD PTR _ini$[ebp]
	call	DWORD PTR __imp_?is_header@INI_Reader@@QAE_NPBD@Z
	movzx	ecx, al
	test	ecx, ecx
	je	$LN12@LoadSettin
; Line 108
	lea	ecx, DWORD PTR _tag$142569[ebp]
	call	DWORD PTR __imp_??0?$basic_string@GU?$char_traits@G@std@@V?$allocator@G@2@@std@@QAE@XZ
	mov	BYTE PTR __$EHRec$[ebp+8], 16		; 00000010H
$LN11@LoadSettin:
; Line 109
	lea	ecx, DWORD PTR _ini$[ebp]
	call	DWORD PTR __imp_?read_value@INI_Reader@@QAE_NXZ
	movzx	edx, al
	test	edx, edx
	je	$LN10@LoadSettin
; Line 111
	push	OFFSET $SG142574
	lea	ecx, DWORD PTR _ini$[ebp]
	call	DWORD PTR __imp_?is_value@INI_Reader@@QAE_NPBD@Z
	movzx	eax, al
	test	eax, eax
	je	SHORT $LN9@LoadSettin
; Line 113
	lea	ecx, DWORD PTR _tag$142569[ebp]
	push	ecx
	lea	edx, DWORD PTR _ini$[ebp]
	push	edx
	call	?ini_get_wstring@Rename@@YAXAAVINI_Reader@@AAV?$basic_string@GU?$char_traits@G@std@@V?$allocator@G@2@@std@@@Z ; Rename::ini_get_wstring
	add	esp, 8
; Line 114
	lea	eax, DWORD PTR _tag$142569[ebp]
	push	eax
	lea	ecx, DWORD PTR _tag$142569[ebp]
	push	ecx
	mov	ecx, OFFSET ?mapTagToPassword@Rename@@3V?$map@V?$basic_string@GU?$char_traits@G@std@@V?$allocator@G@2@@std@@UTAG_DATA@Rename@@U?$less@V?$basic_string@GU?$char_traits@G@std@@V?$allocator@G@2@@std@@@2@V?$allocator@U?$pair@$$CBV?$basic_string@GU?$char_traits@G@std@@V?$allocator@G@2@@std@@UTAG_DATA@Rename@@@std@@@2@@std@@A ; Rename::mapTagToPassword
	call	??A?$map@V?$basic_string@GU?$char_traits@G@std@@V?$allocator@G@2@@std@@UTAG_DATA@Rename@@U?$less@V?$basic_string@GU?$char_traits@G@std@@V?$allocator@G@2@@std@@@2@V?$allocator@U?$pair@$$CBV?$basic_string@GU?$char_traits@G@std@@V?$allocator@G@2@@std@@UTAG_DATA@Rename@@@std@@@2@@std@@QAEAAUTAG_DATA@Rename@@ABV?$basic_string@GU?$char_traits@G@std@@V?$allocator@G@2@@1@@Z ; std::map<std::basic_string<unsigned short,std::char_traits<unsigned short>,std::allocator<unsigned short> >,Rename::TAG_DATA,std::less<std::basic_string<unsigned short,std::char_traits<unsigned short>,std::allocator<unsigned short> > >,std::allocator<std::pair<std::basic_string<unsigned short,std::char_traits<unsigned short>,std::allocator<unsigned short> > const ,Rename::TAG_DATA> > >::operator[]
	mov	ecx, eax
	call	DWORD PTR __imp_??4?$basic_string@GU?$char_traits@G@std@@V?$allocator@G@2@@std@@QAEAAV01@ABV01@@Z
	jmp	$LN8@LoadSettin
$LN9@LoadSettin:
; Line 116
	push	OFFSET $SG142577
	lea	ecx, DWORD PTR _ini$[ebp]
	call	DWORD PTR __imp_?is_value@INI_Reader@@QAE_NPBD@Z
	movzx	edx, al
	test	edx, edx
	je	SHORT $LN7@LoadSettin
; Line 118
	lea	ecx, DWORD PTR _pass$142578[ebp]
	call	DWORD PTR __imp_??0?$basic_string@GU?$char_traits@G@std@@V?$allocator@G@2@@std@@QAE@XZ
	mov	BYTE PTR __$EHRec$[ebp+8], 17		; 00000011H
; Line 119
	lea	eax, DWORD PTR _pass$142578[ebp]
	push	eax
	lea	ecx, DWORD PTR _ini$[ebp]
	push	ecx
	call	?ini_get_wstring@Rename@@YAXAAVINI_Reader@@AAV?$basic_string@GU?$char_traits@G@std@@V?$allocator@G@2@@std@@@Z ; Rename::ini_get_wstring
	add	esp, 8
; Line 120
	lea	edx, DWORD PTR _pass$142578[ebp]
	push	edx
	lea	eax, DWORD PTR _tag$142569[ebp]
	push	eax
	mov	ecx, OFFSET ?mapTagToPassword@Rename@@3V?$map@V?$basic_string@GU?$char_traits@G@std@@V?$allocator@G@2@@std@@UTAG_DATA@Rename@@U?$less@V?$basic_string@GU?$char_traits@G@std@@V?$allocator@G@2@@std@@@2@V?$allocator@U?$pair@$$CBV?$basic_string@GU?$char_traits@G@std@@V?$allocator@G@2@@std@@UTAG_DATA@Rename@@@std@@@2@@std@@A ; Rename::mapTagToPassword
	call	??A?$map@V?$basic_string@GU?$char_traits@G@std@@V?$allocator@G@2@@std@@UTAG_DATA@Rename@@U?$less@V?$basic_string@GU?$char_traits@G@std@@V?$allocator@G@2@@std@@@2@V?$allocator@U?$pair@$$CBV?$basic_string@GU?$char_traits@G@std@@V?$allocator@G@2@@std@@UTAG_DATA@Rename@@@std@@@2@@std@@QAEAAUTAG_DATA@Rename@@ABV?$basic_string@GU?$char_traits@G@std@@V?$allocator@G@2@@1@@Z ; std::map<std::basic_string<unsigned short,std::char_traits<unsigned short>,std::allocator<unsigned short> >,Rename::TAG_DATA,std::less<std::basic_string<unsigned short,std::char_traits<unsigned short>,std::allocator<unsigned short> > >,std::allocator<std::pair<std::basic_string<unsigned short,std::char_traits<unsigned short>,std::allocator<unsigned short> > const ,Rename::TAG_DATA> > >::operator[]
	add	eax, 28					; 0000001cH
	mov	ecx, eax
	call	DWORD PTR __imp_??4?$basic_string@GU?$char_traits@G@std@@V?$allocator@G@2@@std@@QAEAAV01@ABV01@@Z
; Line 121
	mov	BYTE PTR __$EHRec$[ebp+8], 16		; 00000010H
	lea	ecx, DWORD PTR _pass$142578[ebp]
	call	DWORD PTR __imp_??1?$basic_string@GU?$char_traits@G@std@@V?$allocator@G@2@@std@@QAE@XZ
	jmp	$LN8@LoadSettin
$LN7@LoadSettin:
; Line 122
	push	OFFSET $SG142581
	lea	ecx, DWORD PTR _ini$[ebp]
	call	DWORD PTR __imp_?is_value@INI_Reader@@QAE_NPBD@Z
	movzx	ecx, al
	test	ecx, ecx
	je	SHORT $LN5@LoadSettin
; Line 124
	lea	ecx, DWORD PTR _pass$142582[ebp]
	call	DWORD PTR __imp_??0?$basic_string@GU?$char_traits@G@std@@V?$allocator@G@2@@std@@QAE@XZ
	mov	BYTE PTR __$EHRec$[ebp+8], 18		; 00000012H
; Line 125
	lea	edx, DWORD PTR _pass$142582[ebp]
	push	edx
	lea	eax, DWORD PTR _ini$[ebp]
	push	eax
	call	?ini_get_wstring@Rename@@YAXAAVINI_Reader@@AAV?$basic_string@GU?$char_traits@G@std@@V?$allocator@G@2@@std@@@Z ; Rename::ini_get_wstring
	add	esp, 8
; Line 126
	lea	ecx, DWORD PTR _pass$142582[ebp]
	push	ecx
	lea	edx, DWORD PTR _tag$142569[ebp]
	push	edx
	mov	ecx, OFFSET ?mapTagToPassword@Rename@@3V?$map@V?$basic_string@GU?$char_traits@G@std@@V?$allocator@G@2@@std@@UTAG_DATA@Rename@@U?$less@V?$basic_string@GU?$char_traits@G@std@@V?$allocator@G@2@@std@@@2@V?$allocator@U?$pair@$$CBV?$basic_string@GU?$char_traits@G@std@@V?$allocator@G@2@@std@@UTAG_DATA@Rename@@@std@@@2@@std@@A ; Rename::mapTagToPassword
	call	??A?$map@V?$basic_string@GU?$char_traits@G@std@@V?$allocator@G@2@@std@@UTAG_DATA@Rename@@U?$less@V?$basic_string@GU?$char_traits@G@std@@V?$allocator@G@2@@std@@@2@V?$allocator@U?$pair@$$CBV?$basic_string@GU?$char_traits@G@std@@V?$allocator@G@2@@std@@UTAG_DATA@Rename@@@std@@@2@@std@@QAEAAUTAG_DATA@Rename@@ABV?$basic_string@GU?$char_traits@G@std@@V?$allocator@G@2@@1@@Z ; std::map<std::basic_string<unsigned short,std::char_traits<unsigned short>,std::allocator<unsigned short> >,Rename::TAG_DATA,std::less<std::basic_string<unsigned short,std::char_traits<unsigned short>,std::allocator<unsigned short> > >,std::allocator<std::pair<std::basic_string<unsigned short,std::char_traits<unsigned short>,std::allocator<unsigned short> > const ,Rename::TAG_DATA> > >::operator[]
	add	eax, 56					; 00000038H
	mov	ecx, eax
	call	DWORD PTR __imp_??4?$basic_string@GU?$char_traits@G@std@@V?$allocator@G@2@@std@@QAEAAV01@ABV01@@Z
; Line 127
	mov	BYTE PTR __$EHRec$[ebp+8], 16		; 00000010H
	lea	ecx, DWORD PTR _pass$142582[ebp]
	call	DWORD PTR __imp_??1?$basic_string@GU?$char_traits@G@std@@V?$allocator@G@2@@std@@QAE@XZ
	jmp	$LN8@LoadSettin
$LN5@LoadSettin:
; Line 128
	push	OFFSET $SG142585
	lea	ecx, DWORD PTR _ini$[ebp]
	call	DWORD PTR __imp_?is_value@INI_Reader@@QAE_NPBD@Z
	movzx	eax, al
	test	eax, eax
	je	SHORT $LN3@LoadSettin
; Line 130
	push	0
	lea	ecx, DWORD PTR _ini$[ebp]
	call	DWORD PTR __imp_?get_value_int@INI_Reader@@QAEHI@Z
	mov	esi, eax
	lea	ecx, DWORD PTR _tag$142569[ebp]
	push	ecx
	mov	ecx, OFFSET ?mapTagToPassword@Rename@@3V?$map@V?$basic_string@GU?$char_traits@G@std@@V?$allocator@G@2@@std@@UTAG_DATA@Rename@@U?$less@V?$basic_string@GU?$char_traits@G@std@@V?$allocator@G@2@@std@@@2@V?$allocator@U?$pair@$$CBV?$basic_string@GU?$char_traits@G@std@@V?$allocator@G@2@@std@@UTAG_DATA@Rename@@@std@@@2@@std@@A ; Rename::mapTagToPassword
	call	??A?$map@V?$basic_string@GU?$char_traits@G@std@@V?$allocator@G@2@@std@@UTAG_DATA@Rename@@U?$less@V?$basic_string@GU?$char_traits@G@std@@V?$allocator@G@2@@std@@@2@V?$allocator@U?$pair@$$CBV?$basic_string@GU?$char_traits@G@std@@V?$allocator@G@2@@std@@UTAG_DATA@Rename@@@std@@@2@@std@@QAEAAUTAG_DATA@Rename@@ABV?$basic_string@GU?$char_traits@G@std@@V?$allocator@G@2@@1@@Z ; std::map<std::basic_string<unsigned short,std::char_traits<unsigned short>,std::allocator<unsigned short> >,Rename::TAG_DATA,std::less<std::basic_string<unsigned short,std::char_traits<unsigned short>,std::allocator<unsigned short> > >,std::allocator<std::pair<std::basic_string<unsigned short,std::char_traits<unsigned short>,std::allocator<unsigned short> > const ,Rename::TAG_DATA> > >::operator[]
	mov	DWORD PTR [eax+84], esi
	jmp	SHORT $LN8@LoadSettin
$LN3@LoadSettin:
; Line 132
	push	OFFSET $SG142588
	lea	ecx, DWORD PTR _ini$[ebp]
	call	DWORD PTR __imp_?is_value@INI_Reader@@QAE_NPBD@Z
	movzx	edx, al
	test	edx, edx
	je	SHORT $LN8@LoadSettin
; Line 134
	lea	ecx, DWORD PTR _description$142589[ebp]
	call	DWORD PTR __imp_??0?$basic_string@GU?$char_traits@G@std@@V?$allocator@G@2@@std@@QAE@XZ
	mov	BYTE PTR __$EHRec$[ebp+8], 19		; 00000013H
; Line 135
	lea	eax, DWORD PTR _description$142589[ebp]
	push	eax
	lea	ecx, DWORD PTR _ini$[ebp]
	push	ecx
	call	?ini_get_wstring@Rename@@YAXAAVINI_Reader@@AAV?$basic_string@GU?$char_traits@G@std@@V?$allocator@G@2@@std@@@Z ; Rename::ini_get_wstring
	add	esp, 8
; Line 136
	lea	edx, DWORD PTR _description$142589[ebp]
	push	edx
	lea	eax, DWORD PTR _tag$142569[ebp]
	push	eax
	mov	ecx, OFFSET ?mapTagToPassword@Rename@@3V?$map@V?$basic_string@GU?$char_traits@G@std@@V?$allocator@G@2@@std@@UTAG_DATA@Rename@@U?$less@V?$basic_string@GU?$char_traits@G@std@@V?$allocator@G@2@@std@@@2@V?$allocator@U?$pair@$$CBV?$basic_string@GU?$char_traits@G@std@@V?$allocator@G@2@@std@@UTAG_DATA@Rename@@@std@@@2@@std@@A ; Rename::mapTagToPassword
	call	??A?$map@V?$basic_string@GU?$char_traits@G@std@@V?$allocator@G@2@@std@@UTAG_DATA@Rename@@U?$less@V?$basic_string@GU?$char_traits@G@std@@V?$allocator@G@2@@std@@@2@V?$allocator@U?$pair@$$CBV?$basic_string@GU?$char_traits@G@std@@V?$allocator@G@2@@std@@UTAG_DATA@Rename@@@std@@@2@@std@@QAEAAUTAG_DATA@Rename@@ABV?$basic_string@GU?$char_traits@G@std@@V?$allocator@G@2@@1@@Z ; std::map<std::basic_string<unsigned short,std::char_traits<unsigned short>,std::allocator<unsigned short> >,Rename::TAG_DATA,std::less<std::basic_string<unsigned short,std::char_traits<unsigned short>,std::allocator<unsigned short> > >,std::allocator<std::pair<std::basic_string<unsigned short,std::char_traits<unsigned short>,std::allocator<unsigned short> > const ,Rename::TAG_DATA> > >::operator[]
	add	eax, 88					; 00000058H
	mov	ecx, eax
	call	DWORD PTR __imp_??4?$basic_string@GU?$char_traits@G@std@@V?$allocator@G@2@@std@@QAEAAV01@ABV01@@Z
; Line 137
	mov	BYTE PTR __$EHRec$[ebp+8], 16		; 00000010H
	lea	ecx, DWORD PTR _description$142589[ebp]
	call	DWORD PTR __imp_??1?$basic_string@GU?$char_traits@G@std@@V?$allocator@G@2@@std@@QAE@XZ
$LN8@LoadSettin:
; Line 138
	jmp	$LN11@LoadSettin
$LN10@LoadSettin:
; Line 139
	mov	BYTE PTR __$EHRec$[ebp+8], 15		; 0000000fH
	lea	ecx, DWORD PTR _tag$142569[ebp]
	call	DWORD PTR __imp_??1?$basic_string@GU?$char_traits@G@std@@V?$allocator@G@2@@std@@QAE@XZ
$LN12@LoadSettin:
; Line 140
	jmp	$LN14@LoadSettin
$LN13@LoadSettin:
; Line 141
	lea	ecx, DWORD PTR _ini$[ebp]
	call	DWORD PTR __imp_?close@INI_Reader@@QAEXXZ
$LN15@LoadSettin:
; Line 143
	mov	BYTE PTR __$EHRec$[ebp+8], 14		; 0000000eH
	lea	ecx, DWORD PTR _ini$[ebp]
	call	DWORD PTR __imp_??1INI_Reader@@QAE@XZ
	mov	DWORD PTR __$EHRec$[ebp+8], -1
	lea	ecx, DWORD PTR _scPath$[ebp]
	call	DWORD PTR __imp_??1?$basic_string@DU?$char_traits@D@std@@V?$allocator@D@2@@std@@QAE@XZ
	mov	ecx, DWORD PTR __$EHRec$[ebp]
	mov	DWORD PTR fs:0, ecx
	pop	ecx
	pop	esi
	mov	ecx, DWORD PTR __$ArrayPad$[ebp]
	xor	ecx, ebp
	call	@__security_check_cookie@4
	mov	esp, ebp
	pop	ebp
	ret	0
_TEXT	ENDS
text$x	SEGMENT
__unwindfunclet$?LoadSettings@Rename@@YAXABV?$basic_string@DU?$char_traits@D@std@@V?$allocator@D@2@@std@@@Z$0:
	lea	ecx, DWORD PTR $T150861[ebp]
	jmp	DWORD PTR __imp_??1?$basic_string@DU?$char_traits@D@std@@V?$allocator@D@2@@std@@QAE@XZ
__unwindfunclet$?LoadSettings@Rename@@YAXABV?$basic_string@DU?$char_traits@D@std@@V?$allocator@D@2@@std@@@Z$1:
	lea	ecx, DWORD PTR $T150862[ebp]
	jmp	DWORD PTR __imp_??1?$basic_string@DU?$char_traits@D@std@@V?$allocator@D@2@@std@@QAE@XZ
__unwindfunclet$?LoadSettings@Rename@@YAXABV?$basic_string@DU?$char_traits@D@std@@V?$allocator@D@2@@std@@@Z$2:
	lea	ecx, DWORD PTR $T150863[ebp]
	jmp	DWORD PTR __imp_??1?$basic_string@DU?$char_traits@D@std@@V?$allocator@D@2@@std@@QAE@XZ
__unwindfunclet$?LoadSettings@Rename@@YAXABV?$basic_string@DU?$char_traits@D@std@@V?$allocator@D@2@@std@@@Z$3:
	lea	ecx, DWORD PTR $T150864[ebp]
	jmp	DWORD PTR __imp_??1?$basic_string@DU?$char_traits@D@std@@V?$allocator@D@2@@std@@QAE@XZ
__unwindfunclet$?LoadSettings@Rename@@YAXABV?$basic_string@DU?$char_traits@D@std@@V?$allocator@D@2@@std@@@Z$4:
	lea	ecx, DWORD PTR $T150865[ebp]
	jmp	DWORD PTR __imp_??1?$basic_string@DU?$char_traits@D@std@@V?$allocator@D@2@@std@@QAE@XZ
__unwindfunclet$?LoadSettings@Rename@@YAXABV?$basic_string@DU?$char_traits@D@std@@V?$allocator@D@2@@std@@@Z$5:
	lea	ecx, DWORD PTR $T150866[ebp]
	jmp	DWORD PTR __imp_??1?$basic_string@DU?$char_traits@D@std@@V?$allocator@D@2@@std@@QAE@XZ
__unwindfunclet$?LoadSettings@Rename@@YAXABV?$basic_string@DU?$char_traits@D@std@@V?$allocator@D@2@@std@@@Z$6:
	lea	ecx, DWORD PTR $T150867[ebp]
	jmp	DWORD PTR __imp_??1?$basic_string@DU?$char_traits@D@std@@V?$allocator@D@2@@std@@QAE@XZ
__unwindfunclet$?LoadSettings@Rename@@YAXABV?$basic_string@DU?$char_traits@D@std@@V?$allocator@D@2@@std@@@Z$7:
	lea	ecx, DWORD PTR $T150868[ebp]
	jmp	DWORD PTR __imp_??1?$basic_string@DU?$char_traits@D@std@@V?$allocator@D@2@@std@@QAE@XZ
__unwindfunclet$?LoadSettings@Rename@@YAXABV?$basic_string@DU?$char_traits@D@std@@V?$allocator@D@2@@std@@@Z$8:
	lea	ecx, DWORD PTR $T150869[ebp]
	jmp	DWORD PTR __imp_??1?$basic_string@DU?$char_traits@D@std@@V?$allocator@D@2@@std@@QAE@XZ
__unwindfunclet$?LoadSettings@Rename@@YAXABV?$basic_string@DU?$char_traits@D@std@@V?$allocator@D@2@@std@@@Z$9:
	lea	ecx, DWORD PTR $T150870[ebp]
	jmp	DWORD PTR __imp_??1?$basic_string@DU?$char_traits@D@std@@V?$allocator@D@2@@std@@QAE@XZ
__unwindfunclet$?LoadSettings@Rename@@YAXABV?$basic_string@DU?$char_traits@D@std@@V?$allocator@D@2@@std@@@Z$10:
	lea	ecx, DWORD PTR $T150871[ebp]
	jmp	DWORD PTR __imp_??1?$basic_string@DU?$char_traits@D@std@@V?$allocator@D@2@@std@@QAE@XZ
__unwindfunclet$?LoadSettings@Rename@@YAXABV?$basic_string@DU?$char_traits@D@std@@V?$allocator@D@2@@std@@@Z$11:
	lea	ecx, DWORD PTR $T150872[ebp]
	jmp	DWORD PTR __imp_??1?$basic_string@DU?$char_traits@D@std@@V?$allocator@D@2@@std@@QAE@XZ
__unwindfunclet$?LoadSettings@Rename@@YAXABV?$basic_string@DU?$char_traits@D@std@@V?$allocator@D@2@@std@@@Z$12:
	lea	ecx, DWORD PTR $T150873[ebp]
	jmp	DWORD PTR __imp_??1?$basic_string@DU?$char_traits@D@std@@V?$allocator@D@2@@std@@QAE@XZ
__unwindfunclet$?LoadSettings@Rename@@YAXABV?$basic_string@DU?$char_traits@D@std@@V?$allocator@D@2@@std@@@Z$13:
	lea	ecx, DWORD PTR _scPath$[ebp]
	jmp	DWORD PTR __imp_??1?$basic_string@DU?$char_traits@D@std@@V?$allocator@D@2@@std@@QAE@XZ
__unwindfunclet$?LoadSettings@Rename@@YAXABV?$basic_string@DU?$char_traits@D@std@@V?$allocator@D@2@@std@@@Z$14:
	lea	ecx, DWORD PTR _ini$[ebp]
	jmp	DWORD PTR __imp_??1INI_Reader@@QAE@XZ
__unwindfunclet$?LoadSettings@Rename@@YAXABV?$basic_string@DU?$char_traits@D@std@@V?$allocator@D@2@@std@@@Z$15:
	lea	ecx, DWORD PTR _tag$142569[ebp]
	jmp	DWORD PTR __imp_??1?$basic_string@GU?$char_traits@G@std@@V?$allocator@G@2@@std@@QAE@XZ
__unwindfunclet$?LoadSettings@Rename@@YAXABV?$basic_string@DU?$char_traits@D@std@@V?$allocator@D@2@@std@@@Z$16:
	lea	ecx, DWORD PTR _pass$142578[ebp]
	jmp	DWORD PTR __imp_??1?$basic_string@GU?$char_traits@G@std@@V?$allocator@G@2@@std@@QAE@XZ
__unwindfunclet$?LoadSettings@Rename@@YAXABV?$basic_string@DU?$char_traits@D@std@@V?$allocator@D@2@@std@@@Z$17:
	lea	ecx, DWORD PTR _pass$142582[ebp]
	jmp	DWORD PTR __imp_??1?$basic_string@GU?$char_traits@G@std@@V?$allocator@G@2@@std@@QAE@XZ
__unwindfunclet$?LoadSettings@Rename@@YAXABV?$basic_string@DU?$char_traits@D@std@@V?$allocator@D@2@@std@@@Z$18:
	lea	ecx, DWORD PTR _description$142589[ebp]
	jmp	DWORD PTR __imp_??1?$basic_string@GU?$char_traits@G@std@@V?$allocator@G@2@@std@@QAE@XZ
__ehhandler$?LoadSettings@Rename@@YAXABV?$basic_string@DU?$char_traits@D@std@@V?$allocator@D@2@@std@@@Z:
	mov	edx, DWORD PTR [esp+8]
	lea	eax, DWORD PTR [edx+12]
	mov	ecx, DWORD PTR [edx-6272]
	xor	ecx, eax
	call	@__security_check_cookie@4
	mov	ecx, DWORD PTR [edx-4]
	xor	ecx, eax
	call	@__security_check_cookie@4
	mov	eax, OFFSET __ehfuncinfo$?LoadSettings@Rename@@YAXABV?$basic_string@DU?$char_traits@D@std@@V?$allocator@D@2@@std@@@Z
	jmp	___CxxFrameHandler3
text$x	ENDS
?LoadSettings@Rename@@YAXABV?$basic_string@DU?$char_traits@D@std@@V?$allocator@D@2@@std@@@Z ENDP ; Rename::LoadSettings
PUBLIC	__$ArrayPad$
EXTRN	__imp_?append@?$basic_string@GU?$char_traits@G@std@@V?$allocator@G@2@@std@@QAEAAV12@IG@Z:PROC
EXTRN	__imp_??4?$basic_string@DU?$char_traits@D@std@@V?$allocator@D@2@@std@@QAEAAV01@ABV01@@Z:PROC
EXTRN	__imp_?substr@?$basic_string@DU?$char_traits@D@std@@V?$allocator@D@2@@std@@QBE?AV12@II@Z:PROC
EXTRN	__imp_?npos@?$basic_string@DU?$char_traits@D@std@@V?$allocator@D@2@@std@@2IB:DWORD
EXTRN	__imp__sscanf:PROC
EXTRN	__imp_??4?$basic_string@GU?$char_traits@G@std@@V?$allocator@G@2@@std@@QAEAAV01@PBG@Z:PROC
EXTRN	__imp_?get_value_string@INI_Reader@@QAEPBDXZ:PROC
xdata$x	SEGMENT
__unwindtable$?ini_get_wstring@Rename@@YAXAAVINI_Reader@@AAV?$basic_string@GU?$char_traits@G@std@@V?$allocator@G@2@@std@@@Z DD 0ffffffffH
	DD	FLAT:__unwindfunclet$?ini_get_wstring@Rename@@YAXAAVINI_Reader@@AAV?$basic_string@GU?$char_traits@G@std@@V?$allocator@G@2@@std@@@Z$0
	DD	00H
	DD	FLAT:__unwindfunclet$?ini_get_wstring@Rename@@YAXAAVINI_Reader@@AAV?$basic_string@GU?$char_traits@G@std@@V?$allocator@G@2@@std@@@Z$1
__ehfuncinfo$?ini_get_wstring@Rename@@YAXAAVINI_Reader@@AAV?$basic_string@GU?$char_traits@G@std@@V?$allocator@G@2@@std@@@Z DD 019930522H
	DD	02H
	DD	FLAT:__unwindtable$?ini_get_wstring@Rename@@YAXAAVINI_Reader@@AAV?$basic_string@GU?$char_traits@G@std@@V?$allocator@G@2@@std@@@Z
	DD	2 DUP(00H)
	DD	2 DUP(00H)
	DD	00H
	DD	00H
; Function compile flags: /Odtp
xdata$x	ENDS
_TEXT	SEGMENT
tv129 = -92						; size = 4
tv65 = -88						; size = 4
$T150905 = -84						; size = 28
_wChar$141745 = -56					; size = 2
_lHiByte$ = -52						; size = 4
_lLoByte$ = -48						; size = 4
_scValue$ = -44						; size = 28
__$ArrayPad$ = -16					; size = 4
__$EHRec$ = -12						; size = 12
_ini$ = 8						; size = 4
_wscValue$ = 12						; size = 4
?ini_get_wstring@Rename@@YAXAAVINI_Reader@@AAV?$basic_string@GU?$char_traits@G@std@@V?$allocator@G@2@@std@@@Z PROC ; Rename::ini_get_wstring
; Line 46
	push	ebp
	mov	ebp, esp
	push	-1
	push	__ehhandler$?ini_get_wstring@Rename@@YAXAAVINI_Reader@@AAV?$basic_string@GU?$char_traits@G@std@@V?$allocator@G@2@@std@@@Z
	mov	eax, DWORD PTR fs:0
	push	eax
	sub	esp, 80					; 00000050H
	mov	eax, DWORD PTR ___security_cookie
	xor	eax, ebp
	mov	DWORD PTR __$ArrayPad$[ebp], eax
	push	eax
	lea	eax, DWORD PTR __$EHRec$[ebp]
	mov	DWORD PTR fs:0, eax
; Line 47
	mov	ecx, DWORD PTR _ini$[ebp]
	call	DWORD PTR __imp_?get_value_string@INI_Reader@@QAEPBDXZ
	push	eax
	lea	ecx, DWORD PTR _scValue$[ebp]
	call	DWORD PTR __imp_??0?$basic_string@DU?$char_traits@D@std@@V?$allocator@D@2@@std@@QAE@PBD@Z
	mov	DWORD PTR __$EHRec$[ebp+8], 0
; Line 48
	push	OFFSET $SG141737
	mov	ecx, DWORD PTR _wscValue$[ebp]
	call	DWORD PTR __imp_??4?$basic_string@GU?$char_traits@G@std@@V?$allocator@G@2@@std@@QAEAAV01@PBG@Z
$LN2@ini_get_ws:
; Line 51
	lea	eax, DWORD PTR _lLoByte$[ebp]
	push	eax
	lea	ecx, DWORD PTR _lHiByte$[ebp]
	push	ecx
	push	OFFSET $SG141743
	lea	ecx, DWORD PTR _scValue$[ebp]
	call	DWORD PTR __imp_?c_str@?$basic_string@DU?$char_traits@D@std@@V?$allocator@D@2@@std@@QBEPBDXZ
	push	eax
	call	DWORD PTR __imp__sscanf
	add	esp, 16					; 00000010H
	cmp	eax, 2
	jne	SHORT $LN1@ini_get_ws
; Line 53
	mov	edx, DWORD PTR __imp_?npos@?$basic_string@DU?$char_traits@D@std@@V?$allocator@D@2@@std@@2IB
	mov	eax, DWORD PTR [edx]
	push	eax
	push	4
	lea	ecx, DWORD PTR $T150905[ebp]
	push	ecx
	lea	ecx, DWORD PTR _scValue$[ebp]
	call	DWORD PTR __imp_?substr@?$basic_string@DU?$char_traits@D@std@@V?$allocator@D@2@@std@@QBE?AV12@II@Z
	mov	DWORD PTR tv65[ebp], eax
	mov	edx, DWORD PTR tv65[ebp]
	mov	DWORD PTR tv129[ebp], edx
	mov	BYTE PTR __$EHRec$[ebp+8], 1
	mov	eax, DWORD PTR tv129[ebp]
	push	eax
	lea	ecx, DWORD PTR _scValue$[ebp]
	call	DWORD PTR __imp_??4?$basic_string@DU?$char_traits@D@std@@V?$allocator@D@2@@std@@QAEAAV01@ABV01@@Z
	mov	BYTE PTR __$EHRec$[ebp+8], 0
	lea	ecx, DWORD PTR $T150905[ebp]
	call	DWORD PTR __imp_??1?$basic_string@DU?$char_traits@D@std@@V?$allocator@D@2@@std@@QAE@XZ
; Line 54
	mov	ecx, DWORD PTR _lHiByte$[ebp]
	shl	ecx, 8
	or	ecx, DWORD PTR _lLoByte$[ebp]
	mov	WORD PTR _wChar$141745[ebp], cx
; Line 55
	movzx	edx, WORD PTR _wChar$141745[ebp]
	push	edx
	push	1
	mov	ecx, DWORD PTR _wscValue$[ebp]
	call	DWORD PTR __imp_?append@?$basic_string@GU?$char_traits@G@std@@V?$allocator@G@2@@std@@QAEAAV12@IG@Z
; Line 56
	jmp	$LN2@ini_get_ws
$LN1@ini_get_ws:
; Line 57
	mov	DWORD PTR __$EHRec$[ebp+8], -1
	lea	ecx, DWORD PTR _scValue$[ebp]
	call	DWORD PTR __imp_??1?$basic_string@DU?$char_traits@D@std@@V?$allocator@D@2@@std@@QAE@XZ
	mov	ecx, DWORD PTR __$EHRec$[ebp]
	mov	DWORD PTR fs:0, ecx
	pop	ecx
	mov	ecx, DWORD PTR __$ArrayPad$[ebp]
	xor	ecx, ebp
	call	@__security_check_cookie@4
	mov	esp, ebp
	pop	ebp
	ret	0
_TEXT	ENDS
text$x	SEGMENT
__unwindfunclet$?ini_get_wstring@Rename@@YAXAAVINI_Reader@@AAV?$basic_string@GU?$char_traits@G@std@@V?$allocator@G@2@@std@@@Z$0:
	lea	ecx, DWORD PTR _scValue$[ebp]
	jmp	DWORD PTR __imp_??1?$basic_string@DU?$char_traits@D@std@@V?$allocator@D@2@@std@@QAE@XZ
__unwindfunclet$?ini_get_wstring@Rename@@YAXAAVINI_Reader@@AAV?$basic_string@GU?$char_traits@G@std@@V?$allocator@G@2@@std@@@Z$1:
	lea	ecx, DWORD PTR $T150905[ebp]
	jmp	DWORD PTR __imp_??1?$basic_string@DU?$char_traits@D@std@@V?$allocator@D@2@@std@@QAE@XZ
__ehhandler$?ini_get_wstring@Rename@@YAXAAVINI_Reader@@AAV?$basic_string@GU?$char_traits@G@std@@V?$allocator@G@2@@std@@@Z:
	mov	edx, DWORD PTR [esp+8]
	lea	eax, DWORD PTR [edx+12]
	mov	ecx, DWORD PTR [edx-84]
	xor	ecx, eax
	call	@__security_check_cookie@4
	mov	ecx, DWORD PTR [edx-4]
	xor	ecx, eax
	call	@__security_check_cookie@4
	mov	eax, OFFSET __ehfuncinfo$?ini_get_wstring@Rename@@YAXAAVINI_Reader@@AAV?$basic_string@GU?$char_traits@G@std@@V?$allocator@G@2@@std@@@Z
	jmp	___CxxFrameHandler3
text$x	ENDS
?ini_get_wstring@Rename@@YAXAAVINI_Reader@@AAV?$basic_string@GU?$char_traits@G@std@@V?$allocator@G@2@@std@@@Z ENDP ; Rename::ini_get_wstring
PUBLIC	??Citerator@?$_Tree@V?$_Tmap_traits@V?$basic_string@GU?$char_traits@G@std@@V?$allocator@G@2@@std@@UTAG_DATA@Rename@@U?$less@V?$basic_string@GU?$char_traits@G@std@@V?$allocator@G@2@@std@@@2@V?$allocator@U?$pair@$$CBV?$basic_string@GU?$char_traits@G@std@@V?$allocator@G@2@@std@@UTAG_DATA@Rename@@@std@@@2@$0A@@std@@@std@@QBEPAU?$pair@$$CBV?$basic_string@GU?$char_traits@G@std@@V?$allocator@G@2@@std@@UTAG_DATA@Rename@@@2@XZ ; std::_Tree<std::_Tmap_traits<std::basic_string<unsigned short,std::char_traits<unsigned short>,std::allocator<unsigned short> >,Rename::TAG_DATA,std::less<std::basic_string<unsigned short,std::char_traits<unsigned short>,std::allocator<unsigned short> > >,std::allocator<std::pair<std::basic_string<unsigned short,std::char_traits<unsigned short>,std::allocator<unsigned short> > const ,Rename::TAG_DATA> >,0> >::iterator::operator->
PUBLIC	??9const_iterator@?$_Tree@V?$_Tmap_traits@V?$basic_string@GU?$char_traits@G@std@@V?$allocator@G@2@@std@@UTAG_DATA@Rename@@U?$less@V?$basic_string@GU?$char_traits@G@std@@V?$allocator@G@2@@std@@@2@V?$allocator@U?$pair@$$CBV?$basic_string@GU?$char_traits@G@std@@V?$allocator@G@2@@std@@UTAG_DATA@Rename@@@std@@@2@$0A@@std@@@std@@QBE_NABV012@@Z ; std::_Tree<std::_Tmap_traits<std::basic_string<unsigned short,std::char_traits<unsigned short>,std::allocator<unsigned short> >,Rename::TAG_DATA,std::less<std::basic_string<unsigned short,std::char_traits<unsigned short>,std::allocator<unsigned short> > >,std::allocator<std::pair<std::basic_string<unsigned short,std::char_traits<unsigned short>,std::allocator<unsigned short> > const ,Rename::TAG_DATA> >,0> >::const_iterator::operator!=
PUBLIC	?end@?$_Tree@V?$_Tmap_traits@V?$basic_string@GU?$char_traits@G@std@@V?$allocator@G@2@@std@@UTAG_DATA@Rename@@U?$less@V?$basic_string@GU?$char_traits@G@std@@V?$allocator@G@2@@std@@@2@V?$allocator@U?$pair@$$CBV?$basic_string@GU?$char_traits@G@std@@V?$allocator@G@2@@std@@UTAG_DATA@Rename@@@std@@@2@$0A@@std@@@std@@QAE?AViterator@12@XZ ; std::_Tree<std::_Tmap_traits<std::basic_string<unsigned short,std::char_traits<unsigned short>,std::allocator<unsigned short> >,Rename::TAG_DATA,std::less<std::basic_string<unsigned short,std::char_traits<unsigned short>,std::allocator<unsigned short> > >,std::allocator<std::pair<std::basic_string<unsigned short,std::char_traits<unsigned short>,std::allocator<unsigned short> > const ,Rename::TAG_DATA> >,0> >::end
PUBLIC	??Eiterator@?$_Tree@V?$_Tmap_traits@V?$basic_string@GU?$char_traits@G@std@@V?$allocator@G@2@@std@@UTAG_DATA@Rename@@U?$less@V?$basic_string@GU?$char_traits@G@std@@V?$allocator@G@2@@std@@@2@V?$allocator@U?$pair@$$CBV?$basic_string@GU?$char_traits@G@std@@V?$allocator@G@2@@std@@UTAG_DATA@Rename@@@std@@@2@$0A@@std@@@std@@QAEAAV012@XZ ; std::_Tree<std::_Tmap_traits<std::basic_string<unsigned short,std::char_traits<unsigned short>,std::allocator<unsigned short> >,Rename::TAG_DATA,std::less<std::basic_string<unsigned short,std::char_traits<unsigned short>,std::allocator<unsigned short> > >,std::allocator<std::pair<std::basic_string<unsigned short,std::char_traits<unsigned short>,std::allocator<unsigned short> > const ,Rename::TAG_DATA> >,0> >::iterator::operator++
PUBLIC	?begin@?$_Tree@V?$_Tmap_traits@V?$basic_string@GU?$char_traits@G@std@@V?$allocator@G@2@@std@@UTAG_DATA@Rename@@U?$less@V?$basic_string@GU?$char_traits@G@std@@V?$allocator@G@2@@std@@@2@V?$allocator@U?$pair@$$CBV?$basic_string@GU?$char_traits@G@std@@V?$allocator@G@2@@std@@UTAG_DATA@Rename@@@std@@@2@$0A@@std@@@std@@QAE?AViterator@12@XZ ; std::_Tree<std::_Tmap_traits<std::basic_string<unsigned short,std::char_traits<unsigned short>,std::allocator<unsigned short> >,Rename::TAG_DATA,std::less<std::basic_string<unsigned short,std::char_traits<unsigned short>,std::allocator<unsigned short> > >,std::allocator<std::pair<std::basic_string<unsigned short,std::char_traits<unsigned short>,std::allocator<unsigned short> > const ,Rename::TAG_DATA> >,0> >::begin
PUBLIC	__$ArrayPad$
PUBLIC	?SaveSettings@Rename@@YAXXZ			; Rename::SaveSettings
EXTRN	__imp__fclose:PROC
EXTRN	__imp__fprintf:PROC
EXTRN	__imp__fopen:PROC
xdata$x	SEGMENT
__ehfuncinfo$?SaveSettings@Rename@@YAXXZ DD 019930522H
	DD	07H
	DD	FLAT:__unwindtable$?SaveSettings@Rename@@YAXXZ
	DD	2 DUP(00H)
	DD	2 DUP(00H)
	DD	00H
	DD	00H
__unwindtable$?SaveSettings@Rename@@YAXXZ DD 0ffffffffH
	DD	FLAT:__unwindfunclet$?SaveSettings@Rename@@YAXXZ$0
	DD	00H
	DD	FLAT:__unwindfunclet$?SaveSettings@Rename@@YAXXZ$1
	DD	0ffffffffH
	DD	FLAT:__unwindfunclet$?SaveSettings@Rename@@YAXXZ$1
	DD	02H
	DD	FLAT:__unwindfunclet$?SaveSettings@Rename@@YAXXZ$2
	DD	02H
	DD	FLAT:__unwindfunclet$?SaveSettings@Rename@@YAXXZ$3
	DD	02H
	DD	FLAT:__unwindfunclet$?SaveSettings@Rename@@YAXXZ$4
	DD	02H
	DD	FLAT:__unwindfunclet$?SaveSettings@Rename@@YAXXZ$5
; Function compile flags: /Odtp
xdata$x	ENDS
_TEXT	SEGMENT
tv195 = -480						; size = 4
tv201 = -476						; size = 4
$T150919 = -472						; size = 28
$T150918 = -444						; size = 28
$T150917 = -416						; size = 28
$T150916 = -388						; size = 28
$T150915 = -360						; size = 8
$T150914 = -352						; size = 28
_i$142710 = -324					; size = 8
_scPath$ = -316						; size = 28
_file$ = -288						; size = 4
_szDataPath$ = -284					; size = 260
__$ArrayPad$ = -16					; size = 4
__$EHRec$ = -12						; size = 12
?SaveSettings@Rename@@YAXXZ PROC			; Rename::SaveSettings
; Line 146
	push	ebp
	mov	ebp, esp
	push	-1
	push	__ehhandler$?SaveSettings@Rename@@YAXXZ
	mov	eax, DWORD PTR fs:0
	push	eax
	sub	esp, 468				; 000001d4H
	mov	eax, DWORD PTR ___security_cookie
	xor	eax, ebp
	mov	DWORD PTR __$ArrayPad$[ebp], eax
	push	eax
	lea	eax, DWORD PTR __$EHRec$[ebp]
	mov	DWORD PTR fs:0, eax
; Line 148
	lea	eax, DWORD PTR _szDataPath$[ebp]
	push	eax
	call	DWORD PTR __imp_?GetUserDataPath@@YA_NQAD@Z
	add	esp, 4
; Line 149
	push	OFFSET $SG142596
	lea	ecx, DWORD PTR _szDataPath$[ebp]
	push	ecx
	lea	ecx, DWORD PTR $T150914[ebp]
	call	DWORD PTR __imp_??0?$basic_string@DU?$char_traits@D@std@@V?$allocator@D@2@@std@@QAE@PBD@Z
	mov	DWORD PTR tv201[ebp], eax
	mov	edx, DWORD PTR tv201[ebp]
	mov	DWORD PTR tv195[ebp], edx
	mov	DWORD PTR __$EHRec$[ebp+8], 0
	mov	eax, DWORD PTR tv195[ebp]
	push	eax
	lea	ecx, DWORD PTR _scPath$[ebp]
	push	ecx
	call	DWORD PTR __imp_??$?HDU?$char_traits@D@std@@V?$allocator@D@1@@std@@YA?AV?$basic_string@DU?$char_traits@D@std@@V?$allocator@D@2@@0@ABV10@PBD@Z
	add	esp, 12					; 0000000cH
	mov	BYTE PTR __$EHRec$[ebp+8], 2
	lea	ecx, DWORD PTR $T150914[ebp]
	call	DWORD PTR __imp_??1?$basic_string@DU?$char_traits@D@std@@V?$allocator@D@2@@std@@QAE@XZ
; Line 151
	push	OFFSET $SG142598
	lea	ecx, DWORD PTR _scPath$[ebp]
	call	DWORD PTR __imp_?c_str@?$basic_string@DU?$char_traits@D@std@@V?$allocator@D@2@@std@@QBEPBDXZ
	push	eax
	call	DWORD PTR __imp__fopen
	add	esp, 8
	mov	DWORD PTR _file$[ebp], eax
; Line 152
	cmp	DWORD PTR _file$[ebp], 0
	je	$LN4@SaveSettin
; Line 154
	lea	edx, DWORD PTR _i$142710[ebp]
	push	edx
	mov	ecx, OFFSET ?mapTagToPassword@Rename@@3V?$map@V?$basic_string@GU?$char_traits@G@std@@V?$allocator@G@2@@std@@UTAG_DATA@Rename@@U?$less@V?$basic_string@GU?$char_traits@G@std@@V?$allocator@G@2@@std@@@2@V?$allocator@U?$pair@$$CBV?$basic_string@GU?$char_traits@G@std@@V?$allocator@G@2@@std@@UTAG_DATA@Rename@@@std@@@2@@std@@A ; Rename::mapTagToPassword
	call	?begin@?$_Tree@V?$_Tmap_traits@V?$basic_string@GU?$char_traits@G@std@@V?$allocator@G@2@@std@@UTAG_DATA@Rename@@U?$less@V?$basic_string@GU?$char_traits@G@std@@V?$allocator@G@2@@std@@@2@V?$allocator@U?$pair@$$CBV?$basic_string@GU?$char_traits@G@std@@V?$allocator@G@2@@std@@UTAG_DATA@Rename@@@std@@@2@$0A@@std@@@std@@QAE?AViterator@12@XZ ; std::_Tree<std::_Tmap_traits<std::basic_string<unsigned short,std::char_traits<unsigned short>,std::allocator<unsigned short> >,Rename::TAG_DATA,std::less<std::basic_string<unsigned short,std::char_traits<unsigned short>,std::allocator<unsigned short> > >,std::allocator<std::pair<std::basic_string<unsigned short,std::char_traits<unsigned short>,std::allocator<unsigned short> > const ,Rename::TAG_DATA> >,0> >::begin
	jmp	SHORT $LN3@SaveSettin
$LN2@SaveSettin:
	lea	ecx, DWORD PTR _i$142710[ebp]
	call	??Eiterator@?$_Tree@V?$_Tmap_traits@V?$basic_string@GU?$char_traits@G@std@@V?$allocator@G@2@@std@@UTAG_DATA@Rename@@U?$less@V?$basic_string@GU?$char_traits@G@std@@V?$allocator@G@2@@std@@@2@V?$allocator@U?$pair@$$CBV?$basic_string@GU?$char_traits@G@std@@V?$allocator@G@2@@std@@UTAG_DATA@Rename@@@std@@@2@$0A@@std@@@std@@QAEAAV012@XZ ; std::_Tree<std::_Tmap_traits<std::basic_string<unsigned short,std::char_traits<unsigned short>,std::allocator<unsigned short> >,Rename::TAG_DATA,std::less<std::basic_string<unsigned short,std::char_traits<unsigned short>,std::allocator<unsigned short> > >,std::allocator<std::pair<std::basic_string<unsigned short,std::char_traits<unsigned short>,std::allocator<unsigned short> > const ,Rename::TAG_DATA> >,0> >::iterator::operator++
$LN3@SaveSettin:
	lea	eax, DWORD PTR $T150915[ebp]
	push	eax
	mov	ecx, OFFSET ?mapTagToPassword@Rename@@3V?$map@V?$basic_string@GU?$char_traits@G@std@@V?$allocator@G@2@@std@@UTAG_DATA@Rename@@U?$less@V?$basic_string@GU?$char_traits@G@std@@V?$allocator@G@2@@std@@@2@V?$allocator@U?$pair@$$CBV?$basic_string@GU?$char_traits@G@std@@V?$allocator@G@2@@std@@UTAG_DATA@Rename@@@std@@@2@@std@@A ; Rename::mapTagToPassword
	call	?end@?$_Tree@V?$_Tmap_traits@V?$basic_string@GU?$char_traits@G@std@@V?$allocator@G@2@@std@@UTAG_DATA@Rename@@U?$less@V?$basic_string@GU?$char_traits@G@std@@V?$allocator@G@2@@std@@@2@V?$allocator@U?$pair@$$CBV?$basic_string@GU?$char_traits@G@std@@V?$allocator@G@2@@std@@UTAG_DATA@Rename@@@std@@@2@$0A@@std@@@std@@QAE?AViterator@12@XZ ; std::_Tree<std::_Tmap_traits<std::basic_string<unsigned short,std::char_traits<unsigned short>,std::allocator<unsigned short> >,Rename::TAG_DATA,std::less<std::basic_string<unsigned short,std::char_traits<unsigned short>,std::allocator<unsigned short> > >,std::allocator<std::pair<std::basic_string<unsigned short,std::char_traits<unsigned short>,std::allocator<unsigned short> > const ,Rename::TAG_DATA> >,0> >::end
	push	eax
	lea	ecx, DWORD PTR _i$142710[ebp]
	call	??9const_iterator@?$_Tree@V?$_Tmap_traits@V?$basic_string@GU?$char_traits@G@std@@V?$allocator@G@2@@std@@UTAG_DATA@Rename@@U?$less@V?$basic_string@GU?$char_traits@G@std@@V?$allocator@G@2@@std@@@2@V?$allocator@U?$pair@$$CBV?$basic_string@GU?$char_traits@G@std@@V?$allocator@G@2@@std@@UTAG_DATA@Rename@@@std@@@2@$0A@@std@@@std@@QBE_NABV012@@Z ; std::_Tree<std::_Tmap_traits<std::basic_string<unsigned short,std::char_traits<unsigned short>,std::allocator<unsigned short> >,Rename::TAG_DATA,std::less<std::basic_string<unsigned short,std::char_traits<unsigned short>,std::allocator<unsigned short> > >,std::allocator<std::pair<std::basic_string<unsigned short,std::char_traits<unsigned short>,std::allocator<unsigned short> > const ,Rename::TAG_DATA> >,0> >::const_iterator::operator!=
	movzx	ecx, al
	test	ecx, ecx
	je	$LN1@SaveSettin
; Line 156
	push	OFFSET $SG142716
	mov	edx, DWORD PTR _file$[ebp]
	push	edx
	call	DWORD PTR __imp__fprintf
	add	esp, 8
; Line 157
	push	OFFSET $SG142746
	lea	ecx, DWORD PTR $T150916[ebp]
	call	DWORD PTR __imp_??0?$basic_string@DU?$char_traits@D@std@@V?$allocator@D@2@@std@@QAE@PBD@Z
	mov	BYTE PTR __$EHRec$[ebp+8], 3
	lea	ecx, DWORD PTR _i$142710[ebp]
	call	??Citerator@?$_Tree@V?$_Tmap_traits@V?$basic_string@GU?$char_traits@G@std@@V?$allocator@G@2@@std@@UTAG_DATA@Rename@@U?$less@V?$basic_string@GU?$char_traits@G@std@@V?$allocator@G@2@@std@@@2@V?$allocator@U?$pair@$$CBV?$basic_string@GU?$char_traits@G@std@@V?$allocator@G@2@@std@@UTAG_DATA@Rename@@@std@@@2@$0A@@std@@@std@@QBEPAU?$pair@$$CBV?$basic_string@GU?$char_traits@G@std@@V?$allocator@G@2@@std@@UTAG_DATA@Rename@@@2@XZ ; std::_Tree<std::_Tmap_traits<std::basic_string<unsigned short,std::char_traits<unsigned short>,std::allocator<unsigned short> >,Rename::TAG_DATA,std::less<std::basic_string<unsigned short,std::char_traits<unsigned short>,std::allocator<unsigned short> > >,std::allocator<std::pair<std::basic_string<unsigned short,std::char_traits<unsigned short>,std::allocator<unsigned short> > const ,Rename::TAG_DATA> >,0> >::iterator::operator->
	add	eax, 28					; 0000001cH
	push	eax
	lea	eax, DWORD PTR $T150916[ebp]
	push	eax
	mov	ecx, DWORD PTR _file$[ebp]
	push	ecx
	call	?ini_write_wstring@Rename@@YAXPAU_iobuf@@ABV?$basic_string@DU?$char_traits@D@std@@V?$allocator@D@2@@std@@ABV?$basic_string@GU?$char_traits@G@std@@V?$allocator@G@2@@4@@Z ; Rename::ini_write_wstring
	add	esp, 12					; 0000000cH
	mov	BYTE PTR __$EHRec$[ebp+8], 2
	lea	ecx, DWORD PTR $T150916[ebp]
	call	DWORD PTR __imp_??1?$basic_string@DU?$char_traits@D@std@@V?$allocator@D@2@@std@@QAE@XZ
; Line 158
	push	OFFSET $SG142748
	lea	ecx, DWORD PTR $T150917[ebp]
	call	DWORD PTR __imp_??0?$basic_string@DU?$char_traits@D@std@@V?$allocator@D@2@@std@@QAE@PBD@Z
	mov	BYTE PTR __$EHRec$[ebp+8], 4
	lea	ecx, DWORD PTR _i$142710[ebp]
	call	??Citerator@?$_Tree@V?$_Tmap_traits@V?$basic_string@GU?$char_traits@G@std@@V?$allocator@G@2@@std@@UTAG_DATA@Rename@@U?$less@V?$basic_string@GU?$char_traits@G@std@@V?$allocator@G@2@@std@@@2@V?$allocator@U?$pair@$$CBV?$basic_string@GU?$char_traits@G@std@@V?$allocator@G@2@@std@@UTAG_DATA@Rename@@@std@@@2@$0A@@std@@@std@@QBEPAU?$pair@$$CBV?$basic_string@GU?$char_traits@G@std@@V?$allocator@G@2@@std@@UTAG_DATA@Rename@@@2@XZ ; std::_Tree<std::_Tmap_traits<std::basic_string<unsigned short,std::char_traits<unsigned short>,std::allocator<unsigned short> >,Rename::TAG_DATA,std::less<std::basic_string<unsigned short,std::char_traits<unsigned short>,std::allocator<unsigned short> > >,std::allocator<std::pair<std::basic_string<unsigned short,std::char_traits<unsigned short>,std::allocator<unsigned short> > const ,Rename::TAG_DATA> >,0> >::iterator::operator->
	add	eax, 56					; 00000038H
	push	eax
	lea	edx, DWORD PTR $T150917[ebp]
	push	edx
	mov	eax, DWORD PTR _file$[ebp]
	push	eax
	call	?ini_write_wstring@Rename@@YAXPAU_iobuf@@ABV?$basic_string@DU?$char_traits@D@std@@V?$allocator@D@2@@std@@ABV?$basic_string@GU?$char_traits@G@std@@V?$allocator@G@2@@4@@Z ; Rename::ini_write_wstring
	add	esp, 12					; 0000000cH
	mov	BYTE PTR __$EHRec$[ebp+8], 2
	lea	ecx, DWORD PTR $T150917[ebp]
	call	DWORD PTR __imp_??1?$basic_string@DU?$char_traits@D@std@@V?$allocator@D@2@@std@@QAE@XZ
; Line 159
	push	OFFSET $SG142750
	lea	ecx, DWORD PTR $T150918[ebp]
	call	DWORD PTR __imp_??0?$basic_string@DU?$char_traits@D@std@@V?$allocator@D@2@@std@@QAE@PBD@Z
	mov	BYTE PTR __$EHRec$[ebp+8], 5
	lea	ecx, DWORD PTR _i$142710[ebp]
	call	??Citerator@?$_Tree@V?$_Tmap_traits@V?$basic_string@GU?$char_traits@G@std@@V?$allocator@G@2@@std@@UTAG_DATA@Rename@@U?$less@V?$basic_string@GU?$char_traits@G@std@@V?$allocator@G@2@@std@@@2@V?$allocator@U?$pair@$$CBV?$basic_string@GU?$char_traits@G@std@@V?$allocator@G@2@@std@@UTAG_DATA@Rename@@@std@@@2@$0A@@std@@@std@@QBEPAU?$pair@$$CBV?$basic_string@GU?$char_traits@G@std@@V?$allocator@G@2@@std@@UTAG_DATA@Rename@@@2@XZ ; std::_Tree<std::_Tmap_traits<std::basic_string<unsigned short,std::char_traits<unsigned short>,std::allocator<unsigned short> >,Rename::TAG_DATA,std::less<std::basic_string<unsigned short,std::char_traits<unsigned short>,std::allocator<unsigned short> > >,std::allocator<std::pair<std::basic_string<unsigned short,std::char_traits<unsigned short>,std::allocator<unsigned short> > const ,Rename::TAG_DATA> >,0> >::iterator::operator->
	add	eax, 84					; 00000054H
	push	eax
	lea	ecx, DWORD PTR $T150918[ebp]
	push	ecx
	mov	edx, DWORD PTR _file$[ebp]
	push	edx
	call	?ini_write_wstring@Rename@@YAXPAU_iobuf@@ABV?$basic_string@DU?$char_traits@D@std@@V?$allocator@D@2@@std@@ABV?$basic_string@GU?$char_traits@G@std@@V?$allocator@G@2@@4@@Z ; Rename::ini_write_wstring
	add	esp, 12					; 0000000cH
	mov	BYTE PTR __$EHRec$[ebp+8], 2
	lea	ecx, DWORD PTR $T150918[ebp]
	call	DWORD PTR __imp_??1?$basic_string@DU?$char_traits@D@std@@V?$allocator@D@2@@std@@QAE@XZ
; Line 160
	push	OFFSET $SG142752
	lea	ecx, DWORD PTR $T150919[ebp]
	call	DWORD PTR __imp_??0?$basic_string@DU?$char_traits@D@std@@V?$allocator@D@2@@std@@QAE@PBD@Z
	mov	BYTE PTR __$EHRec$[ebp+8], 6
	lea	ecx, DWORD PTR _i$142710[ebp]
	call	??Citerator@?$_Tree@V?$_Tmap_traits@V?$basic_string@GU?$char_traits@G@std@@V?$allocator@G@2@@std@@UTAG_DATA@Rename@@U?$less@V?$basic_string@GU?$char_traits@G@std@@V?$allocator@G@2@@std@@@2@V?$allocator@U?$pair@$$CBV?$basic_string@GU?$char_traits@G@std@@V?$allocator@G@2@@std@@UTAG_DATA@Rename@@@std@@@2@$0A@@std@@@std@@QBEPAU?$pair@$$CBV?$basic_string@GU?$char_traits@G@std@@V?$allocator@G@2@@std@@UTAG_DATA@Rename@@@2@XZ ; std::_Tree<std::_Tmap_traits<std::basic_string<unsigned short,std::char_traits<unsigned short>,std::allocator<unsigned short> >,Rename::TAG_DATA,std::less<std::basic_string<unsigned short,std::char_traits<unsigned short>,std::allocator<unsigned short> > >,std::allocator<std::pair<std::basic_string<unsigned short,std::char_traits<unsigned short>,std::allocator<unsigned short> > const ,Rename::TAG_DATA> >,0> >::iterator::operator->
	add	eax, 116				; 00000074H
	push	eax
	lea	eax, DWORD PTR $T150919[ebp]
	push	eax
	mov	ecx, DWORD PTR _file$[ebp]
	push	ecx
	call	?ini_write_wstring@Rename@@YAXPAU_iobuf@@ABV?$basic_string@DU?$char_traits@D@std@@V?$allocator@D@2@@std@@ABV?$basic_string@GU?$char_traits@G@std@@V?$allocator@G@2@@4@@Z ; Rename::ini_write_wstring
	add	esp, 12					; 0000000cH
	mov	BYTE PTR __$EHRec$[ebp+8], 2
	lea	ecx, DWORD PTR $T150919[ebp]
	call	DWORD PTR __imp_??1?$basic_string@DU?$char_traits@D@std@@V?$allocator@D@2@@std@@QAE@XZ
; Line 161
	lea	ecx, DWORD PTR _i$142710[ebp]
	call	??Citerator@?$_Tree@V?$_Tmap_traits@V?$basic_string@GU?$char_traits@G@std@@V?$allocator@G@2@@std@@UTAG_DATA@Rename@@U?$less@V?$basic_string@GU?$char_traits@G@std@@V?$allocator@G@2@@std@@@2@V?$allocator@U?$pair@$$CBV?$basic_string@GU?$char_traits@G@std@@V?$allocator@G@2@@std@@UTAG_DATA@Rename@@@std@@@2@$0A@@std@@@std@@QBEPAU?$pair@$$CBV?$basic_string@GU?$char_traits@G@std@@V?$allocator@G@2@@std@@UTAG_DATA@Rename@@@2@XZ ; std::_Tree<std::_Tmap_traits<std::basic_string<unsigned short,std::char_traits<unsigned short>,std::allocator<unsigned short> >,Rename::TAG_DATA,std::less<std::basic_string<unsigned short,std::char_traits<unsigned short>,std::allocator<unsigned short> > >,std::allocator<std::pair<std::basic_string<unsigned short,std::char_traits<unsigned short>,std::allocator<unsigned short> > const ,Rename::TAG_DATA> >,0> >::iterator::operator->
	mov	edx, DWORD PTR [eax+112]
	push	edx
	push	OFFSET $SG142753
	mov	eax, DWORD PTR _file$[ebp]
	push	eax
	call	DWORD PTR __imp__fprintf
	add	esp, 12					; 0000000cH
; Line 162
	jmp	$LN2@SaveSettin
$LN1@SaveSettin:
; Line 163
	mov	ecx, DWORD PTR _file$[ebp]
	push	ecx
	call	DWORD PTR __imp__fclose
	add	esp, 4
$LN4@SaveSettin:
; Line 165
	mov	DWORD PTR __$EHRec$[ebp+8], -1
	lea	ecx, DWORD PTR _scPath$[ebp]
	call	DWORD PTR __imp_??1?$basic_string@DU?$char_traits@D@std@@V?$allocator@D@2@@std@@QAE@XZ
	mov	ecx, DWORD PTR __$EHRec$[ebp]
	mov	DWORD PTR fs:0, ecx
	pop	ecx
	mov	ecx, DWORD PTR __$ArrayPad$[ebp]
	xor	ecx, ebp
	call	@__security_check_cookie@4
	mov	esp, ebp
	pop	ebp
	ret	0
_TEXT	ENDS
text$x	SEGMENT
__unwindfunclet$?SaveSettings@Rename@@YAXXZ$0:
	lea	ecx, DWORD PTR $T150914[ebp]
	jmp	DWORD PTR __imp_??1?$basic_string@DU?$char_traits@D@std@@V?$allocator@D@2@@std@@QAE@XZ
__unwindfunclet$?SaveSettings@Rename@@YAXXZ$1:
	lea	ecx, DWORD PTR _scPath$[ebp]
	jmp	DWORD PTR __imp_??1?$basic_string@DU?$char_traits@D@std@@V?$allocator@D@2@@std@@QAE@XZ
__unwindfunclet$?SaveSettings@Rename@@YAXXZ$2:
	lea	ecx, DWORD PTR $T150916[ebp]
	jmp	DWORD PTR __imp_??1?$basic_string@DU?$char_traits@D@std@@V?$allocator@D@2@@std@@QAE@XZ
__unwindfunclet$?SaveSettings@Rename@@YAXXZ$3:
	lea	ecx, DWORD PTR $T150917[ebp]
	jmp	DWORD PTR __imp_??1?$basic_string@DU?$char_traits@D@std@@V?$allocator@D@2@@std@@QAE@XZ
__unwindfunclet$?SaveSettings@Rename@@YAXXZ$4:
	lea	ecx, DWORD PTR $T150918[ebp]
	jmp	DWORD PTR __imp_??1?$basic_string@DU?$char_traits@D@std@@V?$allocator@D@2@@std@@QAE@XZ
__unwindfunclet$?SaveSettings@Rename@@YAXXZ$5:
	lea	ecx, DWORD PTR $T150919[ebp]
	jmp	DWORD PTR __imp_??1?$basic_string@DU?$char_traits@D@std@@V?$allocator@D@2@@std@@QAE@XZ
__ehhandler$?SaveSettings@Rename@@YAXXZ:
	mov	edx, DWORD PTR [esp+8]
	lea	eax, DWORD PTR [edx+12]
	mov	ecx, DWORD PTR [edx-472]
	xor	ecx, eax
	call	@__security_check_cookie@4
	mov	ecx, DWORD PTR [edx-4]
	xor	ecx, eax
	call	@__security_check_cookie@4
	mov	eax, OFFSET __ehfuncinfo$?SaveSettings@Rename@@YAXXZ
	jmp	___CxxFrameHandler3
text$x	ENDS
?SaveSettings@Rename@@YAXXZ ENDP			; Rename::SaveSettings
EXTRN	__imp_??A?$basic_string@GU?$char_traits@G@std@@V?$allocator@G@2@@std@@QBEABGI@Z:PROC
EXTRN	__imp_?size@?$basic_string@GU?$char_traits@G@std@@V?$allocator@G@2@@std@@QBEIXZ:PROC
; Function compile flags: /Odtp
_TEXT	SEGMENT
_v2$141729 = -12					; size = 4
_v1$141728 = -8						; size = 4
_i$141723 = -4						; size = 4
_file$ = 8						; size = 4
_parmname$ = 12						; size = 4
_in$ = 16						; size = 4
?ini_write_wstring@Rename@@YAXPAU_iobuf@@ABV?$basic_string@DU?$char_traits@D@std@@V?$allocator@D@2@@std@@ABV?$basic_string@GU?$char_traits@G@std@@V?$allocator@G@2@@4@@Z PROC ; Rename::ini_write_wstring
; Line 33
	push	ebp
	mov	ebp, esp
	sub	esp, 12					; 0000000cH
; Line 34
	mov	ecx, DWORD PTR _parmname$[ebp]
	call	DWORD PTR __imp_?c_str@?$basic_string@DU?$char_traits@D@std@@V?$allocator@D@2@@std@@QBEPBDXZ
	push	eax
	push	OFFSET $SG141722
	mov	eax, DWORD PTR _file$[ebp]
	push	eax
	call	DWORD PTR __imp__fprintf
	add	esp, 12					; 0000000cH
; Line 35
	mov	DWORD PTR _i$141723[ebp], 0
	jmp	SHORT $LN3@ini_write_
$LN2@ini_write_:
	mov	ecx, DWORD PTR _i$141723[ebp]
	add	ecx, 1
	mov	DWORD PTR _i$141723[ebp], ecx
$LN3@ini_write_:
	mov	ecx, DWORD PTR _in$[ebp]
	call	DWORD PTR __imp_?size@?$basic_string@GU?$char_traits@G@std@@V?$allocator@G@2@@std@@QBEIXZ
	cmp	DWORD PTR _i$141723[ebp], eax
	jge	SHORT $LN1@ini_write_
; Line 37
	mov	edx, DWORD PTR _i$141723[ebp]
	push	edx
	mov	ecx, DWORD PTR _in$[ebp]
	call	DWORD PTR __imp_??A?$basic_string@GU?$char_traits@G@std@@V?$allocator@G@2@@std@@QBEABGI@Z
	movzx	eax, WORD PTR [eax]
	sar	eax, 8
	mov	DWORD PTR _v1$141728[ebp], eax
; Line 38
	mov	ecx, DWORD PTR _i$141723[ebp]
	push	ecx
	mov	ecx, DWORD PTR _in$[ebp]
	call	DWORD PTR __imp_??A?$basic_string@GU?$char_traits@G@std@@V?$allocator@G@2@@std@@QBEABGI@Z
	movzx	edx, WORD PTR [eax]
	and	edx, 255				; 000000ffH
	mov	DWORD PTR _v2$141729[ebp], edx
; Line 39
	mov	eax, DWORD PTR _v2$141729[ebp]
	push	eax
	mov	ecx, DWORD PTR _v1$141728[ebp]
	push	ecx
	push	OFFSET $SG141730
	mov	edx, DWORD PTR _file$[ebp]
	push	edx
	call	DWORD PTR __imp__fprintf
	add	esp, 16					; 00000010H
; Line 40
	jmp	SHORT $LN2@ini_write_
$LN1@ini_write_:
; Line 41
	push	OFFSET $SG141731
	mov	eax, DWORD PTR _file$[ebp]
	push	eax
	call	DWORD PTR __imp__fprintf
	add	esp, 8
; Line 42
	mov	esp, ebp
	pop	ebp
	ret	0
?ini_write_wstring@Rename@@YAXPAU_iobuf@@ABV?$basic_string@DU?$char_traits@D@std@@V?$allocator@D@2@@std@@ABV?$basic_string@GU?$char_traits@G@std@@V?$allocator@G@2@@4@@Z ENDP ; Rename::ini_write_wstring
_TEXT	ENDS
PUBLIC	__$ArrayPad$
PUBLIC	?CreateNewCharacter@Rename@@YA_NABUSCreateCharacterInfo@@I@Z ; Rename::CreateNewCharacter
EXTRN	__imp_??A?$basic_string@GU?$char_traits@G@std@@V?$allocator@G@2@@std@@QAEAAGI@Z:PROC
EXTRN	__imp_?CharacterInfoReq@IServerImpl@@UAEXI_N@Z:PROC
EXTRN	__imp__Server:BYTE
EXTRN	__imp_?find@?$basic_string@GU?$char_traits@G@std@@V?$allocator@G@2@@std@@QBEIABV12@I@Z:PROC
EXTRN	__imp_??0?$basic_string@GU?$char_traits@G@std@@V?$allocator@G@2@@std@@QAE@PBG@Z:PROC
xdata$x	SEGMENT
__unwindtable$?CreateNewCharacter@Rename@@YA_NABUSCreateCharacterInfo@@I@Z DD 0ffffffffH
	DD	FLAT:__unwindfunclet$?CreateNewCharacter@Rename@@YA_NABUSCreateCharacterInfo@@I@Z$0
	DD	0ffffffffH
	DD	FLAT:__unwindfunclet$?CreateNewCharacter@Rename@@YA_NABUSCreateCharacterInfo@@I@Z$1
__ehfuncinfo$?CreateNewCharacter@Rename@@YA_NABUSCreateCharacterInfo@@I@Z DD 019930522H
	DD	02H
	DD	FLAT:__unwindtable$?CreateNewCharacter@Rename@@YA_NABUSCreateCharacterInfo@@I@Z
	DD	2 DUP(00H)
	DD	2 DUP(00H)
	DD	00H
	DD	00H
; Function compile flags: /Odtp
xdata$x	ENDS
_TEXT	SEGMENT
$T150936 = -99						; size = 1
$T150935 = -98						; size = 1
$T150934 = -97						; size = 1
$T150933 = -96						; size = 8
_ch$142789 = -88					; size = 2
_i$142785 = -84						; size = 4
_wscCharname$142784 = -80				; size = 28
_i$142773 = -52						; size = 8
_wscCharname$142759 = -44				; size = 28
__$ArrayPad$ = -16					; size = 4
__$EHRec$ = -12						; size = 12
_si$ = 8						; size = 4
_iClientID$ = 12					; size = 4
?CreateNewCharacter@Rename@@YA_NABUSCreateCharacterInfo@@I@Z PROC ; Rename::CreateNewCharacter
; Line 168
	push	ebp
	mov	ebp, esp
	push	-1
	push	__ehhandler$?CreateNewCharacter@Rename@@YA_NABUSCreateCharacterInfo@@I@Z
	mov	eax, DWORD PTR fs:0
	push	eax
	sub	esp, 88					; 00000058H
	mov	eax, DWORD PTR ___security_cookie
	xor	eax, ebp
	mov	DWORD PTR __$ArrayPad$[ebp], eax
	push	eax
	lea	eax, DWORD PTR __$EHRec$[ebp]
	mov	DWORD PTR fs:0, eax
; Line 169
	movzx	eax, BYTE PTR ?set_bCharnameTags@Rename@@3_NA ; Rename::set_bCharnameTags
	test	eax, eax
	je	$LN11@CreateNewC
; Line 173
	mov	ecx, DWORD PTR _si$[ebp]
	push	ecx
	lea	ecx, DWORD PTR _wscCharname$142759[ebp]
	call	DWORD PTR __imp_??0?$basic_string@GU?$char_traits@G@std@@V?$allocator@G@2@@std@@QAE@PBG@Z
	mov	DWORD PTR __$EHRec$[ebp+8], 0
; Line 174
	lea	edx, DWORD PTR _i$142773[ebp]
	push	edx
	mov	ecx, OFFSET ?mapTagToPassword@Rename@@3V?$map@V?$basic_string@GU?$char_traits@G@std@@V?$allocator@G@2@@std@@UTAG_DATA@Rename@@U?$less@V?$basic_string@GU?$char_traits@G@std@@V?$allocator@G@2@@std@@@2@V?$allocator@U?$pair@$$CBV?$basic_string@GU?$char_traits@G@std@@V?$allocator@G@2@@std@@UTAG_DATA@Rename@@@std@@@2@@std@@A ; Rename::mapTagToPassword
	call	?begin@?$_Tree@V?$_Tmap_traits@V?$basic_string@GU?$char_traits@G@std@@V?$allocator@G@2@@std@@UTAG_DATA@Rename@@U?$less@V?$basic_string@GU?$char_traits@G@std@@V?$allocator@G@2@@std@@@2@V?$allocator@U?$pair@$$CBV?$basic_string@GU?$char_traits@G@std@@V?$allocator@G@2@@std@@UTAG_DATA@Rename@@@std@@@2@$0A@@std@@@std@@QAE?AViterator@12@XZ ; std::_Tree<std::_Tmap_traits<std::basic_string<unsigned short,std::char_traits<unsigned short>,std::allocator<unsigned short> >,Rename::TAG_DATA,std::less<std::basic_string<unsigned short,std::char_traits<unsigned short>,std::allocator<unsigned short> > >,std::allocator<std::pair<std::basic_string<unsigned short,std::char_traits<unsigned short>,std::allocator<unsigned short> > const ,Rename::TAG_DATA> >,0> >::begin
	jmp	SHORT $LN10@CreateNewC
$LN9@CreateNewC:
	lea	ecx, DWORD PTR _i$142773[ebp]
	call	??Eiterator@?$_Tree@V?$_Tmap_traits@V?$basic_string@GU?$char_traits@G@std@@V?$allocator@G@2@@std@@UTAG_DATA@Rename@@U?$less@V?$basic_string@GU?$char_traits@G@std@@V?$allocator@G@2@@std@@@2@V?$allocator@U?$pair@$$CBV?$basic_string@GU?$char_traits@G@std@@V?$allocator@G@2@@std@@UTAG_DATA@Rename@@@std@@@2@$0A@@std@@@std@@QAEAAV012@XZ ; std::_Tree<std::_Tmap_traits<std::basic_string<unsigned short,std::char_traits<unsigned short>,std::allocator<unsigned short> >,Rename::TAG_DATA,std::less<std::basic_string<unsigned short,std::char_traits<unsigned short>,std::allocator<unsigned short> > >,std::allocator<std::pair<std::basic_string<unsigned short,std::char_traits<unsigned short>,std::allocator<unsigned short> > const ,Rename::TAG_DATA> >,0> >::iterator::operator++
$LN10@CreateNewC:
	lea	eax, DWORD PTR $T150933[ebp]
	push	eax
	mov	ecx, OFFSET ?mapTagToPassword@Rename@@3V?$map@V?$basic_string@GU?$char_traits@G@std@@V?$allocator@G@2@@std@@UTAG_DATA@Rename@@U?$less@V?$basic_string@GU?$char_traits@G@std@@V?$allocator@G@2@@std@@@2@V?$allocator@U?$pair@$$CBV?$basic_string@GU?$char_traits@G@std@@V?$allocator@G@2@@std@@UTAG_DATA@Rename@@@std@@@2@@std@@A ; Rename::mapTagToPassword
	call	?end@?$_Tree@V?$_Tmap_traits@V?$basic_string@GU?$char_traits@G@std@@V?$allocator@G@2@@std@@UTAG_DATA@Rename@@U?$less@V?$basic_string@GU?$char_traits@G@std@@V?$allocator@G@2@@std@@@2@V?$allocator@U?$pair@$$CBV?$basic_string@GU?$char_traits@G@std@@V?$allocator@G@2@@std@@UTAG_DATA@Rename@@@std@@@2@$0A@@std@@@std@@QAE?AViterator@12@XZ ; std::_Tree<std::_Tmap_traits<std::basic_string<unsigned short,std::char_traits<unsigned short>,std::allocator<unsigned short> >,Rename::TAG_DATA,std::less<std::basic_string<unsigned short,std::char_traits<unsigned short>,std::allocator<unsigned short> > >,std::allocator<std::pair<std::basic_string<unsigned short,std::char_traits<unsigned short>,std::allocator<unsigned short> > const ,Rename::TAG_DATA> >,0> >::end
	push	eax
	lea	ecx, DWORD PTR _i$142773[ebp]
	call	??9const_iterator@?$_Tree@V?$_Tmap_traits@V?$basic_string@GU?$char_traits@G@std@@V?$allocator@G@2@@std@@UTAG_DATA@Rename@@U?$less@V?$basic_string@GU?$char_traits@G@std@@V?$allocator@G@2@@std@@@2@V?$allocator@U?$pair@$$CBV?$basic_string@GU?$char_traits@G@std@@V?$allocator@G@2@@std@@UTAG_DATA@Rename@@@std@@@2@$0A@@std@@@std@@QBE_NABV012@@Z ; std::_Tree<std::_Tmap_traits<std::basic_string<unsigned short,std::char_traits<unsigned short>,std::allocator<unsigned short> >,Rename::TAG_DATA,std::less<std::basic_string<unsigned short,std::char_traits<unsigned short>,std::allocator<unsigned short> > >,std::allocator<std::pair<std::basic_string<unsigned short,std::char_traits<unsigned short>,std::allocator<unsigned short> > const ,Rename::TAG_DATA> >,0> >::const_iterator::operator!=
	movzx	ecx, al
	test	ecx, ecx
	je	SHORT $LN8@CreateNewC
; Line 177
	push	0
	lea	ecx, DWORD PTR _i$142773[ebp]
	call	??Citerator@?$_Tree@V?$_Tmap_traits@V?$basic_string@GU?$char_traits@G@std@@V?$allocator@G@2@@std@@UTAG_DATA@Rename@@U?$less@V?$basic_string@GU?$char_traits@G@std@@V?$allocator@G@2@@std@@@2@V?$allocator@U?$pair@$$CBV?$basic_string@GU?$char_traits@G@std@@V?$allocator@G@2@@std@@UTAG_DATA@Rename@@@std@@@2@$0A@@std@@@std@@QBEPAU?$pair@$$CBV?$basic_string@GU?$char_traits@G@std@@V?$allocator@G@2@@std@@UTAG_DATA@Rename@@@2@XZ ; std::_Tree<std::_Tmap_traits<std::basic_string<unsigned short,std::char_traits<unsigned short>,std::allocator<unsigned short> >,Rename::TAG_DATA,std::less<std::basic_string<unsigned short,std::char_traits<unsigned short>,std::allocator<unsigned short> > >,std::allocator<std::pair<std::basic_string<unsigned short,std::char_traits<unsigned short>,std::allocator<unsigned short> > const ,Rename::TAG_DATA> >,0> >::iterator::operator->
	add	eax, 28					; 0000001cH
	push	eax
	lea	ecx, DWORD PTR _wscCharname$142759[ebp]
	call	DWORD PTR __imp_?find@?$basic_string@GU?$char_traits@G@std@@V?$allocator@G@2@@std@@QBEIABV12@I@Z
	test	eax, eax
	jne	SHORT $LN7@CreateNewC
	lea	ecx, DWORD PTR _i$142773[ebp]
	call	??Citerator@?$_Tree@V?$_Tmap_traits@V?$basic_string@GU?$char_traits@G@std@@V?$allocator@G@2@@std@@UTAG_DATA@Rename@@U?$less@V?$basic_string@GU?$char_traits@G@std@@V?$allocator@G@2@@std@@@2@V?$allocator@U?$pair@$$CBV?$basic_string@GU?$char_traits@G@std@@V?$allocator@G@2@@std@@UTAG_DATA@Rename@@@std@@@2@$0A@@std@@@std@@QBEPAU?$pair@$$CBV?$basic_string@GU?$char_traits@G@std@@V?$allocator@G@2@@std@@UTAG_DATA@Rename@@@2@XZ ; std::_Tree<std::_Tmap_traits<std::basic_string<unsigned short,std::char_traits<unsigned short>,std::allocator<unsigned short> >,Rename::TAG_DATA,std::less<std::basic_string<unsigned short,std::char_traits<unsigned short>,std::allocator<unsigned short> > >,std::allocator<std::pair<std::basic_string<unsigned short,std::char_traits<unsigned short>,std::allocator<unsigned short> > const ,Rename::TAG_DATA> >,0> >::iterator::operator->
	add	eax, 84					; 00000054H
	mov	ecx, eax
	call	DWORD PTR __imp_?size@?$basic_string@GU?$char_traits@G@std@@V?$allocator@G@2@@std@@QBEIXZ
	test	eax, eax
	je	SHORT $LN7@CreateNewC
; Line 179
	push	1
	mov	edx, DWORD PTR _iClientID$[ebp]
	push	edx
	mov	ecx, DWORD PTR __imp__Server
	call	DWORD PTR __imp_?CharacterInfoReq@IServerImpl@@UAEXI_N@Z
; Line 180
	mov	BYTE PTR $T150934[ebp], 1
	mov	DWORD PTR __$EHRec$[ebp+8], -1
	lea	ecx, DWORD PTR _wscCharname$142759[ebp]
	call	DWORD PTR __imp_??1?$basic_string@GU?$char_traits@G@std@@V?$allocator@G@2@@std@@QAE@XZ
	mov	al, BYTE PTR $T150934[ebp]
	jmp	$LN12@CreateNewC
$LN7@CreateNewC:
; Line 182
	jmp	$LN9@CreateNewC
$LN8@CreateNewC:
; Line 185
	lea	ecx, DWORD PTR _wscCharname$142759[ebp]
	call	DWORD PTR __imp_?size@?$basic_string@GU?$char_traits@G@std@@V?$allocator@G@2@@std@@QBEIXZ
	cmp	eax, 4
	jae	SHORT $LN6@CreateNewC
; Line 187
	push	1
	mov	eax, DWORD PTR _iClientID$[ebp]
	push	eax
	mov	ecx, DWORD PTR __imp__Server
	call	DWORD PTR __imp_?CharacterInfoReq@IServerImpl@@UAEXI_N@Z
; Line 188
	mov	BYTE PTR $T150935[ebp], 1
	mov	DWORD PTR __$EHRec$[ebp+8], -1
	lea	ecx, DWORD PTR _wscCharname$142759[ebp]
	call	DWORD PTR __imp_??1?$basic_string@GU?$char_traits@G@std@@V?$allocator@G@2@@std@@QAE@XZ
	mov	al, BYTE PTR $T150935[ebp]
	jmp	$LN12@CreateNewC
$LN6@CreateNewC:
; Line 190
	mov	DWORD PTR __$EHRec$[ebp+8], -1
	lea	ecx, DWORD PTR _wscCharname$142759[ebp]
	call	DWORD PTR __imp_??1?$basic_string@GU?$char_traits@G@std@@V?$allocator@G@2@@std@@QAE@XZ
$LN11@CreateNewC:
; Line 192
	movzx	ecx, BYTE PTR ?set_bAsciiCharnameOnly@Rename@@3_NA ; Rename::set_bAsciiCharnameOnly
	test	ecx, ecx
	je	SHORT $LN5@CreateNewC
; Line 194
	mov	edx, DWORD PTR _si$[ebp]
	push	edx
	lea	ecx, DWORD PTR _wscCharname$142784[ebp]
	call	DWORD PTR __imp_??0?$basic_string@GU?$char_traits@G@std@@V?$allocator@G@2@@std@@QAE@PBG@Z
	mov	DWORD PTR __$EHRec$[ebp+8], 1
; Line 195
	mov	DWORD PTR _i$142785[ebp], 0
	jmp	SHORT $LN4@CreateNewC
$LN3@CreateNewC:
	mov	eax, DWORD PTR _i$142785[ebp]
	add	eax, 1
	mov	DWORD PTR _i$142785[ebp], eax
$LN4@CreateNewC:
	lea	ecx, DWORD PTR _wscCharname$142784[ebp]
	call	DWORD PTR __imp_?size@?$basic_string@GU?$char_traits@G@std@@V?$allocator@G@2@@std@@QBEIXZ
	cmp	DWORD PTR _i$142785[ebp], eax
	jae	SHORT $LN2@CreateNewC
; Line 197
	mov	ecx, DWORD PTR _i$142785[ebp]
	push	ecx
	lea	ecx, DWORD PTR _wscCharname$142784[ebp]
	call	DWORD PTR __imp_??A?$basic_string@GU?$char_traits@G@std@@V?$allocator@G@2@@std@@QAEAAGI@Z
	mov	dx, WORD PTR [eax]
	mov	WORD PTR _ch$142789[ebp], dx
; Line 198
	movzx	eax, WORD PTR _ch$142789[ebp]
	and	eax, 65408				; 0000ff80H
	je	SHORT $LN1@CreateNewC
; Line 199
	mov	BYTE PTR $T150936[ebp], 1
	mov	DWORD PTR __$EHRec$[ebp+8], -1
	lea	ecx, DWORD PTR _wscCharname$142784[ebp]
	call	DWORD PTR __imp_??1?$basic_string@GU?$char_traits@G@std@@V?$allocator@G@2@@std@@QAE@XZ
	mov	al, BYTE PTR $T150936[ebp]
	jmp	SHORT $LN12@CreateNewC
$LN1@CreateNewC:
; Line 200
	jmp	SHORT $LN3@CreateNewC
$LN2@CreateNewC:
; Line 201
	mov	DWORD PTR __$EHRec$[ebp+8], -1
	lea	ecx, DWORD PTR _wscCharname$142784[ebp]
	call	DWORD PTR __imp_??1?$basic_string@GU?$char_traits@G@std@@V?$allocator@G@2@@std@@QAE@XZ
$LN5@CreateNewC:
; Line 203
	xor	al, al
$LN12@CreateNewC:
; Line 204
	mov	ecx, DWORD PTR __$EHRec$[ebp]
	mov	DWORD PTR fs:0, ecx
	pop	ecx
	mov	ecx, DWORD PTR __$ArrayPad$[ebp]
	xor	ecx, ebp
	call	@__security_check_cookie@4
	mov	esp, ebp
	pop	ebp
	ret	0
_TEXT	ENDS
text$x	SEGMENT
__unwindfunclet$?CreateNewCharacter@Rename@@YA_NABUSCreateCharacterInfo@@I@Z$0:
	lea	ecx, DWORD PTR _wscCharname$142759[ebp]
	jmp	DWORD PTR __imp_??1?$basic_string@GU?$char_traits@G@std@@V?$allocator@G@2@@std@@QAE@XZ
__unwindfunclet$?CreateNewCharacter@Rename@@YA_NABUSCreateCharacterInfo@@I@Z$1:
	lea	ecx, DWORD PTR _wscCharname$142784[ebp]
	jmp	DWORD PTR __imp_??1?$basic_string@GU?$char_traits@G@std@@V?$allocator@G@2@@std@@QAE@XZ
__ehhandler$?CreateNewCharacter@Rename@@YA_NABUSCreateCharacterInfo@@I@Z:
	mov	edx, DWORD PTR [esp+8]
	lea	eax, DWORD PTR [edx+12]
	mov	ecx, DWORD PTR [edx-92]
	xor	ecx, eax
	call	@__security_check_cookie@4
	mov	ecx, DWORD PTR [edx-4]
	xor	ecx, eax
	call	@__security_check_cookie@4
	mov	eax, OFFSET __ehfuncinfo$?CreateNewCharacter@Rename@@YA_NABUSCreateCharacterInfo@@I@Z
	jmp	___CxxFrameHandler3
text$x	ENDS
?CreateNewCharacter@Rename@@YA_NABUSCreateCharacterInfo@@I@Z ENDP ; Rename::CreateNewCharacter
PUBLIC	__$ArrayPad$
PUBLIC	?CharacterSelect_AFTER@Rename@@YAXABUCHARACTER_ID@@I@Z ; Rename::CharacterSelect_AFTER
EXTRN	__imp_?GetActiveCharacterName@PlayerDB@@QBEPBGI@Z:PROC
EXTRN	__imp_?Players@@3VPlayerDB@@A:BYTE
xdata$x	SEGMENT
__unwindtable$?CharacterSelect_AFTER@Rename@@YAXABUCHARACTER_ID@@I@Z DD 0ffffffffH
	DD	FLAT:__unwindfunclet$?CharacterSelect_AFTER@Rename@@YAXABUCHARACTER_ID@@I@Z$0
__ehfuncinfo$?CharacterSelect_AFTER@Rename@@YAXABUCHARACTER_ID@@I@Z DD 019930522H
	DD	01H
	DD	FLAT:__unwindtable$?CharacterSelect_AFTER@Rename@@YAXABUCHARACTER_ID@@I@Z
	DD	2 DUP(00H)
	DD	2 DUP(00H)
	DD	00H
	DD	00H
; Function compile flags: /Odtp
xdata$x	ENDS
_TEXT	SEGMENT
$T150945 = -60						; size = 8
_i$142811 = -52						; size = 8
_wscCharname$142797 = -44				; size = 28
__$ArrayPad$ = -16					; size = 4
__$EHRec$ = -12						; size = 12
_charId$ = 8						; size = 4
_iClientID$ = 12					; size = 4
?CharacterSelect_AFTER@Rename@@YAXABUCHARACTER_ID@@I@Z PROC ; Rename::CharacterSelect_AFTER
; Line 209
	push	ebp
	mov	ebp, esp
	push	-1
	push	__ehhandler$?CharacterSelect_AFTER@Rename@@YAXABUCHARACTER_ID@@I@Z
	mov	eax, DWORD PTR fs:0
	push	eax
	sub	esp, 48					; 00000030H
	mov	eax, DWORD PTR ___security_cookie
	xor	eax, ebp
	mov	DWORD PTR __$ArrayPad$[ebp], eax
	push	esi
	push	eax
	lea	eax, DWORD PTR __$EHRec$[ebp]
	mov	DWORD PTR fs:0, eax
; Line 210
	movzx	eax, BYTE PTR ?set_bCharnameTags@Rename@@3_NA ; Rename::set_bCharnameTags
	test	eax, eax
	je	$LN6@CharacterS
; Line 212
	mov	ecx, DWORD PTR _iClientID$[ebp]
	push	ecx
	mov	ecx, DWORD PTR __imp_?Players@@3VPlayerDB@@A
	call	DWORD PTR __imp_?GetActiveCharacterName@PlayerDB@@QBEPBGI@Z
	push	eax
	lea	ecx, DWORD PTR _wscCharname$142797[ebp]
	call	DWORD PTR __imp_??0?$basic_string@GU?$char_traits@G@std@@V?$allocator@G@2@@std@@QAE@PBG@Z
	mov	DWORD PTR __$EHRec$[ebp+8], 0
; Line 213
	lea	edx, DWORD PTR _i$142811[ebp]
	push	edx
	mov	ecx, OFFSET ?mapTagToPassword@Rename@@3V?$map@V?$basic_string@GU?$char_traits@G@std@@V?$allocator@G@2@@std@@UTAG_DATA@Rename@@U?$less@V?$basic_string@GU?$char_traits@G@std@@V?$allocator@G@2@@std@@@2@V?$allocator@U?$pair@$$CBV?$basic_string@GU?$char_traits@G@std@@V?$allocator@G@2@@std@@UTAG_DATA@Rename@@@std@@@2@@std@@A ; Rename::mapTagToPassword
	call	?begin@?$_Tree@V?$_Tmap_traits@V?$basic_string@GU?$char_traits@G@std@@V?$allocator@G@2@@std@@UTAG_DATA@Rename@@U?$less@V?$basic_string@GU?$char_traits@G@std@@V?$allocator@G@2@@std@@@2@V?$allocator@U?$pair@$$CBV?$basic_string@GU?$char_traits@G@std@@V?$allocator@G@2@@std@@UTAG_DATA@Rename@@@std@@@2@$0A@@std@@@std@@QAE?AViterator@12@XZ ; std::_Tree<std::_Tmap_traits<std::basic_string<unsigned short,std::char_traits<unsigned short>,std::allocator<unsigned short> >,Rename::TAG_DATA,std::less<std::basic_string<unsigned short,std::char_traits<unsigned short>,std::allocator<unsigned short> > >,std::allocator<std::pair<std::basic_string<unsigned short,std::char_traits<unsigned short>,std::allocator<unsigned short> > const ,Rename::TAG_DATA> >,0> >::begin
	jmp	SHORT $LN4@CharacterS
$LN3@CharacterS:
	lea	ecx, DWORD PTR _i$142811[ebp]
	call	??Eiterator@?$_Tree@V?$_Tmap_traits@V?$basic_string@GU?$char_traits@G@std@@V?$allocator@G@2@@std@@UTAG_DATA@Rename@@U?$less@V?$basic_string@GU?$char_traits@G@std@@V?$allocator@G@2@@std@@@2@V?$allocator@U?$pair@$$CBV?$basic_string@GU?$char_traits@G@std@@V?$allocator@G@2@@std@@UTAG_DATA@Rename@@@std@@@2@$0A@@std@@@std@@QAEAAV012@XZ ; std::_Tree<std::_Tmap_traits<std::basic_string<unsigned short,std::char_traits<unsigned short>,std::allocator<unsigned short> >,Rename::TAG_DATA,std::less<std::basic_string<unsigned short,std::char_traits<unsigned short>,std::allocator<unsigned short> > >,std::allocator<std::pair<std::basic_string<unsigned short,std::char_traits<unsigned short>,std::allocator<unsigned short> > const ,Rename::TAG_DATA> >,0> >::iterator::operator++
$LN4@CharacterS:
	lea	eax, DWORD PTR $T150945[ebp]
	push	eax
	mov	ecx, OFFSET ?mapTagToPassword@Rename@@3V?$map@V?$basic_string@GU?$char_traits@G@std@@V?$allocator@G@2@@std@@UTAG_DATA@Rename@@U?$less@V?$basic_string@GU?$char_traits@G@std@@V?$allocator@G@2@@std@@@2@V?$allocator@U?$pair@$$CBV?$basic_string@GU?$char_traits@G@std@@V?$allocator@G@2@@std@@UTAG_DATA@Rename@@@std@@@2@@std@@A ; Rename::mapTagToPassword
	call	?end@?$_Tree@V?$_Tmap_traits@V?$basic_string@GU?$char_traits@G@std@@V?$allocator@G@2@@std@@UTAG_DATA@Rename@@U?$less@V?$basic_string@GU?$char_traits@G@std@@V?$allocator@G@2@@std@@@2@V?$allocator@U?$pair@$$CBV?$basic_string@GU?$char_traits@G@std@@V?$allocator@G@2@@std@@UTAG_DATA@Rename@@@std@@@2@$0A@@std@@@std@@QAE?AViterator@12@XZ ; std::_Tree<std::_Tmap_traits<std::basic_string<unsigned short,std::char_traits<unsigned short>,std::allocator<unsigned short> >,Rename::TAG_DATA,std::less<std::basic_string<unsigned short,std::char_traits<unsigned short>,std::allocator<unsigned short> > >,std::allocator<std::pair<std::basic_string<unsigned short,std::char_traits<unsigned short>,std::allocator<unsigned short> > const ,Rename::TAG_DATA> >,0> >::end
	push	eax
	lea	ecx, DWORD PTR _i$142811[ebp]
	call	??9const_iterator@?$_Tree@V?$_Tmap_traits@V?$basic_string@GU?$char_traits@G@std@@V?$allocator@G@2@@std@@UTAG_DATA@Rename@@U?$less@V?$basic_string@GU?$char_traits@G@std@@V?$allocator@G@2@@std@@@2@V?$allocator@U?$pair@$$CBV?$basic_string@GU?$char_traits@G@std@@V?$allocator@G@2@@std@@UTAG_DATA@Rename@@@std@@@2@$0A@@std@@@std@@QBE_NABV012@@Z ; std::_Tree<std::_Tmap_traits<std::basic_string<unsigned short,std::char_traits<unsigned short>,std::allocator<unsigned short> >,Rename::TAG_DATA,std::less<std::basic_string<unsigned short,std::char_traits<unsigned short>,std::allocator<unsigned short> > >,std::allocator<std::pair<std::basic_string<unsigned short,std::char_traits<unsigned short>,std::allocator<unsigned short> > const ,Rename::TAG_DATA> >,0> >::const_iterator::operator!=
	movzx	ecx, al
	test	ecx, ecx
	je	SHORT $LN2@CharacterS
; Line 215
	push	0
	lea	ecx, DWORD PTR _i$142811[ebp]
	call	??Citerator@?$_Tree@V?$_Tmap_traits@V?$basic_string@GU?$char_traits@G@std@@V?$allocator@G@2@@std@@UTAG_DATA@Rename@@U?$less@V?$basic_string@GU?$char_traits@G@std@@V?$allocator@G@2@@std@@@2@V?$allocator@U?$pair@$$CBV?$basic_string@GU?$char_traits@G@std@@V?$allocator@G@2@@std@@UTAG_DATA@Rename@@@std@@@2@$0A@@std@@@std@@QBEPAU?$pair@$$CBV?$basic_string@GU?$char_traits@G@std@@V?$allocator@G@2@@std@@UTAG_DATA@Rename@@@2@XZ ; std::_Tree<std::_Tmap_traits<std::basic_string<unsigned short,std::char_traits<unsigned short>,std::allocator<unsigned short> >,Rename::TAG_DATA,std::less<std::basic_string<unsigned short,std::char_traits<unsigned short>,std::allocator<unsigned short> > >,std::allocator<std::pair<std::basic_string<unsigned short,std::char_traits<unsigned short>,std::allocator<unsigned short> > const ,Rename::TAG_DATA> >,0> >::iterator::operator->
	add	eax, 28					; 0000001cH
	push	eax
	lea	ecx, DWORD PTR _wscCharname$142797[ebp]
	call	DWORD PTR __imp_?find@?$basic_string@GU?$char_traits@G@std@@V?$allocator@G@2@@std@@QBEIABV12@I@Z
	test	eax, eax
	jne	SHORT $LN1@CharacterS
; Line 217
	push	0
	call	_time
	add	esp, 4
	mov	esi, eax
	lea	ecx, DWORD PTR _i$142811[ebp]
	call	??Citerator@?$_Tree@V?$_Tmap_traits@V?$basic_string@GU?$char_traits@G@std@@V?$allocator@G@2@@std@@UTAG_DATA@Rename@@U?$less@V?$basic_string@GU?$char_traits@G@std@@V?$allocator@G@2@@std@@@2@V?$allocator@U?$pair@$$CBV?$basic_string@GU?$char_traits@G@std@@V?$allocator@G@2@@std@@UTAG_DATA@Rename@@@std@@@2@$0A@@std@@@std@@QBEPAU?$pair@$$CBV?$basic_string@GU?$char_traits@G@std@@V?$allocator@G@2@@std@@UTAG_DATA@Rename@@@2@XZ ; std::_Tree<std::_Tmap_traits<std::basic_string<unsigned short,std::char_traits<unsigned short>,std::allocator<unsigned short> >,Rename::TAG_DATA,std::less<std::basic_string<unsigned short,std::char_traits<unsigned short>,std::allocator<unsigned short> > >,std::allocator<std::pair<std::basic_string<unsigned short,std::char_traits<unsigned short>,std::allocator<unsigned short> > const ,Rename::TAG_DATA> >,0> >::iterator::operator->
	mov	DWORD PTR [eax+112], esi
$LN1@CharacterS:
; Line 219
	jmp	SHORT $LN3@CharacterS
$LN2@CharacterS:
; Line 220
	mov	DWORD PTR __$EHRec$[ebp+8], -1
	lea	ecx, DWORD PTR _wscCharname$142797[ebp]
	call	DWORD PTR __imp_??1?$basic_string@GU?$char_traits@G@std@@V?$allocator@G@2@@std@@QAE@XZ
$LN6@CharacterS:
; Line 221
	mov	ecx, DWORD PTR __$EHRec$[ebp]
	mov	DWORD PTR fs:0, ecx
	pop	ecx
	pop	esi
	mov	ecx, DWORD PTR __$ArrayPad$[ebp]
	xor	ecx, ebp
	call	@__security_check_cookie@4
	mov	esp, ebp
	pop	ebp
	ret	0
_TEXT	ENDS
text$x	SEGMENT
__unwindfunclet$?CharacterSelect_AFTER@Rename@@YAXABUCHARACTER_ID@@I@Z$0:
	lea	ecx, DWORD PTR _wscCharname$142797[ebp]
	jmp	DWORD PTR __imp_??1?$basic_string@GU?$char_traits@G@std@@V?$allocator@G@2@@std@@QAE@XZ
__ehhandler$?CharacterSelect_AFTER@Rename@@YAXABUCHARACTER_ID@@I@Z:
	mov	edx, DWORD PTR [esp+8]
	lea	eax, DWORD PTR [edx+12]
	mov	ecx, DWORD PTR [edx-56]
	xor	ecx, eax
	call	@__security_check_cookie@4
	mov	ecx, DWORD PTR [edx-4]
	xor	ecx, eax
	call	@__security_check_cookie@4
	mov	eax, OFFSET __ehfuncinfo$?CharacterSelect_AFTER@Rename@@YAXABUCHARACTER_ID@@I@Z
	jmp	___CxxFrameHandler3
text$x	ENDS
?CharacterSelect_AFTER@Rename@@YAXABUCHARACTER_ID@@I@Z ENDP ; Rename::CharacterSelect_AFTER
EXTRN	__imp___time64:PROC
; Function compile flags: /Odtp
_TEXT	SEGMENT
__Time$ = 8						; size = 4
_time	PROC
; File c:\program files (x86)\microsoft visual studio 9.0\vc\include\time.inl
; Line 134
	push	ebp
	mov	ebp, esp
; Line 135
	mov	eax, DWORD PTR __Time$[ebp]
	push	eax
	call	DWORD PTR __imp___time64
	add	esp, 4
; Line 136
	pop	ebp
	ret	0
_time	ENDP
_TEXT	ENDS
PUBLIC	__$ArrayPad$
PUBLIC	?UserCmd_MakeTag@Rename@@YA_NIABV?$basic_string@GU?$char_traits@G@std@@V?$allocator@G@2@@std@@0PBG@Z ; Rename::UserCmd_MakeTag
EXTRN	__imp_?AddLog@@YAXPBDZZ:PROC
EXTRN	__imp_?wstos@@YA?AV?$basic_string@DU?$char_traits@D@std@@V?$allocator@D@2@@std@@ABV?$basic_string@GU?$char_traits@G@std@@V?$allocator@G@2@@2@@Z:PROC
EXTRN	?HkGetAccountIDByClientID@@YA?AV?$basic_string@GU?$char_traits@G@std@@V?$allocator@G@2@@std@@I@Z:PROC ; HkGetAccountIDByClientID
EXTRN	__imp_?c_str@?$basic_string@GU?$char_traits@G@std@@V?$allocator@G@2@@std@@QBEPBGXZ:PROC
EXTRN	__imp_?HkAddCash@@YA?AW4HK_ERROR@@ABV?$basic_string@GU?$char_traits@G@std@@V?$allocator@G@2@@std@@H@Z:PROC
EXTRN	__imp_??$?HGU?$char_traits@G@std@@V?$allocator@G@1@@std@@YA?AV?$basic_string@GU?$char_traits@G@std@@V?$allocator@G@2@@0@PBGABV10@@Z:PROC
EXTRN	__imp_?HkErrGetText@@YA?AV?$basic_string@GU?$char_traits@G@std@@V?$allocator@G@2@@std@@W4HK_ERROR@@@Z:PROC
EXTRN	__imp_?HkGetCash@@YA?AW4HK_ERROR@@ABV?$basic_string@GU?$char_traits@G@std@@V?$allocator@G@2@@std@@AAH@Z:PROC
EXTRN	__imp_?HkGetClientIdFromCharname@@YAIABV?$basic_string@GU?$char_traits@G@std@@V?$allocator@G@2@@std@@@Z:PROC
EXTRN	__imp_?HkSaveChar@@YA?AW4HK_ERROR@@ABV?$basic_string@GU?$char_traits@G@std@@V?$allocator@G@2@@std@@@Z:PROC
EXTRN	?GetParamToEnd@@YA?AV?$basic_string@GU?$char_traits@G@std@@V?$allocator@G@2@@std@@ABV12@GI@Z:PROC ; GetParamToEnd
EXTRN	__imp_?GetParam@@YA?AV?$basic_string@GU?$char_traits@G@std@@V?$allocator@G@2@@std@@ABV12@GI@Z:PROC
EXTRN	__imp_?GetBase@Player@pub@@YAHABIAAI@Z:PROC
EXTRN	__imp_?PrintUserCmdText@@YAXIV?$basic_string@GU?$char_traits@G@std@@V?$allocator@G@2@@std@@ZZ:PROC
xdata$x	SEGMENT
__ehfuncinfo$?UserCmd_MakeTag@Rename@@YA_NIABV?$basic_string@GU?$char_traits@G@std@@V?$allocator@G@2@@std@@0PBG@Z DD 019930522H
	DD	016H
	DD	FLAT:__unwindtable$?UserCmd_MakeTag@Rename@@YA_NIABV?$basic_string@GU?$char_traits@G@std@@V?$allocator@G@2@@std@@0PBG@Z
	DD	2 DUP(00H)
	DD	2 DUP(00H)
	DD	00H
	DD	00H
__unwindtable$?UserCmd_MakeTag@Rename@@YA_NIABV?$basic_string@GU?$char_traits@G@std@@V?$allocator@G@2@@std@@0PBG@Z DD 0ffffffffH
	DD	FLAT:__unwindfunclet$?UserCmd_MakeTag@Rename@@YA_NIABV?$basic_string@GU?$char_traits@G@std@@V?$allocator@G@2@@std@@0PBG@Z$0
	DD	0ffffffffH
	DD	FLAT:__unwindfunclet$?UserCmd_MakeTag@Rename@@YA_NIABV?$basic_string@GU?$char_traits@G@std@@V?$allocator@G@2@@std@@0PBG@Z$1
	DD	0ffffffffH
	DD	FLAT:__unwindfunclet$?UserCmd_MakeTag@Rename@@YA_NIABV?$basic_string@GU?$char_traits@G@std@@V?$allocator@G@2@@std@@0PBG@Z$2
	DD	0ffffffffH
	DD	FLAT:__unwindfunclet$?UserCmd_MakeTag@Rename@@YA_NIABV?$basic_string@GU?$char_traits@G@std@@V?$allocator@G@2@@std@@0PBG@Z$3
	DD	03H
	DD	FLAT:__unwindfunclet$?UserCmd_MakeTag@Rename@@YA_NIABV?$basic_string@GU?$char_traits@G@std@@V?$allocator@G@2@@std@@0PBG@Z$4
	DD	04H
	DD	FLAT:__unwindfunclet$?UserCmd_MakeTag@Rename@@YA_NIABV?$basic_string@GU?$char_traits@G@std@@V?$allocator@G@2@@std@@0PBG@Z$5
	DD	05H
	DD	FLAT:__unwindfunclet$?UserCmd_MakeTag@Rename@@YA_NIABV?$basic_string@GU?$char_traits@G@std@@V?$allocator@G@2@@std@@0PBG@Z$6
	DD	05H
	DD	FLAT:__unwindfunclet$?UserCmd_MakeTag@Rename@@YA_NIABV?$basic_string@GU?$char_traits@G@std@@V?$allocator@G@2@@std@@0PBG@Z$7
	DD	05H
	DD	FLAT:__unwindfunclet$?UserCmd_MakeTag@Rename@@YA_NIABV?$basic_string@GU?$char_traits@G@std@@V?$allocator@G@2@@std@@0PBG@Z$8
	DD	05H
	DD	FLAT:__unwindfunclet$?UserCmd_MakeTag@Rename@@YA_NIABV?$basic_string@GU?$char_traits@G@std@@V?$allocator@G@2@@std@@0PBG@Z$9
	DD	05H
	DD	FLAT:__unwindfunclet$?UserCmd_MakeTag@Rename@@YA_NIABV?$basic_string@GU?$char_traits@G@std@@V?$allocator@G@2@@std@@0PBG@Z$10
	DD	05H
	DD	FLAT:__unwindfunclet$?UserCmd_MakeTag@Rename@@YA_NIABV?$basic_string@GU?$char_traits@G@std@@V?$allocator@G@2@@std@@0PBG@Z$11
	DD	05H
	DD	FLAT:__unwindfunclet$?UserCmd_MakeTag@Rename@@YA_NIABV?$basic_string@GU?$char_traits@G@std@@V?$allocator@G@2@@std@@0PBG@Z$12
	DD	05H
	DD	FLAT:__unwindfunclet$?UserCmd_MakeTag@Rename@@YA_NIABV?$basic_string@GU?$char_traits@G@std@@V?$allocator@G@2@@std@@0PBG@Z$13
	DD	0dH
	DD	FLAT:__unwindfunclet$?UserCmd_MakeTag@Rename@@YA_NIABV?$basic_string@GU?$char_traits@G@std@@V?$allocator@G@2@@std@@0PBG@Z$14
	DD	0eH
	DD	FLAT:__unwindfunclet$?UserCmd_MakeTag@Rename@@YA_NIABV?$basic_string@GU?$char_traits@G@std@@V?$allocator@G@2@@std@@0PBG@Z$15
	DD	0dH
	DD	FLAT:__unwindfunclet$?UserCmd_MakeTag@Rename@@YA_NIABV?$basic_string@GU?$char_traits@G@std@@V?$allocator@G@2@@std@@0PBG@Z$16
	DD	0dH
	DD	FLAT:__unwindfunclet$?UserCmd_MakeTag@Rename@@YA_NIABV?$basic_string@GU?$char_traits@G@std@@V?$allocator@G@2@@std@@0PBG@Z$17
	DD	0dH
	DD	FLAT:__unwindfunclet$?UserCmd_MakeTag@Rename@@YA_NIABV?$basic_string@GU?$char_traits@G@std@@V?$allocator@G@2@@std@@0PBG@Z$18
	DD	012H
	DD	FLAT:__unwindfunclet$?UserCmd_MakeTag@Rename@@YA_NIABV?$basic_string@GU?$char_traits@G@std@@V?$allocator@G@2@@std@@0PBG@Z$19
	DD	013H
	DD	FLAT:__unwindfunclet$?UserCmd_MakeTag@Rename@@YA_NIABV?$basic_string@GU?$char_traits@G@std@@V?$allocator@G@2@@std@@0PBG@Z$20
	DD	014H
	DD	FLAT:__unwindfunclet$?UserCmd_MakeTag@Rename@@YA_NIABV?$basic_string@GU?$char_traits@G@std@@V?$allocator@G@2@@std@@0PBG@Z$21
; Function compile flags: /Odtp
xdata$x	ENDS
_TEXT	SEGMENT
tv560 = -520						; size = 4
tv588 = -516						; size = 4
tv558 = -512						; size = 4
tv587 = -508						; size = 4
tv556 = -504						; size = 4
tv586 = -500						; size = 4
tv554 = -496						; size = 4
tv585 = -492						; size = 4
tv552 = -488						; size = 4
tv583 = -484						; size = 4
tv544 = -480						; size = 4
tv581 = -476						; size = 4
tv538 = -472						; size = 4
tv579 = -468						; size = 4
tv536 = -464						; size = 4
tv327 = -460						; size = 4
tv526 = -456						; size = 4
tv577 = -452						; size = 4
tv521 = -448						; size = 4
tv575 = -444						; size = 4
tv519 = -440						; size = 4
tv573 = -436						; size = 4
tv514 = -432						; size = 4
tv571 = -428						; size = 4
tv512 = -424						; size = 4
tv569 = -420						; size = 4
tv507 = -416						; size = 4
tv149 = -412						; size = 4
tv505 = -408						; size = 4
tv161 = -404						; size = 4
tv500 = -400						; size = 4
tv567 = -396						; size = 4
tv498 = -392						; size = 4
tv566 = -388						; size = 4
tv496 = -384						; size = 4
tv565 = -380						; size = 4
$T150980 = -373						; size = 1
$T150979 = -372						; size = 28
$T150978 = -344						; size = 28
$T150977 = -316						; size = 28
$T150976 = -288						; size = 28
$T150975 = -260						; size = 4
$T150974 = -253						; size = 1
$T150973 = -252						; size = 4
$T150972 = -245						; size = 1
$T150971 = -244						; size = 28
$T150970 = -216						; size = 4
$T150969 = -210						; size = 1
$T150968 = -209						; size = 1
$T150967 = -208						; size = 4
$T150966 = -204						; size = 8
$T150965 = -193						; size = 1
$T150964 = -192						; size = 4
$T150963 = -188						; size = 4
$T150962 = -181						; size = 1
$T150961 = -180						; size = 4
$T150960 = -176						; size = 4
$T150959 = -169						; size = 1
$T150958 = -168						; size = 4
$T150957 = -164						; size = 4
$T150956 = -160						; size = 4
$T150955 = -156						; size = 4
$T150954 = -152						; size = 4
_i$142868 = -148					; size = 8
_pass$142836 = -140					; size = 28
_wscCharname$142879 = -112				; size = 28
_err$142883 = -84					; size = 4
_description$142838 = -80				; size = 28
_iBaseID$142830 = -52					; size = 4
_tag$142834 = -48					; size = 28
__$ArrayPad$ = -20					; size = 4
_iCash$142882 = -16					; size = 4
__$EHRec$ = -12						; size = 12
_iClientID$ = 8						; size = 4
_wscCmd$ = 12						; size = 4
_wscParam$ = 16						; size = 4
_usage$ = 20						; size = 4
?UserCmd_MakeTag@Rename@@YA_NIABV?$basic_string@GU?$char_traits@G@std@@V?$allocator@G@2@@std@@0PBG@Z PROC ; Rename::UserCmd_MakeTag
; File g:\max\bastelstube\github\fl-mod-flhook\plugins\playercntl_plugin\src\rename.cpp
; Line 224
	push	ebp
	mov	ebp, esp
	push	-1
	push	__ehhandler$?UserCmd_MakeTag@Rename@@YA_NIABV?$basic_string@GU?$char_traits@G@std@@V?$allocator@G@2@@std@@0PBG@Z
	mov	eax, DWORD PTR fs:0
	push	eax
	sub	esp, 508				; 000001fcH
	mov	eax, DWORD PTR ___security_cookie
	xor	eax, ebp
	mov	DWORD PTR __$ArrayPad$[ebp], eax
	push	esi
	push	eax
	lea	eax, DWORD PTR __$EHRec$[ebp]
	mov	DWORD PTR fs:0, eax
; Line 225
	movzx	eax, BYTE PTR ?set_bCharnameTags@Rename@@3_NA ; Rename::set_bCharnameTags
	test	eax, eax
	je	$LN14@UserCmd_Ma
; Line 229
	mov	ecx, DWORD PTR _wscParam$[ebp]
	call	DWORD PTR __imp_?size@?$basic_string@GU?$char_traits@G@std@@V?$allocator@G@2@@std@@QBEIXZ
	test	eax, eax
	jne	$LN13@UserCmd_Ma
; Line 231
	sub	esp, 28					; 0000001cH
	mov	ecx, esp
	mov	DWORD PTR $T150954[ebp], esp
	push	OFFSET $SG142828
	call	DWORD PTR __imp_??0?$basic_string@GU?$char_traits@G@std@@V?$allocator@G@2@@std@@QAE@PBG@Z
	mov	DWORD PTR tv565[ebp], eax
	mov	ecx, DWORD PTR tv565[ebp]
	mov	DWORD PTR tv496[ebp], ecx
	mov	DWORD PTR __$EHRec$[ebp+8], 0
	mov	edx, DWORD PTR _iClientID$[ebp]
	push	edx
	mov	DWORD PTR __$EHRec$[ebp+8], -1
	call	DWORD PTR __imp_?PrintUserCmdText@@YAXIV?$basic_string@GU?$char_traits@G@std@@V?$allocator@G@2@@std@@ZZ
	add	esp, 32					; 00000020H
; Line 232
	sub	esp, 28					; 0000001cH
	mov	ecx, esp
	mov	DWORD PTR $T150955[ebp], esp
	mov	eax, DWORD PTR _usage$[ebp]
	push	eax
	call	DWORD PTR __imp_??0?$basic_string@GU?$char_traits@G@std@@V?$allocator@G@2@@std@@QAE@PBG@Z
	mov	DWORD PTR tv566[ebp], eax
	mov	ecx, DWORD PTR tv566[ebp]
	mov	DWORD PTR tv498[ebp], ecx
	mov	DWORD PTR __$EHRec$[ebp+8], 1
	mov	edx, DWORD PTR _iClientID$[ebp]
	push	edx
	mov	DWORD PTR __$EHRec$[ebp+8], -1
	call	DWORD PTR __imp_?PrintUserCmdText@@YAXIV?$basic_string@GU?$char_traits@G@std@@V?$allocator@G@2@@std@@ZZ
	add	esp, 32					; 00000020H
; Line 233
	mov	al, 1
	jmp	$LN15@UserCmd_Ma
$LN13@UserCmd_Ma:
; Line 237
	lea	eax, DWORD PTR _iBaseID$142830[ebp]
	push	eax
	lea	ecx, DWORD PTR _iClientID$[ebp]
	push	ecx
	call	DWORD PTR __imp_?GetBase@Player@pub@@YAHABIAAI@Z
	add	esp, 8
; Line 238
	cmp	DWORD PTR _iBaseID$142830[ebp], 0
	jne	SHORT $LN12@UserCmd_Ma
; Line 240
	sub	esp, 28					; 0000001cH
	mov	ecx, esp
	mov	DWORD PTR $T150956[ebp], esp
	push	OFFSET $SG142833
	call	DWORD PTR __imp_??0?$basic_string@GU?$char_traits@G@std@@V?$allocator@G@2@@std@@QAE@PBG@Z
	mov	DWORD PTR tv567[ebp], eax
	mov	edx, DWORD PTR tv567[ebp]
	mov	DWORD PTR tv500[ebp], edx
	mov	DWORD PTR __$EHRec$[ebp+8], 2
	mov	eax, DWORD PTR _iClientID$[ebp]
	push	eax
	mov	DWORD PTR __$EHRec$[ebp+8], -1
	call	DWORD PTR __imp_?PrintUserCmdText@@YAXIV?$basic_string@GU?$char_traits@G@std@@V?$allocator@G@2@@std@@ZZ
	add	esp, 32					; 00000020H
; Line 241
	mov	al, 1
	jmp	$LN15@UserCmd_Ma
$LN12@UserCmd_Ma:
; Line 244
	push	0
	push	32					; 00000020H
	mov	ecx, DWORD PTR _wscParam$[ebp]
	push	ecx
	lea	edx, DWORD PTR _tag$142834[ebp]
	push	edx
	call	DWORD PTR __imp_?GetParam@@YA?AV?$basic_string@GU?$char_traits@G@std@@V?$allocator@G@2@@std@@ABV12@GI@Z
	add	esp, 16					; 00000010H
	mov	DWORD PTR __$EHRec$[ebp+8], 3
; Line 245
	push	1
	push	32					; 00000020H
	mov	eax, DWORD PTR _wscParam$[ebp]
	push	eax
	lea	ecx, DWORD PTR _pass$142836[ebp]
	push	ecx
	call	DWORD PTR __imp_?GetParam@@YA?AV?$basic_string@GU?$char_traits@G@std@@V?$allocator@G@2@@std@@ABV12@GI@Z
	add	esp, 16					; 00000010H
	mov	BYTE PTR __$EHRec$[ebp+8], 4
; Line 246
	push	2
	push	32					; 00000020H
	mov	edx, DWORD PTR _wscParam$[ebp]
	push	edx
	lea	eax, DWORD PTR _description$142838[ebp]
	push	eax
	call	?GetParamToEnd@@YA?AV?$basic_string@GU?$char_traits@G@std@@V?$allocator@G@2@@std@@ABV12@GI@Z ; GetParamToEnd
	add	esp, 16					; 00000010H
	mov	BYTE PTR __$EHRec$[ebp+8], 5
; Line 248
	lea	ecx, DWORD PTR _tag$142834[ebp]
	call	DWORD PTR __imp_?size@?$basic_string@GU?$char_traits@G@std@@V?$allocator@G@2@@std@@QBEIXZ
	cmp	eax, 3
	jae	$LN11@UserCmd_Ma
; Line 250
	sub	esp, 28					; 0000001cH
	mov	ecx, esp
	mov	DWORD PTR $T150957[ebp], esp
	push	OFFSET $SG142842
	call	DWORD PTR __imp_??0?$basic_string@GU?$char_traits@G@std@@V?$allocator@G@2@@std@@QAE@PBG@Z
	mov	DWORD PTR tv161[ebp], eax
	mov	ecx, DWORD PTR tv161[ebp]
	mov	DWORD PTR tv505[ebp], ecx
	mov	BYTE PTR __$EHRec$[ebp+8], 6
	mov	edx, DWORD PTR _iClientID$[ebp]
	push	edx
	mov	BYTE PTR __$EHRec$[ebp+8], 5
	call	DWORD PTR __imp_?PrintUserCmdText@@YAXIV?$basic_string@GU?$char_traits@G@std@@V?$allocator@G@2@@std@@ZZ
	add	esp, 32					; 00000020H
; Line 251
	sub	esp, 28					; 0000001cH
	mov	ecx, esp
	mov	DWORD PTR $T150958[ebp], esp
	mov	eax, DWORD PTR _usage$[ebp]
	push	eax
	call	DWORD PTR __imp_??0?$basic_string@GU?$char_traits@G@std@@V?$allocator@G@2@@std@@QAE@PBG@Z
	mov	DWORD PTR tv149[ebp], eax
	mov	ecx, DWORD PTR tv149[ebp]
	mov	DWORD PTR tv507[ebp], ecx
	mov	BYTE PTR __$EHRec$[ebp+8], 7
	mov	edx, DWORD PTR _iClientID$[ebp]
	push	edx
	mov	BYTE PTR __$EHRec$[ebp+8], 5
	call	DWORD PTR __imp_?PrintUserCmdText@@YAXIV?$basic_string@GU?$char_traits@G@std@@V?$allocator@G@2@@std@@ZZ
	add	esp, 32					; 00000020H
; Line 252
	mov	BYTE PTR $T150959[ebp], 1
	mov	BYTE PTR __$EHRec$[ebp+8], 4
	lea	ecx, DWORD PTR _description$142838[ebp]
	call	DWORD PTR __imp_??1?$basic_string@GU?$char_traits@G@std@@V?$allocator@G@2@@std@@QAE@XZ
	mov	BYTE PTR __$EHRec$[ebp+8], 3
	lea	ecx, DWORD PTR _pass$142836[ebp]
	call	DWORD PTR __imp_??1?$basic_string@GU?$char_traits@G@std@@V?$allocator@G@2@@std@@QAE@XZ
	mov	DWORD PTR __$EHRec$[ebp+8], -1
	lea	ecx, DWORD PTR _tag$142834[ebp]
	call	DWORD PTR __imp_??1?$basic_string@GU?$char_traits@G@std@@V?$allocator@G@2@@std@@QAE@XZ
	mov	al, BYTE PTR $T150959[ebp]
	jmp	$LN15@UserCmd_Ma
$LN11@UserCmd_Ma:
; Line 255
	lea	ecx, DWORD PTR _pass$142836[ebp]
	call	DWORD PTR __imp_?size@?$basic_string@GU?$char_traits@G@std@@V?$allocator@G@2@@std@@QBEIXZ
	test	eax, eax
	jne	$LN10@UserCmd_Ma
; Line 257
	sub	esp, 28					; 0000001cH
	mov	ecx, esp
	mov	DWORD PTR $T150960[ebp], esp
	push	OFFSET $SG142847
	call	DWORD PTR __imp_??0?$basic_string@GU?$char_traits@G@std@@V?$allocator@G@2@@std@@QAE@PBG@Z
	mov	DWORD PTR tv569[ebp], eax
	mov	eax, DWORD PTR tv569[ebp]
	mov	DWORD PTR tv512[ebp], eax
	mov	BYTE PTR __$EHRec$[ebp+8], 8
	mov	ecx, DWORD PTR _iClientID$[ebp]
	push	ecx
	mov	BYTE PTR __$EHRec$[ebp+8], 5
	call	DWORD PTR __imp_?PrintUserCmdText@@YAXIV?$basic_string@GU?$char_traits@G@std@@V?$allocator@G@2@@std@@ZZ
	add	esp, 32					; 00000020H
; Line 258
	sub	esp, 28					; 0000001cH
	mov	ecx, esp
	mov	DWORD PTR $T150961[ebp], esp
	mov	edx, DWORD PTR _usage$[ebp]
	push	edx
	call	DWORD PTR __imp_??0?$basic_string@GU?$char_traits@G@std@@V?$allocator@G@2@@std@@QAE@PBG@Z
	mov	DWORD PTR tv571[ebp], eax
	mov	eax, DWORD PTR tv571[ebp]
	mov	DWORD PTR tv514[ebp], eax
	mov	BYTE PTR __$EHRec$[ebp+8], 9
	mov	ecx, DWORD PTR _iClientID$[ebp]
	push	ecx
	mov	BYTE PTR __$EHRec$[ebp+8], 5
	call	DWORD PTR __imp_?PrintUserCmdText@@YAXIV?$basic_string@GU?$char_traits@G@std@@V?$allocator@G@2@@std@@ZZ
	add	esp, 32					; 00000020H
; Line 259
	mov	BYTE PTR $T150962[ebp], 1
	mov	BYTE PTR __$EHRec$[ebp+8], 4
	lea	ecx, DWORD PTR _description$142838[ebp]
	call	DWORD PTR __imp_??1?$basic_string@GU?$char_traits@G@std@@V?$allocator@G@2@@std@@QAE@XZ
	mov	BYTE PTR __$EHRec$[ebp+8], 3
	lea	ecx, DWORD PTR _pass$142836[ebp]
	call	DWORD PTR __imp_??1?$basic_string@GU?$char_traits@G@std@@V?$allocator@G@2@@std@@QAE@XZ
	mov	DWORD PTR __$EHRec$[ebp+8], -1
	lea	ecx, DWORD PTR _tag$142834[ebp]
	call	DWORD PTR __imp_??1?$basic_string@GU?$char_traits@G@std@@V?$allocator@G@2@@std@@QAE@XZ
	mov	al, BYTE PTR $T150962[ebp]
	jmp	$LN15@UserCmd_Ma
$LN10@UserCmd_Ma:
; Line 262
	lea	ecx, DWORD PTR _description$142838[ebp]
	call	DWORD PTR __imp_?size@?$basic_string@GU?$char_traits@G@std@@V?$allocator@G@2@@std@@QBEIXZ
	test	eax, eax
	jne	$LN9@UserCmd_Ma
; Line 264
	sub	esp, 28					; 0000001cH
	mov	ecx, esp
	mov	DWORD PTR $T150963[ebp], esp
	push	OFFSET $SG142852
	call	DWORD PTR __imp_??0?$basic_string@GU?$char_traits@G@std@@V?$allocator@G@2@@std@@QAE@PBG@Z
	mov	DWORD PTR tv573[ebp], eax
	mov	edx, DWORD PTR tv573[ebp]
	mov	DWORD PTR tv519[ebp], edx
	mov	BYTE PTR __$EHRec$[ebp+8], 10		; 0000000aH
	mov	eax, DWORD PTR _iClientID$[ebp]
	push	eax
	mov	BYTE PTR __$EHRec$[ebp+8], 5
	call	DWORD PTR __imp_?PrintUserCmdText@@YAXIV?$basic_string@GU?$char_traits@G@std@@V?$allocator@G@2@@std@@ZZ
	add	esp, 32					; 00000020H
; Line 265
	sub	esp, 28					; 0000001cH
	mov	ecx, esp
	mov	DWORD PTR $T150964[ebp], esp
	mov	edx, DWORD PTR _usage$[ebp]
	push	edx
	call	DWORD PTR __imp_??0?$basic_string@GU?$char_traits@G@std@@V?$allocator@G@2@@std@@QAE@PBG@Z
	mov	DWORD PTR tv575[ebp], eax
	mov	eax, DWORD PTR tv575[ebp]
	mov	DWORD PTR tv521[ebp], eax
	mov	BYTE PTR __$EHRec$[ebp+8], 11		; 0000000bH
	mov	ecx, DWORD PTR _iClientID$[ebp]
	push	ecx
	mov	BYTE PTR __$EHRec$[ebp+8], 5
	call	DWORD PTR __imp_?PrintUserCmdText@@YAXIV?$basic_string@GU?$char_traits@G@std@@V?$allocator@G@2@@std@@ZZ
	add	esp, 32					; 00000020H
; Line 266
	mov	BYTE PTR $T150965[ebp], 1
	mov	BYTE PTR __$EHRec$[ebp+8], 4
	lea	ecx, DWORD PTR _description$142838[ebp]
	call	DWORD PTR __imp_??1?$basic_string@GU?$char_traits@G@std@@V?$allocator@G@2@@std@@QAE@XZ
	mov	BYTE PTR __$EHRec$[ebp+8], 3
	lea	ecx, DWORD PTR _pass$142836[ebp]
	call	DWORD PTR __imp_??1?$basic_string@GU?$char_traits@G@std@@V?$allocator@G@2@@std@@QAE@XZ
	mov	DWORD PTR __$EHRec$[ebp+8], -1
	lea	ecx, DWORD PTR _tag$142834[ebp]
	call	DWORD PTR __imp_??1?$basic_string@GU?$char_traits@G@std@@V?$allocator@G@2@@std@@QAE@XZ
	mov	al, BYTE PTR $T150965[ebp]
	jmp	$LN15@UserCmd_Ma
$LN9@UserCmd_Ma:
; Line 270
	lea	edx, DWORD PTR _i$142868[ebp]
	push	edx
	mov	ecx, OFFSET ?mapTagToPassword@Rename@@3V?$map@V?$basic_string@GU?$char_traits@G@std@@V?$allocator@G@2@@std@@UTAG_DATA@Rename@@U?$less@V?$basic_string@GU?$char_traits@G@std@@V?$allocator@G@2@@std@@@2@V?$allocator@U?$pair@$$CBV?$basic_string@GU?$char_traits@G@std@@V?$allocator@G@2@@std@@UTAG_DATA@Rename@@@std@@@2@@std@@A ; Rename::mapTagToPassword
	call	?begin@?$_Tree@V?$_Tmap_traits@V?$basic_string@GU?$char_traits@G@std@@V?$allocator@G@2@@std@@UTAG_DATA@Rename@@U?$less@V?$basic_string@GU?$char_traits@G@std@@V?$allocator@G@2@@std@@@2@V?$allocator@U?$pair@$$CBV?$basic_string@GU?$char_traits@G@std@@V?$allocator@G@2@@std@@UTAG_DATA@Rename@@@std@@@2@$0A@@std@@@std@@QAE?AViterator@12@XZ ; std::_Tree<std::_Tmap_traits<std::basic_string<unsigned short,std::char_traits<unsigned short>,std::allocator<unsigned short> >,Rename::TAG_DATA,std::less<std::basic_string<unsigned short,std::char_traits<unsigned short>,std::allocator<unsigned short> > >,std::allocator<std::pair<std::basic_string<unsigned short,std::char_traits<unsigned short>,std::allocator<unsigned short> > const ,Rename::TAG_DATA> >,0> >::begin
	jmp	SHORT $LN8@UserCmd_Ma
$LN7@UserCmd_Ma:
	lea	ecx, DWORD PTR _i$142868[ebp]
	call	??Eiterator@?$_Tree@V?$_Tmap_traits@V?$basic_string@GU?$char_traits@G@std@@V?$allocator@G@2@@std@@UTAG_DATA@Rename@@U?$less@V?$basic_string@GU?$char_traits@G@std@@V?$allocator@G@2@@std@@@2@V?$allocator@U?$pair@$$CBV?$basic_string@GU?$char_traits@G@std@@V?$allocator@G@2@@std@@UTAG_DATA@Rename@@@std@@@2@$0A@@std@@@std@@QAEAAV012@XZ ; std::_Tree<std::_Tmap_traits<std::basic_string<unsigned short,std::char_traits<unsigned short>,std::allocator<unsigned short> >,Rename::TAG_DATA,std::less<std::basic_string<unsigned short,std::char_traits<unsigned short>,std::allocator<unsigned short> > >,std::allocator<std::pair<std::basic_string<unsigned short,std::char_traits<unsigned short>,std::allocator<unsigned short> > const ,Rename::TAG_DATA> >,0> >::iterator::operator++
$LN8@UserCmd_Ma:
	lea	eax, DWORD PTR $T150966[ebp]
	push	eax
	mov	ecx, OFFSET ?mapTagToPassword@Rename@@3V?$map@V?$basic_string@GU?$char_traits@G@std@@V?$allocator@G@2@@std@@UTAG_DATA@Rename@@U?$less@V?$basic_string@GU?$char_traits@G@std@@V?$allocator@G@2@@std@@@2@V?$allocator@U?$pair@$$CBV?$basic_string@GU?$char_traits@G@std@@V?$allocator@G@2@@std@@UTAG_DATA@Rename@@@std@@@2@@std@@A ; Rename::mapTagToPassword
	call	?end@?$_Tree@V?$_Tmap_traits@V?$basic_string@GU?$char_traits@G@std@@V?$allocator@G@2@@std@@UTAG_DATA@Rename@@U?$less@V?$basic_string@GU?$char_traits@G@std@@V?$allocator@G@2@@std@@@2@V?$allocator@U?$pair@$$CBV?$basic_string@GU?$char_traits@G@std@@V?$allocator@G@2@@std@@UTAG_DATA@Rename@@@std@@@2@$0A@@std@@@std@@QAE?AViterator@12@XZ ; std::_Tree<std::_Tmap_traits<std::basic_string<unsigned short,std::char_traits<unsigned short>,std::allocator<unsigned short> >,Rename::TAG_DATA,std::less<std::basic_string<unsigned short,std::char_traits<unsigned short>,std::allocator<unsigned short> > >,std::allocator<std::pair<std::basic_string<unsigned short,std::char_traits<unsigned short>,std::allocator<unsigned short> > const ,Rename::TAG_DATA> >,0> >::end
	push	eax
	lea	ecx, DWORD PTR _i$142868[ebp]
	call	??9const_iterator@?$_Tree@V?$_Tmap_traits@V?$basic_string@GU?$char_traits@G@std@@V?$allocator@G@2@@std@@UTAG_DATA@Rename@@U?$less@V?$basic_string@GU?$char_traits@G@std@@V?$allocator@G@2@@std@@@2@V?$allocator@U?$pair@$$CBV?$basic_string@GU?$char_traits@G@std@@V?$allocator@G@2@@std@@UTAG_DATA@Rename@@@std@@@2@$0A@@std@@@std@@QBE_NABV012@@Z ; std::_Tree<std::_Tmap_traits<std::basic_string<unsigned short,std::char_traits<unsigned short>,std::allocator<unsigned short> >,Rename::TAG_DATA,std::less<std::basic_string<unsigned short,std::char_traits<unsigned short>,std::allocator<unsigned short> > >,std::allocator<std::pair<std::basic_string<unsigned short,std::char_traits<unsigned short>,std::allocator<unsigned short> > const ,Rename::TAG_DATA> >,0> >::const_iterator::operator!=
	movzx	ecx, al
	test	ecx, ecx
	je	$LN6@UserCmd_Ma
; Line 272
	push	0
	lea	ecx, DWORD PTR _i$142868[ebp]
	call	??Citerator@?$_Tree@V?$_Tmap_traits@V?$basic_string@GU?$char_traits@G@std@@V?$allocator@G@2@@std@@UTAG_DATA@Rename@@U?$less@V?$basic_string@GU?$char_traits@G@std@@V?$allocator@G@2@@std@@@2@V?$allocator@U?$pair@$$CBV?$basic_string@GU?$char_traits@G@std@@V?$allocator@G@2@@std@@UTAG_DATA@Rename@@@std@@@2@$0A@@std@@@std@@QBEPAU?$pair@$$CBV?$basic_string@GU?$char_traits@G@std@@V?$allocator@G@2@@std@@UTAG_DATA@Rename@@@2@XZ ; std::_Tree<std::_Tmap_traits<std::basic_string<unsigned short,std::char_traits<unsigned short>,std::allocator<unsigned short> >,Rename::TAG_DATA,std::less<std::basic_string<unsigned short,std::char_traits<unsigned short>,std::allocator<unsigned short> > >,std::allocator<std::pair<std::basic_string<unsigned short,std::char_traits<unsigned short>,std::allocator<unsigned short> > const ,Rename::TAG_DATA> >,0> >::iterator::operator->
	add	eax, 28					; 0000001cH
	push	eax
	lea	ecx, DWORD PTR _tag$142834[ebp]
	call	DWORD PTR __imp_?find@?$basic_string@GU?$char_traits@G@std@@V?$allocator@G@2@@std@@QBEIABV12@I@Z
	test	eax, eax
	je	SHORT $LN4@UserCmd_Ma
	push	0
	lea	edx, DWORD PTR _tag$142834[ebp]
	push	edx
	lea	ecx, DWORD PTR _i$142868[ebp]
	call	??Citerator@?$_Tree@V?$_Tmap_traits@V?$basic_string@GU?$char_traits@G@std@@V?$allocator@G@2@@std@@UTAG_DATA@Rename@@U?$less@V?$basic_string@GU?$char_traits@G@std@@V?$allocator@G@2@@std@@@2@V?$allocator@U?$pair@$$CBV?$basic_string@GU?$char_traits@G@std@@V?$allocator@G@2@@std@@UTAG_DATA@Rename@@@std@@@2@$0A@@std@@@std@@QBEPAU?$pair@$$CBV?$basic_string@GU?$char_traits@G@std@@V?$allocator@G@2@@std@@UTAG_DATA@Rename@@@2@XZ ; std::_Tree<std::_Tmap_traits<std::basic_string<unsigned short,std::char_traits<unsigned short>,std::allocator<unsigned short> >,Rename::TAG_DATA,std::less<std::basic_string<unsigned short,std::char_traits<unsigned short>,std::allocator<unsigned short> > >,std::allocator<std::pair<std::basic_string<unsigned short,std::char_traits<unsigned short>,std::allocator<unsigned short> > const ,Rename::TAG_DATA> >,0> >::iterator::operator->
	add	eax, 28					; 0000001cH
	mov	ecx, eax
	call	DWORD PTR __imp_?find@?$basic_string@GU?$char_traits@G@std@@V?$allocator@G@2@@std@@QBEIABV12@I@Z
	test	eax, eax
	jne	SHORT $LN5@UserCmd_Ma
$LN4@UserCmd_Ma:
; Line 274
	sub	esp, 28					; 0000001cH
	mov	ecx, esp
	mov	DWORD PTR $T150967[ebp], esp
	push	OFFSET $SG142877
	call	DWORD PTR __imp_??0?$basic_string@GU?$char_traits@G@std@@V?$allocator@G@2@@std@@QAE@PBG@Z
	mov	DWORD PTR tv577[ebp], eax
	mov	eax, DWORD PTR tv577[ebp]
	mov	DWORD PTR tv526[ebp], eax
	mov	BYTE PTR __$EHRec$[ebp+8], 12		; 0000000cH
	mov	ecx, DWORD PTR _iClientID$[ebp]
	push	ecx
	mov	BYTE PTR __$EHRec$[ebp+8], 5
	call	DWORD PTR __imp_?PrintUserCmdText@@YAXIV?$basic_string@GU?$char_traits@G@std@@V?$allocator@G@2@@std@@ZZ
	add	esp, 32					; 00000020H
; Line 275
	mov	BYTE PTR $T150968[ebp], 1
	mov	BYTE PTR __$EHRec$[ebp+8], 4
	lea	ecx, DWORD PTR _description$142838[ebp]
	call	DWORD PTR __imp_??1?$basic_string@GU?$char_traits@G@std@@V?$allocator@G@2@@std@@QAE@XZ
	mov	BYTE PTR __$EHRec$[ebp+8], 3
	lea	ecx, DWORD PTR _pass$142836[ebp]
	call	DWORD PTR __imp_??1?$basic_string@GU?$char_traits@G@std@@V?$allocator@G@2@@std@@QAE@XZ
	mov	DWORD PTR __$EHRec$[ebp+8], -1
	lea	ecx, DWORD PTR _tag$142834[ebp]
	call	DWORD PTR __imp_??1?$basic_string@GU?$char_traits@G@std@@V?$allocator@G@2@@std@@QAE@XZ
	mov	al, BYTE PTR $T150968[ebp]
	jmp	$LN15@UserCmd_Ma
$LN5@UserCmd_Ma:
; Line 277
	jmp	$LN7@UserCmd_Ma
$LN6@UserCmd_Ma:
; Line 280
	mov	edx, DWORD PTR _iClientID$[ebp]
	push	edx
	mov	ecx, DWORD PTR __imp_?Players@@3VPlayerDB@@A
	call	DWORD PTR __imp_?GetActiveCharacterName@PlayerDB@@QBEPBGI@Z
	push	eax
	lea	ecx, DWORD PTR _wscCharname$142879[ebp]
	call	DWORD PTR __imp_??0?$basic_string@GU?$char_traits@G@std@@V?$allocator@G@2@@std@@QAE@PBG@Z
	mov	BYTE PTR __$EHRec$[ebp+8], 13		; 0000000dH
; Line 281
	lea	eax, DWORD PTR _wscCharname$142879[ebp]
	push	eax
	call	DWORD PTR __imp_?HkSaveChar@@YA?AW4HK_ERROR@@ABV?$basic_string@GU?$char_traits@G@std@@V?$allocator@G@2@@std@@@Z
	add	esp, 4
; Line 282
	lea	ecx, DWORD PTR _wscCharname$142879[ebp]
	push	ecx
	call	DWORD PTR __imp_?HkGetClientIdFromCharname@@YAIABV?$basic_string@GU?$char_traits@G@std@@V?$allocator@G@2@@std@@@Z
	add	esp, 4
	cmp	eax, -1
	jne	SHORT $LN3@UserCmd_Ma
; Line 283
	mov	BYTE PTR $T150969[ebp], 0
	mov	BYTE PTR __$EHRec$[ebp+8], 5
	lea	ecx, DWORD PTR _wscCharname$142879[ebp]
	call	DWORD PTR __imp_??1?$basic_string@GU?$char_traits@G@std@@V?$allocator@G@2@@std@@QAE@XZ
	mov	BYTE PTR __$EHRec$[ebp+8], 4
	lea	ecx, DWORD PTR _description$142838[ebp]
	call	DWORD PTR __imp_??1?$basic_string@GU?$char_traits@G@std@@V?$allocator@G@2@@std@@QAE@XZ
	mov	BYTE PTR __$EHRec$[ebp+8], 3
	lea	ecx, DWORD PTR _pass$142836[ebp]
	call	DWORD PTR __imp_??1?$basic_string@GU?$char_traits@G@std@@V?$allocator@G@2@@std@@QAE@XZ
	mov	DWORD PTR __$EHRec$[ebp+8], -1
	lea	ecx, DWORD PTR _tag$142834[ebp]
	call	DWORD PTR __imp_??1?$basic_string@GU?$char_traits@G@std@@V?$allocator@G@2@@std@@QAE@XZ
	mov	al, BYTE PTR $T150969[ebp]
	jmp	$LN15@UserCmd_Ma
$LN3@UserCmd_Ma:
; Line 287
	lea	edx, DWORD PTR _iCash$142882[ebp]
	push	edx
	lea	eax, DWORD PTR _wscCharname$142879[ebp]
	push	eax
	call	DWORD PTR __imp_?HkGetCash@@YA?AW4HK_ERROR@@ABV?$basic_string@GU?$char_traits@G@std@@V?$allocator@G@2@@std@@AAH@Z
	add	esp, 8
	mov	DWORD PTR _err$142883[ebp], eax
	cmp	DWORD PTR _err$142883[ebp], 0
	je	$LN2@UserCmd_Ma
; Line 289
	mov	ecx, DWORD PTR _err$142883[ebp]
	push	ecx
	lea	edx, DWORD PTR $T150971[ebp]
	push	edx
	call	DWORD PTR __imp_?HkErrGetText@@YA?AV?$basic_string@GU?$char_traits@G@std@@V?$allocator@G@2@@std@@W4HK_ERROR@@@Z
	add	esp, 8
	mov	DWORD PTR tv327[ebp], eax
	mov	eax, DWORD PTR tv327[ebp]
	mov	DWORD PTR tv536[ebp], eax
	mov	BYTE PTR __$EHRec$[ebp+8], 14		; 0000000eH
	sub	esp, 28					; 0000001cH
	mov	ecx, esp
	mov	DWORD PTR $T150970[ebp], esp
	mov	edx, DWORD PTR tv536[ebp]
	push	edx
	push	OFFSET $SG142888
	push	ecx
	call	DWORD PTR __imp_??$?HGU?$char_traits@G@std@@V?$allocator@G@1@@std@@YA?AV?$basic_string@GU?$char_traits@G@std@@V?$allocator@G@2@@0@PBGABV10@@Z
	add	esp, 12					; 0000000cH
	mov	DWORD PTR tv579[ebp], eax
	mov	eax, DWORD PTR tv579[ebp]
	mov	DWORD PTR tv538[ebp], eax
	mov	BYTE PTR __$EHRec$[ebp+8], 15		; 0000000fH
	mov	ecx, DWORD PTR _iClientID$[ebp]
	push	ecx
	mov	BYTE PTR __$EHRec$[ebp+8], 14		; 0000000eH
	call	DWORD PTR __imp_?PrintUserCmdText@@YAXIV?$basic_string@GU?$char_traits@G@std@@V?$allocator@G@2@@std@@ZZ
	add	esp, 32					; 00000020H
	mov	BYTE PTR __$EHRec$[ebp+8], 13		; 0000000dH
	lea	ecx, DWORD PTR $T150971[ebp]
	call	DWORD PTR __imp_??1?$basic_string@GU?$char_traits@G@std@@V?$allocator@G@2@@std@@QAE@XZ
; Line 290
	mov	BYTE PTR $T150972[ebp], 1
	mov	BYTE PTR __$EHRec$[ebp+8], 5
	lea	ecx, DWORD PTR _wscCharname$142879[ebp]
	call	DWORD PTR __imp_??1?$basic_string@GU?$char_traits@G@std@@V?$allocator@G@2@@std@@QAE@XZ
	mov	BYTE PTR __$EHRec$[ebp+8], 4
	lea	ecx, DWORD PTR _description$142838[ebp]
	call	DWORD PTR __imp_??1?$basic_string@GU?$char_traits@G@std@@V?$allocator@G@2@@std@@QAE@XZ
	mov	BYTE PTR __$EHRec$[ebp+8], 3
	lea	ecx, DWORD PTR _pass$142836[ebp]
	call	DWORD PTR __imp_??1?$basic_string@GU?$char_traits@G@std@@V?$allocator@G@2@@std@@QAE@XZ
	mov	DWORD PTR __$EHRec$[ebp+8], -1
	lea	ecx, DWORD PTR _tag$142834[ebp]
	call	DWORD PTR __imp_??1?$basic_string@GU?$char_traits@G@std@@V?$allocator@G@2@@std@@QAE@XZ
	mov	al, BYTE PTR $T150972[ebp]
	jmp	$LN15@UserCmd_Ma
$LN2@UserCmd_Ma:
; Line 292
	cmp	DWORD PTR ?set_iMakeTagCost@Rename@@3HA, 0 ; Rename::set_iMakeTagCost
	jle	$LN1@UserCmd_Ma
	mov	edx, DWORD PTR _iCash$142882[ebp]
	cmp	edx, DWORD PTR ?set_iMakeTagCost@Rename@@3HA ; Rename::set_iMakeTagCost
	jge	$LN1@UserCmd_Ma
; Line 294
	sub	esp, 28					; 0000001cH
	mov	ecx, esp
	mov	DWORD PTR $T150973[ebp], esp
	push	OFFSET $SG142892
	call	DWORD PTR __imp_??0?$basic_string@GU?$char_traits@G@std@@V?$allocator@G@2@@std@@QAE@PBG@Z
	mov	DWORD PTR tv581[ebp], eax
	mov	eax, DWORD PTR tv581[ebp]
	mov	DWORD PTR tv544[ebp], eax
	mov	BYTE PTR __$EHRec$[ebp+8], 16		; 00000010H
	mov	ecx, DWORD PTR _iClientID$[ebp]
	push	ecx
	mov	BYTE PTR __$EHRec$[ebp+8], 13		; 0000000dH
	call	DWORD PTR __imp_?PrintUserCmdText@@YAXIV?$basic_string@GU?$char_traits@G@std@@V?$allocator@G@2@@std@@ZZ
	add	esp, 32					; 00000020H
; Line 295
	mov	BYTE PTR $T150974[ebp], 1
	mov	BYTE PTR __$EHRec$[ebp+8], 5
	lea	ecx, DWORD PTR _wscCharname$142879[ebp]
	call	DWORD PTR __imp_??1?$basic_string@GU?$char_traits@G@std@@V?$allocator@G@2@@std@@QAE@XZ
	mov	BYTE PTR __$EHRec$[ebp+8], 4
	lea	ecx, DWORD PTR _description$142838[ebp]
	call	DWORD PTR __imp_??1?$basic_string@GU?$char_traits@G@std@@V?$allocator@G@2@@std@@QAE@XZ
	mov	BYTE PTR __$EHRec$[ebp+8], 3
	lea	ecx, DWORD PTR _pass$142836[ebp]
	call	DWORD PTR __imp_??1?$basic_string@GU?$char_traits@G@std@@V?$allocator@G@2@@std@@QAE@XZ
	mov	DWORD PTR __$EHRec$[ebp+8], -1
	lea	ecx, DWORD PTR _tag$142834[ebp]
	call	DWORD PTR __imp_??1?$basic_string@GU?$char_traits@G@std@@V?$allocator@G@2@@std@@QAE@XZ
	mov	al, BYTE PTR $T150974[ebp]
	jmp	$LN15@UserCmd_Ma
$LN1@UserCmd_Ma:
; Line 298
	xor	edx, edx
	sub	edx, DWORD PTR ?set_iMakeTagCost@Rename@@3HA ; Rename::set_iMakeTagCost
	push	edx
	lea	eax, DWORD PTR _wscCharname$142879[ebp]
	push	eax
	call	DWORD PTR __imp_?HkAddCash@@YA?AW4HK_ERROR@@ABV?$basic_string@GU?$char_traits@G@std@@V?$allocator@G@2@@std@@H@Z
	add	esp, 8
; Line 301
	lea	ecx, DWORD PTR _tag$142834[ebp]
	push	ecx
	lea	edx, DWORD PTR _tag$142834[ebp]
	push	edx
	mov	ecx, OFFSET ?mapTagToPassword@Rename@@3V?$map@V?$basic_string@GU?$char_traits@G@std@@V?$allocator@G@2@@std@@UTAG_DATA@Rename@@U?$less@V?$basic_string@GU?$char_traits@G@std@@V?$allocator@G@2@@std@@@2@V?$allocator@U?$pair@$$CBV?$basic_string@GU?$char_traits@G@std@@V?$allocator@G@2@@std@@UTAG_DATA@Rename@@@std@@@2@@std@@A ; Rename::mapTagToPassword
	call	??A?$map@V?$basic_string@GU?$char_traits@G@std@@V?$allocator@G@2@@std@@UTAG_DATA@Rename@@U?$less@V?$basic_string@GU?$char_traits@G@std@@V?$allocator@G@2@@std@@@2@V?$allocator@U?$pair@$$CBV?$basic_string@GU?$char_traits@G@std@@V?$allocator@G@2@@std@@UTAG_DATA@Rename@@@std@@@2@@std@@QAEAAUTAG_DATA@Rename@@ABV?$basic_string@GU?$char_traits@G@std@@V?$allocator@G@2@@1@@Z ; std::map<std::basic_string<unsigned short,std::char_traits<unsigned short>,std::allocator<unsigned short> >,Rename::TAG_DATA,std::less<std::basic_string<unsigned short,std::char_traits<unsigned short>,std::allocator<unsigned short> > >,std::allocator<std::pair<std::basic_string<unsigned short,std::char_traits<unsigned short>,std::allocator<unsigned short> > const ,Rename::TAG_DATA> > >::operator[]
	mov	ecx, eax
	call	DWORD PTR __imp_??4?$basic_string@GU?$char_traits@G@std@@V?$allocator@G@2@@std@@QAEAAV01@ABV01@@Z
; Line 302
	lea	eax, DWORD PTR _pass$142836[ebp]
	push	eax
	lea	ecx, DWORD PTR _tag$142834[ebp]
	push	ecx
	mov	ecx, OFFSET ?mapTagToPassword@Rename@@3V?$map@V?$basic_string@GU?$char_traits@G@std@@V?$allocator@G@2@@std@@UTAG_DATA@Rename@@U?$less@V?$basic_string@GU?$char_traits@G@std@@V?$allocator@G@2@@std@@@2@V?$allocator@U?$pair@$$CBV?$basic_string@GU?$char_traits@G@std@@V?$allocator@G@2@@std@@UTAG_DATA@Rename@@@std@@@2@@std@@A ; Rename::mapTagToPassword
	call	??A?$map@V?$basic_string@GU?$char_traits@G@std@@V?$allocator@G@2@@std@@UTAG_DATA@Rename@@U?$less@V?$basic_string@GU?$char_traits@G@std@@V?$allocator@G@2@@std@@@2@V?$allocator@U?$pair@$$CBV?$basic_string@GU?$char_traits@G@std@@V?$allocator@G@2@@std@@UTAG_DATA@Rename@@@std@@@2@@std@@QAEAAUTAG_DATA@Rename@@ABV?$basic_string@GU?$char_traits@G@std@@V?$allocator@G@2@@1@@Z ; std::map<std::basic_string<unsigned short,std::char_traits<unsigned short>,std::allocator<unsigned short> >,Rename::TAG_DATA,std::less<std::basic_string<unsigned short,std::char_traits<unsigned short>,std::allocator<unsigned short> > >,std::allocator<std::pair<std::basic_string<unsigned short,std::char_traits<unsigned short>,std::allocator<unsigned short> > const ,Rename::TAG_DATA> > >::operator[]
	add	eax, 28					; 0000001cH
	mov	ecx, eax
	call	DWORD PTR __imp_??4?$basic_string@GU?$char_traits@G@std@@V?$allocator@G@2@@std@@QAEAAV01@ABV01@@Z
; Line 303
	push	OFFSET $SG142894
	lea	edx, DWORD PTR _tag$142834[ebp]
	push	edx
	mov	ecx, OFFSET ?mapTagToPassword@Rename@@3V?$map@V?$basic_string@GU?$char_traits@G@std@@V?$allocator@G@2@@std@@UTAG_DATA@Rename@@U?$less@V?$basic_string@GU?$char_traits@G@std@@V?$allocator@G@2@@std@@@2@V?$allocator@U?$pair@$$CBV?$basic_string@GU?$char_traits@G@std@@V?$allocator@G@2@@std@@UTAG_DATA@Rename@@@std@@@2@@std@@A ; Rename::mapTagToPassword
	call	??A?$map@V?$basic_string@GU?$char_traits@G@std@@V?$allocator@G@2@@std@@UTAG_DATA@Rename@@U?$less@V?$basic_string@GU?$char_traits@G@std@@V?$allocator@G@2@@std@@@2@V?$allocator@U?$pair@$$CBV?$basic_string@GU?$char_traits@G@std@@V?$allocator@G@2@@std@@UTAG_DATA@Rename@@@std@@@2@@std@@QAEAAUTAG_DATA@Rename@@ABV?$basic_string@GU?$char_traits@G@std@@V?$allocator@G@2@@1@@Z ; std::map<std::basic_string<unsigned short,std::char_traits<unsigned short>,std::allocator<unsigned short> >,Rename::TAG_DATA,std::less<std::basic_string<unsigned short,std::char_traits<unsigned short>,std::allocator<unsigned short> > >,std::allocator<std::pair<std::basic_string<unsigned short,std::char_traits<unsigned short>,std::allocator<unsigned short> > const ,Rename::TAG_DATA> > >::operator[]
	add	eax, 56					; 00000038H
	mov	ecx, eax
	call	DWORD PTR __imp_??4?$basic_string@GU?$char_traits@G@std@@V?$allocator@G@2@@std@@QAEAAV01@PBG@Z
; Line 304
	push	0
	call	_time
	add	esp, 4
	mov	esi, eax
	lea	eax, DWORD PTR _tag$142834[ebp]
	push	eax
	mov	ecx, OFFSET ?mapTagToPassword@Rename@@3V?$map@V?$basic_string@GU?$char_traits@G@std@@V?$allocator@G@2@@std@@UTAG_DATA@Rename@@U?$less@V?$basic_string@GU?$char_traits@G@std@@V?$allocator@G@2@@std@@@2@V?$allocator@U?$pair@$$CBV?$basic_string@GU?$char_traits@G@std@@V?$allocator@G@2@@std@@UTAG_DATA@Rename@@@std@@@2@@std@@A ; Rename::mapTagToPassword
	call	??A?$map@V?$basic_string@GU?$char_traits@G@std@@V?$allocator@G@2@@std@@UTAG_DATA@Rename@@U?$less@V?$basic_string@GU?$char_traits@G@std@@V?$allocator@G@2@@std@@@2@V?$allocator@U?$pair@$$CBV?$basic_string@GU?$char_traits@G@std@@V?$allocator@G@2@@std@@UTAG_DATA@Rename@@@std@@@2@@std@@QAEAAUTAG_DATA@Rename@@ABV?$basic_string@GU?$char_traits@G@std@@V?$allocator@G@2@@1@@Z ; std::map<std::basic_string<unsigned short,std::char_traits<unsigned short>,std::allocator<unsigned short> >,Rename::TAG_DATA,std::less<std::basic_string<unsigned short,std::char_traits<unsigned short>,std::allocator<unsigned short> > >,std::allocator<std::pair<std::basic_string<unsigned short,std::char_traits<unsigned short>,std::allocator<unsigned short> > const ,Rename::TAG_DATA> > >::operator[]
	mov	DWORD PTR [eax+84], esi
; Line 305
	lea	ecx, DWORD PTR _description$142838[ebp]
	push	ecx
	lea	edx, DWORD PTR _tag$142834[ebp]
	push	edx
	mov	ecx, OFFSET ?mapTagToPassword@Rename@@3V?$map@V?$basic_string@GU?$char_traits@G@std@@V?$allocator@G@2@@std@@UTAG_DATA@Rename@@U?$less@V?$basic_string@GU?$char_traits@G@std@@V?$allocator@G@2@@std@@@2@V?$allocator@U?$pair@$$CBV?$basic_string@GU?$char_traits@G@std@@V?$allocator@G@2@@std@@UTAG_DATA@Rename@@@std@@@2@@std@@A ; Rename::mapTagToPassword
	call	??A?$map@V?$basic_string@GU?$char_traits@G@std@@V?$allocator@G@2@@std@@UTAG_DATA@Rename@@U?$less@V?$basic_string@GU?$char_traits@G@std@@V?$allocator@G@2@@std@@@2@V?$allocator@U?$pair@$$CBV?$basic_string@GU?$char_traits@G@std@@V?$allocator@G@2@@std@@UTAG_DATA@Rename@@@std@@@2@@std@@QAEAAUTAG_DATA@Rename@@ABV?$basic_string@GU?$char_traits@G@std@@V?$allocator@G@2@@1@@Z ; std::map<std::basic_string<unsigned short,std::char_traits<unsigned short>,std::allocator<unsigned short> >,Rename::TAG_DATA,std::less<std::basic_string<unsigned short,std::char_traits<unsigned short>,std::allocator<unsigned short> > >,std::allocator<std::pair<std::basic_string<unsigned short,std::char_traits<unsigned short>,std::allocator<unsigned short> > const ,Rename::TAG_DATA> > >::operator[]
	add	eax, 88					; 00000058H
	mov	ecx, eax
	call	DWORD PTR __imp_??4?$basic_string@GU?$char_traits@G@std@@V?$allocator@G@2@@std@@QAEAAV01@ABV01@@Z
; Line 307
	lea	ecx, DWORD PTR _pass$142836[ebp]
	call	DWORD PTR __imp_?c_str@?$basic_string@GU?$char_traits@G@std@@V?$allocator@G@2@@std@@QBEPBGXZ
	push	eax
	lea	ecx, DWORD PTR _tag$142834[ebp]
	call	DWORD PTR __imp_?c_str@?$basic_string@GU?$char_traits@G@std@@V?$allocator@G@2@@std@@QBEPBGXZ
	push	eax
	sub	esp, 28					; 0000001cH
	mov	ecx, esp
	mov	DWORD PTR $T150975[ebp], esp
	push	OFFSET $SG142897
	call	DWORD PTR __imp_??0?$basic_string@GU?$char_traits@G@std@@V?$allocator@G@2@@std@@QAE@PBG@Z
	mov	DWORD PTR tv583[ebp], eax
	mov	eax, DWORD PTR tv583[ebp]
	mov	DWORD PTR tv552[ebp], eax
	mov	BYTE PTR __$EHRec$[ebp+8], 17		; 00000011H
	mov	ecx, DWORD PTR _iClientID$[ebp]
	push	ecx
	mov	BYTE PTR __$EHRec$[ebp+8], 13		; 0000000dH
	call	DWORD PTR __imp_?PrintUserCmdText@@YAXIV?$basic_string@GU?$char_traits@G@std@@V?$allocator@G@2@@std@@ZZ
	add	esp, 40					; 00000028H
; Line 308
	mov	edx, DWORD PTR _iClientID$[ebp]
	push	edx
	lea	eax, DWORD PTR $T150976[ebp]
	push	eax
	call	?HkGetAccountIDByClientID@@YA?AV?$basic_string@GU?$char_traits@G@std@@V?$allocator@G@2@@std@@I@Z ; HkGetAccountIDByClientID
	add	esp, 8
	mov	DWORD PTR tv585[ebp], eax
	mov	ecx, DWORD PTR tv585[ebp]
	mov	DWORD PTR tv554[ebp], ecx
	mov	BYTE PTR __$EHRec$[ebp+8], 18		; 00000012H
	mov	edx, DWORD PTR tv554[ebp]
	push	edx
	lea	eax, DWORD PTR $T150977[ebp]
	push	eax
	call	DWORD PTR __imp_?wstos@@YA?AV?$basic_string@DU?$char_traits@D@std@@V?$allocator@D@2@@std@@ABV?$basic_string@GU?$char_traits@G@std@@V?$allocator@G@2@@2@@Z
	add	esp, 8
	mov	DWORD PTR tv586[ebp], eax
	mov	ecx, DWORD PTR tv586[ebp]
	mov	DWORD PTR tv556[ebp], ecx
	mov	BYTE PTR __$EHRec$[ebp+8], 19		; 00000013H
	mov	ecx, DWORD PTR tv556[ebp]
	call	DWORD PTR __imp_?c_str@?$basic_string@DU?$char_traits@D@std@@V?$allocator@D@2@@std@@QBEPBDXZ
	push	eax
	lea	edx, DWORD PTR _wscCharname$142879[ebp]
	push	edx
	lea	eax, DWORD PTR $T150978[ebp]
	push	eax
	call	DWORD PTR __imp_?wstos@@YA?AV?$basic_string@DU?$char_traits@D@std@@V?$allocator@D@2@@std@@ABV?$basic_string@GU?$char_traits@G@std@@V?$allocator@G@2@@2@@Z
	add	esp, 8
	mov	DWORD PTR tv587[ebp], eax
	mov	ecx, DWORD PTR tv587[ebp]
	mov	DWORD PTR tv558[ebp], ecx
	mov	BYTE PTR __$EHRec$[ebp+8], 20		; 00000014H
	mov	ecx, DWORD PTR tv558[ebp]
	call	DWORD PTR __imp_?c_str@?$basic_string@DU?$char_traits@D@std@@V?$allocator@D@2@@std@@QBEPBDXZ
	push	eax
	lea	edx, DWORD PTR _tag$142834[ebp]
	push	edx
	lea	eax, DWORD PTR $T150979[ebp]
	push	eax
	call	DWORD PTR __imp_?wstos@@YA?AV?$basic_string@DU?$char_traits@D@std@@V?$allocator@D@2@@std@@ABV?$basic_string@GU?$char_traits@G@std@@V?$allocator@G@2@@2@@Z
	add	esp, 8
	mov	DWORD PTR tv588[ebp], eax
	mov	ecx, DWORD PTR tv588[ebp]
	mov	DWORD PTR tv560[ebp], ecx
	mov	BYTE PTR __$EHRec$[ebp+8], 21		; 00000015H
	mov	ecx, DWORD PTR tv560[ebp]
	call	DWORD PTR __imp_?c_str@?$basic_string@DU?$char_traits@D@std@@V?$allocator@D@2@@std@@QBEPBDXZ
	push	eax
	push	OFFSET $SG142902
	call	DWORD PTR __imp_?AddLog@@YAXPBDZZ
	add	esp, 16					; 00000010H
	mov	BYTE PTR __$EHRec$[ebp+8], 20		; 00000014H
	lea	ecx, DWORD PTR $T150979[ebp]
	call	DWORD PTR __imp_??1?$basic_string@DU?$char_traits@D@std@@V?$allocator@D@2@@std@@QAE@XZ
	mov	BYTE PTR __$EHRec$[ebp+8], 19		; 00000013H
	lea	ecx, DWORD PTR $T150978[ebp]
	call	DWORD PTR __imp_??1?$basic_string@DU?$char_traits@D@std@@V?$allocator@D@2@@std@@QAE@XZ
	mov	BYTE PTR __$EHRec$[ebp+8], 18		; 00000012H
	lea	ecx, DWORD PTR $T150977[ebp]
	call	DWORD PTR __imp_??1?$basic_string@DU?$char_traits@D@std@@V?$allocator@D@2@@std@@QAE@XZ
	mov	BYTE PTR __$EHRec$[ebp+8], 13		; 0000000dH
	lea	ecx, DWORD PTR $T150976[ebp]
	call	DWORD PTR __imp_??1?$basic_string@GU?$char_traits@G@std@@V?$allocator@G@2@@std@@QAE@XZ
; Line 309
	call	?SaveSettings@Rename@@YAXXZ		; Rename::SaveSettings
; Line 310
	mov	BYTE PTR $T150980[ebp], 1
	mov	BYTE PTR __$EHRec$[ebp+8], 5
	lea	ecx, DWORD PTR _wscCharname$142879[ebp]
	call	DWORD PTR __imp_??1?$basic_string@GU?$char_traits@G@std@@V?$allocator@G@2@@std@@QAE@XZ
	mov	BYTE PTR __$EHRec$[ebp+8], 4
	lea	ecx, DWORD PTR _description$142838[ebp]
	call	DWORD PTR __imp_??1?$basic_string@GU?$char_traits@G@std@@V?$allocator@G@2@@std@@QAE@XZ
	mov	BYTE PTR __$EHRec$[ebp+8], 3
	lea	ecx, DWORD PTR _pass$142836[ebp]
	call	DWORD PTR __imp_??1?$basic_string@GU?$char_traits@G@std@@V?$allocator@G@2@@std@@QAE@XZ
	mov	DWORD PTR __$EHRec$[ebp+8], -1
	lea	ecx, DWORD PTR _tag$142834[ebp]
	call	DWORD PTR __imp_??1?$basic_string@GU?$char_traits@G@std@@V?$allocator@G@2@@std@@QAE@XZ
	mov	al, BYTE PTR $T150980[ebp]
	jmp	SHORT $LN15@UserCmd_Ma
$LN14@UserCmd_Ma:
; Line 312
	xor	al, al
$LN15@UserCmd_Ma:
; Line 313
	mov	ecx, DWORD PTR __$EHRec$[ebp]
	mov	DWORD PTR fs:0, ecx
	pop	ecx
	pop	esi
	mov	ecx, DWORD PTR __$ArrayPad$[ebp]
	xor	ecx, ebp
	call	@__security_check_cookie@4
	mov	esp, ebp
	pop	ebp
	ret	0
_TEXT	ENDS
text$x	SEGMENT
__unwindfunclet$?UserCmd_MakeTag@Rename@@YA_NIABV?$basic_string@GU?$char_traits@G@std@@V?$allocator@G@2@@std@@0PBG@Z$0:
	mov	ecx, DWORD PTR $T150954[ebp]
	jmp	DWORD PTR __imp_??1?$basic_string@GU?$char_traits@G@std@@V?$allocator@G@2@@std@@QAE@XZ
__unwindfunclet$?UserCmd_MakeTag@Rename@@YA_NIABV?$basic_string@GU?$char_traits@G@std@@V?$allocator@G@2@@std@@0PBG@Z$1:
	mov	ecx, DWORD PTR $T150955[ebp]
	jmp	DWORD PTR __imp_??1?$basic_string@GU?$char_traits@G@std@@V?$allocator@G@2@@std@@QAE@XZ
__unwindfunclet$?UserCmd_MakeTag@Rename@@YA_NIABV?$basic_string@GU?$char_traits@G@std@@V?$allocator@G@2@@std@@0PBG@Z$2:
	mov	ecx, DWORD PTR $T150956[ebp]
	jmp	DWORD PTR __imp_??1?$basic_string@GU?$char_traits@G@std@@V?$allocator@G@2@@std@@QAE@XZ
__unwindfunclet$?UserCmd_MakeTag@Rename@@YA_NIABV?$basic_string@GU?$char_traits@G@std@@V?$allocator@G@2@@std@@0PBG@Z$3:
	lea	ecx, DWORD PTR _tag$142834[ebp]
	jmp	DWORD PTR __imp_??1?$basic_string@GU?$char_traits@G@std@@V?$allocator@G@2@@std@@QAE@XZ
__unwindfunclet$?UserCmd_MakeTag@Rename@@YA_NIABV?$basic_string@GU?$char_traits@G@std@@V?$allocator@G@2@@std@@0PBG@Z$4:
	lea	ecx, DWORD PTR _pass$142836[ebp]
	jmp	DWORD PTR __imp_??1?$basic_string@GU?$char_traits@G@std@@V?$allocator@G@2@@std@@QAE@XZ
__unwindfunclet$?UserCmd_MakeTag@Rename@@YA_NIABV?$basic_string@GU?$char_traits@G@std@@V?$allocator@G@2@@std@@0PBG@Z$5:
	lea	ecx, DWORD PTR _description$142838[ebp]
	jmp	DWORD PTR __imp_??1?$basic_string@GU?$char_traits@G@std@@V?$allocator@G@2@@std@@QAE@XZ
__unwindfunclet$?UserCmd_MakeTag@Rename@@YA_NIABV?$basic_string@GU?$char_traits@G@std@@V?$allocator@G@2@@std@@0PBG@Z$6:
	mov	ecx, DWORD PTR $T150957[ebp]
	jmp	DWORD PTR __imp_??1?$basic_string@GU?$char_traits@G@std@@V?$allocator@G@2@@std@@QAE@XZ
__unwindfunclet$?UserCmd_MakeTag@Rename@@YA_NIABV?$basic_string@GU?$char_traits@G@std@@V?$allocator@G@2@@std@@0PBG@Z$7:
	mov	ecx, DWORD PTR $T150958[ebp]
	jmp	DWORD PTR __imp_??1?$basic_string@GU?$char_traits@G@std@@V?$allocator@G@2@@std@@QAE@XZ
__unwindfunclet$?UserCmd_MakeTag@Rename@@YA_NIABV?$basic_string@GU?$char_traits@G@std@@V?$allocator@G@2@@std@@0PBG@Z$8:
	mov	ecx, DWORD PTR $T150960[ebp]
	jmp	DWORD PTR __imp_??1?$basic_string@GU?$char_traits@G@std@@V?$allocator@G@2@@std@@QAE@XZ
__unwindfunclet$?UserCmd_MakeTag@Rename@@YA_NIABV?$basic_string@GU?$char_traits@G@std@@V?$allocator@G@2@@std@@0PBG@Z$9:
	mov	ecx, DWORD PTR $T150961[ebp]
	jmp	DWORD PTR __imp_??1?$basic_string@GU?$char_traits@G@std@@V?$allocator@G@2@@std@@QAE@XZ
__unwindfunclet$?UserCmd_MakeTag@Rename@@YA_NIABV?$basic_string@GU?$char_traits@G@std@@V?$allocator@G@2@@std@@0PBG@Z$10:
	mov	ecx, DWORD PTR $T150963[ebp]
	jmp	DWORD PTR __imp_??1?$basic_string@GU?$char_traits@G@std@@V?$allocator@G@2@@std@@QAE@XZ
__unwindfunclet$?UserCmd_MakeTag@Rename@@YA_NIABV?$basic_string@GU?$char_traits@G@std@@V?$allocator@G@2@@std@@0PBG@Z$11:
	mov	ecx, DWORD PTR $T150964[ebp]
	jmp	DWORD PTR __imp_??1?$basic_string@GU?$char_traits@G@std@@V?$allocator@G@2@@std@@QAE@XZ
__unwindfunclet$?UserCmd_MakeTag@Rename@@YA_NIABV?$basic_string@GU?$char_traits@G@std@@V?$allocator@G@2@@std@@0PBG@Z$12:
	mov	ecx, DWORD PTR $T150967[ebp]
	jmp	DWORD PTR __imp_??1?$basic_string@GU?$char_traits@G@std@@V?$allocator@G@2@@std@@QAE@XZ
__unwindfunclet$?UserCmd_MakeTag@Rename@@YA_NIABV?$basic_string@GU?$char_traits@G@std@@V?$allocator@G@2@@std@@0PBG@Z$13:
	lea	ecx, DWORD PTR _wscCharname$142879[ebp]
	jmp	DWORD PTR __imp_??1?$basic_string@GU?$char_traits@G@std@@V?$allocator@G@2@@std@@QAE@XZ
__unwindfunclet$?UserCmd_MakeTag@Rename@@YA_NIABV?$basic_string@GU?$char_traits@G@std@@V?$allocator@G@2@@std@@0PBG@Z$14:
	lea	ecx, DWORD PTR $T150971[ebp]
	jmp	DWORD PTR __imp_??1?$basic_string@GU?$char_traits@G@std@@V?$allocator@G@2@@std@@QAE@XZ
__unwindfunclet$?UserCmd_MakeTag@Rename@@YA_NIABV?$basic_string@GU?$char_traits@G@std@@V?$allocator@G@2@@std@@0PBG@Z$15:
	mov	ecx, DWORD PTR $T150970[ebp]
	jmp	DWORD PTR __imp_??1?$basic_string@GU?$char_traits@G@std@@V?$allocator@G@2@@std@@QAE@XZ
__unwindfunclet$?UserCmd_MakeTag@Rename@@YA_NIABV?$basic_string@GU?$char_traits@G@std@@V?$allocator@G@2@@std@@0PBG@Z$16:
	mov	ecx, DWORD PTR $T150973[ebp]
	jmp	DWORD PTR __imp_??1?$basic_string@GU?$char_traits@G@std@@V?$allocator@G@2@@std@@QAE@XZ
__unwindfunclet$?UserCmd_MakeTag@Rename@@YA_NIABV?$basic_string@GU?$char_traits@G@std@@V?$allocator@G@2@@std@@0PBG@Z$17:
	mov	ecx, DWORD PTR $T150975[ebp]
	jmp	DWORD PTR __imp_??1?$basic_string@GU?$char_traits@G@std@@V?$allocator@G@2@@std@@QAE@XZ
__unwindfunclet$?UserCmd_MakeTag@Rename@@YA_NIABV?$basic_string@GU?$char_traits@G@std@@V?$allocator@G@2@@std@@0PBG@Z$18:
	lea	ecx, DWORD PTR $T150976[ebp]
	jmp	DWORD PTR __imp_??1?$basic_string@GU?$char_traits@G@std@@V?$allocator@G@2@@std@@QAE@XZ
__unwindfunclet$?UserCmd_MakeTag@Rename@@YA_NIABV?$basic_string@GU?$char_traits@G@std@@V?$allocator@G@2@@std@@0PBG@Z$19:
	lea	ecx, DWORD PTR $T150977[ebp]
	jmp	DWORD PTR __imp_??1?$basic_string@DU?$char_traits@D@std@@V?$allocator@D@2@@std@@QAE@XZ
__unwindfunclet$?UserCmd_MakeTag@Rename@@YA_NIABV?$basic_string@GU?$char_traits@G@std@@V?$allocator@G@2@@std@@0PBG@Z$20:
	lea	ecx, DWORD PTR $T150978[ebp]
	jmp	DWORD PTR __imp_??1?$basic_string@DU?$char_traits@D@std@@V?$allocator@D@2@@std@@QAE@XZ
__unwindfunclet$?UserCmd_MakeTag@Rename@@YA_NIABV?$basic_string@GU?$char_traits@G@std@@V?$allocator@G@2@@std@@0PBG@Z$21:
	lea	ecx, DWORD PTR $T150979[ebp]
	jmp	DWORD PTR __imp_??1?$basic_string@DU?$char_traits@D@std@@V?$allocator@D@2@@std@@QAE@XZ
__ehhandler$?UserCmd_MakeTag@Rename@@YA_NIABV?$basic_string@GU?$char_traits@G@std@@V?$allocator@G@2@@std@@0PBG@Z:
	mov	edx, DWORD PTR [esp+8]
	lea	eax, DWORD PTR [edx+12]
	mov	ecx, DWORD PTR [edx-516]
	xor	ecx, eax
	call	@__security_check_cookie@4
	mov	ecx, DWORD PTR [edx-8]
	xor	ecx, eax
	call	@__security_check_cookie@4
	mov	eax, OFFSET __ehfuncinfo$?UserCmd_MakeTag@Rename@@YA_NIABV?$basic_string@GU?$char_traits@G@std@@V?$allocator@G@2@@std@@0PBG@Z
	jmp	___CxxFrameHandler3
text$x	ENDS
?UserCmd_MakeTag@Rename@@YA_NIABV?$basic_string@GU?$char_traits@G@std@@V?$allocator@G@2@@std@@0PBG@Z ENDP ; Rename::UserCmd_MakeTag
PUBLIC	?erase@?$_Tree@V?$_Tmap_traits@V?$basic_string@GU?$char_traits@G@std@@V?$allocator@G@2@@std@@UTAG_DATA@Rename@@U?$less@V?$basic_string@GU?$char_traits@G@std@@V?$allocator@G@2@@std@@@2@V?$allocator@U?$pair@$$CBV?$basic_string@GU?$char_traits@G@std@@V?$allocator@G@2@@std@@UTAG_DATA@Rename@@@std@@@2@$0A@@std@@@std@@QAEIABV?$basic_string@GU?$char_traits@G@std@@V?$allocator@G@2@@2@@Z ; std::_Tree<std::_Tmap_traits<std::basic_string<unsigned short,std::char_traits<unsigned short>,std::allocator<unsigned short> >,Rename::TAG_DATA,std::less<std::basic_string<unsigned short,std::char_traits<unsigned short>,std::allocator<unsigned short> > >,std::allocator<std::pair<std::basic_string<unsigned short,std::char_traits<unsigned short>,std::allocator<unsigned short> > const ,Rename::TAG_DATA> >,0> >::erase
PUBLIC	__$ArrayPad$
PUBLIC	?UserCmd_DropTag@Rename@@YA_NIABV?$basic_string@GU?$char_traits@G@std@@V?$allocator@G@2@@std@@0PBG@Z ; Rename::UserCmd_DropTag
EXTRN	__imp_??$?8GU?$char_traits@G@std@@V?$allocator@G@1@@std@@YA_NABV?$basic_string@GU?$char_traits@G@std@@V?$allocator@G@2@@0@0@Z:PROC
xdata$x	SEGMENT
__ehfuncinfo$?UserCmd_DropTag@Rename@@YA_NIABV?$basic_string@GU?$char_traits@G@std@@V?$allocator@G@2@@std@@0PBG@Z DD 019930522H
	DD	0bH
	DD	FLAT:__unwindtable$?UserCmd_DropTag@Rename@@YA_NIABV?$basic_string@GU?$char_traits@G@std@@V?$allocator@G@2@@std@@0PBG@Z
	DD	2 DUP(00H)
	DD	2 DUP(00H)
	DD	00H
	DD	00H
__unwindtable$?UserCmd_DropTag@Rename@@YA_NIABV?$basic_string@GU?$char_traits@G@std@@V?$allocator@G@2@@std@@0PBG@Z DD 0ffffffffH
	DD	FLAT:__unwindfunclet$?UserCmd_DropTag@Rename@@YA_NIABV?$basic_string@GU?$char_traits@G@std@@V?$allocator@G@2@@std@@0PBG@Z$0
	DD	0ffffffffH
	DD	FLAT:__unwindfunclet$?UserCmd_DropTag@Rename@@YA_NIABV?$basic_string@GU?$char_traits@G@std@@V?$allocator@G@2@@std@@0PBG@Z$1
	DD	0ffffffffH
	DD	FLAT:__unwindfunclet$?UserCmd_DropTag@Rename@@YA_NIABV?$basic_string@GU?$char_traits@G@std@@V?$allocator@G@2@@std@@0PBG@Z$2
	DD	02H
	DD	FLAT:__unwindfunclet$?UserCmd_DropTag@Rename@@YA_NIABV?$basic_string@GU?$char_traits@G@std@@V?$allocator@G@2@@std@@0PBG@Z$3
	DD	03H
	DD	FLAT:__unwindfunclet$?UserCmd_DropTag@Rename@@YA_NIABV?$basic_string@GU?$char_traits@G@std@@V?$allocator@G@2@@std@@0PBG@Z$4
	DD	04H
	DD	FLAT:__unwindfunclet$?UserCmd_DropTag@Rename@@YA_NIABV?$basic_string@GU?$char_traits@G@std@@V?$allocator@G@2@@std@@0PBG@Z$5
	DD	04H
	DD	FLAT:__unwindfunclet$?UserCmd_DropTag@Rename@@YA_NIABV?$basic_string@GU?$char_traits@G@std@@V?$allocator@G@2@@std@@0PBG@Z$6
	DD	06H
	DD	FLAT:__unwindfunclet$?UserCmd_DropTag@Rename@@YA_NIABV?$basic_string@GU?$char_traits@G@std@@V?$allocator@G@2@@std@@0PBG@Z$7
	DD	07H
	DD	FLAT:__unwindfunclet$?UserCmd_DropTag@Rename@@YA_NIABV?$basic_string@GU?$char_traits@G@std@@V?$allocator@G@2@@std@@0PBG@Z$8
	DD	08H
	DD	FLAT:__unwindfunclet$?UserCmd_DropTag@Rename@@YA_NIABV?$basic_string@GU?$char_traits@G@std@@V?$allocator@G@2@@std@@0PBG@Z$9
	DD	04H
	DD	FLAT:__unwindfunclet$?UserCmd_DropTag@Rename@@YA_NIABV?$basic_string@GU?$char_traits@G@std@@V?$allocator@G@2@@std@@0PBG@Z$10
; Function compile flags: /Odtp
xdata$x	ENDS
_TEXT	SEGMENT
tv282 = -316						; size = 4
tv291 = -312						; size = 4
tv277 = -308						; size = 4
tv290 = -304						; size = 4
tv275 = -300						; size = 4
tv289 = -296						; size = 4
tv273 = -292						; size = 4
tv288 = -288						; size = 4
tv271 = -284						; size = 4
tv132 = -280						; size = 4
tv269 = -276						; size = 4
tv144 = -272						; size = 4
tv264 = -268						; size = 4
tv287 = -264						; size = 4
tv262 = -260						; size = 4
tv286 = -256						; size = 4
$T151019 = -249						; size = 1
$T151018 = -248						; size = 4
$T151017 = -241						; size = 1
$T151016 = -240						; size = 28
$T151015 = -212						; size = 28
$T151014 = -184						; size = 28
$T151013 = -156						; size = 28
$T151012 = -128						; size = 4
$T151011 = -124						; size = 8
$T151010 = -116						; size = 4
$T151009 = -112						; size = 4
_i$142933 = -108					; size = 8
_pass$142918 = -100					; size = 28
_wscCharname$142915 = -72				; size = 28
_tag$142916 = -44					; size = 28
__$ArrayPad$ = -16					; size = 4
__$EHRec$ = -12						; size = 12
_iClientID$ = 8						; size = 4
_wscCmd$ = 12						; size = 4
_wscParam$ = 16						; size = 4
_usage$ = 20						; size = 4
?UserCmd_DropTag@Rename@@YA_NIABV?$basic_string@GU?$char_traits@G@std@@V?$allocator@G@2@@std@@0PBG@Z PROC ; Rename::UserCmd_DropTag
; Line 316
	push	ebp
	mov	ebp, esp
	push	-1
	push	__ehhandler$?UserCmd_DropTag@Rename@@YA_NIABV?$basic_string@GU?$char_traits@G@std@@V?$allocator@G@2@@std@@0PBG@Z
	mov	eax, DWORD PTR fs:0
	push	eax
	sub	esp, 304				; 00000130H
	mov	eax, DWORD PTR ___security_cookie
	xor	eax, ebp
	mov	DWORD PTR __$ArrayPad$[ebp], eax
	push	eax
	lea	eax, DWORD PTR __$EHRec$[ebp]
	mov	DWORD PTR fs:0, eax
; Line 317
	movzx	eax, BYTE PTR ?set_bCharnameTags@Rename@@3_NA ; Rename::set_bCharnameTags
	test	eax, eax
	je	$LN6@UserCmd_Dr
; Line 321
	mov	ecx, DWORD PTR _wscParam$[ebp]
	call	DWORD PTR __imp_?size@?$basic_string@GU?$char_traits@G@std@@V?$allocator@G@2@@std@@QBEIXZ
	test	eax, eax
	jne	$LN5@UserCmd_Dr
; Line 323
	sub	esp, 28					; 0000001cH
	mov	ecx, esp
	mov	DWORD PTR $T151009[ebp], esp
	push	OFFSET $SG142913
	call	DWORD PTR __imp_??0?$basic_string@GU?$char_traits@G@std@@V?$allocator@G@2@@std@@QAE@PBG@Z
	mov	DWORD PTR tv286[ebp], eax
	mov	ecx, DWORD PTR tv286[ebp]
	mov	DWORD PTR tv262[ebp], ecx
	mov	DWORD PTR __$EHRec$[ebp+8], 0
	mov	edx, DWORD PTR _iClientID$[ebp]
	push	edx
	mov	DWORD PTR __$EHRec$[ebp+8], -1
	call	DWORD PTR __imp_?PrintUserCmdText@@YAXIV?$basic_string@GU?$char_traits@G@std@@V?$allocator@G@2@@std@@ZZ
	add	esp, 32					; 00000020H
; Line 324
	sub	esp, 28					; 0000001cH
	mov	ecx, esp
	mov	DWORD PTR $T151010[ebp], esp
	mov	eax, DWORD PTR _usage$[ebp]
	push	eax
	call	DWORD PTR __imp_??0?$basic_string@GU?$char_traits@G@std@@V?$allocator@G@2@@std@@QAE@PBG@Z
	mov	DWORD PTR tv287[ebp], eax
	mov	ecx, DWORD PTR tv287[ebp]
	mov	DWORD PTR tv264[ebp], ecx
	mov	DWORD PTR __$EHRec$[ebp+8], 1
	mov	edx, DWORD PTR _iClientID$[ebp]
	push	edx
	mov	DWORD PTR __$EHRec$[ebp+8], -1
	call	DWORD PTR __imp_?PrintUserCmdText@@YAXIV?$basic_string@GU?$char_traits@G@std@@V?$allocator@G@2@@std@@ZZ
	add	esp, 32					; 00000020H
; Line 325
	mov	al, 1
	jmp	$LN7@UserCmd_Dr
$LN5@UserCmd_Dr:
; Line 328
	mov	eax, DWORD PTR _iClientID$[ebp]
	push	eax
	mov	ecx, DWORD PTR __imp_?Players@@3VPlayerDB@@A
	call	DWORD PTR __imp_?GetActiveCharacterName@PlayerDB@@QBEPBGI@Z
	push	eax
	lea	ecx, DWORD PTR _wscCharname$142915[ebp]
	call	DWORD PTR __imp_??0?$basic_string@GU?$char_traits@G@std@@V?$allocator@G@2@@std@@QAE@PBG@Z
	mov	DWORD PTR __$EHRec$[ebp+8], 2
; Line 329
	push	0
	push	32					; 00000020H
	mov	ecx, DWORD PTR _wscParam$[ebp]
	push	ecx
	lea	edx, DWORD PTR _tag$142916[ebp]
	push	edx
	call	DWORD PTR __imp_?GetParam@@YA?AV?$basic_string@GU?$char_traits@G@std@@V?$allocator@G@2@@std@@ABV12@GI@Z
	add	esp, 16					; 00000010H
	mov	BYTE PTR __$EHRec$[ebp+8], 3
; Line 330
	push	1
	push	32					; 00000020H
	mov	eax, DWORD PTR _wscParam$[ebp]
	push	eax
	lea	ecx, DWORD PTR _pass$142918[ebp]
	push	ecx
	call	DWORD PTR __imp_?GetParam@@YA?AV?$basic_string@GU?$char_traits@G@std@@V?$allocator@G@2@@std@@ABV12@GI@Z
	add	esp, 16					; 00000010H
	mov	BYTE PTR __$EHRec$[ebp+8], 4
; Line 333
	lea	edx, DWORD PTR _i$142933[ebp]
	push	edx
	mov	ecx, OFFSET ?mapTagToPassword@Rename@@3V?$map@V?$basic_string@GU?$char_traits@G@std@@V?$allocator@G@2@@std@@UTAG_DATA@Rename@@U?$less@V?$basic_string@GU?$char_traits@G@std@@V?$allocator@G@2@@std@@@2@V?$allocator@U?$pair@$$CBV?$basic_string@GU?$char_traits@G@std@@V?$allocator@G@2@@std@@UTAG_DATA@Rename@@@std@@@2@@std@@A ; Rename::mapTagToPassword
	call	?begin@?$_Tree@V?$_Tmap_traits@V?$basic_string@GU?$char_traits@G@std@@V?$allocator@G@2@@std@@UTAG_DATA@Rename@@U?$less@V?$basic_string@GU?$char_traits@G@std@@V?$allocator@G@2@@std@@@2@V?$allocator@U?$pair@$$CBV?$basic_string@GU?$char_traits@G@std@@V?$allocator@G@2@@std@@UTAG_DATA@Rename@@@std@@@2@$0A@@std@@@std@@QAE?AViterator@12@XZ ; std::_Tree<std::_Tmap_traits<std::basic_string<unsigned short,std::char_traits<unsigned short>,std::allocator<unsigned short> >,Rename::TAG_DATA,std::less<std::basic_string<unsigned short,std::char_traits<unsigned short>,std::allocator<unsigned short> > >,std::allocator<std::pair<std::basic_string<unsigned short,std::char_traits<unsigned short>,std::allocator<unsigned short> > const ,Rename::TAG_DATA> >,0> >::begin
	jmp	SHORT $LN4@UserCmd_Dr
$LN3@UserCmd_Dr:
	lea	ecx, DWORD PTR _i$142933[ebp]
	call	??Eiterator@?$_Tree@V?$_Tmap_traits@V?$basic_string@GU?$char_traits@G@std@@V?$allocator@G@2@@std@@UTAG_DATA@Rename@@U?$less@V?$basic_string@GU?$char_traits@G@std@@V?$allocator@G@2@@std@@@2@V?$allocator@U?$pair@$$CBV?$basic_string@GU?$char_traits@G@std@@V?$allocator@G@2@@std@@UTAG_DATA@Rename@@@std@@@2@$0A@@std@@@std@@QAEAAV012@XZ ; std::_Tree<std::_Tmap_traits<std::basic_string<unsigned short,std::char_traits<unsigned short>,std::allocator<unsigned short> >,Rename::TAG_DATA,std::less<std::basic_string<unsigned short,std::char_traits<unsigned short>,std::allocator<unsigned short> > >,std::allocator<std::pair<std::basic_string<unsigned short,std::char_traits<unsigned short>,std::allocator<unsigned short> > const ,Rename::TAG_DATA> >,0> >::iterator::operator++
$LN4@UserCmd_Dr:
	lea	eax, DWORD PTR $T151011[ebp]
	push	eax
	mov	ecx, OFFSET ?mapTagToPassword@Rename@@3V?$map@V?$basic_string@GU?$char_traits@G@std@@V?$allocator@G@2@@std@@UTAG_DATA@Rename@@U?$less@V?$basic_string@GU?$char_traits@G@std@@V?$allocator@G@2@@std@@@2@V?$allocator@U?$pair@$$CBV?$basic_string@GU?$char_traits@G@std@@V?$allocator@G@2@@std@@UTAG_DATA@Rename@@@std@@@2@@std@@A ; Rename::mapTagToPassword
	call	?end@?$_Tree@V?$_Tmap_traits@V?$basic_string@GU?$char_traits@G@std@@V?$allocator@G@2@@std@@UTAG_DATA@Rename@@U?$less@V?$basic_string@GU?$char_traits@G@std@@V?$allocator@G@2@@std@@@2@V?$allocator@U?$pair@$$CBV?$basic_string@GU?$char_traits@G@std@@V?$allocator@G@2@@std@@UTAG_DATA@Rename@@@std@@@2@$0A@@std@@@std@@QAE?AViterator@12@XZ ; std::_Tree<std::_Tmap_traits<std::basic_string<unsigned short,std::char_traits<unsigned short>,std::allocator<unsigned short> >,Rename::TAG_DATA,std::less<std::basic_string<unsigned short,std::char_traits<unsigned short>,std::allocator<unsigned short> > >,std::allocator<std::pair<std::basic_string<unsigned short,std::char_traits<unsigned short>,std::allocator<unsigned short> > const ,Rename::TAG_DATA> >,0> >::end
	push	eax
	lea	ecx, DWORD PTR _i$142933[ebp]
	call	??9const_iterator@?$_Tree@V?$_Tmap_traits@V?$basic_string@GU?$char_traits@G@std@@V?$allocator@G@2@@std@@UTAG_DATA@Rename@@U?$less@V?$basic_string@GU?$char_traits@G@std@@V?$allocator@G@2@@std@@@2@V?$allocator@U?$pair@$$CBV?$basic_string@GU?$char_traits@G@std@@V?$allocator@G@2@@std@@UTAG_DATA@Rename@@@std@@@2@$0A@@std@@@std@@QBE_NABV012@@Z ; std::_Tree<std::_Tmap_traits<std::basic_string<unsigned short,std::char_traits<unsigned short>,std::allocator<unsigned short> >,Rename::TAG_DATA,std::less<std::basic_string<unsigned short,std::char_traits<unsigned short>,std::allocator<unsigned short> > >,std::allocator<std::pair<std::basic_string<unsigned short,std::char_traits<unsigned short>,std::allocator<unsigned short> > const ,Rename::TAG_DATA> >,0> >::const_iterator::operator!=
	movzx	ecx, al
	test	ecx, ecx
	je	$LN2@UserCmd_Dr
; Line 335
	lea	ecx, DWORD PTR _i$142933[ebp]
	call	??Citerator@?$_Tree@V?$_Tmap_traits@V?$basic_string@GU?$char_traits@G@std@@V?$allocator@G@2@@std@@UTAG_DATA@Rename@@U?$less@V?$basic_string@GU?$char_traits@G@std@@V?$allocator@G@2@@std@@@2@V?$allocator@U?$pair@$$CBV?$basic_string@GU?$char_traits@G@std@@V?$allocator@G@2@@std@@UTAG_DATA@Rename@@@std@@@2@$0A@@std@@@std@@QBEPAU?$pair@$$CBV?$basic_string@GU?$char_traits@G@std@@V?$allocator@G@2@@std@@UTAG_DATA@Rename@@@2@XZ ; std::_Tree<std::_Tmap_traits<std::basic_string<unsigned short,std::char_traits<unsigned short>,std::allocator<unsigned short> >,Rename::TAG_DATA,std::less<std::basic_string<unsigned short,std::char_traits<unsigned short>,std::allocator<unsigned short> > >,std::allocator<std::pair<std::basic_string<unsigned short,std::char_traits<unsigned short>,std::allocator<unsigned short> > const ,Rename::TAG_DATA> >,0> >::iterator::operator->
	add	eax, 28					; 0000001cH
	push	eax
	lea	edx, DWORD PTR _tag$142916[ebp]
	push	edx
	call	DWORD PTR __imp_??$?8GU?$char_traits@G@std@@V?$allocator@G@1@@std@@YA_NABV?$basic_string@GU?$char_traits@G@std@@V?$allocator@G@2@@0@0@Z
	add	esp, 8
	movzx	eax, al
	test	eax, eax
	je	$LN1@UserCmd_Dr
	lea	ecx, DWORD PTR _i$142933[ebp]
	call	??Citerator@?$_Tree@V?$_Tmap_traits@V?$basic_string@GU?$char_traits@G@std@@V?$allocator@G@2@@std@@UTAG_DATA@Rename@@U?$less@V?$basic_string@GU?$char_traits@G@std@@V?$allocator@G@2@@std@@@2@V?$allocator@U?$pair@$$CBV?$basic_string@GU?$char_traits@G@std@@V?$allocator@G@2@@std@@UTAG_DATA@Rename@@@std@@@2@$0A@@std@@@std@@QBEPAU?$pair@$$CBV?$basic_string@GU?$char_traits@G@std@@V?$allocator@G@2@@std@@UTAG_DATA@Rename@@@2@XZ ; std::_Tree<std::_Tmap_traits<std::basic_string<unsigned short,std::char_traits<unsigned short>,std::allocator<unsigned short> >,Rename::TAG_DATA,std::less<std::basic_string<unsigned short,std::char_traits<unsigned short>,std::allocator<unsigned short> > >,std::allocator<std::pair<std::basic_string<unsigned short,std::char_traits<unsigned short>,std::allocator<unsigned short> > const ,Rename::TAG_DATA> >,0> >::iterator::operator->
	add	eax, 56					; 00000038H
	push	eax
	lea	ecx, DWORD PTR _pass$142918[ebp]
	push	ecx
	call	DWORD PTR __imp_??$?8GU?$char_traits@G@std@@V?$allocator@G@1@@std@@YA_NABV?$basic_string@GU?$char_traits@G@std@@V?$allocator@G@2@@0@0@Z
	add	esp, 8
	movzx	edx, al
	test	edx, edx
	je	$LN1@UserCmd_Dr
; Line 337
	lea	eax, DWORD PTR _tag$142916[ebp]
	push	eax
	mov	ecx, OFFSET ?mapTagToPassword@Rename@@3V?$map@V?$basic_string@GU?$char_traits@G@std@@V?$allocator@G@2@@std@@UTAG_DATA@Rename@@U?$less@V?$basic_string@GU?$char_traits@G@std@@V?$allocator@G@2@@std@@@2@V?$allocator@U?$pair@$$CBV?$basic_string@GU?$char_traits@G@std@@V?$allocator@G@2@@std@@UTAG_DATA@Rename@@@std@@@2@@std@@A ; Rename::mapTagToPassword
	call	?erase@?$_Tree@V?$_Tmap_traits@V?$basic_string@GU?$char_traits@G@std@@V?$allocator@G@2@@std@@UTAG_DATA@Rename@@U?$less@V?$basic_string@GU?$char_traits@G@std@@V?$allocator@G@2@@std@@@2@V?$allocator@U?$pair@$$CBV?$basic_string@GU?$char_traits@G@std@@V?$allocator@G@2@@std@@UTAG_DATA@Rename@@@std@@@2@$0A@@std@@@std@@QAEIABV?$basic_string@GU?$char_traits@G@std@@V?$allocator@G@2@@2@@Z ; std::_Tree<std::_Tmap_traits<std::basic_string<unsigned short,std::char_traits<unsigned short>,std::allocator<unsigned short> >,Rename::TAG_DATA,std::less<std::basic_string<unsigned short,std::char_traits<unsigned short>,std::allocator<unsigned short> > >,std::allocator<std::pair<std::basic_string<unsigned short,std::char_traits<unsigned short>,std::allocator<unsigned short> > const ,Rename::TAG_DATA> >,0> >::erase
; Line 338
	call	?SaveSettings@Rename@@YAXXZ		; Rename::SaveSettings
; Line 339
	sub	esp, 28					; 0000001cH
	mov	ecx, esp
	mov	DWORD PTR $T151012[ebp], esp
	push	OFFSET $SG142941
	call	DWORD PTR __imp_??0?$basic_string@GU?$char_traits@G@std@@V?$allocator@G@2@@std@@QAE@PBG@Z
	mov	DWORD PTR tv144[ebp], eax
	mov	ecx, DWORD PTR tv144[ebp]
	mov	DWORD PTR tv269[ebp], ecx
	mov	BYTE PTR __$EHRec$[ebp+8], 5
	mov	edx, DWORD PTR _iClientID$[ebp]
	push	edx
	mov	BYTE PTR __$EHRec$[ebp+8], 4
	call	DWORD PTR __imp_?PrintUserCmdText@@YAXIV?$basic_string@GU?$char_traits@G@std@@V?$allocator@G@2@@std@@ZZ
	add	esp, 32					; 00000020H
; Line 340
	mov	eax, DWORD PTR _iClientID$[ebp]
	push	eax
	lea	ecx, DWORD PTR $T151013[ebp]
	push	ecx
	call	?HkGetAccountIDByClientID@@YA?AV?$basic_string@GU?$char_traits@G@std@@V?$allocator@G@2@@std@@I@Z ; HkGetAccountIDByClientID
	add	esp, 8
	mov	DWORD PTR tv132[ebp], eax
	mov	edx, DWORD PTR tv132[ebp]
	mov	DWORD PTR tv271[ebp], edx
	mov	BYTE PTR __$EHRec$[ebp+8], 6
	mov	eax, DWORD PTR tv271[ebp]
	push	eax
	lea	ecx, DWORD PTR $T151014[ebp]
	push	ecx
	call	DWORD PTR __imp_?wstos@@YA?AV?$basic_string@DU?$char_traits@D@std@@V?$allocator@D@2@@std@@ABV?$basic_string@GU?$char_traits@G@std@@V?$allocator@G@2@@2@@Z
	add	esp, 8
	mov	DWORD PTR tv288[ebp], eax
	mov	edx, DWORD PTR tv288[ebp]
	mov	DWORD PTR tv273[ebp], edx
	mov	BYTE PTR __$EHRec$[ebp+8], 7
	mov	ecx, DWORD PTR tv273[ebp]
	call	DWORD PTR __imp_?c_str@?$basic_string@DU?$char_traits@D@std@@V?$allocator@D@2@@std@@QBEPBDXZ
	push	eax
	lea	eax, DWORD PTR _wscCharname$142915[ebp]
	push	eax
	lea	ecx, DWORD PTR $T151015[ebp]
	push	ecx
	call	DWORD PTR __imp_?wstos@@YA?AV?$basic_string@DU?$char_traits@D@std@@V?$allocator@D@2@@std@@ABV?$basic_string@GU?$char_traits@G@std@@V?$allocator@G@2@@2@@Z
	add	esp, 8
	mov	DWORD PTR tv289[ebp], eax
	mov	edx, DWORD PTR tv289[ebp]
	mov	DWORD PTR tv275[ebp], edx
	mov	BYTE PTR __$EHRec$[ebp+8], 8
	mov	ecx, DWORD PTR tv275[ebp]
	call	DWORD PTR __imp_?c_str@?$basic_string@DU?$char_traits@D@std@@V?$allocator@D@2@@std@@QBEPBDXZ
	push	eax
	lea	eax, DWORD PTR _tag$142916[ebp]
	push	eax
	lea	ecx, DWORD PTR $T151016[ebp]
	push	ecx
	call	DWORD PTR __imp_?wstos@@YA?AV?$basic_string@DU?$char_traits@D@std@@V?$allocator@D@2@@std@@ABV?$basic_string@GU?$char_traits@G@std@@V?$allocator@G@2@@2@@Z
	add	esp, 8
	mov	DWORD PTR tv290[ebp], eax
	mov	edx, DWORD PTR tv290[ebp]
	mov	DWORD PTR tv277[ebp], edx
	mov	BYTE PTR __$EHRec$[ebp+8], 9
	mov	ecx, DWORD PTR tv277[ebp]
	call	DWORD PTR __imp_?c_str@?$basic_string@DU?$char_traits@D@std@@V?$allocator@D@2@@std@@QBEPBDXZ
	push	eax
	push	OFFSET $SG142946
	call	DWORD PTR __imp_?AddLog@@YAXPBDZZ
	add	esp, 16					; 00000010H
	mov	BYTE PTR __$EHRec$[ebp+8], 8
	lea	ecx, DWORD PTR $T151016[ebp]
	call	DWORD PTR __imp_??1?$basic_string@DU?$char_traits@D@std@@V?$allocator@D@2@@std@@QAE@XZ
	mov	BYTE PTR __$EHRec$[ebp+8], 7
	lea	ecx, DWORD PTR $T151015[ebp]
	call	DWORD PTR __imp_??1?$basic_string@DU?$char_traits@D@std@@V?$allocator@D@2@@std@@QAE@XZ
	mov	BYTE PTR __$EHRec$[ebp+8], 6
	lea	ecx, DWORD PTR $T151014[ebp]
	call	DWORD PTR __imp_??1?$basic_string@DU?$char_traits@D@std@@V?$allocator@D@2@@std@@QAE@XZ
	mov	BYTE PTR __$EHRec$[ebp+8], 4
	lea	ecx, DWORD PTR $T151013[ebp]
	call	DWORD PTR __imp_??1?$basic_string@GU?$char_traits@G@std@@V?$allocator@G@2@@std@@QAE@XZ
; Line 341
	mov	BYTE PTR $T151017[ebp], 1
	mov	BYTE PTR __$EHRec$[ebp+8], 3
	lea	ecx, DWORD PTR _pass$142918[ebp]
	call	DWORD PTR __imp_??1?$basic_string@GU?$char_traits@G@std@@V?$allocator@G@2@@std@@QAE@XZ
	mov	BYTE PTR __$EHRec$[ebp+8], 2
	lea	ecx, DWORD PTR _tag$142916[ebp]
	call	DWORD PTR __imp_??1?$basic_string@GU?$char_traits@G@std@@V?$allocator@G@2@@std@@QAE@XZ
	mov	DWORD PTR __$EHRec$[ebp+8], -1
	lea	ecx, DWORD PTR _wscCharname$142915[ebp]
	call	DWORD PTR __imp_??1?$basic_string@GU?$char_traits@G@std@@V?$allocator@G@2@@std@@QAE@XZ
	mov	al, BYTE PTR $T151017[ebp]
	jmp	SHORT $LN7@UserCmd_Dr
$LN1@UserCmd_Dr:
; Line 343
	jmp	$LN3@UserCmd_Dr
$LN2@UserCmd_Dr:
; Line 345
	sub	esp, 28					; 0000001cH
	mov	ecx, esp
	mov	DWORD PTR $T151018[ebp], esp
	push	OFFSET $SG142949
	call	DWORD PTR __imp_??0?$basic_string@GU?$char_traits@G@std@@V?$allocator@G@2@@std@@QAE@PBG@Z
	mov	DWORD PTR tv291[ebp], eax
	mov	eax, DWORD PTR tv291[ebp]
	mov	DWORD PTR tv282[ebp], eax
	mov	BYTE PTR __$EHRec$[ebp+8], 10		; 0000000aH
	mov	ecx, DWORD PTR _iClientID$[ebp]
	push	ecx
	mov	BYTE PTR __$EHRec$[ebp+8], 4
	call	DWORD PTR __imp_?PrintUserCmdText@@YAXIV?$basic_string@GU?$char_traits@G@std@@V?$allocator@G@2@@std@@ZZ
	add	esp, 32					; 00000020H
; Line 346
	mov	BYTE PTR $T151019[ebp], 1
	mov	BYTE PTR __$EHRec$[ebp+8], 3
	lea	ecx, DWORD PTR _pass$142918[ebp]
	call	DWORD PTR __imp_??1?$basic_string@GU?$char_traits@G@std@@V?$allocator@G@2@@std@@QAE@XZ
	mov	BYTE PTR __$EHRec$[ebp+8], 2
	lea	ecx, DWORD PTR _tag$142916[ebp]
	call	DWORD PTR __imp_??1?$basic_string@GU?$char_traits@G@std@@V?$allocator@G@2@@std@@QAE@XZ
	mov	DWORD PTR __$EHRec$[ebp+8], -1
	lea	ecx, DWORD PTR _wscCharname$142915[ebp]
	call	DWORD PTR __imp_??1?$basic_string@GU?$char_traits@G@std@@V?$allocator@G@2@@std@@QAE@XZ
	mov	al, BYTE PTR $T151019[ebp]
	jmp	SHORT $LN7@UserCmd_Dr
$LN6@UserCmd_Dr:
; Line 348
	xor	al, al
$LN7@UserCmd_Dr:
; Line 349
	mov	ecx, DWORD PTR __$EHRec$[ebp]
	mov	DWORD PTR fs:0, ecx
	pop	ecx
	mov	ecx, DWORD PTR __$ArrayPad$[ebp]
	xor	ecx, ebp
	call	@__security_check_cookie@4
	mov	esp, ebp
	pop	ebp
	ret	0
_TEXT	ENDS
text$x	SEGMENT
__unwindfunclet$?UserCmd_DropTag@Rename@@YA_NIABV?$basic_string@GU?$char_traits@G@std@@V?$allocator@G@2@@std@@0PBG@Z$0:
	mov	ecx, DWORD PTR $T151009[ebp]
	jmp	DWORD PTR __imp_??1?$basic_string@GU?$char_traits@G@std@@V?$allocator@G@2@@std@@QAE@XZ
__unwindfunclet$?UserCmd_DropTag@Rename@@YA_NIABV?$basic_string@GU?$char_traits@G@std@@V?$allocator@G@2@@std@@0PBG@Z$1:
	mov	ecx, DWORD PTR $T151010[ebp]
	jmp	DWORD PTR __imp_??1?$basic_string@GU?$char_traits@G@std@@V?$allocator@G@2@@std@@QAE@XZ
__unwindfunclet$?UserCmd_DropTag@Rename@@YA_NIABV?$basic_string@GU?$char_traits@G@std@@V?$allocator@G@2@@std@@0PBG@Z$2:
	lea	ecx, DWORD PTR _wscCharname$142915[ebp]
	jmp	DWORD PTR __imp_??1?$basic_string@GU?$char_traits@G@std@@V?$allocator@G@2@@std@@QAE@XZ
__unwindfunclet$?UserCmd_DropTag@Rename@@YA_NIABV?$basic_string@GU?$char_traits@G@std@@V?$allocator@G@2@@std@@0PBG@Z$3:
	lea	ecx, DWORD PTR _tag$142916[ebp]
	jmp	DWORD PTR __imp_??1?$basic_string@GU?$char_traits@G@std@@V?$allocator@G@2@@std@@QAE@XZ
__unwindfunclet$?UserCmd_DropTag@Rename@@YA_NIABV?$basic_string@GU?$char_traits@G@std@@V?$allocator@G@2@@std@@0PBG@Z$4:
	lea	ecx, DWORD PTR _pass$142918[ebp]
	jmp	DWORD PTR __imp_??1?$basic_string@GU?$char_traits@G@std@@V?$allocator@G@2@@std@@QAE@XZ
__unwindfunclet$?UserCmd_DropTag@Rename@@YA_NIABV?$basic_string@GU?$char_traits@G@std@@V?$allocator@G@2@@std@@0PBG@Z$5:
	mov	ecx, DWORD PTR $T151012[ebp]
	jmp	DWORD PTR __imp_??1?$basic_string@GU?$char_traits@G@std@@V?$allocator@G@2@@std@@QAE@XZ
__unwindfunclet$?UserCmd_DropTag@Rename@@YA_NIABV?$basic_string@GU?$char_traits@G@std@@V?$allocator@G@2@@std@@0PBG@Z$6:
	lea	ecx, DWORD PTR $T151013[ebp]
	jmp	DWORD PTR __imp_??1?$basic_string@GU?$char_traits@G@std@@V?$allocator@G@2@@std@@QAE@XZ
__unwindfunclet$?UserCmd_DropTag@Rename@@YA_NIABV?$basic_string@GU?$char_traits@G@std@@V?$allocator@G@2@@std@@0PBG@Z$7:
	lea	ecx, DWORD PTR $T151014[ebp]
	jmp	DWORD PTR __imp_??1?$basic_string@DU?$char_traits@D@std@@V?$allocator@D@2@@std@@QAE@XZ
__unwindfunclet$?UserCmd_DropTag@Rename@@YA_NIABV?$basic_string@GU?$char_traits@G@std@@V?$allocator@G@2@@std@@0PBG@Z$8:
	lea	ecx, DWORD PTR $T151015[ebp]
	jmp	DWORD PTR __imp_??1?$basic_string@DU?$char_traits@D@std@@V?$allocator@D@2@@std@@QAE@XZ
__unwindfunclet$?UserCmd_DropTag@Rename@@YA_NIABV?$basic_string@GU?$char_traits@G@std@@V?$allocator@G@2@@std@@0PBG@Z$9:
	lea	ecx, DWORD PTR $T151016[ebp]
	jmp	DWORD PTR __imp_??1?$basic_string@DU?$char_traits@D@std@@V?$allocator@D@2@@std@@QAE@XZ
__unwindfunclet$?UserCmd_DropTag@Rename@@YA_NIABV?$basic_string@GU?$char_traits@G@std@@V?$allocator@G@2@@std@@0PBG@Z$10:
	mov	ecx, DWORD PTR $T151018[ebp]
	jmp	DWORD PTR __imp_??1?$basic_string@GU?$char_traits@G@std@@V?$allocator@G@2@@std@@QAE@XZ
__ehhandler$?UserCmd_DropTag@Rename@@YA_NIABV?$basic_string@GU?$char_traits@G@std@@V?$allocator@G@2@@std@@0PBG@Z:
	mov	edx, DWORD PTR [esp+8]
	lea	eax, DWORD PTR [edx+12]
	mov	ecx, DWORD PTR [edx-308]
	xor	ecx, eax
	call	@__security_check_cookie@4
	mov	ecx, DWORD PTR [edx-4]
	xor	ecx, eax
	call	@__security_check_cookie@4
	mov	eax, OFFSET __ehfuncinfo$?UserCmd_DropTag@Rename@@YA_NIABV?$basic_string@GU?$char_traits@G@std@@V?$allocator@G@2@@std@@0PBG@Z
	jmp	___CxxFrameHandler3
text$x	ENDS
?UserCmd_DropTag@Rename@@YA_NIABV?$basic_string@GU?$char_traits@G@std@@V?$allocator@G@2@@std@@0PBG@Z ENDP ; Rename::UserCmd_DropTag
PUBLIC	__$ArrayPad$
PUBLIC	?UserCmd_SetTagPass@Rename@@YA_NIABV?$basic_string@GU?$char_traits@G@std@@V?$allocator@G@2@@std@@0PBG@Z ; Rename::UserCmd_SetTagPass
xdata$x	SEGMENT
__ehfuncinfo$?UserCmd_SetTagPass@Rename@@YA_NIABV?$basic_string@GU?$char_traits@G@std@@V?$allocator@G@2@@std@@0PBG@Z DD 019930522H
	DD	07H
	DD	FLAT:__unwindtable$?UserCmd_SetTagPass@Rename@@YA_NIABV?$basic_string@GU?$char_traits@G@std@@V?$allocator@G@2@@std@@0PBG@Z
	DD	2 DUP(00H)
	DD	2 DUP(00H)
	DD	00H
	DD	00H
__unwindtable$?UserCmd_SetTagPass@Rename@@YA_NIABV?$basic_string@GU?$char_traits@G@std@@V?$allocator@G@2@@std@@0PBG@Z DD 0ffffffffH
	DD	FLAT:__unwindfunclet$?UserCmd_SetTagPass@Rename@@YA_NIABV?$basic_string@GU?$char_traits@G@std@@V?$allocator@G@2@@std@@0PBG@Z$0
	DD	0ffffffffH
	DD	FLAT:__unwindfunclet$?UserCmd_SetTagPass@Rename@@YA_NIABV?$basic_string@GU?$char_traits@G@std@@V?$allocator@G@2@@std@@0PBG@Z$1
	DD	0ffffffffH
	DD	FLAT:__unwindfunclet$?UserCmd_SetTagPass@Rename@@YA_NIABV?$basic_string@GU?$char_traits@G@std@@V?$allocator@G@2@@std@@0PBG@Z$2
	DD	02H
	DD	FLAT:__unwindfunclet$?UserCmd_SetTagPass@Rename@@YA_NIABV?$basic_string@GU?$char_traits@G@std@@V?$allocator@G@2@@std@@0PBG@Z$3
	DD	03H
	DD	FLAT:__unwindfunclet$?UserCmd_SetTagPass@Rename@@YA_NIABV?$basic_string@GU?$char_traits@G@std@@V?$allocator@G@2@@std@@0PBG@Z$4
	DD	04H
	DD	FLAT:__unwindfunclet$?UserCmd_SetTagPass@Rename@@YA_NIABV?$basic_string@GU?$char_traits@G@std@@V?$allocator@G@2@@std@@0PBG@Z$5
	DD	04H
	DD	FLAT:__unwindfunclet$?UserCmd_SetTagPass@Rename@@YA_NIABV?$basic_string@GU?$char_traits@G@std@@V?$allocator@G@2@@std@@0PBG@Z$6
; Function compile flags: /Odtp
xdata$x	ENDS
_TEXT	SEGMENT
tv251 = -172						; size = 4
tv131 = -168						; size = 4
tv246 = -164						; size = 4
tv143 = -160						; size = 4
tv239 = -156						; size = 4
tv256 = -152						; size = 4
tv237 = -148						; size = 4
tv255 = -144						; size = 4
$T151043 = -137						; size = 1
$T151042 = -136						; size = 4
$T151041 = -129						; size = 1
$T151040 = -128						; size = 4
$T151039 = -124						; size = 8
$T151038 = -116						; size = 4
$T151037 = -112						; size = 4
_i$142981 = -108					; size = 8
_master_password$142964 = -100				; size = 28
_rename_password$142966 = -72				; size = 28
_tag$142962 = -44					; size = 28
__$ArrayPad$ = -16					; size = 4
__$EHRec$ = -12						; size = 12
_iClientID$ = 8						; size = 4
_wscCmd$ = 12						; size = 4
_wscParam$ = 16						; size = 4
_usage$ = 20						; size = 4
?UserCmd_SetTagPass@Rename@@YA_NIABV?$basic_string@GU?$char_traits@G@std@@V?$allocator@G@2@@std@@0PBG@Z PROC ; Rename::UserCmd_SetTagPass
; Line 353
	push	ebp
	mov	ebp, esp
	push	-1
	push	__ehhandler$?UserCmd_SetTagPass@Rename@@YA_NIABV?$basic_string@GU?$char_traits@G@std@@V?$allocator@G@2@@std@@0PBG@Z
	mov	eax, DWORD PTR fs:0
	push	eax
	sub	esp, 160				; 000000a0H
	mov	eax, DWORD PTR ___security_cookie
	xor	eax, ebp
	mov	DWORD PTR __$ArrayPad$[ebp], eax
	push	eax
	lea	eax, DWORD PTR __$EHRec$[ebp]
	mov	DWORD PTR fs:0, eax
; Line 354
	movzx	eax, BYTE PTR ?set_bCharnameTags@Rename@@3_NA ; Rename::set_bCharnameTags
	test	eax, eax
	je	$LN6@UserCmd_Se
; Line 358
	mov	ecx, DWORD PTR _wscParam$[ebp]
	call	DWORD PTR __imp_?size@?$basic_string@GU?$char_traits@G@std@@V?$allocator@G@2@@std@@QBEIXZ
	test	eax, eax
	jne	$LN5@UserCmd_Se
; Line 360
	sub	esp, 28					; 0000001cH
	mov	ecx, esp
	mov	DWORD PTR $T151037[ebp], esp
	push	OFFSET $SG142960
	call	DWORD PTR __imp_??0?$basic_string@GU?$char_traits@G@std@@V?$allocator@G@2@@std@@QAE@PBG@Z
	mov	DWORD PTR tv255[ebp], eax
	mov	ecx, DWORD PTR tv255[ebp]
	mov	DWORD PTR tv237[ebp], ecx
	mov	DWORD PTR __$EHRec$[ebp+8], 0
	mov	edx, DWORD PTR _iClientID$[ebp]
	push	edx
	mov	DWORD PTR __$EHRec$[ebp+8], -1
	call	DWORD PTR __imp_?PrintUserCmdText@@YAXIV?$basic_string@GU?$char_traits@G@std@@V?$allocator@G@2@@std@@ZZ
	add	esp, 32					; 00000020H
; Line 361
	sub	esp, 28					; 0000001cH
	mov	ecx, esp
	mov	DWORD PTR $T151038[ebp], esp
	mov	eax, DWORD PTR _usage$[ebp]
	push	eax
	call	DWORD PTR __imp_??0?$basic_string@GU?$char_traits@G@std@@V?$allocator@G@2@@std@@QAE@PBG@Z
	mov	DWORD PTR tv256[ebp], eax
	mov	ecx, DWORD PTR tv256[ebp]
	mov	DWORD PTR tv239[ebp], ecx
	mov	DWORD PTR __$EHRec$[ebp+8], 1
	mov	edx, DWORD PTR _iClientID$[ebp]
	push	edx
	mov	DWORD PTR __$EHRec$[ebp+8], -1
	call	DWORD PTR __imp_?PrintUserCmdText@@YAXIV?$basic_string@GU?$char_traits@G@std@@V?$allocator@G@2@@std@@ZZ
	add	esp, 32					; 00000020H
; Line 362
	mov	al, 1
	jmp	$LN7@UserCmd_Se
$LN5@UserCmd_Se:
; Line 365
	push	0
	push	32					; 00000020H
	mov	eax, DWORD PTR _wscParam$[ebp]
	push	eax
	lea	ecx, DWORD PTR _tag$142962[ebp]
	push	ecx
	call	DWORD PTR __imp_?GetParam@@YA?AV?$basic_string@GU?$char_traits@G@std@@V?$allocator@G@2@@std@@ABV12@GI@Z
	add	esp, 16					; 00000010H
	mov	DWORD PTR __$EHRec$[ebp+8], 2
; Line 366
	push	1
	push	32					; 00000020H
	mov	edx, DWORD PTR _wscParam$[ebp]
	push	edx
	lea	eax, DWORD PTR _master_password$142964[ebp]
	push	eax
	call	DWORD PTR __imp_?GetParam@@YA?AV?$basic_string@GU?$char_traits@G@std@@V?$allocator@G@2@@std@@ABV12@GI@Z
	add	esp, 16					; 00000010H
	mov	BYTE PTR __$EHRec$[ebp+8], 3
; Line 367
	push	2
	push	32					; 00000020H
	mov	ecx, DWORD PTR _wscParam$[ebp]
	push	ecx
	lea	edx, DWORD PTR _rename_password$142966[ebp]
	push	edx
	call	DWORD PTR __imp_?GetParam@@YA?AV?$basic_string@GU?$char_traits@G@std@@V?$allocator@G@2@@std@@ABV12@GI@Z
	add	esp, 16					; 00000010H
	mov	BYTE PTR __$EHRec$[ebp+8], 4
; Line 370
	lea	eax, DWORD PTR _i$142981[ebp]
	push	eax
	mov	ecx, OFFSET ?mapTagToPassword@Rename@@3V?$map@V?$basic_string@GU?$char_traits@G@std@@V?$allocator@G@2@@std@@UTAG_DATA@Rename@@U?$less@V?$basic_string@GU?$char_traits@G@std@@V?$allocator@G@2@@std@@@2@V?$allocator@U?$pair@$$CBV?$basic_string@GU?$char_traits@G@std@@V?$allocator@G@2@@std@@UTAG_DATA@Rename@@@std@@@2@@std@@A ; Rename::mapTagToPassword
	call	?begin@?$_Tree@V?$_Tmap_traits@V?$basic_string@GU?$char_traits@G@std@@V?$allocator@G@2@@std@@UTAG_DATA@Rename@@U?$less@V?$basic_string@GU?$char_traits@G@std@@V?$allocator@G@2@@std@@@2@V?$allocator@U?$pair@$$CBV?$basic_string@GU?$char_traits@G@std@@V?$allocator@G@2@@std@@UTAG_DATA@Rename@@@std@@@2@$0A@@std@@@std@@QAE?AViterator@12@XZ ; std::_Tree<std::_Tmap_traits<std::basic_string<unsigned short,std::char_traits<unsigned short>,std::allocator<unsigned short> >,Rename::TAG_DATA,std::less<std::basic_string<unsigned short,std::char_traits<unsigned short>,std::allocator<unsigned short> > >,std::allocator<std::pair<std::basic_string<unsigned short,std::char_traits<unsigned short>,std::allocator<unsigned short> > const ,Rename::TAG_DATA> >,0> >::begin
	jmp	SHORT $LN4@UserCmd_Se
$LN3@UserCmd_Se:
	lea	ecx, DWORD PTR _i$142981[ebp]
	call	??Eiterator@?$_Tree@V?$_Tmap_traits@V?$basic_string@GU?$char_traits@G@std@@V?$allocator@G@2@@std@@UTAG_DATA@Rename@@U?$less@V?$basic_string@GU?$char_traits@G@std@@V?$allocator@G@2@@std@@@2@V?$allocator@U?$pair@$$CBV?$basic_string@GU?$char_traits@G@std@@V?$allocator@G@2@@std@@UTAG_DATA@Rename@@@std@@@2@$0A@@std@@@std@@QAEAAV012@XZ ; std::_Tree<std::_Tmap_traits<std::basic_string<unsigned short,std::char_traits<unsigned short>,std::allocator<unsigned short> >,Rename::TAG_DATA,std::less<std::basic_string<unsigned short,std::char_traits<unsigned short>,std::allocator<unsigned short> > >,std::allocator<std::pair<std::basic_string<unsigned short,std::char_traits<unsigned short>,std::allocator<unsigned short> > const ,Rename::TAG_DATA> >,0> >::iterator::operator++
$LN4@UserCmd_Se:
	lea	ecx, DWORD PTR $T151039[ebp]
	push	ecx
	mov	ecx, OFFSET ?mapTagToPassword@Rename@@3V?$map@V?$basic_string@GU?$char_traits@G@std@@V?$allocator@G@2@@std@@UTAG_DATA@Rename@@U?$less@V?$basic_string@GU?$char_traits@G@std@@V?$allocator@G@2@@std@@@2@V?$allocator@U?$pair@$$CBV?$basic_string@GU?$char_traits@G@std@@V?$allocator@G@2@@std@@UTAG_DATA@Rename@@@std@@@2@@std@@A ; Rename::mapTagToPassword
	call	?end@?$_Tree@V?$_Tmap_traits@V?$basic_string@GU?$char_traits@G@std@@V?$allocator@G@2@@std@@UTAG_DATA@Rename@@U?$less@V?$basic_string@GU?$char_traits@G@std@@V?$allocator@G@2@@std@@@2@V?$allocator@U?$pair@$$CBV?$basic_string@GU?$char_traits@G@std@@V?$allocator@G@2@@std@@UTAG_DATA@Rename@@@std@@@2@$0A@@std@@@std@@QAE?AViterator@12@XZ ; std::_Tree<std::_Tmap_traits<std::basic_string<unsigned short,std::char_traits<unsigned short>,std::allocator<unsigned short> >,Rename::TAG_DATA,std::less<std::basic_string<unsigned short,std::char_traits<unsigned short>,std::allocator<unsigned short> > >,std::allocator<std::pair<std::basic_string<unsigned short,std::char_traits<unsigned short>,std::allocator<unsigned short> > const ,Rename::TAG_DATA> >,0> >::end
	push	eax
	lea	ecx, DWORD PTR _i$142981[ebp]
	call	??9const_iterator@?$_Tree@V?$_Tmap_traits@V?$basic_string@GU?$char_traits@G@std@@V?$allocator@G@2@@std@@UTAG_DATA@Rename@@U?$less@V?$basic_string@GU?$char_traits@G@std@@V?$allocator@G@2@@std@@@2@V?$allocator@U?$pair@$$CBV?$basic_string@GU?$char_traits@G@std@@V?$allocator@G@2@@std@@UTAG_DATA@Rename@@@std@@@2@$0A@@std@@@std@@QBE_NABV012@@Z ; std::_Tree<std::_Tmap_traits<std::basic_string<unsigned short,std::char_traits<unsigned short>,std::allocator<unsigned short> >,Rename::TAG_DATA,std::less<std::basic_string<unsigned short,std::char_traits<unsigned short>,std::allocator<unsigned short> > >,std::allocator<std::pair<std::basic_string<unsigned short,std::char_traits<unsigned short>,std::allocator<unsigned short> > const ,Rename::TAG_DATA> >,0> >::const_iterator::operator!=
	movzx	edx, al
	test	edx, edx
	je	$LN2@UserCmd_Se
; Line 372
	lea	ecx, DWORD PTR _i$142981[ebp]
	call	??Citerator@?$_Tree@V?$_Tmap_traits@V?$basic_string@GU?$char_traits@G@std@@V?$allocator@G@2@@std@@UTAG_DATA@Rename@@U?$less@V?$basic_string@GU?$char_traits@G@std@@V?$allocator@G@2@@std@@@2@V?$allocator@U?$pair@$$CBV?$basic_string@GU?$char_traits@G@std@@V?$allocator@G@2@@std@@UTAG_DATA@Rename@@@std@@@2@$0A@@std@@@std@@QBEPAU?$pair@$$CBV?$basic_string@GU?$char_traits@G@std@@V?$allocator@G@2@@std@@UTAG_DATA@Rename@@@2@XZ ; std::_Tree<std::_Tmap_traits<std::basic_string<unsigned short,std::char_traits<unsigned short>,std::allocator<unsigned short> >,Rename::TAG_DATA,std::less<std::basic_string<unsigned short,std::char_traits<unsigned short>,std::allocator<unsigned short> > >,std::allocator<std::pair<std::basic_string<unsigned short,std::char_traits<unsigned short>,std::allocator<unsigned short> > const ,Rename::TAG_DATA> >,0> >::iterator::operator->
	add	eax, 28					; 0000001cH
	push	eax
	lea	eax, DWORD PTR _tag$142962[ebp]
	push	eax
	call	DWORD PTR __imp_??$?8GU?$char_traits@G@std@@V?$allocator@G@1@@std@@YA_NABV?$basic_string@GU?$char_traits@G@std@@V?$allocator@G@2@@0@0@Z
	add	esp, 8
	movzx	ecx, al
	test	ecx, ecx
	je	$LN1@UserCmd_Se
	lea	ecx, DWORD PTR _i$142981[ebp]
	call	??Citerator@?$_Tree@V?$_Tmap_traits@V?$basic_string@GU?$char_traits@G@std@@V?$allocator@G@2@@std@@UTAG_DATA@Rename@@U?$less@V?$basic_string@GU?$char_traits@G@std@@V?$allocator@G@2@@std@@@2@V?$allocator@U?$pair@$$CBV?$basic_string@GU?$char_traits@G@std@@V?$allocator@G@2@@std@@UTAG_DATA@Rename@@@std@@@2@$0A@@std@@@std@@QBEPAU?$pair@$$CBV?$basic_string@GU?$char_traits@G@std@@V?$allocator@G@2@@std@@UTAG_DATA@Rename@@@2@XZ ; std::_Tree<std::_Tmap_traits<std::basic_string<unsigned short,std::char_traits<unsigned short>,std::allocator<unsigned short> >,Rename::TAG_DATA,std::less<std::basic_string<unsigned short,std::char_traits<unsigned short>,std::allocator<unsigned short> > >,std::allocator<std::pair<std::basic_string<unsigned short,std::char_traits<unsigned short>,std::allocator<unsigned short> > const ,Rename::TAG_DATA> >,0> >::iterator::operator->
	add	eax, 56					; 00000038H
	push	eax
	lea	edx, DWORD PTR _master_password$142964[ebp]
	push	edx
	call	DWORD PTR __imp_??$?8GU?$char_traits@G@std@@V?$allocator@G@1@@std@@YA_NABV?$basic_string@GU?$char_traits@G@std@@V?$allocator@G@2@@0@0@Z
	add	esp, 8
	movzx	eax, al
	test	eax, eax
	je	$LN1@UserCmd_Se
; Line 374
	lea	ecx, DWORD PTR _rename_password$142966[ebp]
	push	ecx
	lea	ecx, DWORD PTR _i$142981[ebp]
	call	??Citerator@?$_Tree@V?$_Tmap_traits@V?$basic_string@GU?$char_traits@G@std@@V?$allocator@G@2@@std@@UTAG_DATA@Rename@@U?$less@V?$basic_string@GU?$char_traits@G@std@@V?$allocator@G@2@@std@@@2@V?$allocator@U?$pair@$$CBV?$basic_string@GU?$char_traits@G@std@@V?$allocator@G@2@@std@@UTAG_DATA@Rename@@@std@@@2@$0A@@std@@@std@@QBEPAU?$pair@$$CBV?$basic_string@GU?$char_traits@G@std@@V?$allocator@G@2@@std@@UTAG_DATA@Rename@@@2@XZ ; std::_Tree<std::_Tmap_traits<std::basic_string<unsigned short,std::char_traits<unsigned short>,std::allocator<unsigned short> >,Rename::TAG_DATA,std::less<std::basic_string<unsigned short,std::char_traits<unsigned short>,std::allocator<unsigned short> > >,std::allocator<std::pair<std::basic_string<unsigned short,std::char_traits<unsigned short>,std::allocator<unsigned short> > const ,Rename::TAG_DATA> >,0> >::iterator::operator->
	add	eax, 84					; 00000054H
	mov	ecx, eax
	call	DWORD PTR __imp_??4?$basic_string@GU?$char_traits@G@std@@V?$allocator@G@2@@std@@QAEAAV01@ABV01@@Z
; Line 375
	call	?SaveSettings@Rename@@YAXXZ		; Rename::SaveSettings
; Line 376
	lea	ecx, DWORD PTR _tag$142962[ebp]
	call	DWORD PTR __imp_?c_str@?$basic_string@GU?$char_traits@G@std@@V?$allocator@G@2@@std@@QBEPBGXZ
	push	eax
	lea	ecx, DWORD PTR _rename_password$142966[ebp]
	call	DWORD PTR __imp_?c_str@?$basic_string@GU?$char_traits@G@std@@V?$allocator@G@2@@std@@QBEPBGXZ
	push	eax
	sub	esp, 28					; 0000001cH
	mov	ecx, esp
	mov	DWORD PTR $T151040[ebp], esp
	push	OFFSET $SG142989
	call	DWORD PTR __imp_??0?$basic_string@GU?$char_traits@G@std@@V?$allocator@G@2@@std@@QAE@PBG@Z
	mov	DWORD PTR tv143[ebp], eax
	mov	edx, DWORD PTR tv143[ebp]
	mov	DWORD PTR tv246[ebp], edx
	mov	BYTE PTR __$EHRec$[ebp+8], 5
	mov	eax, DWORD PTR _iClientID$[ebp]
	push	eax
	mov	BYTE PTR __$EHRec$[ebp+8], 4
	call	DWORD PTR __imp_?PrintUserCmdText@@YAXIV?$basic_string@GU?$char_traits@G@std@@V?$allocator@G@2@@std@@ZZ
	add	esp, 40					; 00000028H
; Line 377
	mov	BYTE PTR $T151041[ebp], 1
	mov	BYTE PTR __$EHRec$[ebp+8], 3
	lea	ecx, DWORD PTR _rename_password$142966[ebp]
	call	DWORD PTR __imp_??1?$basic_string@GU?$char_traits@G@std@@V?$allocator@G@2@@std@@QAE@XZ
	mov	BYTE PTR __$EHRec$[ebp+8], 2
	lea	ecx, DWORD PTR _master_password$142964[ebp]
	call	DWORD PTR __imp_??1?$basic_string@GU?$char_traits@G@std@@V?$allocator@G@2@@std@@QAE@XZ
	mov	DWORD PTR __$EHRec$[ebp+8], -1
	lea	ecx, DWORD PTR _tag$142962[ebp]
	call	DWORD PTR __imp_??1?$basic_string@GU?$char_traits@G@std@@V?$allocator@G@2@@std@@QAE@XZ
	mov	al, BYTE PTR $T151041[ebp]
	jmp	SHORT $LN7@UserCmd_Se
$LN1@UserCmd_Se:
; Line 379
	jmp	$LN3@UserCmd_Se
$LN2@UserCmd_Se:
; Line 380
	sub	esp, 28					; 0000001cH
	mov	ecx, esp
	mov	DWORD PTR $T151042[ebp], esp
	push	OFFSET $SG142992
	call	DWORD PTR __imp_??0?$basic_string@GU?$char_traits@G@std@@V?$allocator@G@2@@std@@QAE@PBG@Z
	mov	DWORD PTR tv131[ebp], eax
	mov	ecx, DWORD PTR tv131[ebp]
	mov	DWORD PTR tv251[ebp], ecx
	mov	BYTE PTR __$EHRec$[ebp+8], 6
	mov	edx, DWORD PTR _iClientID$[ebp]
	push	edx
	mov	BYTE PTR __$EHRec$[ebp+8], 4
	call	DWORD PTR __imp_?PrintUserCmdText@@YAXIV?$basic_string@GU?$char_traits@G@std@@V?$allocator@G@2@@std@@ZZ
	add	esp, 32					; 00000020H
; Line 381
	mov	BYTE PTR $T151043[ebp], 1
	mov	BYTE PTR __$EHRec$[ebp+8], 3
	lea	ecx, DWORD PTR _rename_password$142966[ebp]
	call	DWORD PTR __imp_??1?$basic_string@GU?$char_traits@G@std@@V?$allocator@G@2@@std@@QAE@XZ
	mov	BYTE PTR __$EHRec$[ebp+8], 2
	lea	ecx, DWORD PTR _master_password$142964[ebp]
	call	DWORD PTR __imp_??1?$basic_string@GU?$char_traits@G@std@@V?$allocator@G@2@@std@@QAE@XZ
	mov	DWORD PTR __$EHRec$[ebp+8], -1
	lea	ecx, DWORD PTR _tag$142962[ebp]
	call	DWORD PTR __imp_??1?$basic_string@GU?$char_traits@G@std@@V?$allocator@G@2@@std@@QAE@XZ
	mov	al, BYTE PTR $T151043[ebp]
	jmp	SHORT $LN7@UserCmd_Se
$LN6@UserCmd_Se:
; Line 383
	xor	al, al
$LN7@UserCmd_Se:
; Line 384
	mov	ecx, DWORD PTR __$EHRec$[ebp]
	mov	DWORD PTR fs:0, ecx
	pop	ecx
	mov	ecx, DWORD PTR __$ArrayPad$[ebp]
	xor	ecx, ebp
	call	@__security_check_cookie@4
	mov	esp, ebp
	pop	ebp
	ret	0
_TEXT	ENDS
text$x	SEGMENT
__unwindfunclet$?UserCmd_SetTagPass@Rename@@YA_NIABV?$basic_string@GU?$char_traits@G@std@@V?$allocator@G@2@@std@@0PBG@Z$0:
	mov	ecx, DWORD PTR $T151037[ebp]
	jmp	DWORD PTR __imp_??1?$basic_string@GU?$char_traits@G@std@@V?$allocator@G@2@@std@@QAE@XZ
__unwindfunclet$?UserCmd_SetTagPass@Rename@@YA_NIABV?$basic_string@GU?$char_traits@G@std@@V?$allocator@G@2@@std@@0PBG@Z$1:
	mov	ecx, DWORD PTR $T151038[ebp]
	jmp	DWORD PTR __imp_??1?$basic_string@GU?$char_traits@G@std@@V?$allocator@G@2@@std@@QAE@XZ
__unwindfunclet$?UserCmd_SetTagPass@Rename@@YA_NIABV?$basic_string@GU?$char_traits@G@std@@V?$allocator@G@2@@std@@0PBG@Z$2:
	lea	ecx, DWORD PTR _tag$142962[ebp]
	jmp	DWORD PTR __imp_??1?$basic_string@GU?$char_traits@G@std@@V?$allocator@G@2@@std@@QAE@XZ
__unwindfunclet$?UserCmd_SetTagPass@Rename@@YA_NIABV?$basic_string@GU?$char_traits@G@std@@V?$allocator@G@2@@std@@0PBG@Z$3:
	lea	ecx, DWORD PTR _master_password$142964[ebp]
	jmp	DWORD PTR __imp_??1?$basic_string@GU?$char_traits@G@std@@V?$allocator@G@2@@std@@QAE@XZ
__unwindfunclet$?UserCmd_SetTagPass@Rename@@YA_NIABV?$basic_string@GU?$char_traits@G@std@@V?$allocator@G@2@@std@@0PBG@Z$4:
	lea	ecx, DWORD PTR _rename_password$142966[ebp]
	jmp	DWORD PTR __imp_??1?$basic_string@GU?$char_traits@G@std@@V?$allocator@G@2@@std@@QAE@XZ
__unwindfunclet$?UserCmd_SetTagPass@Rename@@YA_NIABV?$basic_string@GU?$char_traits@G@std@@V?$allocator@G@2@@std@@0PBG@Z$5:
	mov	ecx, DWORD PTR $T151040[ebp]
	jmp	DWORD PTR __imp_??1?$basic_string@GU?$char_traits@G@std@@V?$allocator@G@2@@std@@QAE@XZ
__unwindfunclet$?UserCmd_SetTagPass@Rename@@YA_NIABV?$basic_string@GU?$char_traits@G@std@@V?$allocator@G@2@@std@@0PBG@Z$6:
	mov	ecx, DWORD PTR $T151042[ebp]
	jmp	DWORD PTR __imp_??1?$basic_string@GU?$char_traits@G@std@@V?$allocator@G@2@@std@@QAE@XZ
__ehhandler$?UserCmd_SetTagPass@Rename@@YA_NIABV?$basic_string@GU?$char_traits@G@std@@V?$allocator@G@2@@std@@0PBG@Z:
	mov	edx, DWORD PTR [esp+8]
	lea	eax, DWORD PTR [edx+12]
	mov	ecx, DWORD PTR [edx-164]
	xor	ecx, eax
	call	@__security_check_cookie@4
	mov	ecx, DWORD PTR [edx-4]
	xor	ecx, eax
	call	@__security_check_cookie@4
	mov	eax, OFFSET __ehfuncinfo$?UserCmd_SetTagPass@Rename@@YA_NIABV?$basic_string@GU?$char_traits@G@std@@V?$allocator@G@2@@std@@0PBG@Z
	jmp	___CxxFrameHandler3
text$x	ENDS
?UserCmd_SetTagPass@Rename@@YA_NIABV?$basic_string@GU?$char_traits@G@std@@V?$allocator@G@2@@std@@0PBG@Z ENDP ; Rename::UserCmd_SetTagPass
PUBLIC	?pop_front@?$list@UMOVE@Rename@@V?$allocator@UMOVE@Rename@@@std@@@std@@QAEXXZ ; std::list<Rename::MOVE,std::allocator<Rename::MOVE> >::pop_front
PUBLIC	??1MOVE@Rename@@QAE@XZ				; Rename::MOVE::~MOVE
PUBLIC	??0MOVE@Rename@@QAE@ABU01@@Z			; Rename::MOVE::MOVE
PUBLIC	?front@?$list@UMOVE@Rename@@V?$allocator@UMOVE@Rename@@@std@@@std@@QAEAAUMOVE@Rename@@XZ ; std::list<Rename::MOVE,std::allocator<Rename::MOVE> >::front
PUBLIC	?size@?$list@UMOVE@Rename@@V?$allocator@UMOVE@Rename@@@std@@@std@@QBEIXZ ; std::list<Rename::MOVE,std::allocator<Rename::MOVE> >::size
PUBLIC	__TI2PAD
PUBLIC	?pop_front@?$list@URENAME@Rename@@V?$allocator@URENAME@Rename@@@std@@@std@@QAEXXZ ; std::list<Rename::RENAME,std::allocator<Rename::RENAME> >::pop_front
PUBLIC	??1RENAME@Rename@@QAE@XZ			; Rename::RENAME::~RENAME
PUBLIC	??0RENAME@Rename@@QAE@ABU01@@Z			; Rename::RENAME::RENAME
PUBLIC	?front@?$list@URENAME@Rename@@V?$allocator@URENAME@Rename@@@std@@@std@@QAEAAURENAME@Rename@@XZ ; std::list<Rename::RENAME,std::allocator<Rename::RENAME> >::front
PUBLIC	?size@?$list@URENAME@Rename@@V?$allocator@URENAME@Rename@@@std@@@std@@QBEIXZ ; std::list<Rename::RENAME,std::allocator<Rename::RENAME> >::size
PUBLIC	__$ArrayPad$
PUBLIC	?Timer@Rename@@YAXXZ				; Rename::Timer
PUBLIC	??_R0PAD@8					; char * `RTTI Type Descriptor'
PUBLIC	__CTA2PAD
PUBLIC	__CT??_R0PAD@84
PUBLIC	__CT??_R0PAX@84
PUBLIC	??_R0PAX@8					; void * `RTTI Type Descriptor'
EXTRN	__imp_?HkGetAccountID@@YA?AV?$basic_string@GU?$char_traits@G@std@@V?$allocator@G@2@@std@@PAVCAccount@@@Z:PROC
EXTRN	__imp__PathFileExistsA@4:PROC
EXTRN	?HkNewCharacter@@YA?AW4HK_ERROR@@PAVCAccount@@AAV?$basic_string@GU?$char_traits@G@std@@V?$allocator@G@2@@std@@@Z:PROC ; HkNewCharacter
EXTRN	?HkDeleteCharacter@@YA?AW4HK_ERROR@@PAVCAccount@@AAV?$basic_string@GU?$char_traits@G@std@@V?$allocator@G@2@@std@@@Z:PROC ; HkDeleteCharacter
EXTRN	__imp_?flc_encode@@YA_NPBD0@Z:PROC
EXTRN	__imp_?set_bDisableCharfileEncryption@@3_NA:BYTE
EXTRN	__imp_?IniWriteW@@YAXABV?$basic_string@DU?$char_traits@D@std@@V?$allocator@D@2@@std@@00ABV?$basic_string@GU?$char_traits@G@std@@V?$allocator@G@2@@2@@Z:PROC
EXTRN	__imp_?flc_decode@@YA_NPBD0@Z:PROC
EXTRN	__imp__MoveFileExA@12:PROC
EXTRN	__imp_?HkUnlockAccountAccess@@YAXPAVCAccount@@@Z:PROC
EXTRN	__imp_?HkLockAccountAccess@@YAXPAVCAccount@@_N@Z:PROC
EXTRN	__imp_?HkGetAccountByCharname@@YAPAVCAccount@@ABV?$basic_string@GU?$char_traits@G@std@@V?$allocator@G@2@@std@@@Z:PROC
EXTRN	__CxxThrowException@8:PROC
EXTRN	??_7type_info@@6B@:QWORD			; type_info::`vftable'
;	COMDAT ??_R0PAX@8
_DATA	SEGMENT
??_R0PAX@8 DD	FLAT:??_7type_info@@6B@			; void * `RTTI Type Descriptor'
	DD	00H
	DB	'.PAX', 00H
_DATA	ENDS
;	COMDAT __CT??_R0PAX@84
xdata$x	SEGMENT
__CT??_R0PAX@84 DD 01H
	DD	FLAT:??_R0PAX@8
	DD	00H
	DD	0ffffffffH
	ORG $+4
	DD	04H
	DD	00H
xdata$x	ENDS
;	COMDAT __CT??_R0PAD@84
xdata$x	SEGMENT
__CT??_R0PAD@84 DD 01H
	DD	FLAT:??_R0PAD@8
	DD	00H
	DD	0ffffffffH
	ORG $+4
	DD	04H
	DD	00H
xdata$x	ENDS
;	COMDAT __CTA2PAD
xdata$x	SEGMENT
__CTA2PAD DD	02H
	DD	FLAT:__CT??_R0PAD@84
	DD	FLAT:__CT??_R0PAX@84
xdata$x	ENDS
;	COMDAT ??_R0PAD@8
_DATA	SEGMENT
??_R0PAD@8 DD	FLAT:??_7type_info@@6B@			; char * `RTTI Type Descriptor'
	DD	00H
	DB	'.PAD', 00H
_DATA	ENDS
;	COMDAT __TI2PAD
xdata$x	SEGMENT
__TI2PAD DD	00H
	DD	00H
	DD	00H
	DD	FLAT:__CTA2PAD
xdata$x	ENDS
xdata$x	SEGMENT
__catchsym$?Timer@Rename@@YAXXZ$27 DD 00H
	DD	FLAT:??_R0PAD@8
	DD	0fffffeb4H
	DD	FLAT:__catch$?Timer@Rename@@YAXXZ$2
__catchsym$?Timer@Rename@@YAXXZ$26 DD 00H
	DD	FLAT:??_R0PAD@8
	DD	0ffffff54H
	DD	FLAT:__catch$?Timer@Rename@@YAXXZ$0
__ehfuncinfo$?Timer@Rename@@YAXXZ DD 019930522H
	DD	01aH
	DD	FLAT:__unwindtable$?Timer@Rename@@YAXXZ
	DD	02H
	DD	FLAT:__tryblocktable$?Timer@Rename@@YAXXZ
	DD	2 DUP(00H)
	DD	00H
	DD	00H
__tryblocktable$?Timer@Rename@@YAXXZ DD 01H
	DD	07H
	DD	0cH
	DD	01H
	DD	FLAT:__catchsym$?Timer@Rename@@YAXXZ$26
	DD	0eH
	DD	013H
	DD	019H
	DD	01H
	DD	FLAT:__catchsym$?Timer@Rename@@YAXXZ$27
__unwindtable$?Timer@Rename@@YAXXZ DD 0ffffffffH
	DD	FLAT:__unwindfunclet$?Timer@Rename@@YAXXZ$4
	DD	00H
	DD	00H
	DD	01H
	DD	FLAT:__unwindfunclet$?Timer@Rename@@YAXXZ$5
	DD	02H
	DD	FLAT:__unwindfunclet$?Timer@Rename@@YAXXZ$6
	DD	01H
	DD	FLAT:__unwindfunclet$?Timer@Rename@@YAXXZ$7
	DD	04H
	DD	FLAT:__unwindfunclet$?Timer@Rename@@YAXXZ$8
	DD	05H
	DD	FLAT:__unwindfunclet$?Timer@Rename@@YAXXZ$9
	DD	06H
	DD	FLAT:__unwindfunclet$?Timer@Rename@@YAXXZ$10
	DD	00H
	DD	00H
	DD	08H
	DD	FLAT:__unwindfunclet$?Timer@Rename@@YAXXZ$11
	DD	09H
	DD	FLAT:__unwindfunclet$?Timer@Rename@@YAXXZ$12
	DD	0aH
	DD	FLAT:__unwindfunclet$?Timer@Rename@@YAXXZ$13
	DD	0bH
	DD	FLAT:__unwindfunclet$?Timer@Rename@@YAXXZ$14
	DD	0ffffffffH
	DD	FLAT:__unwindfunclet$?Timer@Rename@@YAXXZ$15
	DD	0dH
	DD	00H
	DD	0eH
	DD	FLAT:__unwindfunclet$?Timer@Rename@@YAXXZ$16
	DD	0fH
	DD	FLAT:__unwindfunclet$?Timer@Rename@@YAXXZ$17
	DD	010H
	DD	FLAT:__unwindfunclet$?Timer@Rename@@YAXXZ$18
	DD	011H
	DD	FLAT:__unwindfunclet$?Timer@Rename@@YAXXZ$19
	DD	012H
	DD	FLAT:__unwindfunclet$?Timer@Rename@@YAXXZ$20
	DD	0dH
	DD	00H
	DD	014H
	DD	FLAT:__unwindfunclet$?Timer@Rename@@YAXXZ$21
	DD	015H
	DD	FLAT:__unwindfunclet$?Timer@Rename@@YAXXZ$22
	DD	016H
	DD	FLAT:__unwindfunclet$?Timer@Rename@@YAXXZ$23
	DD	017H
	DD	FLAT:__unwindfunclet$?Timer@Rename@@YAXXZ$24
	DD	018H
	DD	FLAT:__unwindfunclet$?Timer@Rename@@YAXXZ$25
; Function compile flags: /Odtp
xdata$x	ENDS
_TEXT	SEGMENT
tv456 = -1072						; size = 4
tv471 = -1068						; size = 4
tv454 = -1064						; size = 4
tv470 = -1060						; size = 4
tv452 = -1056						; size = 4
tv469 = -1052						; size = 4
tv450 = -1048						; size = 4
tv468 = -1044						; size = 4
tv448 = -1040						; size = 4
tv467 = -1036						; size = 4
tv446 = -1032						; size = 4
tv466 = -1028						; size = 4
tv444 = -1024						; size = 4
tv465 = -1020						; size = 4
tv442 = -1016						; size = 4
tv464 = -1012						; size = 4
tv440 = -1008						; size = 4
tv463 = -1004						; size = 4
tv438 = -1000						; size = 4
tv248 = -996						; size = 4
tv432 = -992						; size = 4
tv462 = -988						; size = 4
tv430 = -984						; size = 4
tv461 = -980						; size = 4
tv428 = -976						; size = 4
tv460 = -972						; size = 4
tv426 = -968						; size = 4
tv459 = -964						; size = 4
tv424 = -960						; size = 4
tv458 = -956						; size = 4
tv422 = -952						; size = 4
tv68 = -948						; size = 4
tv420 = -944						; size = 4
tv136 = -940						; size = 4
tv418 = -936						; size = 4
tv141 = -932						; size = 4
$T151086 = -928						; size = 28
$T151085 = -900						; size = 28
$T151084 = -872						; size = 28
$T151083 = -844						; size = 28
$T151082 = -816						; size = 28
$T151081 = -788						; size = 28
$T151080 = -760						; size = 28
$T151079 = -732						; size = 28
$T151078 = -704						; size = 28
$T151077 = -676						; size = 28
$T151076 = -648						; size = 4
$T151075 = -644						; size = 4
$T151074 = -640						; size = 4
$T151073 = -636						; size = 4
$T151072 = -632						; size = 28
$T151071 = -604						; size = 28
$T151070 = -576						; size = 28
$T151069 = -548						; size = 28
$T151068 = -520						; size = 28
$T151067 = -492						; size = 28
$T151066 = -464						; size = 28
$T151065 = -436						; size = 28
$T151064 = -408						; size = 4
$T151063 = -404						; size = 4
$T151062 = -400						; size = 4
$T151061 = -396						; size = 28
$T151060 = -368						; size = 28
$T151059 = -340						; size = 4
$T151057 = -336						; size = 4
_err$144153 = -332					; size = 4
_o$144129 = -328					; size = 140
_acc$144132 = -180					; size = 4
_oldAcc$144133 = -176					; size = 4
_err$144120 = -172					; size = 4
_o$144085 = -168					; size = 140
__$ArrayPad$ = -24					; size = 4
_acc$144087 = -20					; size = 4
__$EHRec$ = -16						; size = 16
?Timer@Rename@@YAXXZ PROC				; Rename::Timer
; Line 409
	push	ebp
	mov	ebp, esp
	push	-1
	push	__ehhandler$?Timer@Rename@@YAXXZ
	mov	eax, DWORD PTR fs:0
	push	eax
	push	ecx
	sub	esp, 1056				; 00000420H
	mov	eax, DWORD PTR ___security_cookie
	xor	eax, ebp
	mov	DWORD PTR __$ArrayPad$[ebp], eax
	push	ebx
	push	esi
	push	edi
	push	eax
	lea	eax, DWORD PTR __$EHRec$[ebp+4]
	mov	DWORD PTR fs:0, eax
	mov	DWORD PTR __$EHRec$[ebp], esp
$LN19@Timer:
; Line 427
	mov	ecx, OFFSET ?pendingRenames@Rename@@3V?$list@URENAME@Rename@@V?$allocator@URENAME@Rename@@@std@@@std@@A ; Rename::pendingRenames
	call	?size@?$list@URENAME@Rename@@V?$allocator@URENAME@Rename@@@std@@@std@@QBEIXZ ; std::list<Rename::RENAME,std::allocator<Rename::RENAME> >::size
	test	eax, eax
	je	$LN9@Timer
; Line 429
	mov	ecx, OFFSET ?pendingRenames@Rename@@3V?$list@URENAME@Rename@@V?$allocator@URENAME@Rename@@@std@@@std@@A ; Rename::pendingRenames
	call	?front@?$list@URENAME@Rename@@V?$allocator@URENAME@Rename@@@std@@@std@@QAEAAURENAME@Rename@@XZ ; std::list<Rename::RENAME,std::allocator<Rename::RENAME> >::front
	push	eax
	lea	ecx, DWORD PTR _o$144085[ebp]
	call	??0RENAME@Rename@@QAE@ABU01@@Z
	mov	DWORD PTR __$EHRec$[ebp+12], 0
; Line 430
	lea	eax, DWORD PTR _o$144085[ebp]
	push	eax
	call	DWORD PTR __imp_?HkGetClientIdFromCharname@@YAIABV?$basic_string@GU?$char_traits@G@std@@V?$allocator@G@2@@std@@@Z
	add	esp, 4
	cmp	eax, -1
	je	SHORT $LN17@Timer
; Line 431
	mov	DWORD PTR __$EHRec$[ebp+12], -1
	lea	ecx, DWORD PTR _o$144085[ebp]
	call	??1RENAME@Rename@@QAE@XZ
	jmp	$LN21@Timer
$LN17@Timer:
; Line 433
	mov	ecx, OFFSET ?pendingRenames@Rename@@3V?$list@URENAME@Rename@@V?$allocator@URENAME@Rename@@@std@@@std@@A ; Rename::pendingRenames
	call	?pop_front@?$list@URENAME@Rename@@V?$allocator@URENAME@Rename@@@std@@@std@@QAEXXZ ; std::list<Rename::RENAME,std::allocator<Rename::RENAME> >::pop_front
; Line 435
	lea	ecx, DWORD PTR _o$144085[ebp]
	push	ecx
	call	DWORD PTR __imp_?HkGetAccountByCharname@@YAPAVCAccount@@ABV?$basic_string@GU?$char_traits@G@std@@V?$allocator@G@2@@std@@@Z
	add	esp, 4
	mov	DWORD PTR _acc$144087[ebp], eax
; Line 440
	mov	BYTE PTR __$EHRec$[ebp+12], 1
; Line 441
	cmp	DWORD PTR _acc$144087[ebp], 0
	jne	SHORT $LN15@Timer
; Line 442
	mov	DWORD PTR $T151057[ebp], OFFSET $SG144097
	push	OFFSET __TI2PAD
	lea	edx, DWORD PTR $T151057[ebp]
	push	edx
	call	__CxxThrowException@8
$LN15@Timer:
; Line 444
	push	1
	mov	eax, DWORD PTR _acc$144087[ebp]
	push	eax
	call	DWORD PTR __imp_?HkLockAccountAccess@@YAXPAVCAccount@@_N@Z
	add	esp, 8
; Line 445
	mov	ecx, DWORD PTR _acc$144087[ebp]
	push	ecx
	call	DWORD PTR __imp_?HkUnlockAccountAccess@@YAXPAVCAccount@@@Z
	add	esp, 4
; Line 449
	push	9
	lea	ecx, DWORD PTR _o$144085[ebp+112]
	call	DWORD PTR __imp_?c_str@?$basic_string@DU?$char_traits@D@std@@V?$allocator@D@2@@std@@QBEPBDXZ
	push	eax
	lea	ecx, DWORD PTR _o$144085[ebp+56]
	call	DWORD PTR __imp_?c_str@?$basic_string@DU?$char_traits@D@std@@V?$allocator@D@2@@std@@QBEPBDXZ
	push	eax
	call	DWORD PTR __imp__MoveFileExA@12
	test	eax, eax
	jne	SHORT $LN14@Timer
; Line 450
	mov	DWORD PTR $T151059[ebp], OFFSET $SG144100
	push	OFFSET __TI2PAD
	lea	edx, DWORD PTR $T151059[ebp]
	push	edx
	call	__CxxThrowException@8
$LN14@Timer:
; Line 455
	lea	ecx, DWORD PTR _o$144085[ebp+112]
	call	DWORD PTR __imp_?c_str@?$basic_string@DU?$char_traits@D@std@@V?$allocator@D@2@@std@@QBEPBDXZ
	push	eax
	lea	ecx, DWORD PTR _o$144085[ebp+112]
	call	DWORD PTR __imp_?c_str@?$basic_string@DU?$char_traits@D@std@@V?$allocator@D@2@@std@@QBEPBDXZ
	push	eax
	call	DWORD PTR __imp_?flc_decode@@YA_NPBD0@Z
	add	esp, 8
; Line 456
	push	OFFSET $SG144103
	lea	ecx, DWORD PTR $T151060[ebp]
	call	DWORD PTR __imp_??0?$basic_string@DU?$char_traits@D@std@@V?$allocator@D@2@@std@@QAE@PBD@Z
	mov	BYTE PTR __$EHRec$[ebp+12], 2
	push	OFFSET $SG144104
	lea	ecx, DWORD PTR $T151061[ebp]
	call	DWORD PTR __imp_??0?$basic_string@DU?$char_traits@D@std@@V?$allocator@D@2@@std@@QAE@PBD@Z
	mov	BYTE PTR __$EHRec$[ebp+12], 3
	lea	eax, DWORD PTR _o$144085[ebp+28]
	push	eax
	lea	ecx, DWORD PTR $T151060[ebp]
	push	ecx
	lea	edx, DWORD PTR $T151061[ebp]
	push	edx
	lea	eax, DWORD PTR _o$144085[ebp+112]
	push	eax
	call	DWORD PTR __imp_?IniWriteW@@YAXABV?$basic_string@DU?$char_traits@D@std@@V?$allocator@D@2@@std@@00ABV?$basic_string@GU?$char_traits@G@std@@V?$allocator@G@2@@2@@Z
	add	esp, 16					; 00000010H
	mov	BYTE PTR __$EHRec$[ebp+12], 2
	lea	ecx, DWORD PTR $T151061[ebp]
	call	DWORD PTR __imp_??1?$basic_string@DU?$char_traits@D@std@@V?$allocator@D@2@@std@@QAE@XZ
	mov	BYTE PTR __$EHRec$[ebp+12], 1
	lea	ecx, DWORD PTR $T151060[ebp]
	call	DWORD PTR __imp_??1?$basic_string@DU?$char_traits@D@std@@V?$allocator@D@2@@std@@QAE@XZ
; Line 457
	mov	ecx, DWORD PTR __imp_?set_bDisableCharfileEncryption@@3_NA
	movzx	edx, BYTE PTR [ecx]
	test	edx, edx
	jne	SHORT $LN13@Timer
; Line 459
	lea	ecx, DWORD PTR _o$144085[ebp+112]
	call	DWORD PTR __imp_?c_str@?$basic_string@DU?$char_traits@D@std@@V?$allocator@D@2@@std@@QBEPBDXZ
	push	eax
	lea	ecx, DWORD PTR _o$144085[ebp+112]
	call	DWORD PTR __imp_?c_str@?$basic_string@DU?$char_traits@D@std@@V?$allocator@D@2@@std@@QBEPBDXZ
	push	eax
	call	DWORD PTR __imp_?flc_encode@@YA_NPBD0@Z
	add	esp, 8
$LN13@Timer:
; Line 463
	lea	eax, DWORD PTR _o$144085[ebp]
	push	eax
	mov	ecx, DWORD PTR _acc$144087[ebp]
	push	ecx
	call	?HkDeleteCharacter@@YA?AW4HK_ERROR@@PAVCAccount@@AAV?$basic_string@GU?$char_traits@G@std@@V?$allocator@G@2@@std@@@Z ; HkDeleteCharacter
	add	esp, 8
; Line 464
	lea	edx, DWORD PTR _o$144085[ebp+28]
	push	edx
	mov	eax, DWORD PTR _acc$144087[ebp]
	push	eax
	call	?HkNewCharacter@@YA?AW4HK_ERROR@@PAVCAccount@@AAV?$basic_string@GU?$char_traits@G@std@@V?$allocator@G@2@@std@@@Z ; HkNewCharacter
	add	esp, 8
; Line 468
	push	9
	lea	ecx, DWORD PTR _o$144085[ebp+84]
	call	DWORD PTR __imp_?c_str@?$basic_string@DU?$char_traits@D@std@@V?$allocator@D@2@@std@@QBEPBDXZ
	push	eax
	lea	ecx, DWORD PTR _o$144085[ebp+112]
	call	DWORD PTR __imp_?c_str@?$basic_string@DU?$char_traits@D@std@@V?$allocator@D@2@@std@@QBEPBDXZ
	push	eax
	call	DWORD PTR __imp__MoveFileExA@12
	test	eax, eax
	jne	SHORT $LN12@Timer
; Line 469
	mov	DWORD PTR $T151062[ebp], OFFSET $SG144108
	push	OFFSET __TI2PAD
	lea	ecx, DWORD PTR $T151062[ebp]
	push	ecx
	call	__CxxThrowException@8
$LN12@Timer:
; Line 470
	lea	ecx, DWORD PTR _o$144085[ebp+56]
	call	DWORD PTR __imp_?c_str@?$basic_string@DU?$char_traits@D@std@@V?$allocator@D@2@@std@@QBEPBDXZ
	push	eax
	call	DWORD PTR __imp__PathFileExistsA@4
	test	eax, eax
	je	SHORT $LN11@Timer
; Line 471
	mov	DWORD PTR $T151063[ebp], OFFSET $SG144111
	push	OFFSET __TI2PAD
	lea	edx, DWORD PTR $T151063[ebp]
	push	edx
	call	__CxxThrowException@8
$LN11@Timer:
; Line 472
	lea	ecx, DWORD PTR _o$144085[ebp+84]
	call	DWORD PTR __imp_?c_str@?$basic_string@DU?$char_traits@D@std@@V?$allocator@D@2@@std@@QBEPBDXZ
	push	eax
	call	DWORD PTR __imp__PathFileExistsA@4
	test	eax, eax
	jne	SHORT $LN10@Timer
; Line 473
	mov	DWORD PTR $T151064[ebp], OFFSET $SG144114
	push	OFFSET __TI2PAD
	lea	eax, DWORD PTR $T151064[ebp]
	push	eax
	call	__CxxThrowException@8
$LN10@Timer:
; Line 476
	mov	ecx, DWORD PTR _acc$144087[ebp]
	push	ecx
	lea	edx, DWORD PTR $T151065[ebp]
	push	edx
	call	DWORD PTR __imp_?HkGetAccountID@@YA?AV?$basic_string@GU?$char_traits@G@std@@V?$allocator@G@2@@std@@PAVCAccount@@@Z
	add	esp, 8
	mov	DWORD PTR tv141[ebp], eax
	mov	eax, DWORD PTR tv141[ebp]
	mov	DWORD PTR tv418[ebp], eax
	mov	BYTE PTR __$EHRec$[ebp+12], 4
	mov	ecx, DWORD PTR tv418[ebp]
	push	ecx
	lea	edx, DWORD PTR $T151066[ebp]
	push	edx
	call	DWORD PTR __imp_?wstos@@YA?AV?$basic_string@DU?$char_traits@D@std@@V?$allocator@D@2@@std@@ABV?$basic_string@GU?$char_traits@G@std@@V?$allocator@G@2@@2@@Z
	add	esp, 8
	mov	DWORD PTR tv136[ebp], eax
	mov	eax, DWORD PTR tv136[ebp]
	mov	DWORD PTR tv420[ebp], eax
	mov	BYTE PTR __$EHRec$[ebp+12], 5
	mov	ecx, DWORD PTR tv420[ebp]
	call	DWORD PTR __imp_?c_str@?$basic_string@DU?$char_traits@D@std@@V?$allocator@D@2@@std@@QBEPBDXZ
	push	eax
	lea	ecx, DWORD PTR _o$144085[ebp+28]
	push	ecx
	lea	edx, DWORD PTR $T151067[ebp]
	push	edx
	call	DWORD PTR __imp_?wstos@@YA?AV?$basic_string@DU?$char_traits@D@std@@V?$allocator@D@2@@std@@ABV?$basic_string@GU?$char_traits@G@std@@V?$allocator@G@2@@2@@Z
	add	esp, 8
	mov	DWORD PTR tv68[ebp], eax
	mov	eax, DWORD PTR tv68[ebp]
	mov	DWORD PTR tv422[ebp], eax
	mov	BYTE PTR __$EHRec$[ebp+12], 6
	mov	ecx, DWORD PTR tv422[ebp]
	call	DWORD PTR __imp_?c_str@?$basic_string@DU?$char_traits@D@std@@V?$allocator@D@2@@std@@QBEPBDXZ
	push	eax
	lea	ecx, DWORD PTR _o$144085[ebp]
	push	ecx
	lea	edx, DWORD PTR $T151068[ebp]
	push	edx
	call	DWORD PTR __imp_?wstos@@YA?AV?$basic_string@DU?$char_traits@D@std@@V?$allocator@D@2@@std@@ABV?$basic_string@GU?$char_traits@G@std@@V?$allocator@G@2@@2@@Z
	add	esp, 8
	mov	DWORD PTR tv458[ebp], eax
	mov	eax, DWORD PTR tv458[ebp]
	mov	DWORD PTR tv424[ebp], eax
	mov	BYTE PTR __$EHRec$[ebp+12], 7
	mov	ecx, DWORD PTR tv424[ebp]
	call	DWORD PTR __imp_?c_str@?$basic_string@DU?$char_traits@D@std@@V?$allocator@D@2@@std@@QBEPBDXZ
	push	eax
	push	OFFSET $SG144119
	call	DWORD PTR __imp_?AddLog@@YAXPBDZZ
	add	esp, 16					; 00000010H
	mov	BYTE PTR __$EHRec$[ebp+12], 6
	lea	ecx, DWORD PTR $T151068[ebp]
	call	DWORD PTR __imp_??1?$basic_string@DU?$char_traits@D@std@@V?$allocator@D@2@@std@@QAE@XZ
	mov	BYTE PTR __$EHRec$[ebp+12], 5
	lea	ecx, DWORD PTR $T151067[ebp]
	call	DWORD PTR __imp_??1?$basic_string@DU?$char_traits@D@std@@V?$allocator@D@2@@std@@QAE@XZ
	mov	BYTE PTR __$EHRec$[ebp+12], 4
	lea	ecx, DWORD PTR $T151066[ebp]
	call	DWORD PTR __imp_??1?$basic_string@DU?$char_traits@D@std@@V?$allocator@D@2@@std@@QAE@XZ
	mov	BYTE PTR __$EHRec$[ebp+12], 1
	lea	ecx, DWORD PTR $T151065[ebp]
	call	DWORD PTR __imp_??1?$basic_string@GU?$char_traits@G@std@@V?$allocator@G@2@@std@@QAE@XZ
; Line 477
	jmp	$LN22@Timer
__catch$?Timer@Rename@@YAXXZ$0:
; Line 480
	mov	ecx, DWORD PTR _acc$144087[ebp]
	push	ecx
	lea	edx, DWORD PTR $T151069[ebp]
	push	edx
	call	DWORD PTR __imp_?HkGetAccountID@@YA?AV?$basic_string@GU?$char_traits@G@std@@V?$allocator@G@2@@std@@PAVCAccount@@@Z
	add	esp, 8
	mov	DWORD PTR tv459[ebp], eax
	mov	eax, DWORD PTR tv459[ebp]
	mov	DWORD PTR tv426[ebp], eax
	mov	BYTE PTR __$EHRec$[ebp+12], 9
	mov	ecx, DWORD PTR tv426[ebp]
	push	ecx
	lea	edx, DWORD PTR $T151070[ebp]
	push	edx
	call	DWORD PTR __imp_?wstos@@YA?AV?$basic_string@DU?$char_traits@D@std@@V?$allocator@D@2@@std@@ABV?$basic_string@GU?$char_traits@G@std@@V?$allocator@G@2@@2@@Z
	add	esp, 8
	mov	DWORD PTR tv460[ebp], eax
	mov	eax, DWORD PTR tv460[ebp]
	mov	DWORD PTR tv428[ebp], eax
	mov	BYTE PTR __$EHRec$[ebp+12], 10		; 0000000aH
	mov	ecx, DWORD PTR tv428[ebp]
	call	DWORD PTR __imp_?c_str@?$basic_string@DU?$char_traits@D@std@@V?$allocator@D@2@@std@@QBEPBDXZ
	push	eax
	lea	ecx, DWORD PTR _o$144085[ebp+28]
	push	ecx
	lea	edx, DWORD PTR $T151071[ebp]
	push	edx
	call	DWORD PTR __imp_?wstos@@YA?AV?$basic_string@DU?$char_traits@D@std@@V?$allocator@D@2@@std@@ABV?$basic_string@GU?$char_traits@G@std@@V?$allocator@G@2@@2@@Z
	add	esp, 8
	mov	DWORD PTR tv461[ebp], eax
	mov	eax, DWORD PTR tv461[ebp]
	mov	DWORD PTR tv430[ebp], eax
	mov	BYTE PTR __$EHRec$[ebp+12], 11		; 0000000bH
	mov	ecx, DWORD PTR tv430[ebp]
	call	DWORD PTR __imp_?c_str@?$basic_string@DU?$char_traits@D@std@@V?$allocator@D@2@@std@@QBEPBDXZ
	push	eax
	lea	ecx, DWORD PTR _o$144085[ebp]
	push	ecx
	lea	edx, DWORD PTR $T151072[ebp]
	push	edx
	call	DWORD PTR __imp_?wstos@@YA?AV?$basic_string@DU?$char_traits@D@std@@V?$allocator@D@2@@std@@ABV?$basic_string@GU?$char_traits@G@std@@V?$allocator@G@2@@2@@Z
	add	esp, 8
	mov	DWORD PTR tv462[ebp], eax
	mov	eax, DWORD PTR tv462[ebp]
	mov	DWORD PTR tv432[ebp], eax
	mov	BYTE PTR __$EHRec$[ebp+12], 12		; 0000000cH
	mov	ecx, DWORD PTR tv432[ebp]
	call	DWORD PTR __imp_?c_str@?$basic_string@DU?$char_traits@D@std@@V?$allocator@D@2@@std@@QBEPBDXZ
	push	eax
	mov	ecx, DWORD PTR _err$144120[ebp]
	push	ecx
	push	OFFSET $SG144125
	call	DWORD PTR __imp_?AddLog@@YAXPBDZZ
	add	esp, 20					; 00000014H
	mov	BYTE PTR __$EHRec$[ebp+12], 11		; 0000000bH
	lea	ecx, DWORD PTR $T151072[ebp]
	call	DWORD PTR __imp_??1?$basic_string@DU?$char_traits@D@std@@V?$allocator@D@2@@std@@QAE@XZ
	mov	BYTE PTR __$EHRec$[ebp+12], 10		; 0000000aH
	lea	ecx, DWORD PTR $T151071[ebp]
	call	DWORD PTR __imp_??1?$basic_string@DU?$char_traits@D@std@@V?$allocator@D@2@@std@@QAE@XZ
	mov	BYTE PTR __$EHRec$[ebp+12], 9
	lea	ecx, DWORD PTR $T151070[ebp]
	call	DWORD PTR __imp_??1?$basic_string@DU?$char_traits@D@std@@V?$allocator@D@2@@std@@QAE@XZ
	mov	BYTE PTR __$EHRec$[ebp+12], 8
	lea	ecx, DWORD PTR $T151069[ebp]
	call	DWORD PTR __imp_??1?$basic_string@GU?$char_traits@G@std@@V?$allocator@G@2@@std@@QAE@XZ
; Line 481
	mov	DWORD PTR __$EHRec$[ebp+12], 0
	mov	eax, __tryend$?Timer@Rename@@YAXXZ$1
	ret	0
$LN22@Timer:
	mov	DWORD PTR __$EHRec$[ebp+12], 0
__tryend$?Timer@Rename@@YAXXZ$1:
; Line 482
	mov	DWORD PTR __$EHRec$[ebp+12], -1
	lea	ecx, DWORD PTR _o$144085[ebp]
	call	??1RENAME@Rename@@QAE@XZ
	jmp	$LN19@Timer
$LN9@Timer:
; Line 484
	mov	ecx, OFFSET ?pendingMoves@Rename@@3V?$list@UMOVE@Rename@@V?$allocator@UMOVE@Rename@@@std@@@std@@A ; Rename::pendingMoves
	call	?size@?$list@UMOVE@Rename@@V?$allocator@UMOVE@Rename@@@std@@@std@@QBEIXZ ; std::list<Rename::MOVE,std::allocator<Rename::MOVE> >::size
	test	eax, eax
	je	$LN21@Timer
; Line 486
	mov	ecx, OFFSET ?pendingMoves@Rename@@3V?$list@UMOVE@Rename@@V?$allocator@UMOVE@Rename@@@std@@@std@@A ; Rename::pendingMoves
	call	?front@?$list@UMOVE@Rename@@V?$allocator@UMOVE@Rename@@@std@@@std@@QAEAAUMOVE@Rename@@XZ ; std::list<Rename::MOVE,std::allocator<Rename::MOVE> >::front
	push	eax
	lea	ecx, DWORD PTR _o$144129[ebp]
	call	??0MOVE@Rename@@QAE@ABU01@@Z
	mov	DWORD PTR __$EHRec$[ebp+12], 13		; 0000000dH
; Line 487
	lea	edx, DWORD PTR _o$144129[ebp]
	push	edx
	call	DWORD PTR __imp_?HkGetClientIdFromCharname@@YAIABV?$basic_string@GU?$char_traits@G@std@@V?$allocator@G@2@@std@@@Z
	add	esp, 4
	cmp	eax, -1
	je	SHORT $LN7@Timer
; Line 488
	mov	DWORD PTR __$EHRec$[ebp+12], -1
	lea	ecx, DWORD PTR _o$144129[ebp]
	call	??1MOVE@Rename@@QAE@XZ
	jmp	$LN21@Timer
$LN7@Timer:
; Line 489
	lea	eax, DWORD PTR _o$144129[ebp+28]
	push	eax
	call	DWORD PTR __imp_?HkGetClientIdFromCharname@@YAIABV?$basic_string@GU?$char_traits@G@std@@V?$allocator@G@2@@std@@@Z
	add	esp, 4
	cmp	eax, -1
	je	SHORT $LN6@Timer
; Line 490
	mov	DWORD PTR __$EHRec$[ebp+12], -1
	lea	ecx, DWORD PTR _o$144129[ebp]
	call	??1MOVE@Rename@@QAE@XZ
	jmp	$LN21@Timer
$LN6@Timer:
; Line 492
	mov	ecx, OFFSET ?pendingMoves@Rename@@3V?$list@UMOVE@Rename@@V?$allocator@UMOVE@Rename@@@std@@@std@@A ; Rename::pendingMoves
	call	?pop_front@?$list@UMOVE@Rename@@V?$allocator@UMOVE@Rename@@@std@@@std@@QAEXXZ ; std::list<Rename::MOVE,std::allocator<Rename::MOVE> >::pop_front
; Line 494
	lea	ecx, DWORD PTR _o$144129[ebp]
	push	ecx
	call	DWORD PTR __imp_?HkGetAccountByCharname@@YAPAVCAccount@@ABV?$basic_string@GU?$char_traits@G@std@@V?$allocator@G@2@@std@@@Z
	add	esp, 4
	mov	DWORD PTR _acc$144132[ebp], eax
; Line 495
	lea	edx, DWORD PTR _o$144129[ebp+28]
	push	edx
	call	DWORD PTR __imp_?HkGetAccountByCharname@@YAPAVCAccount@@ABV?$basic_string@GU?$char_traits@G@std@@V?$allocator@G@2@@std@@@Z
	add	esp, 4
	mov	DWORD PTR _oldAcc$144133[ebp], eax
; Line 500
	mov	BYTE PTR __$EHRec$[ebp+12], 14		; 0000000eH
; Line 501
	push	1
	mov	eax, DWORD PTR _acc$144132[ebp]
	push	eax
	call	DWORD PTR __imp_?HkLockAccountAccess@@YAXPAVCAccount@@_N@Z
	add	esp, 8
; Line 502
	mov	ecx, DWORD PTR _acc$144132[ebp]
	push	ecx
	call	DWORD PTR __imp_?HkUnlockAccountAccess@@YAXPAVCAccount@@@Z
	add	esp, 4
; Line 504
	push	1
	mov	edx, DWORD PTR _oldAcc$144133[ebp]
	push	edx
	call	DWORD PTR __imp_?HkLockAccountAccess@@YAXPAVCAccount@@_N@Z
	add	esp, 8
; Line 505
	mov	eax, DWORD PTR _oldAcc$144133[ebp]
	push	eax
	call	DWORD PTR __imp_?HkUnlockAccountAccess@@YAXPAVCAccount@@@Z
	add	esp, 4
; Line 509
	push	9
	lea	ecx, DWORD PTR _o$144129[ebp+112]
	call	DWORD PTR __imp_?c_str@?$basic_string@DU?$char_traits@D@std@@V?$allocator@D@2@@std@@QBEPBDXZ
	push	eax
	lea	ecx, DWORD PTR _o$144129[ebp+56]
	call	DWORD PTR __imp_?c_str@?$basic_string@DU?$char_traits@D@std@@V?$allocator@D@2@@std@@QBEPBDXZ
	push	eax
	call	DWORD PTR __imp__MoveFileExA@12
	test	eax, eax
	jne	SHORT $LN4@Timer
; Line 510
	mov	DWORD PTR $T151073[ebp], OFFSET $SG144137
	push	OFFSET __TI2PAD
	lea	ecx, DWORD PTR $T151073[ebp]
	push	ecx
	call	__CxxThrowException@8
$LN4@Timer:
; Line 513
	lea	edx, DWORD PTR _o$144129[ebp+28]
	push	edx
	mov	eax, DWORD PTR _oldAcc$144133[ebp]
	push	eax
	call	?HkDeleteCharacter@@YA?AW4HK_ERROR@@PAVCAccount@@AAV?$basic_string@GU?$char_traits@G@std@@V?$allocator@G@2@@std@@@Z ; HkDeleteCharacter
	add	esp, 8
; Line 514
	lea	ecx, DWORD PTR _o$144129[ebp+28]
	push	ecx
	mov	edx, DWORD PTR _acc$144132[ebp]
	push	edx
	call	?HkNewCharacter@@YA?AW4HK_ERROR@@PAVCAccount@@AAV?$basic_string@GU?$char_traits@G@std@@V?$allocator@G@2@@std@@@Z ; HkNewCharacter
	add	esp, 8
; Line 518
	push	9
	lea	ecx, DWORD PTR _o$144129[ebp+84]
	call	DWORD PTR __imp_?c_str@?$basic_string@DU?$char_traits@D@std@@V?$allocator@D@2@@std@@QBEPBDXZ
	push	eax
	lea	ecx, DWORD PTR _o$144129[ebp+112]
	call	DWORD PTR __imp_?c_str@?$basic_string@DU?$char_traits@D@std@@V?$allocator@D@2@@std@@QBEPBDXZ
	push	eax
	call	DWORD PTR __imp__MoveFileExA@12
	test	eax, eax
	jne	SHORT $LN3@Timer
; Line 519
	mov	DWORD PTR $T151074[ebp], OFFSET $SG144140
	push	OFFSET __TI2PAD
	lea	eax, DWORD PTR $T151074[ebp]
	push	eax
	call	__CxxThrowException@8
$LN3@Timer:
; Line 520
	lea	ecx, DWORD PTR _o$144129[ebp+56]
	call	DWORD PTR __imp_?c_str@?$basic_string@DU?$char_traits@D@std@@V?$allocator@D@2@@std@@QBEPBDXZ
	push	eax
	call	DWORD PTR __imp__PathFileExistsA@4
	test	eax, eax
	je	SHORT $LN2@Timer
; Line 521
	mov	DWORD PTR $T151075[ebp], OFFSET $SG144143
	push	OFFSET __TI2PAD
	lea	ecx, DWORD PTR $T151075[ebp]
	push	ecx
	call	__CxxThrowException@8
$LN2@Timer:
; Line 522
	lea	ecx, DWORD PTR _o$144129[ebp+84]
	call	DWORD PTR __imp_?c_str@?$basic_string@DU?$char_traits@D@std@@V?$allocator@D@2@@std@@QBEPBDXZ
	push	eax
	call	DWORD PTR __imp__PathFileExistsA@4
	test	eax, eax
	jne	SHORT $LN1@Timer
; Line 523
	mov	DWORD PTR $T151076[ebp], OFFSET $SG144146
	push	OFFSET __TI2PAD
	lea	edx, DWORD PTR $T151076[ebp]
	push	edx
	call	__CxxThrowException@8
$LN1@Timer:
; Line 529
	mov	eax, DWORD PTR _acc$144132[ebp]
	push	eax
	lea	ecx, DWORD PTR $T151077[ebp]
	push	ecx
	call	DWORD PTR __imp_?HkGetAccountID@@YA?AV?$basic_string@GU?$char_traits@G@std@@V?$allocator@G@2@@std@@PAVCAccount@@@Z
	add	esp, 8
	mov	DWORD PTR tv248[ebp], eax
	mov	edx, DWORD PTR tv248[ebp]
	mov	DWORD PTR tv438[ebp], edx
	mov	BYTE PTR __$EHRec$[ebp+12], 15		; 0000000fH
	mov	eax, DWORD PTR tv438[ebp]
	push	eax
	lea	ecx, DWORD PTR $T151078[ebp]
	push	ecx
	call	DWORD PTR __imp_?wstos@@YA?AV?$basic_string@DU?$char_traits@D@std@@V?$allocator@D@2@@std@@ABV?$basic_string@GU?$char_traits@G@std@@V?$allocator@G@2@@2@@Z
	add	esp, 8
	mov	DWORD PTR tv463[ebp], eax
	mov	edx, DWORD PTR tv463[ebp]
	mov	DWORD PTR tv440[ebp], edx
	mov	BYTE PTR __$EHRec$[ebp+12], 16		; 00000010H
	mov	ecx, DWORD PTR tv440[ebp]
	call	DWORD PTR __imp_?c_str@?$basic_string@DU?$char_traits@D@std@@V?$allocator@D@2@@std@@QBEPBDXZ
	push	eax
	mov	eax, DWORD PTR _oldAcc$144133[ebp]
	push	eax
	lea	ecx, DWORD PTR $T151079[ebp]
	push	ecx
	call	DWORD PTR __imp_?HkGetAccountID@@YA?AV?$basic_string@GU?$char_traits@G@std@@V?$allocator@G@2@@std@@PAVCAccount@@@Z
	add	esp, 8
	mov	DWORD PTR tv464[ebp], eax
	mov	edx, DWORD PTR tv464[ebp]
	mov	DWORD PTR tv442[ebp], edx
	mov	BYTE PTR __$EHRec$[ebp+12], 17		; 00000011H
	mov	eax, DWORD PTR tv442[ebp]
	push	eax
	lea	ecx, DWORD PTR $T151080[ebp]
	push	ecx
	call	DWORD PTR __imp_?wstos@@YA?AV?$basic_string@DU?$char_traits@D@std@@V?$allocator@D@2@@std@@ABV?$basic_string@GU?$char_traits@G@std@@V?$allocator@G@2@@2@@Z
	add	esp, 8
	mov	DWORD PTR tv465[ebp], eax
	mov	edx, DWORD PTR tv465[ebp]
	mov	DWORD PTR tv444[ebp], edx
	mov	BYTE PTR __$EHRec$[ebp+12], 18		; 00000012H
	mov	ecx, DWORD PTR tv444[ebp]
	call	DWORD PTR __imp_?c_str@?$basic_string@DU?$char_traits@D@std@@V?$allocator@D@2@@std@@QBEPBDXZ
	push	eax
	lea	eax, DWORD PTR _o$144129[ebp+28]
	push	eax
	lea	ecx, DWORD PTR $T151081[ebp]
	push	ecx
	call	DWORD PTR __imp_?wstos@@YA?AV?$basic_string@DU?$char_traits@D@std@@V?$allocator@D@2@@std@@ABV?$basic_string@GU?$char_traits@G@std@@V?$allocator@G@2@@2@@Z
	add	esp, 8
	mov	DWORD PTR tv466[ebp], eax
	mov	edx, DWORD PTR tv466[ebp]
	mov	DWORD PTR tv446[ebp], edx
	mov	BYTE PTR __$EHRec$[ebp+12], 19		; 00000013H
	mov	ecx, DWORD PTR tv446[ebp]
	call	DWORD PTR __imp_?c_str@?$basic_string@DU?$char_traits@D@std@@V?$allocator@D@2@@std@@QBEPBDXZ
	push	eax
	push	OFFSET $SG144152
	call	DWORD PTR __imp_?AddLog@@YAXPBDZZ
	add	esp, 16					; 00000010H
	mov	BYTE PTR __$EHRec$[ebp+12], 18		; 00000012H
	lea	ecx, DWORD PTR $T151081[ebp]
	call	DWORD PTR __imp_??1?$basic_string@DU?$char_traits@D@std@@V?$allocator@D@2@@std@@QAE@XZ
	mov	BYTE PTR __$EHRec$[ebp+12], 17		; 00000011H
	lea	ecx, DWORD PTR $T151080[ebp]
	call	DWORD PTR __imp_??1?$basic_string@DU?$char_traits@D@std@@V?$allocator@D@2@@std@@QAE@XZ
	mov	BYTE PTR __$EHRec$[ebp+12], 16		; 00000010H
	lea	ecx, DWORD PTR $T151079[ebp]
	call	DWORD PTR __imp_??1?$basic_string@GU?$char_traits@G@std@@V?$allocator@G@2@@std@@QAE@XZ
	mov	BYTE PTR __$EHRec$[ebp+12], 15		; 0000000fH
	lea	ecx, DWORD PTR $T151078[ebp]
	call	DWORD PTR __imp_??1?$basic_string@DU?$char_traits@D@std@@V?$allocator@D@2@@std@@QAE@XZ
	mov	BYTE PTR __$EHRec$[ebp+12], 14		; 0000000eH
	lea	ecx, DWORD PTR $T151077[ebp]
	call	DWORD PTR __imp_??1?$basic_string@GU?$char_traits@G@std@@V?$allocator@G@2@@std@@QAE@XZ
; Line 531
	jmp	$LN24@Timer
__catch$?Timer@Rename@@YAXXZ$2:
; Line 537
	mov	eax, DWORD PTR _acc$144132[ebp]
	push	eax
	lea	ecx, DWORD PTR $T151082[ebp]
	push	ecx
	call	DWORD PTR __imp_?HkGetAccountID@@YA?AV?$basic_string@GU?$char_traits@G@std@@V?$allocator@G@2@@std@@PAVCAccount@@@Z
	add	esp, 8
	mov	DWORD PTR tv467[ebp], eax
	mov	edx, DWORD PTR tv467[ebp]
	mov	DWORD PTR tv448[ebp], edx
	mov	BYTE PTR __$EHRec$[ebp+12], 21		; 00000015H
	mov	eax, DWORD PTR tv448[ebp]
	push	eax
	lea	ecx, DWORD PTR $T151083[ebp]
	push	ecx
	call	DWORD PTR __imp_?wstos@@YA?AV?$basic_string@DU?$char_traits@D@std@@V?$allocator@D@2@@std@@ABV?$basic_string@GU?$char_traits@G@std@@V?$allocator@G@2@@2@@Z
	add	esp, 8
	mov	DWORD PTR tv468[ebp], eax
	mov	edx, DWORD PTR tv468[ebp]
	mov	DWORD PTR tv450[ebp], edx
	mov	BYTE PTR __$EHRec$[ebp+12], 22		; 00000016H
	mov	ecx, DWORD PTR tv450[ebp]
	call	DWORD PTR __imp_?c_str@?$basic_string@DU?$char_traits@D@std@@V?$allocator@D@2@@std@@QBEPBDXZ
	push	eax
	mov	eax, DWORD PTR _oldAcc$144133[ebp]
	push	eax
	lea	ecx, DWORD PTR $T151084[ebp]
	push	ecx
	call	DWORD PTR __imp_?HkGetAccountID@@YA?AV?$basic_string@GU?$char_traits@G@std@@V?$allocator@G@2@@std@@PAVCAccount@@@Z
	add	esp, 8
	mov	DWORD PTR tv469[ebp], eax
	mov	edx, DWORD PTR tv469[ebp]
	mov	DWORD PTR tv452[ebp], edx
	mov	BYTE PTR __$EHRec$[ebp+12], 23		; 00000017H
	mov	eax, DWORD PTR tv452[ebp]
	push	eax
	lea	ecx, DWORD PTR $T151085[ebp]
	push	ecx
	call	DWORD PTR __imp_?wstos@@YA?AV?$basic_string@DU?$char_traits@D@std@@V?$allocator@D@2@@std@@ABV?$basic_string@GU?$char_traits@G@std@@V?$allocator@G@2@@2@@Z
	add	esp, 8
	mov	DWORD PTR tv470[ebp], eax
	mov	edx, DWORD PTR tv470[ebp]
	mov	DWORD PTR tv454[ebp], edx
	mov	BYTE PTR __$EHRec$[ebp+12], 24		; 00000018H
	mov	ecx, DWORD PTR tv454[ebp]
	call	DWORD PTR __imp_?c_str@?$basic_string@DU?$char_traits@D@std@@V?$allocator@D@2@@std@@QBEPBDXZ
	push	eax
	mov	eax, DWORD PTR _err$144153[ebp]
	push	eax
	lea	ecx, DWORD PTR _o$144129[ebp+28]
	push	ecx
	lea	edx, DWORD PTR $T151086[ebp]
	push	edx
	call	DWORD PTR __imp_?wstos@@YA?AV?$basic_string@DU?$char_traits@D@std@@V?$allocator@D@2@@std@@ABV?$basic_string@GU?$char_traits@G@std@@V?$allocator@G@2@@2@@Z
	add	esp, 8
	mov	DWORD PTR tv471[ebp], eax
	mov	eax, DWORD PTR tv471[ebp]
	mov	DWORD PTR tv456[ebp], eax
	mov	BYTE PTR __$EHRec$[ebp+12], 25		; 00000019H
	mov	ecx, DWORD PTR tv456[ebp]
	call	DWORD PTR __imp_?c_str@?$basic_string@DU?$char_traits@D@std@@V?$allocator@D@2@@std@@QBEPBDXZ
	push	eax
	push	OFFSET $SG144159
	call	DWORD PTR __imp_?AddLog@@YAXPBDZZ
	add	esp, 20					; 00000014H
	mov	BYTE PTR __$EHRec$[ebp+12], 24		; 00000018H
	lea	ecx, DWORD PTR $T151086[ebp]
	call	DWORD PTR __imp_??1?$basic_string@DU?$char_traits@D@std@@V?$allocator@D@2@@std@@QAE@XZ
	mov	BYTE PTR __$EHRec$[ebp+12], 23		; 00000017H
	lea	ecx, DWORD PTR $T151085[ebp]
	call	DWORD PTR __imp_??1?$basic_string@DU?$char_traits@D@std@@V?$allocator@D@2@@std@@QAE@XZ
	mov	BYTE PTR __$EHRec$[ebp+12], 22		; 00000016H
	lea	ecx, DWORD PTR $T151084[ebp]
	call	DWORD PTR __imp_??1?$basic_string@GU?$char_traits@G@std@@V?$allocator@G@2@@std@@QAE@XZ
	mov	BYTE PTR __$EHRec$[ebp+12], 21		; 00000015H
	lea	ecx, DWORD PTR $T151083[ebp]
	call	DWORD PTR __imp_??1?$basic_string@DU?$char_traits@D@std@@V?$allocator@D@2@@std@@QAE@XZ
	mov	BYTE PTR __$EHRec$[ebp+12], 20		; 00000014H
	lea	ecx, DWORD PTR $T151082[ebp]
	call	DWORD PTR __imp_??1?$basic_string@GU?$char_traits@G@std@@V?$allocator@G@2@@std@@QAE@XZ
; Line 538
	mov	DWORD PTR __$EHRec$[ebp+12], 13		; 0000000dH
	mov	eax, __tryend$?Timer@Rename@@YAXXZ$3
	ret	0
$LN24@Timer:
	mov	DWORD PTR __$EHRec$[ebp+12], 13		; 0000000dH
__tryend$?Timer@Rename@@YAXXZ$3:
; Line 539
	mov	DWORD PTR __$EHRec$[ebp+12], -1
	lea	ecx, DWORD PTR _o$144129[ebp]
	call	??1MOVE@Rename@@QAE@XZ
	jmp	$LN9@Timer
$LN21@Timer:
; Line 540
	mov	ecx, DWORD PTR __$EHRec$[ebp+4]
	mov	DWORD PTR fs:0, ecx
	pop	ecx
	pop	edi
	pop	esi
	pop	ebx
	mov	ecx, DWORD PTR __$ArrayPad$[ebp]
	xor	ecx, ebp
	call	@__security_check_cookie@4
	mov	esp, ebp
	pop	ebp
	ret	0
_TEXT	ENDS
text$x	SEGMENT
__unwindfunclet$?Timer@Rename@@YAXXZ$4:
	lea	ecx, DWORD PTR _o$144085[ebp]
	jmp	??1RENAME@Rename@@QAE@XZ
__unwindfunclet$?Timer@Rename@@YAXXZ$5:
	lea	ecx, DWORD PTR $T151060[ebp]
	jmp	DWORD PTR __imp_??1?$basic_string@DU?$char_traits@D@std@@V?$allocator@D@2@@std@@QAE@XZ
__unwindfunclet$?Timer@Rename@@YAXXZ$6:
	lea	ecx, DWORD PTR $T151061[ebp]
	jmp	DWORD PTR __imp_??1?$basic_string@DU?$char_traits@D@std@@V?$allocator@D@2@@std@@QAE@XZ
__unwindfunclet$?Timer@Rename@@YAXXZ$7:
	lea	ecx, DWORD PTR $T151065[ebp]
	jmp	DWORD PTR __imp_??1?$basic_string@GU?$char_traits@G@std@@V?$allocator@G@2@@std@@QAE@XZ
__unwindfunclet$?Timer@Rename@@YAXXZ$8:
	lea	ecx, DWORD PTR $T151066[ebp]
	jmp	DWORD PTR __imp_??1?$basic_string@DU?$char_traits@D@std@@V?$allocator@D@2@@std@@QAE@XZ
__unwindfunclet$?Timer@Rename@@YAXXZ$9:
	lea	ecx, DWORD PTR $T151067[ebp]
	jmp	DWORD PTR __imp_??1?$basic_string@DU?$char_traits@D@std@@V?$allocator@D@2@@std@@QAE@XZ
__unwindfunclet$?Timer@Rename@@YAXXZ$10:
	lea	ecx, DWORD PTR $T151068[ebp]
	jmp	DWORD PTR __imp_??1?$basic_string@DU?$char_traits@D@std@@V?$allocator@D@2@@std@@QAE@XZ
__unwindfunclet$?Timer@Rename@@YAXXZ$11:
	lea	ecx, DWORD PTR $T151069[ebp]
	jmp	DWORD PTR __imp_??1?$basic_string@GU?$char_traits@G@std@@V?$allocator@G@2@@std@@QAE@XZ
__unwindfunclet$?Timer@Rename@@YAXXZ$12:
	lea	ecx, DWORD PTR $T151070[ebp]
	jmp	DWORD PTR __imp_??1?$basic_string@DU?$char_traits@D@std@@V?$allocator@D@2@@std@@QAE@XZ
__unwindfunclet$?Timer@Rename@@YAXXZ$13:
	lea	ecx, DWORD PTR $T151071[ebp]
	jmp	DWORD PTR __imp_??1?$basic_string@DU?$char_traits@D@std@@V?$allocator@D@2@@std@@QAE@XZ
__unwindfunclet$?Timer@Rename@@YAXXZ$14:
	lea	ecx, DWORD PTR $T151072[ebp]
	jmp	DWORD PTR __imp_??1?$basic_string@DU?$char_traits@D@std@@V?$allocator@D@2@@std@@QAE@XZ
__unwindfunclet$?Timer@Rename@@YAXXZ$15:
	lea	ecx, DWORD PTR _o$144129[ebp]
	jmp	??1MOVE@Rename@@QAE@XZ
__unwindfunclet$?Timer@Rename@@YAXXZ$16:
	lea	ecx, DWORD PTR $T151077[ebp]
	jmp	DWORD PTR __imp_??1?$basic_string@GU?$char_traits@G@std@@V?$allocator@G@2@@std@@QAE@XZ
__unwindfunclet$?Timer@Rename@@YAXXZ$17:
	lea	ecx, DWORD PTR $T151078[ebp]
	jmp	DWORD PTR __imp_??1?$basic_string@DU?$char_traits@D@std@@V?$allocator@D@2@@std@@QAE@XZ
__unwindfunclet$?Timer@Rename@@YAXXZ$18:
	lea	ecx, DWORD PTR $T151079[ebp]
	jmp	DWORD PTR __imp_??1?$basic_string@GU?$char_traits@G@std@@V?$allocator@G@2@@std@@QAE@XZ
__unwindfunclet$?Timer@Rename@@YAXXZ$19:
	lea	ecx, DWORD PTR $T151080[ebp]
	jmp	DWORD PTR __imp_??1?$basic_string@DU?$char_traits@D@std@@V?$allocator@D@2@@std@@QAE@XZ
__unwindfunclet$?Timer@Rename@@YAXXZ$20:
	lea	ecx, DWORD PTR $T151081[ebp]
	jmp	DWORD PTR __imp_??1?$basic_string@DU?$char_traits@D@std@@V?$allocator@D@2@@std@@QAE@XZ
__unwindfunclet$?Timer@Rename@@YAXXZ$21:
	lea	ecx, DWORD PTR $T151082[ebp]
	jmp	DWORD PTR __imp_??1?$basic_string@GU?$char_traits@G@std@@V?$allocator@G@2@@std@@QAE@XZ
__unwindfunclet$?Timer@Rename@@YAXXZ$22:
	lea	ecx, DWORD PTR $T151083[ebp]
	jmp	DWORD PTR __imp_??1?$basic_string@DU?$char_traits@D@std@@V?$allocator@D@2@@std@@QAE@XZ
__unwindfunclet$?Timer@Rename@@YAXXZ$23:
	lea	ecx, DWORD PTR $T151084[ebp]
	jmp	DWORD PTR __imp_??1?$basic_string@GU?$char_traits@G@std@@V?$allocator@G@2@@std@@QAE@XZ
__unwindfunclet$?Timer@Rename@@YAXXZ$24:
	lea	ecx, DWORD PTR $T151085[ebp]
	jmp	DWORD PTR __imp_??1?$basic_string@DU?$char_traits@D@std@@V?$allocator@D@2@@std@@QAE@XZ
__unwindfunclet$?Timer@Rename@@YAXXZ$25:
	lea	ecx, DWORD PTR $T151086[ebp]
	jmp	DWORD PTR __imp_??1?$basic_string@DU?$char_traits@D@std@@V?$allocator@D@2@@std@@QAE@XZ
__ehhandler$?Timer@Rename@@YAXXZ:
	mov	edx, DWORD PTR [esp+8]
	lea	eax, DWORD PTR [edx+12]
	mov	ecx, DWORD PTR [edx-1076]
	xor	ecx, eax
	call	@__security_check_cookie@4
	mov	ecx, DWORD PTR [edx-12]
	xor	ecx, eax
	call	@__security_check_cookie@4
	mov	eax, OFFSET __ehfuncinfo$?Timer@Rename@@YAXXZ
	jmp	___CxxFrameHandler3
text$x	ENDS
?Timer@Rename@@YAXXZ ENDP				; Rename::Timer
EXTRN	__imp_??0?$basic_string@DU?$char_traits@D@std@@V?$allocator@D@2@@std@@QAE@ABV01@@Z:PROC
EXTRN	__imp_??0?$basic_string@GU?$char_traits@G@std@@V?$allocator@G@2@@std@@QAE@ABV01@@Z:PROC
;	COMDAT xdata$x
xdata$x	SEGMENT
__ehfuncinfo$??0RENAME@Rename@@QAE@ABU01@@Z DD 019930522H
	DD	05H
	DD	FLAT:__unwindtable$??0RENAME@Rename@@QAE@ABU01@@Z
	DD	2 DUP(00H)
	DD	2 DUP(00H)
	DD	00H
	DD	00H
__unwindtable$??0RENAME@Rename@@QAE@ABU01@@Z DD 0ffffffffH
	DD	FLAT:__unwindfunclet$??0RENAME@Rename@@QAE@ABU01@@Z$0
	DD	00H
	DD	FLAT:__unwindfunclet$??0RENAME@Rename@@QAE@ABU01@@Z$1
	DD	01H
	DD	FLAT:__unwindfunclet$??0RENAME@Rename@@QAE@ABU01@@Z$2
	DD	02H
	DD	FLAT:__unwindfunclet$??0RENAME@Rename@@QAE@ABU01@@Z$3
	DD	03H
	DD	FLAT:__unwindfunclet$??0RENAME@Rename@@QAE@ABU01@@Z$4
; Function compile flags: /Odtp
xdata$x	ENDS
;	COMDAT ??0RENAME@Rename@@QAE@ABU01@@Z
_TEXT	SEGMENT
_this$ = -16						; size = 4
__$EHRec$ = -12						; size = 12
___that$ = 8						; size = 4
??0RENAME@Rename@@QAE@ABU01@@Z PROC			; Rename::RENAME::RENAME, COMDAT
; _this$ = ecx
	push	ebp
	mov	ebp, esp
	push	-1
	push	__ehhandler$??0RENAME@Rename@@QAE@ABU01@@Z
	mov	eax, DWORD PTR fs:0
	push	eax
	push	ecx
	mov	eax, DWORD PTR ___security_cookie
	xor	eax, ebp
	push	eax
	lea	eax, DWORD PTR __$EHRec$[ebp]
	mov	DWORD PTR fs:0, eax
	mov	DWORD PTR _this$[ebp], ecx
	mov	eax, DWORD PTR ___that$[ebp]
	push	eax
	mov	ecx, DWORD PTR _this$[ebp]
	call	DWORD PTR __imp_??0?$basic_string@GU?$char_traits@G@std@@V?$allocator@G@2@@std@@QAE@ABV01@@Z
	mov	DWORD PTR __$EHRec$[ebp+8], 0
	mov	ecx, DWORD PTR ___that$[ebp]
	add	ecx, 28					; 0000001cH
	push	ecx
	mov	ecx, DWORD PTR _this$[ebp]
	add	ecx, 28					; 0000001cH
	call	DWORD PTR __imp_??0?$basic_string@GU?$char_traits@G@std@@V?$allocator@G@2@@std@@QAE@ABV01@@Z
	mov	BYTE PTR __$EHRec$[ebp+8], 1
	mov	edx, DWORD PTR ___that$[ebp]
	add	edx, 56					; 00000038H
	push	edx
	mov	ecx, DWORD PTR _this$[ebp]
	add	ecx, 56					; 00000038H
	call	DWORD PTR __imp_??0?$basic_string@DU?$char_traits@D@std@@V?$allocator@D@2@@std@@QAE@ABV01@@Z
	mov	BYTE PTR __$EHRec$[ebp+8], 2
	mov	eax, DWORD PTR ___that$[ebp]
	add	eax, 84					; 00000054H
	push	eax
	mov	ecx, DWORD PTR _this$[ebp]
	add	ecx, 84					; 00000054H
	call	DWORD PTR __imp_??0?$basic_string@DU?$char_traits@D@std@@V?$allocator@D@2@@std@@QAE@ABV01@@Z
	mov	BYTE PTR __$EHRec$[ebp+8], 3
	mov	ecx, DWORD PTR ___that$[ebp]
	add	ecx, 112				; 00000070H
	push	ecx
	mov	ecx, DWORD PTR _this$[ebp]
	add	ecx, 112				; 00000070H
	call	DWORD PTR __imp_??0?$basic_string@DU?$char_traits@D@std@@V?$allocator@D@2@@std@@QAE@ABV01@@Z
	mov	BYTE PTR __$EHRec$[ebp+8], 4
	mov	DWORD PTR __$EHRec$[ebp+8], -1
	mov	eax, DWORD PTR _this$[ebp]
	mov	ecx, DWORD PTR __$EHRec$[ebp]
	mov	DWORD PTR fs:0, ecx
	pop	ecx
	mov	esp, ebp
	pop	ebp
	ret	4
_TEXT	ENDS
;	COMDAT text$x
text$x	SEGMENT
__unwindfunclet$??0RENAME@Rename@@QAE@ABU01@@Z$0:
	mov	ecx, DWORD PTR _this$[ebp]
	jmp	DWORD PTR __imp_??1?$basic_string@GU?$char_traits@G@std@@V?$allocator@G@2@@std@@QAE@XZ
__unwindfunclet$??0RENAME@Rename@@QAE@ABU01@@Z$1:
	mov	ecx, DWORD PTR _this$[ebp]
	add	ecx, 28					; 0000001cH
	jmp	DWORD PTR __imp_??1?$basic_string@GU?$char_traits@G@std@@V?$allocator@G@2@@std@@QAE@XZ
__unwindfunclet$??0RENAME@Rename@@QAE@ABU01@@Z$2:
	mov	ecx, DWORD PTR _this$[ebp]
	add	ecx, 56					; 00000038H
	jmp	DWORD PTR __imp_??1?$basic_string@DU?$char_traits@D@std@@V?$allocator@D@2@@std@@QAE@XZ
__unwindfunclet$??0RENAME@Rename@@QAE@ABU01@@Z$3:
	mov	ecx, DWORD PTR _this$[ebp]
	add	ecx, 84					; 00000054H
	jmp	DWORD PTR __imp_??1?$basic_string@DU?$char_traits@D@std@@V?$allocator@D@2@@std@@QAE@XZ
__unwindfunclet$??0RENAME@Rename@@QAE@ABU01@@Z$4:
	mov	ecx, DWORD PTR _this$[ebp]
	add	ecx, 112				; 00000070H
	jmp	DWORD PTR __imp_??1?$basic_string@DU?$char_traits@D@std@@V?$allocator@D@2@@std@@QAE@XZ
__ehhandler$??0RENAME@Rename@@QAE@ABU01@@Z:
	mov	edx, DWORD PTR [esp+8]
	lea	eax, DWORD PTR [edx+12]
	mov	ecx, DWORD PTR [edx-8]
	xor	ecx, eax
	call	@__security_check_cookie@4
	mov	eax, OFFSET __ehfuncinfo$??0RENAME@Rename@@QAE@ABU01@@Z
	jmp	___CxxFrameHandler3
text$x	ENDS
??0RENAME@Rename@@QAE@ABU01@@Z ENDP			; Rename::RENAME::RENAME
;	COMDAT xdata$x
