; Listing generated by Microsoft (R) Optimizing Compiler Version 15.00.30729.01 

	TITLE	g:\Max\Bastelstube\GitHub\FL-MoD-FLHook\plugins\playercntl_plugin\src\StartupCache.cpp
	.686P
	.XMM
	include listing.inc
	.model	flat

INCLUDELIB MSVCRT
INCLUDELIB OLDNAMES

PUBLIC	?ReadCharName@StartupCache@@3P6GHPBDPAV?$basic_string@GUci_wchar_traits@@V?$allocator@G@std@@@std@@@ZA ; StartupCache::ReadCharName
PUBLIC	?_Value@?$_Is_swap_move@U_Swap_move_tag@std@@@std@@2_NB ; std::_Is_swap_move<std::_Swap_move_tag>::_Value
PUBLIC	?collate@?$_Locbase@H@std@@2HB			; std::_Locbase<int>::collate
PUBLIC	?ctype@?$_Locbase@H@std@@2HB			; std::_Locbase<int>::ctype
PUBLIC	?monetary@?$_Locbase@H@std@@2HB			; std::_Locbase<int>::monetary
PUBLIC	?numeric@?$_Locbase@H@std@@2HB			; std::_Locbase<int>::numeric
PUBLIC	?time@?$_Locbase@H@std@@2HB			; std::_Locbase<int>::time
PUBLIC	?messages@?$_Locbase@H@std@@2HB			; std::_Locbase<int>::messages
PUBLIC	?all@?$_Locbase@H@std@@2HB			; std::_Locbase<int>::all
PUBLIC	?none@?$_Locbase@H@std@@2HB			; std::_Locbase<int>::none
PUBLIC	?skipws@?$_Iosb@H@std@@2W4_Fmtflags@12@B	; std::_Iosb<int>::skipws
PUBLIC	?unitbuf@?$_Iosb@H@std@@2W4_Fmtflags@12@B	; std::_Iosb<int>::unitbuf
PUBLIC	?uppercase@?$_Iosb@H@std@@2W4_Fmtflags@12@B	; std::_Iosb<int>::uppercase
PUBLIC	?showbase@?$_Iosb@H@std@@2W4_Fmtflags@12@B	; std::_Iosb<int>::showbase
PUBLIC	?showpoint@?$_Iosb@H@std@@2W4_Fmtflags@12@B	; std::_Iosb<int>::showpoint
PUBLIC	?showpos@?$_Iosb@H@std@@2W4_Fmtflags@12@B	; std::_Iosb<int>::showpos
PUBLIC	?left@?$_Iosb@H@std@@2W4_Fmtflags@12@B		; std::_Iosb<int>::left
PUBLIC	?right@?$_Iosb@H@std@@2W4_Fmtflags@12@B		; std::_Iosb<int>::right
PUBLIC	?internal@?$_Iosb@H@std@@2W4_Fmtflags@12@B	; std::_Iosb<int>::internal
PUBLIC	?dec@?$_Iosb@H@std@@2W4_Fmtflags@12@B		; std::_Iosb<int>::dec
PUBLIC	?oct@?$_Iosb@H@std@@2W4_Fmtflags@12@B		; std::_Iosb<int>::oct
PUBLIC	?hex@?$_Iosb@H@std@@2W4_Fmtflags@12@B		; std::_Iosb<int>::hex
PUBLIC	?scientific@?$_Iosb@H@std@@2W4_Fmtflags@12@B	; std::_Iosb<int>::scientific
PUBLIC	?fixed@?$_Iosb@H@std@@2W4_Fmtflags@12@B		; std::_Iosb<int>::fixed
PUBLIC	?hexfloat@?$_Iosb@H@std@@2W4_Fmtflags@12@B	; std::_Iosb<int>::hexfloat
PUBLIC	?boolalpha@?$_Iosb@H@std@@2W4_Fmtflags@12@B	; std::_Iosb<int>::boolalpha
PUBLIC	?_Stdio@?$_Iosb@H@std@@2W4_Fmtflags@12@B	; std::_Iosb<int>::_Stdio
PUBLIC	?adjustfield@?$_Iosb@H@std@@2W4_Fmtflags@12@B	; std::_Iosb<int>::adjustfield
PUBLIC	?basefield@?$_Iosb@H@std@@2W4_Fmtflags@12@B	; std::_Iosb<int>::basefield
PUBLIC	?floatfield@?$_Iosb@H@std@@2W4_Fmtflags@12@B	; std::_Iosb<int>::floatfield
PUBLIC	?goodbit@?$_Iosb@H@std@@2W4_Iostate@12@B	; std::_Iosb<int>::goodbit
PUBLIC	?eofbit@?$_Iosb@H@std@@2W4_Iostate@12@B		; std::_Iosb<int>::eofbit
PUBLIC	?failbit@?$_Iosb@H@std@@2W4_Iostate@12@B	; std::_Iosb<int>::failbit
PUBLIC	?badbit@?$_Iosb@H@std@@2W4_Iostate@12@B		; std::_Iosb<int>::badbit
PUBLIC	?_Hardfail@?$_Iosb@H@std@@2W4_Iostate@12@B	; std::_Iosb<int>::_Hardfail
PUBLIC	?in@?$_Iosb@H@std@@2W4_Openmode@12@B		; std::_Iosb<int>::in
PUBLIC	?out@?$_Iosb@H@std@@2W4_Openmode@12@B		; std::_Iosb<int>::out
PUBLIC	?ate@?$_Iosb@H@std@@2W4_Openmode@12@B		; std::_Iosb<int>::ate
PUBLIC	?app@?$_Iosb@H@std@@2W4_Openmode@12@B		; std::_Iosb<int>::app
PUBLIC	?trunc@?$_Iosb@H@std@@2W4_Openmode@12@B		; std::_Iosb<int>::trunc
PUBLIC	?_Nocreate@?$_Iosb@H@std@@2W4_Openmode@12@B	; std::_Iosb<int>::_Nocreate
PUBLIC	?_Noreplace@?$_Iosb@H@std@@2W4_Openmode@12@B	; std::_Iosb<int>::_Noreplace
PUBLIC	?binary@?$_Iosb@H@std@@2W4_Openmode@12@B	; std::_Iosb<int>::binary
PUBLIC	?beg@?$_Iosb@H@std@@2W4_Seekdir@12@B		; std::_Iosb<int>::beg
PUBLIC	?cur@?$_Iosb@H@std@@2W4_Seekdir@12@B		; std::_Iosb<int>::cur
PUBLIC	?end@?$_Iosb@H@std@@2W4_Seekdir@12@B		; std::_Iosb<int>::end
PUBLIC	?value@?$integral_constant@_N$0A@@tr1@std@@2_NB	; std::tr1::integral_constant<bool,0>::value
PUBLIC	?value@?$integral_constant@_N$00@tr1@std@@2_NB	; std::tr1::integral_constant<bool,1>::value
_BSS	SEGMENT
?ReadCharName@StartupCache@@3P6GHPBDPAV?$basic_string@GUci_wchar_traits@@V?$allocator@G@std@@@std@@@ZA DD 01H DUP (?) ; StartupCache::ReadCharName
_chars_loaded DD 01H DUP (?)
_acc_path_prefix_length DD 01H DUP (?)
_BSS	ENDS
;	COMDAT ?value@?$integral_constant@_N$00@tr1@std@@2_NB
CONST	SEGMENT
?value@?$integral_constant@_N$00@tr1@std@@2_NB DB 01H	; std::tr1::integral_constant<bool,1>::value
CONST	ENDS
;	COMDAT ?value@?$integral_constant@_N$0A@@tr1@std@@2_NB
CONST	SEGMENT
?value@?$integral_constant@_N$0A@@tr1@std@@2_NB DB 00H	; std::tr1::integral_constant<bool,0>::value
CONST	ENDS
;	COMDAT ?end@?$_Iosb@H@std@@2W4_Seekdir@12@B
CONST	SEGMENT
?end@?$_Iosb@H@std@@2W4_Seekdir@12@B DD 02H		; std::_Iosb<int>::end
CONST	ENDS
;	COMDAT ?cur@?$_Iosb@H@std@@2W4_Seekdir@12@B
CONST	SEGMENT
?cur@?$_Iosb@H@std@@2W4_Seekdir@12@B DD 01H		; std::_Iosb<int>::cur
CONST	ENDS
;	COMDAT ?beg@?$_Iosb@H@std@@2W4_Seekdir@12@B
CONST	SEGMENT
?beg@?$_Iosb@H@std@@2W4_Seekdir@12@B DD 00H		; std::_Iosb<int>::beg
CONST	ENDS
;	COMDAT ?binary@?$_Iosb@H@std@@2W4_Openmode@12@B
CONST	SEGMENT
?binary@?$_Iosb@H@std@@2W4_Openmode@12@B DD 020H	; std::_Iosb<int>::binary
CONST	ENDS
;	COMDAT ?_Noreplace@?$_Iosb@H@std@@2W4_Openmode@12@B
CONST	SEGMENT
?_Noreplace@?$_Iosb@H@std@@2W4_Openmode@12@B DD 080H	; std::_Iosb<int>::_Noreplace
CONST	ENDS
;	COMDAT ?_Nocreate@?$_Iosb@H@std@@2W4_Openmode@12@B
CONST	SEGMENT
?_Nocreate@?$_Iosb@H@std@@2W4_Openmode@12@B DD 040H	; std::_Iosb<int>::_Nocreate
CONST	ENDS
;	COMDAT ?trunc@?$_Iosb@H@std@@2W4_Openmode@12@B
CONST	SEGMENT
?trunc@?$_Iosb@H@std@@2W4_Openmode@12@B DD 010H		; std::_Iosb<int>::trunc
CONST	ENDS
;	COMDAT ?app@?$_Iosb@H@std@@2W4_Openmode@12@B
CONST	SEGMENT
?app@?$_Iosb@H@std@@2W4_Openmode@12@B DD 08H		; std::_Iosb<int>::app
CONST	ENDS
;	COMDAT ?ate@?$_Iosb@H@std@@2W4_Openmode@12@B
CONST	SEGMENT
?ate@?$_Iosb@H@std@@2W4_Openmode@12@B DD 04H		; std::_Iosb<int>::ate
CONST	ENDS
;	COMDAT ?out@?$_Iosb@H@std@@2W4_Openmode@12@B
CONST	SEGMENT
?out@?$_Iosb@H@std@@2W4_Openmode@12@B DD 02H		; std::_Iosb<int>::out
CONST	ENDS
;	COMDAT ?in@?$_Iosb@H@std@@2W4_Openmode@12@B
CONST	SEGMENT
?in@?$_Iosb@H@std@@2W4_Openmode@12@B DD 01H		; std::_Iosb<int>::in
CONST	ENDS
;	COMDAT ?_Hardfail@?$_Iosb@H@std@@2W4_Iostate@12@B
CONST	SEGMENT
?_Hardfail@?$_Iosb@H@std@@2W4_Iostate@12@B DD 010H	; std::_Iosb<int>::_Hardfail
CONST	ENDS
;	COMDAT ?badbit@?$_Iosb@H@std@@2W4_Iostate@12@B
CONST	SEGMENT
?badbit@?$_Iosb@H@std@@2W4_Iostate@12@B DD 04H		; std::_Iosb<int>::badbit
CONST	ENDS
;	COMDAT ?failbit@?$_Iosb@H@std@@2W4_Iostate@12@B
CONST	SEGMENT
?failbit@?$_Iosb@H@std@@2W4_Iostate@12@B DD 02H		; std::_Iosb<int>::failbit
CONST	ENDS
;	COMDAT ?eofbit@?$_Iosb@H@std@@2W4_Iostate@12@B
CONST	SEGMENT
?eofbit@?$_Iosb@H@std@@2W4_Iostate@12@B DD 01H		; std::_Iosb<int>::eofbit
CONST	ENDS
;	COMDAT ?goodbit@?$_Iosb@H@std@@2W4_Iostate@12@B
CONST	SEGMENT
?goodbit@?$_Iosb@H@std@@2W4_Iostate@12@B DD 00H		; std::_Iosb<int>::goodbit
CONST	ENDS
;	COMDAT ?floatfield@?$_Iosb@H@std@@2W4_Fmtflags@12@B
CONST	SEGMENT
?floatfield@?$_Iosb@H@std@@2W4_Fmtflags@12@B DD 03000H	; std::_Iosb<int>::floatfield
CONST	ENDS
;	COMDAT ?basefield@?$_Iosb@H@std@@2W4_Fmtflags@12@B
CONST	SEGMENT
?basefield@?$_Iosb@H@std@@2W4_Fmtflags@12@B DD 0e00H	; std::_Iosb<int>::basefield
CONST	ENDS
;	COMDAT ?adjustfield@?$_Iosb@H@std@@2W4_Fmtflags@12@B
CONST	SEGMENT
?adjustfield@?$_Iosb@H@std@@2W4_Fmtflags@12@B DD 01c0H	; std::_Iosb<int>::adjustfield
CONST	ENDS
;	COMDAT ?_Stdio@?$_Iosb@H@std@@2W4_Fmtflags@12@B
CONST	SEGMENT
?_Stdio@?$_Iosb@H@std@@2W4_Fmtflags@12@B DD 08000H	; std::_Iosb<int>::_Stdio
CONST	ENDS
;	COMDAT ?boolalpha@?$_Iosb@H@std@@2W4_Fmtflags@12@B
CONST	SEGMENT
?boolalpha@?$_Iosb@H@std@@2W4_Fmtflags@12@B DD 04000H	; std::_Iosb<int>::boolalpha
CONST	ENDS
;	COMDAT ?hexfloat@?$_Iosb@H@std@@2W4_Fmtflags@12@B
CONST	SEGMENT
?hexfloat@?$_Iosb@H@std@@2W4_Fmtflags@12@B DD 03000H	; std::_Iosb<int>::hexfloat
CONST	ENDS
;	COMDAT ?fixed@?$_Iosb@H@std@@2W4_Fmtflags@12@B
CONST	SEGMENT
?fixed@?$_Iosb@H@std@@2W4_Fmtflags@12@B DD 02000H	; std::_Iosb<int>::fixed
CONST	ENDS
;	COMDAT ?scientific@?$_Iosb@H@std@@2W4_Fmtflags@12@B
CONST	SEGMENT
?scientific@?$_Iosb@H@std@@2W4_Fmtflags@12@B DD 01000H	; std::_Iosb<int>::scientific
CONST	ENDS
;	COMDAT ?hex@?$_Iosb@H@std@@2W4_Fmtflags@12@B
CONST	SEGMENT
?hex@?$_Iosb@H@std@@2W4_Fmtflags@12@B DD 0800H		; std::_Iosb<int>::hex
CONST	ENDS
;	COMDAT ?oct@?$_Iosb@H@std@@2W4_Fmtflags@12@B
CONST	SEGMENT
?oct@?$_Iosb@H@std@@2W4_Fmtflags@12@B DD 0400H		; std::_Iosb<int>::oct
CONST	ENDS
;	COMDAT ?dec@?$_Iosb@H@std@@2W4_Fmtflags@12@B
CONST	SEGMENT
?dec@?$_Iosb@H@std@@2W4_Fmtflags@12@B DD 0200H		; std::_Iosb<int>::dec
CONST	ENDS
;	COMDAT ?internal@?$_Iosb@H@std@@2W4_Fmtflags@12@B
CONST	SEGMENT
?internal@?$_Iosb@H@std@@2W4_Fmtflags@12@B DD 0100H	; std::_Iosb<int>::internal
CONST	ENDS
;	COMDAT ?right@?$_Iosb@H@std@@2W4_Fmtflags@12@B
CONST	SEGMENT
?right@?$_Iosb@H@std@@2W4_Fmtflags@12@B DD 080H		; std::_Iosb<int>::right
CONST	ENDS
;	COMDAT ?left@?$_Iosb@H@std@@2W4_Fmtflags@12@B
CONST	SEGMENT
?left@?$_Iosb@H@std@@2W4_Fmtflags@12@B DD 040H		; std::_Iosb<int>::left
CONST	ENDS
;	COMDAT ?showpos@?$_Iosb@H@std@@2W4_Fmtflags@12@B
CONST	SEGMENT
?showpos@?$_Iosb@H@std@@2W4_Fmtflags@12@B DD 020H	; std::_Iosb<int>::showpos
CONST	ENDS
;	COMDAT ?showpoint@?$_Iosb@H@std@@2W4_Fmtflags@12@B
CONST	SEGMENT
?showpoint@?$_Iosb@H@std@@2W4_Fmtflags@12@B DD 010H	; std::_Iosb<int>::showpoint
CONST	ENDS
;	COMDAT ?showbase@?$_Iosb@H@std@@2W4_Fmtflags@12@B
CONST	SEGMENT
?showbase@?$_Iosb@H@std@@2W4_Fmtflags@12@B DD 08H	; std::_Iosb<int>::showbase
CONST	ENDS
;	COMDAT ?uppercase@?$_Iosb@H@std@@2W4_Fmtflags@12@B
CONST	SEGMENT
?uppercase@?$_Iosb@H@std@@2W4_Fmtflags@12@B DD 04H	; std::_Iosb<int>::uppercase
CONST	ENDS
;	COMDAT ?unitbuf@?$_Iosb@H@std@@2W4_Fmtflags@12@B
CONST	SEGMENT
?unitbuf@?$_Iosb@H@std@@2W4_Fmtflags@12@B DD 02H	; std::_Iosb<int>::unitbuf
CONST	ENDS
;	COMDAT ?skipws@?$_Iosb@H@std@@2W4_Fmtflags@12@B
CONST	SEGMENT
?skipws@?$_Iosb@H@std@@2W4_Fmtflags@12@B DD 01H		; std::_Iosb<int>::skipws
CONST	ENDS
;	COMDAT ?none@?$_Locbase@H@std@@2HB
CONST	SEGMENT
?none@?$_Locbase@H@std@@2HB DD 00H			; std::_Locbase<int>::none
CONST	ENDS
;	COMDAT ?all@?$_Locbase@H@std@@2HB
CONST	SEGMENT
?all@?$_Locbase@H@std@@2HB DD 03fH			; std::_Locbase<int>::all
CONST	ENDS
;	COMDAT ?messages@?$_Locbase@H@std@@2HB
CONST	SEGMENT
?messages@?$_Locbase@H@std@@2HB DD 020H			; std::_Locbase<int>::messages
CONST	ENDS
;	COMDAT ?time@?$_Locbase@H@std@@2HB
CONST	SEGMENT
?time@?$_Locbase@H@std@@2HB DD 010H			; std::_Locbase<int>::time
CONST	ENDS
;	COMDAT ?numeric@?$_Locbase@H@std@@2HB
CONST	SEGMENT
?numeric@?$_Locbase@H@std@@2HB DD 08H			; std::_Locbase<int>::numeric
CONST	ENDS
;	COMDAT ?monetary@?$_Locbase@H@std@@2HB
CONST	SEGMENT
?monetary@?$_Locbase@H@std@@2HB DD 04H			; std::_Locbase<int>::monetary
CONST	ENDS
;	COMDAT ?ctype@?$_Locbase@H@std@@2HB
CONST	SEGMENT
?ctype@?$_Locbase@H@std@@2HB DD 02H			; std::_Locbase<int>::ctype
CONST	ENDS
;	COMDAT ?collate@?$_Locbase@H@std@@2HB
CONST	SEGMENT
?collate@?$_Locbase@H@std@@2HB DD 01H			; std::_Locbase<int>::collate
CONST	ENDS
;	COMDAT ?_Value@?$_Is_swap_move@U_Swap_move_tag@std@@@std@@2_NB
CONST	SEGMENT
?_Value@?$_Is_swap_move@U_Swap_move_tag@std@@@std@@2_NB DB 01H ; std::_Is_swap_move<std::_Swap_move_tag>::_Value
CONST	ENDS
_DATA	SEGMENT
__bad_alloc_Message DD FLAT:$SG63979
_DATA	ENDS
CONST	SEGMENT
$SG63979 DB	'bad allocation', 00H
	ORG $+1
$SG140634 DB	0dH, 00H, 'R', 00H, 'e', 00H, 'a', 00H, 'd', 00H, ' ', 00H
	DB	'%', 00H, 'd', 00H, 0dH, 00H, 00H, 00H
$SG140793 DB	'namecache.bin', 00H
	ORG $+2
$SG140795 DB	'L', 00H, 'o', 00H, 'a', 00H, 'd', 00H, 'i', 00H, 'n', 00H
	DB	'g', 00H, ' ', 00H, 'c', 00H, 'h', 00H, 'a', 00H, 'r', 00H, 'a'
	DB	00H, 'c', 00H, 't', 00H, 'e', 00H, 'r', 00H, ' ', 00H, 'n', 00H
	DB	'a', 00H, 'm', 00H, 'e', 00H, ' ', 00H, 'c', 00H, 'a', 00H, 'c'
	DB	00H, 'h', 00H, 'e', 00H, 0aH, 00H, 00H, 00H
$SG140797 DB	'rb', 00H
	ORG $+1
$SG140807 DB	'L', 00H, 'o', 00H, 'a', 00H, 'd', 00H, 'e', 00H, 'd', 00H
	DB	' ', 00H, '%', 00H, 'd', 00H, ' ', 00H, 'n', 00H, 'a', 00H, 'm'
	DB	00H, 'e', 00H, 's', 00H, 0aH, 00H, 00H, 00H
	ORG $+2
$SG140812 DB	'namecache.bin', 00H
	ORG $+2
$SG140814 DB	'wb', 00H
	ORG $+1
$SG140817 DB	'S', 00H, 'a', 00H, 'v', 00H, 'i', 00H, 'n', 00H, 'g', 00H
	DB	' ', 00H, 'c', 00H, 'h', 00H, 'a', 00H, 'r', 00H, 'a', 00H, 'c'
	DB	00H, 't', 00H, 'e', 00H, 'r', 00H, ' ', 00H, 'n', 00H, 'a', 00H
	DB	'm', 00H, 'e', 00H, ' ', 00H, 'c', 00H, 'a', 00H, 'c', 00H, 'h'
	DB	00H, 'e', 00H, 0aH, 00H, 00H, 00H
	ORG $+2
$SG140842 DB	'E', 00H, 'R', 00H, 'R', 00H, 'O', 00H, 'R', 00H, ':', 00H
	DB	' ', 00H, 'S', 00H, 'a', 00H, 'v', 00H, 'i', 00H, 'n', 00H, 'g'
	DB	00H, ' ', 00H, 'c', 00H, 'h', 00H, 'a', 00H, 'r', 00H, 'a', 00H
	DB	'c', 00H, 't', 00H, 'e', 00H, 'r', 00H, ' ', 00H, 'n', 00H, 'a'
	DB	00H, 'm', 00H, 'e', 00H, ' ', 00H, 'c', 00H, 'a', 00H, 'c', 00H
	DB	'h', 00H, 'e', 00H, ' ', 00H, 'f', 00H, 'a', 00H, 'i', 00H, 'l'
	DB	00H, 'e', 00H, 'd', 00H, 0aH, 00H, 00H, 00H
	ORG $+2
$SG140844 DB	'S', 00H, 'a', 00H, 'v', 00H, 'e', 00H, 'd', 00H, ' ', 00H
	DB	'%', 00H, 'd', 00H, ' ', 00H, 'n', 00H, 'a', 00H, 'm', 00H, 'e'
	DB	00H, 's', 00H, 0aH, 00H, 00H, 00H
$SG140856 DB	'\Accts\MultiPlayer\', 00H
CONST	ENDS
PUBLIC	__$ArrayPad$
PUBLIC	?Init@StartupCache@@YAXXZ			; StartupCache::Init
EXTRN	__imp_?length@?$basic_string@DU?$char_traits@D@std@@V?$allocator@D@2@@std@@QBEIXZ:PROC
EXTRN	__imp_??1?$basic_string@DU?$char_traits@D@std@@V?$allocator@D@2@@std@@QAE@XZ:PROC
EXTRN	__imp_??4?$basic_string@DU?$char_traits@D@std@@V?$allocator@D@2@@std@@QAEAAV01@ABV01@@Z:PROC
EXTRN	__imp_??$?HDU?$char_traits@D@std@@V?$allocator@D@1@@std@@YA?AV?$basic_string@DU?$char_traits@D@std@@V?$allocator@D@2@@0@ABV10@PBD@Z:PROC
EXTRN	__imp_??0?$basic_string@DU?$char_traits@D@std@@V?$allocator@D@2@@std@@QAE@PBD@Z:PROC
EXTRN	__imp_?GetUserDataPath@@YA_NQAD@Z:PROC
EXTRN	__imp_?PatchCallAddr@@YAP6GHXZPADK0@Z:PROC
EXTRN	__imp_?WriteProcMem@@YAXPAX0H@Z:PROC
EXTRN	__imp_?hModServer@@3PAUHINSTANCE__@@A:DWORD
EXTRN	___security_cookie:DWORD
EXTRN	___CxxFrameHandler3:PROC
EXTRN	@__security_check_cookie@4:PROC
xdata$x	SEGMENT
__unwindtable$?Init@StartupCache@@YAXXZ DD 0ffffffffH
	DD	FLAT:__unwindfunclet$?Init@StartupCache@@YAXXZ$0
	DD	00H
	DD	FLAT:__unwindfunclet$?Init@StartupCache@@YAXXZ$1
__ehfuncinfo$?Init@StartupCache@@YAXXZ DD 019930522H
	DD	02H
	DD	FLAT:__unwindtable$?Init@StartupCache@@YAXXZ
	DD	2 DUP(00H)
	DD	2 DUP(00H)
	DD	00H
	DD	00H
; Function compile flags: /Odtp
xdata$x	ENDS
_TEXT	SEGMENT
tv91 = -372						; size = 4
tv93 = -368						; size = 4
tv89 = -364						; size = 4
tv92 = -360						; size = 4
$T145909 = -356						; size = 28
$T145908 = -328						; size = 28
_patch$140847 = -300					; size = 13
_szDataPath$ = -284					; size = 260
__$ArrayPad$ = -16					; size = 4
__$EHRec$ = -12						; size = 12
?Init@StartupCache@@YAXXZ PROC				; StartupCache::Init
; File g:\max\bastelstube\github\fl-mod-flhook\plugins\playercntl_plugin\src\startupcache.cpp
; Line 124
	push	ebp
	mov	ebp, esp
	push	-1
	push	__ehhandler$?Init@StartupCache@@YAXXZ
	mov	eax, DWORD PTR fs:0
	push	eax
	sub	esp, 360				; 00000168H
	mov	eax, DWORD PTR ___security_cookie
	xor	eax, ebp
	mov	DWORD PTR __$ArrayPad$[ebp], eax
	push	eax
	lea	eax, DWORD PTR __$EHRec$[ebp]
	mov	DWORD PTR fs:0, eax
; Line 127
	mov	BYTE PTR _patch$140847[ebp], 95		; 0000005fH
	mov	BYTE PTR _patch$140847[ebp+1], 94	; 0000005eH
	mov	BYTE PTR _patch$140847[ebp+2], 93	; 0000005dH
	mov	BYTE PTR _patch$140847[ebp+3], 91	; 0000005bH
	mov	BYTE PTR _patch$140847[ebp+4], 129	; 00000081H
	mov	BYTE PTR _patch$140847[ebp+5], 196	; 000000c4H
	mov	BYTE PTR _patch$140847[ebp+6], 8
	mov	BYTE PTR _patch$140847[ebp+7], 17	; 00000011H
	mov	BYTE PTR _patch$140847[ebp+8], 0
	mov	BYTE PTR _patch$140847[ebp+9], 0
	mov	BYTE PTR _patch$140847[ebp+10], 194	; 000000c2H
	mov	BYTE PTR _patch$140847[ebp+11], 4
	mov	BYTE PTR _patch$140847[ebp+12], 0
; Line 128
	push	13					; 0000000dH
	lea	eax, DWORD PTR _patch$140847[ebp]
	push	eax
	mov	ecx, DWORD PTR __imp_?hModServer@@3PAUHINSTANCE__@@A
	mov	edx, DWORD PTR [ecx]
	add	edx, 486206				; 00076b3eH
	push	edx
	call	DWORD PTR __imp_?WriteProcMem@@YAXPAX0H@Z
	add	esp, 12					; 0000000cH
; Line 132
	push	OFFSET ?HkCb_ReadCharacterName@StartupCache@@YGHPBDPAV?$basic_string@GUci_wchar_traits@@V?$allocator@G@std@@@std@@@Z ; StartupCache::HkCb_ReadCharacterName
	push	464830					; 000717beH
	mov	eax, DWORD PTR __imp_?hModServer@@3PAUHINSTANCE__@@A
	mov	ecx, DWORD PTR [eax]
	push	ecx
	call	DWORD PTR __imp_?PatchCallAddr@@YAP6GHXZPADK0@Z
	add	esp, 12					; 0000000cH
; Line 135
	mov	edx, DWORD PTR __imp_?hModServer@@3PAUHINSTANCE__@@A
	mov	eax, DWORD PTR [edx]
	add	eax, 471008				; 00072fe0H
	mov	DWORD PTR ?ReadCharName@StartupCache@@3P6GHPBDPAV?$basic_string@GUci_wchar_traits@@V?$allocator@G@std@@@std@@@ZA, eax ; StartupCache::ReadCharName
; Line 139
	lea	ecx, DWORD PTR _szDataPath$[ebp]
	push	ecx
	call	DWORD PTR __imp_?GetUserDataPath@@YA_NQAD@Z
	add	esp, 4
; Line 140
	push	OFFSET $SG140856
	lea	edx, DWORD PTR _szDataPath$[ebp]
	push	edx
	lea	ecx, DWORD PTR $T145908[ebp]
	call	DWORD PTR __imp_??0?$basic_string@DU?$char_traits@D@std@@V?$allocator@D@2@@std@@QAE@PBD@Z
	mov	DWORD PTR tv92[ebp], eax
	mov	eax, DWORD PTR tv92[ebp]
	mov	DWORD PTR tv89[ebp], eax
	mov	DWORD PTR __$EHRec$[ebp+8], 0
	mov	ecx, DWORD PTR tv89[ebp]
	push	ecx
	lea	edx, DWORD PTR $T145909[ebp]
	push	edx
	call	DWORD PTR __imp_??$?HDU?$char_traits@D@std@@V?$allocator@D@1@@std@@YA?AV?$basic_string@DU?$char_traits@D@std@@V?$allocator@D@2@@0@ABV10@PBD@Z
	add	esp, 12					; 0000000cH
	mov	DWORD PTR tv93[ebp], eax
	mov	eax, DWORD PTR tv93[ebp]
	mov	DWORD PTR tv91[ebp], eax
	mov	BYTE PTR __$EHRec$[ebp+8], 1
	mov	ecx, DWORD PTR tv91[ebp]
	push	ecx
	mov	ecx, OFFSET _scBaseAcctPath
	call	DWORD PTR __imp_??4?$basic_string@DU?$char_traits@D@std@@V?$allocator@D@2@@std@@QAEAAV01@ABV01@@Z
	mov	BYTE PTR __$EHRec$[ebp+8], 0
	lea	ecx, DWORD PTR $T145909[ebp]
	call	DWORD PTR __imp_??1?$basic_string@DU?$char_traits@D@std@@V?$allocator@D@2@@std@@QAE@XZ
	mov	DWORD PTR __$EHRec$[ebp+8], -1
	lea	ecx, DWORD PTR $T145908[ebp]
	call	DWORD PTR __imp_??1?$basic_string@DU?$char_traits@D@std@@V?$allocator@D@2@@std@@QAE@XZ
; Line 141
	mov	ecx, OFFSET _scBaseAcctPath
	call	DWORD PTR __imp_?length@?$basic_string@DU?$char_traits@D@std@@V?$allocator@D@2@@std@@QBEIXZ
	mov	DWORD PTR _acc_path_prefix_length, eax
; Line 144
	call	?LoadCache@StartupCache@@YAXXZ		; StartupCache::LoadCache
; Line 145
	mov	ecx, DWORD PTR __$EHRec$[ebp]
	mov	DWORD PTR fs:0, ecx
	pop	ecx
	mov	ecx, DWORD PTR __$ArrayPad$[ebp]
	xor	ecx, ebp
	call	@__security_check_cookie@4
	mov	esp, ebp
	pop	ebp
	ret	0
_TEXT	ENDS
text$x	SEGMENT
__unwindfunclet$?Init@StartupCache@@YAXXZ$0:
	lea	ecx, DWORD PTR $T145908[ebp]
	jmp	DWORD PTR __imp_??1?$basic_string@DU?$char_traits@D@std@@V?$allocator@D@2@@std@@QAE@XZ
__unwindfunclet$?Init@StartupCache@@YAXXZ$1:
	lea	ecx, DWORD PTR $T145909[ebp]
	jmp	DWORD PTR __imp_??1?$basic_string@DU?$char_traits@D@std@@V?$allocator@D@2@@std@@QAE@XZ
__ehhandler$?Init@StartupCache@@YAXXZ:
	mov	edx, DWORD PTR [esp+8]
	lea	eax, DWORD PTR [edx+12]
	mov	ecx, DWORD PTR [edx-364]
	xor	ecx, eax
	call	@__security_check_cookie@4
	mov	ecx, DWORD PTR [edx-4]
	xor	ecx, eax
	call	@__security_check_cookie@4
	mov	eax, OFFSET __ehfuncinfo$?Init@StartupCache@@YAXXZ
	jmp	___CxxFrameHandler3
text$x	ENDS
?Init@StartupCache@@YAXXZ ENDP				; StartupCache::Init
PUBLIC	??A?$map@V?$basic_string@DU?$char_traits@D@std@@V?$allocator@D@2@@std@@V?$basic_string@GU?$char_traits@G@std@@V?$allocator@G@2@@2@U?$less@V?$basic_string@DU?$char_traits@D@std@@V?$allocator@D@2@@std@@@2@V?$allocator@U?$pair@$$CBV?$basic_string@DU?$char_traits@D@std@@V?$allocator@D@2@@std@@V?$basic_string@GU?$char_traits@G@std@@V?$allocator@G@2@@2@@std@@@2@@std@@QAEAAV?$basic_string@GU?$char_traits@G@std@@V?$allocator@G@2@@1@ABV?$basic_string@DU?$char_traits@D@std@@V?$allocator@D@2@@1@@Z ; std::map<std::basic_string<char,std::char_traits<char>,std::allocator<char> >,std::basic_string<unsigned short,std::char_traits<unsigned short>,std::allocator<unsigned short> >,std::less<std::basic_string<char,std::char_traits<char>,std::allocator<char> > >,std::allocator<std::pair<std::basic_string<char,std::char_traits<char>,std::allocator<char> > const ,std::basic_string<unsigned short,std::char_traits<unsigned short>,std::allocator<unsigned short> > > > >::operator[]
PUBLIC	??Citerator@?$_Tree@V?$_Tmap_traits@V?$basic_string@DU?$char_traits@D@std@@V?$allocator@D@2@@std@@V?$basic_string@GU?$char_traits@G@std@@V?$allocator@G@2@@2@U?$less@V?$basic_string@DU?$char_traits@D@std@@V?$allocator@D@2@@std@@@2@V?$allocator@U?$pair@$$CBV?$basic_string@DU?$char_traits@D@std@@V?$allocator@D@2@@std@@V?$basic_string@GU?$char_traits@G@std@@V?$allocator@G@2@@2@@std@@@2@$0A@@std@@@std@@QBEPAU?$pair@$$CBV?$basic_string@DU?$char_traits@D@std@@V?$allocator@D@2@@std@@V?$basic_string@GU?$char_traits@G@std@@V?$allocator@G@2@@2@@2@XZ ; std::_Tree<std::_Tmap_traits<std::basic_string<char,std::char_traits<char>,std::allocator<char> >,std::basic_string<unsigned short,std::char_traits<unsigned short>,std::allocator<unsigned short> >,std::less<std::basic_string<char,std::char_traits<char>,std::allocator<char> > >,std::allocator<std::pair<std::basic_string<char,std::char_traits<char>,std::allocator<char> > const ,std::basic_string<unsigned short,std::char_traits<unsigned short>,std::allocator<unsigned short> > > >,0> >::iterator::operator->
PUBLIC	??9const_iterator@?$_Tree@V?$_Tmap_traits@V?$basic_string@DU?$char_traits@D@std@@V?$allocator@D@2@@std@@V?$basic_string@GU?$char_traits@G@std@@V?$allocator@G@2@@2@U?$less@V?$basic_string@DU?$char_traits@D@std@@V?$allocator@D@2@@std@@@2@V?$allocator@U?$pair@$$CBV?$basic_string@DU?$char_traits@D@std@@V?$allocator@D@2@@std@@V?$basic_string@GU?$char_traits@G@std@@V?$allocator@G@2@@2@@std@@@2@$0A@@std@@@std@@QBE_NABV012@@Z ; std::_Tree<std::_Tmap_traits<std::basic_string<char,std::char_traits<char>,std::allocator<char> >,std::basic_string<unsigned short,std::char_traits<unsigned short>,std::allocator<unsigned short> >,std::less<std::basic_string<char,std::char_traits<char>,std::allocator<char> > >,std::allocator<std::pair<std::basic_string<char,std::char_traits<char>,std::allocator<char> > const ,std::basic_string<unsigned short,std::char_traits<unsigned short>,std::allocator<unsigned short> > > >,0> >::const_iterator::operator!=
PUBLIC	?end@?$_Tree@V?$_Tmap_traits@V?$basic_string@DU?$char_traits@D@std@@V?$allocator@D@2@@std@@V?$basic_string@GU?$char_traits@G@std@@V?$allocator@G@2@@2@U?$less@V?$basic_string@DU?$char_traits@D@std@@V?$allocator@D@2@@std@@@2@V?$allocator@U?$pair@$$CBV?$basic_string@DU?$char_traits@D@std@@V?$allocator@D@2@@std@@V?$basic_string@GU?$char_traits@G@std@@V?$allocator@G@2@@2@@std@@@2@$0A@@std@@@std@@QAE?AViterator@12@XZ ; std::_Tree<std::_Tmap_traits<std::basic_string<char,std::char_traits<char>,std::allocator<char> >,std::basic_string<unsigned short,std::char_traits<unsigned short>,std::allocator<unsigned short> >,std::less<std::basic_string<char,std::char_traits<char>,std::allocator<char> > >,std::allocator<std::pair<std::basic_string<char,std::char_traits<char>,std::allocator<char> > const ,std::basic_string<unsigned short,std::char_traits<unsigned short>,std::allocator<unsigned short> > > >,0> >::end
PUBLIC	?find@?$_Tree@V?$_Tmap_traits@V?$basic_string@DU?$char_traits@D@std@@V?$allocator@D@2@@std@@V?$basic_string@GU?$char_traits@G@std@@V?$allocator@G@2@@2@U?$less@V?$basic_string@DU?$char_traits@D@std@@V?$allocator@D@2@@std@@@2@V?$allocator@U?$pair@$$CBV?$basic_string@DU?$char_traits@D@std@@V?$allocator@D@2@@std@@V?$basic_string@GU?$char_traits@G@std@@V?$allocator@G@2@@2@@std@@@2@$0A@@std@@@std@@QAE?AViterator@12@ABV?$basic_string@DU?$char_traits@D@std@@V?$allocator@D@2@@2@@Z ; std::_Tree<std::_Tmap_traits<std::basic_string<char,std::char_traits<char>,std::allocator<char> >,std::basic_string<unsigned short,std::char_traits<unsigned short>,std::allocator<unsigned short> >,std::less<std::basic_string<char,std::char_traits<char>,std::allocator<char> > >,std::allocator<std::pair<std::basic_string<char,std::char_traits<char>,std::allocator<char> > const ,std::basic_string<unsigned short,std::char_traits<unsigned short>,std::allocator<unsigned short> > > >,0> >::find
PUBLIC	__$ArrayPad$
EXTRN	__imp_??1?$basic_string@GU?$char_traits@G@std@@V?$allocator@G@2@@std@@QAE@XZ:PROC
EXTRN	__imp_??4?$basic_string@GU?$char_traits@G@std@@V?$allocator@G@2@@std@@QAEAAV01@PBG@Z:PROC
EXTRN	__imp_?GetWCString@@3P6APAGPAV?$basic_string@GUci_wchar_traits@@V?$allocator@G@std@@@std@@@ZA:DWORD
EXTRN	__imp_?WStringAssign@@3P6APAGPAV?$basic_string@GUci_wchar_traits@@V?$allocator@G@std@@@std@@PBG@ZA:DWORD
EXTRN	__imp_?c_str@?$basic_string@GU?$char_traits@G@std@@V?$allocator@G@2@@std@@QBEPBGXZ:PROC
EXTRN	__imp_?ConPrint@@YAXV?$basic_string@GU?$char_traits@G@std@@V?$allocator@G@2@@std@@ZZ:PROC
EXTRN	__imp_??0?$basic_string@GU?$char_traits@G@std@@V?$allocator@G@2@@std@@QAE@PBG@Z:PROC
xdata$x	SEGMENT
__unwindtable$?HkCb_ReadCharacterName@StartupCache@@YGHPBDPAV?$basic_string@GUci_wchar_traits@@V?$allocator@G@std@@@std@@@Z DD 0ffffffffH
	DD	FLAT:__unwindfunclet$?HkCb_ReadCharacterName@StartupCache@@YGHPBDPAV?$basic_string@GUci_wchar_traits@@V?$allocator@G@std@@@std@@@Z$0
	DD	0ffffffffH
	DD	FLAT:__unwindfunclet$?HkCb_ReadCharacterName@StartupCache@@YGHPBDPAV?$basic_string@GUci_wchar_traits@@V?$allocator@G@std@@@std@@@Z$1
__ehfuncinfo$?HkCb_ReadCharacterName@StartupCache@@YGHPBDPAV?$basic_string@GUci_wchar_traits@@V?$allocator@G@std@@@std@@@Z DD 019930522H
	DD	02H
	DD	FLAT:__unwindtable$?HkCb_ReadCharacterName@StartupCache@@YGHPBDPAV?$basic_string@GUci_wchar_traits@@V?$allocator@G@std@@@std@@@Z
	DD	2 DUP(00H)
	DD	2 DUP(00H)
	DD	00H
	DD	00H
; Function compile flags: /Odtp
xdata$x	ENDS
_TEXT	SEGMENT
tv162 = -80						; size = 4
tv166 = -76						; size = 4
$T145926 = -72						; size = 4
$T145925 = -68						; size = 4
$T145924 = -64						; size = 8
$T145923 = -56						; size = 4
_acc_path$ = -52					; size = 28
__$ArrayPad$ = -24					; size = 4
_i$ = -20						; size = 8
__$EHRec$ = -12						; size = 12
_filename$ = 8						; size = 4
_str$ = 12						; size = 4
?HkCb_ReadCharacterName@StartupCache@@YGHPBDPAV?$basic_string@GUci_wchar_traits@@V?$allocator@G@std@@@std@@@Z PROC ; StartupCache::HkCb_ReadCharacterName
; Line 46
	push	ebp
	mov	ebp, esp
	push	-1
	push	__ehhandler$?HkCb_ReadCharacterName@StartupCache@@YGHPBDPAV?$basic_string@GUci_wchar_traits@@V?$allocator@G@std@@@std@@@Z
	mov	eax, DWORD PTR fs:0
	push	eax
	sub	esp, 68					; 00000044H
	mov	eax, DWORD PTR ___security_cookie
	xor	eax, ebp
	mov	DWORD PTR __$ArrayPad$[ebp], eax
	push	eax
	lea	eax, DWORD PTR __$EHRec$[ebp]
	mov	DWORD PTR fs:0, eax
; Line 47
	mov	eax, DWORD PTR _chars_loaded
	add	eax, 1
	mov	DWORD PTR _chars_loaded, eax
	mov	ecx, DWORD PTR _chars_loaded
	push	ecx
	sub	esp, 28					; 0000001cH
	mov	ecx, esp
	mov	DWORD PTR $T145923[ebp], esp
	push	OFFSET $SG140634
	call	DWORD PTR __imp_??0?$basic_string@GU?$char_traits@G@std@@V?$allocator@G@2@@std@@QAE@PBG@Z
	mov	DWORD PTR tv166[ebp], eax
	mov	edx, DWORD PTR tv166[ebp]
	mov	DWORD PTR tv162[ebp], edx
	mov	DWORD PTR __$EHRec$[ebp+8], 0
	mov	DWORD PTR __$EHRec$[ebp+8], -1
	call	DWORD PTR __imp_?ConPrint@@YAXV?$basic_string@GU?$char_traits@G@std@@V?$allocator@G@2@@std@@ZZ
	add	esp, 32					; 00000020H
; Line 51
	mov	eax, DWORD PTR _filename$[ebp]
	add	eax, DWORD PTR _acc_path_prefix_length
	push	eax
	lea	ecx, DWORD PTR _acc_path$[ebp]
	call	DWORD PTR __imp_??0?$basic_string@DU?$char_traits@D@std@@V?$allocator@D@2@@std@@QAE@PBD@Z
	mov	DWORD PTR __$EHRec$[ebp+8], 1
; Line 52
	lea	ecx, DWORD PTR _acc_path$[ebp]
	push	ecx
	lea	edx, DWORD PTR _i$[ebp]
	push	edx
	mov	ecx, OFFSET _cache
	call	?find@?$_Tree@V?$_Tmap_traits@V?$basic_string@DU?$char_traits@D@std@@V?$allocator@D@2@@std@@V?$basic_string@GU?$char_traits@G@std@@V?$allocator@G@2@@2@U?$less@V?$basic_string@DU?$char_traits@D@std@@V?$allocator@D@2@@std@@@2@V?$allocator@U?$pair@$$CBV?$basic_string@DU?$char_traits@D@std@@V?$allocator@D@2@@std@@V?$basic_string@GU?$char_traits@G@std@@V?$allocator@G@2@@2@@std@@@2@$0A@@std@@@std@@QAE?AViterator@12@ABV?$basic_string@DU?$char_traits@D@std@@V?$allocator@D@2@@2@@Z ; std::_Tree<std::_Tmap_traits<std::basic_string<char,std::char_traits<char>,std::allocator<char> >,std::basic_string<unsigned short,std::char_traits<unsigned short>,std::allocator<unsigned short> >,std::less<std::basic_string<char,std::char_traits<char>,std::allocator<char> > >,std::allocator<std::pair<std::basic_string<char,std::char_traits<char>,std::allocator<char> > const ,std::basic_string<unsigned short,std::char_traits<unsigned short>,std::allocator<unsigned short> > > >,0> >::find
; Line 53
	lea	eax, DWORD PTR $T145924[ebp]
	push	eax
	mov	ecx, OFFSET _cache
	call	?end@?$_Tree@V?$_Tmap_traits@V?$basic_string@DU?$char_traits@D@std@@V?$allocator@D@2@@std@@V?$basic_string@GU?$char_traits@G@std@@V?$allocator@G@2@@2@U?$less@V?$basic_string@DU?$char_traits@D@std@@V?$allocator@D@2@@std@@@2@V?$allocator@U?$pair@$$CBV?$basic_string@DU?$char_traits@D@std@@V?$allocator@D@2@@std@@V?$basic_string@GU?$char_traits@G@std@@V?$allocator@G@2@@2@@std@@@2@$0A@@std@@@std@@QAE?AViterator@12@XZ ; std::_Tree<std::_Tmap_traits<std::basic_string<char,std::char_traits<char>,std::allocator<char> >,std::basic_string<unsigned short,std::char_traits<unsigned short>,std::allocator<unsigned short> >,std::less<std::basic_string<char,std::char_traits<char>,std::allocator<char> > >,std::allocator<std::pair<std::basic_string<char,std::char_traits<char>,std::allocator<char> > const ,std::basic_string<unsigned short,std::char_traits<unsigned short>,std::allocator<unsigned short> > > >,0> >::end
	push	eax
	lea	ecx, DWORD PTR _i$[ebp]
	call	??9const_iterator@?$_Tree@V?$_Tmap_traits@V?$basic_string@DU?$char_traits@D@std@@V?$allocator@D@2@@std@@V?$basic_string@GU?$char_traits@G@std@@V?$allocator@G@2@@2@U?$less@V?$basic_string@DU?$char_traits@D@std@@V?$allocator@D@2@@std@@@2@V?$allocator@U?$pair@$$CBV?$basic_string@DU?$char_traits@D@std@@V?$allocator@D@2@@std@@V?$basic_string@GU?$char_traits@G@std@@V?$allocator@G@2@@2@@std@@@2@$0A@@std@@@std@@QBE_NABV012@@Z ; std::_Tree<std::_Tmap_traits<std::basic_string<char,std::char_traits<char>,std::allocator<char> >,std::basic_string<unsigned short,std::char_traits<unsigned short>,std::allocator<unsigned short> >,std::less<std::basic_string<char,std::char_traits<char>,std::allocator<char> > >,std::allocator<std::pair<std::basic_string<char,std::char_traits<char>,std::allocator<char> > const ,std::basic_string<unsigned short,std::char_traits<unsigned short>,std::allocator<unsigned short> > > >,0> >::const_iterator::operator!=
	movzx	ecx, al
	test	ecx, ecx
	je	SHORT $LN1@HkCb_ReadC
; Line 55
	lea	ecx, DWORD PTR _i$[ebp]
	call	??Citerator@?$_Tree@V?$_Tmap_traits@V?$basic_string@DU?$char_traits@D@std@@V?$allocator@D@2@@std@@V?$basic_string@GU?$char_traits@G@std@@V?$allocator@G@2@@2@U?$less@V?$basic_string@DU?$char_traits@D@std@@V?$allocator@D@2@@std@@@2@V?$allocator@U?$pair@$$CBV?$basic_string@DU?$char_traits@D@std@@V?$allocator@D@2@@std@@V?$basic_string@GU?$char_traits@G@std@@V?$allocator@G@2@@2@@std@@@2@$0A@@std@@@std@@QBEPAU?$pair@$$CBV?$basic_string@DU?$char_traits@D@std@@V?$allocator@D@2@@std@@V?$basic_string@GU?$char_traits@G@std@@V?$allocator@G@2@@2@@2@XZ ; std::_Tree<std::_Tmap_traits<std::basic_string<char,std::char_traits<char>,std::allocator<char> >,std::basic_string<unsigned short,std::char_traits<unsigned short>,std::allocator<unsigned short> >,std::less<std::basic_string<char,std::char_traits<char>,std::allocator<char> > >,std::allocator<std::pair<std::basic_string<char,std::char_traits<char>,std::allocator<char> > const ,std::basic_string<unsigned short,std::char_traits<unsigned short>,std::allocator<unsigned short> > > >,0> >::iterator::operator->
	add	eax, 28					; 0000001cH
	mov	ecx, eax
	call	DWORD PTR __imp_?c_str@?$basic_string@GU?$char_traits@G@std@@V?$allocator@G@2@@std@@QBEPBGXZ
	push	eax
	mov	edx, DWORD PTR _str$[ebp]
	push	edx
	mov	eax, DWORD PTR __imp_?WStringAssign@@3P6APAGPAV?$basic_string@GUci_wchar_traits@@V?$allocator@G@std@@@std@@PBG@ZA
	mov	ecx, DWORD PTR [eax]
	call	ecx
	add	esp, 8
; Line 56
	mov	DWORD PTR $T145925[ebp], 1
	mov	DWORD PTR __$EHRec$[ebp+8], -1
	lea	ecx, DWORD PTR _acc_path$[ebp]
	call	DWORD PTR __imp_??1?$basic_string@DU?$char_traits@D@std@@V?$allocator@D@2@@std@@QAE@XZ
	mov	eax, DWORD PTR $T145925[ebp]
	jmp	SHORT $LN2@HkCb_ReadC
$LN1@HkCb_ReadC:
; Line 61
	mov	edx, DWORD PTR _str$[ebp]
	push	edx
	mov	eax, DWORD PTR _filename$[ebp]
	push	eax
	call	DWORD PTR ?ReadCharName@StartupCache@@3P6GHPBDPAV?$basic_string@GUci_wchar_traits@@V?$allocator@G@std@@@std@@@ZA ; StartupCache::ReadCharName
; Line 62
	mov	ecx, DWORD PTR _str$[ebp]
	push	ecx
	mov	edx, DWORD PTR __imp_?GetWCString@@3P6APAGPAV?$basic_string@GUci_wchar_traits@@V?$allocator@G@std@@@std@@@ZA
	mov	eax, DWORD PTR [edx]
	call	eax
	add	esp, 4
	push	eax
	lea	ecx, DWORD PTR _acc_path$[ebp]
	push	ecx
	mov	ecx, OFFSET _cache
	call	??A?$map@V?$basic_string@DU?$char_traits@D@std@@V?$allocator@D@2@@std@@V?$basic_string@GU?$char_traits@G@std@@V?$allocator@G@2@@2@U?$less@V?$basic_string@DU?$char_traits@D@std@@V?$allocator@D@2@@std@@@2@V?$allocator@U?$pair@$$CBV?$basic_string@DU?$char_traits@D@std@@V?$allocator@D@2@@std@@V?$basic_string@GU?$char_traits@G@std@@V?$allocator@G@2@@2@@std@@@2@@std@@QAEAAV?$basic_string@GU?$char_traits@G@std@@V?$allocator@G@2@@1@ABV?$basic_string@DU?$char_traits@D@std@@V?$allocator@D@2@@1@@Z ; std::map<std::basic_string<char,std::char_traits<char>,std::allocator<char> >,std::basic_string<unsigned short,std::char_traits<unsigned short>,std::allocator<unsigned short> >,std::less<std::basic_string<char,std::char_traits<char>,std::allocator<char> > >,std::allocator<std::pair<std::basic_string<char,std::char_traits<char>,std::allocator<char> > const ,std::basic_string<unsigned short,std::char_traits<unsigned short>,std::allocator<unsigned short> > > > >::operator[]
	mov	ecx, eax
	call	DWORD PTR __imp_??4?$basic_string@GU?$char_traits@G@std@@V?$allocator@G@2@@std@@QAEAAV01@PBG@Z
; Line 63
	mov	DWORD PTR $T145926[ebp], 1
	mov	DWORD PTR __$EHRec$[ebp+8], -1
	lea	ecx, DWORD PTR _acc_path$[ebp]
	call	DWORD PTR __imp_??1?$basic_string@DU?$char_traits@D@std@@V?$allocator@D@2@@std@@QAE@XZ
	mov	eax, DWORD PTR $T145926[ebp]
$LN2@HkCb_ReadC:
; Line 64
	mov	ecx, DWORD PTR __$EHRec$[ebp]
	mov	DWORD PTR fs:0, ecx
	pop	ecx
	mov	ecx, DWORD PTR __$ArrayPad$[ebp]
	xor	ecx, ebp
	call	@__security_check_cookie@4
	mov	esp, ebp
	pop	ebp
	ret	8
_TEXT	ENDS
text$x	SEGMENT
__unwindfunclet$?HkCb_ReadCharacterName@StartupCache@@YGHPBDPAV?$basic_string@GUci_wchar_traits@@V?$allocator@G@std@@@std@@@Z$0:
	mov	ecx, DWORD PTR $T145923[ebp]
	jmp	DWORD PTR __imp_??1?$basic_string@GU?$char_traits@G@std@@V?$allocator@G@2@@std@@QAE@XZ
__unwindfunclet$?HkCb_ReadCharacterName@StartupCache@@YGHPBDPAV?$basic_string@GUci_wchar_traits@@V?$allocator@G@std@@@std@@@Z$1:
	lea	ecx, DWORD PTR _acc_path$[ebp]
	jmp	DWORD PTR __imp_??1?$basic_string@DU?$char_traits@D@std@@V?$allocator@D@2@@std@@QAE@XZ
__ehhandler$?HkCb_ReadCharacterName@StartupCache@@YGHPBDPAV?$basic_string@GUci_wchar_traits@@V?$allocator@G@std@@@std@@@Z:
	mov	edx, DWORD PTR [esp+8]
	lea	eax, DWORD PTR [edx+12]
	mov	ecx, DWORD PTR [edx-72]
	xor	ecx, eax
	call	@__security_check_cookie@4
	mov	ecx, DWORD PTR [edx-12]
	xor	ecx, eax
	call	@__security_check_cookie@4
	mov	eax, OFFSET __ehfuncinfo$?HkCb_ReadCharacterName@StartupCache@@YGHPBDPAV?$basic_string@GUci_wchar_traits@@V?$allocator@G@std@@@std@@@Z
	jmp	___CxxFrameHandler3
text$x	ENDS
?HkCb_ReadCharacterName@StartupCache@@YGHPBDPAV?$basic_string@GUci_wchar_traits@@V?$allocator@G@std@@@std@@@Z ENDP ; StartupCache::HkCb_ReadCharacterName
PUBLIC	?size@?$_Tree@V?$_Tmap_traits@V?$basic_string@DU?$char_traits@D@std@@V?$allocator@D@2@@std@@V?$basic_string@GU?$char_traits@G@std@@V?$allocator@G@2@@2@U?$less@V?$basic_string@DU?$char_traits@D@std@@V?$allocator@D@2@@std@@@2@V?$allocator@U?$pair@$$CBV?$basic_string@DU?$char_traits@D@std@@V?$allocator@D@2@@std@@V?$basic_string@GU?$char_traits@G@std@@V?$allocator@G@2@@2@@std@@@2@$0A@@std@@@std@@QBEIXZ ; std::_Tree<std::_Tmap_traits<std::basic_string<char,std::char_traits<char>,std::allocator<char> >,std::basic_string<unsigned short,std::char_traits<unsigned short>,std::allocator<unsigned short> >,std::less<std::basic_string<char,std::char_traits<char>,std::allocator<char> > >,std::allocator<std::pair<std::basic_string<char,std::char_traits<char>,std::allocator<char> > const ,std::basic_string<unsigned short,std::char_traits<unsigned short>,std::allocator<unsigned short> > > >,0> >::size
PUBLIC	__$ArrayPad$
EXTRN	__imp__fclose:PROC
EXTRN	__imp_??4?$basic_string@GU?$char_traits@G@std@@V?$allocator@G@2@@std@@QAEAAV01@ABV01@@Z:PROC
EXTRN	__imp__fread:PROC
EXTRN	__imp__fopen:PROC
EXTRN	__imp_?c_str@?$basic_string@DU?$char_traits@D@std@@V?$allocator@D@2@@std@@QBEPBDXZ:PROC
xdata$x	SEGMENT
__ehfuncinfo$?LoadCache@StartupCache@@YAXXZ DD 019930522H
	DD	05H
	DD	FLAT:__unwindtable$?LoadCache@StartupCache@@YAXXZ
	DD	2 DUP(00H)
	DD	2 DUP(00H)
	DD	00H
	DD	00H
__unwindtable$?LoadCache@StartupCache@@YAXXZ DD 0ffffffffH
	DD	FLAT:__unwindfunclet$?LoadCache@StartupCache@@YAXXZ$0
	DD	00H
	DD	FLAT:__unwindfunclet$?LoadCache@StartupCache@@YAXXZ$1
	DD	00H
	DD	FLAT:__unwindfunclet$?LoadCache@StartupCache@@YAXXZ$2
	DD	02H
	DD	FLAT:__unwindfunclet$?LoadCache@StartupCache@@YAXXZ$3
	DD	00H
	DD	FLAT:__unwindfunclet$?LoadCache@StartupCache@@YAXXZ$4
; Function compile flags: /Odtp
xdata$x	ENDS
_TEXT	SEGMENT
tv169 = -212						; size = 4
tv132 = -208						; size = 4
tv164 = -204						; size = 4
tv64 = -200						; size = 4
$T145936 = -196						; size = 4
$T145935 = -192						; size = 4
_name$140805 = -188					; size = 28
_acc_path$140804 = -160					; size = 28
_ni$140799 = -132					; size = 78
_scPath$ = -48						; size = 28
__$ArrayPad$ = -20					; size = 4
_file$ = -16						; size = 4
__$EHRec$ = -12						; size = 12
?LoadCache@StartupCache@@YAXXZ PROC			; StartupCache::LoadCache
; Line 74
	push	ebp
	mov	ebp, esp
	push	-1
	push	__ehhandler$?LoadCache@StartupCache@@YAXXZ
	mov	eax, DWORD PTR fs:0
	push	eax
	sub	esp, 200				; 000000c8H
	mov	eax, DWORD PTR ___security_cookie
	xor	eax, ebp
	mov	DWORD PTR __$ArrayPad$[ebp], eax
	push	eax
	lea	eax, DWORD PTR __$EHRec$[ebp]
	mov	DWORD PTR fs:0, eax
; Line 76
	push	OFFSET $SG140793
	push	OFFSET _scBaseAcctPath
	lea	eax, DWORD PTR _scPath$[ebp]
	push	eax
	call	DWORD PTR __imp_??$?HDU?$char_traits@D@std@@V?$allocator@D@1@@std@@YA?AV?$basic_string@DU?$char_traits@D@std@@V?$allocator@D@2@@0@ABV10@PBD@Z
	add	esp, 12					; 0000000cH
	mov	DWORD PTR __$EHRec$[ebp+8], 0
; Line 78
	sub	esp, 28					; 0000001cH
	mov	ecx, esp
	mov	DWORD PTR $T145935[ebp], esp
	push	OFFSET $SG140795
	call	DWORD PTR __imp_??0?$basic_string@GU?$char_traits@G@std@@V?$allocator@G@2@@std@@QAE@PBG@Z
	mov	DWORD PTR tv64[ebp], eax
	mov	ecx, DWORD PTR tv64[ebp]
	mov	DWORD PTR tv164[ebp], ecx
	mov	BYTE PTR __$EHRec$[ebp+8], 1
	mov	BYTE PTR __$EHRec$[ebp+8], 0
	call	DWORD PTR __imp_?ConPrint@@YAXV?$basic_string@GU?$char_traits@G@std@@V?$allocator@G@2@@std@@ZZ
	add	esp, 28					; 0000001cH
; Line 79
	push	OFFSET $SG140797
	lea	ecx, DWORD PTR _scPath$[ebp]
	call	DWORD PTR __imp_?c_str@?$basic_string@DU?$char_traits@D@std@@V?$allocator@D@2@@std@@QBEPBDXZ
	push	eax
	call	DWORD PTR __imp__fopen
	add	esp, 8
	mov	DWORD PTR _file$[ebp], eax
; Line 80
	cmp	DWORD PTR _file$[ebp], 0
	je	$LN3@LoadCache
$LN2@LoadCache:
; Line 83
	mov	edx, DWORD PTR _file$[ebp]
	push	edx
	push	1
	push	78					; 0000004eH
	lea	eax, DWORD PTR _ni$140799[ebp]
	push	eax
	call	DWORD PTR __imp__fread
	add	esp, 16					; 00000010H
	test	eax, eax
	je	SHORT $LN1@LoadCache
; Line 85
	lea	ecx, DWORD PTR _ni$140799[ebp]
	push	ecx
	lea	ecx, DWORD PTR _acc_path$140804[ebp]
	call	DWORD PTR __imp_??0?$basic_string@DU?$char_traits@D@std@@V?$allocator@D@2@@std@@QAE@PBD@Z
	mov	BYTE PTR __$EHRec$[ebp+8], 2
; Line 86
	lea	edx, DWORD PTR _ni$140799[ebp+28]
	push	edx
	lea	ecx, DWORD PTR _name$140805[ebp]
	call	DWORD PTR __imp_??0?$basic_string@GU?$char_traits@G@std@@V?$allocator@G@2@@std@@QAE@PBG@Z
	mov	BYTE PTR __$EHRec$[ebp+8], 3
; Line 87
	lea	eax, DWORD PTR _name$140805[ebp]
	push	eax
	lea	ecx, DWORD PTR _acc_path$140804[ebp]
	push	ecx
	mov	ecx, OFFSET _cache
	call	??A?$map@V?$basic_string@DU?$char_traits@D@std@@V?$allocator@D@2@@std@@V?$basic_string@GU?$char_traits@G@std@@V?$allocator@G@2@@2@U?$less@V?$basic_string@DU?$char_traits@D@std@@V?$allocator@D@2@@std@@@2@V?$allocator@U?$pair@$$CBV?$basic_string@DU?$char_traits@D@std@@V?$allocator@D@2@@std@@V?$basic_string@GU?$char_traits@G@std@@V?$allocator@G@2@@2@@std@@@2@@std@@QAEAAV?$basic_string@GU?$char_traits@G@std@@V?$allocator@G@2@@1@ABV?$basic_string@DU?$char_traits@D@std@@V?$allocator@D@2@@1@@Z ; std::map<std::basic_string<char,std::char_traits<char>,std::allocator<char> >,std::basic_string<unsigned short,std::char_traits<unsigned short>,std::allocator<unsigned short> >,std::less<std::basic_string<char,std::char_traits<char>,std::allocator<char> > >,std::allocator<std::pair<std::basic_string<char,std::char_traits<char>,std::allocator<char> > const ,std::basic_string<unsigned short,std::char_traits<unsigned short>,std::allocator<unsigned short> > > > >::operator[]
	mov	ecx, eax
	call	DWORD PTR __imp_??4?$basic_string@GU?$char_traits@G@std@@V?$allocator@G@2@@std@@QAEAAV01@ABV01@@Z
; Line 88
	mov	BYTE PTR __$EHRec$[ebp+8], 2
	lea	ecx, DWORD PTR _name$140805[ebp]
	call	DWORD PTR __imp_??1?$basic_string@GU?$char_traits@G@std@@V?$allocator@G@2@@std@@QAE@XZ
	mov	BYTE PTR __$EHRec$[ebp+8], 0
	lea	ecx, DWORD PTR _acc_path$140804[ebp]
	call	DWORD PTR __imp_??1?$basic_string@DU?$char_traits@D@std@@V?$allocator@D@2@@std@@QAE@XZ
	jmp	$LN2@LoadCache
$LN1@LoadCache:
; Line 89
	mov	edx, DWORD PTR _file$[ebp]
	push	edx
	call	DWORD PTR __imp__fclose
	add	esp, 4
$LN3@LoadCache:
; Line 91
	mov	ecx, OFFSET _cache
	call	?size@?$_Tree@V?$_Tmap_traits@V?$basic_string@DU?$char_traits@D@std@@V?$allocator@D@2@@std@@V?$basic_string@GU?$char_traits@G@std@@V?$allocator@G@2@@2@U?$less@V?$basic_string@DU?$char_traits@D@std@@V?$allocator@D@2@@std@@@2@V?$allocator@U?$pair@$$CBV?$basic_string@DU?$char_traits@D@std@@V?$allocator@D@2@@std@@V?$basic_string@GU?$char_traits@G@std@@V?$allocator@G@2@@2@@std@@@2@$0A@@std@@@std@@QBEIXZ ; std::_Tree<std::_Tmap_traits<std::basic_string<char,std::char_traits<char>,std::allocator<char> >,std::basic_string<unsigned short,std::char_traits<unsigned short>,std::allocator<unsigned short> >,std::less<std::basic_string<char,std::char_traits<char>,std::allocator<char> > >,std::allocator<std::pair<std::basic_string<char,std::char_traits<char>,std::allocator<char> > const ,std::basic_string<unsigned short,std::char_traits<unsigned short>,std::allocator<unsigned short> > > >,0> >::size
	push	eax
	sub	esp, 28					; 0000001cH
	mov	ecx, esp
	mov	DWORD PTR $T145936[ebp], esp
	push	OFFSET $SG140807
	call	DWORD PTR __imp_??0?$basic_string@GU?$char_traits@G@std@@V?$allocator@G@2@@std@@QAE@PBG@Z
	mov	DWORD PTR tv132[ebp], eax
	mov	eax, DWORD PTR tv132[ebp]
	mov	DWORD PTR tv169[ebp], eax
	mov	BYTE PTR __$EHRec$[ebp+8], 4
	mov	BYTE PTR __$EHRec$[ebp+8], 0
	call	DWORD PTR __imp_?ConPrint@@YAXV?$basic_string@GU?$char_traits@G@std@@V?$allocator@G@2@@std@@ZZ
	add	esp, 32					; 00000020H
; Line 92
	mov	DWORD PTR __$EHRec$[ebp+8], -1
	lea	ecx, DWORD PTR _scPath$[ebp]
	call	DWORD PTR __imp_??1?$basic_string@DU?$char_traits@D@std@@V?$allocator@D@2@@std@@QAE@XZ
	mov	ecx, DWORD PTR __$EHRec$[ebp]
	mov	DWORD PTR fs:0, ecx
	pop	ecx
	mov	ecx, DWORD PTR __$ArrayPad$[ebp]
	xor	ecx, ebp
	call	@__security_check_cookie@4
	mov	esp, ebp
	pop	ebp
	ret	0
_TEXT	ENDS
text$x	SEGMENT
__unwindfunclet$?LoadCache@StartupCache@@YAXXZ$0:
	lea	ecx, DWORD PTR _scPath$[ebp]
	jmp	DWORD PTR __imp_??1?$basic_string@DU?$char_traits@D@std@@V?$allocator@D@2@@std@@QAE@XZ
__unwindfunclet$?LoadCache@StartupCache@@YAXXZ$1:
	mov	ecx, DWORD PTR $T145935[ebp]
	jmp	DWORD PTR __imp_??1?$basic_string@GU?$char_traits@G@std@@V?$allocator@G@2@@std@@QAE@XZ
__unwindfunclet$?LoadCache@StartupCache@@YAXXZ$2:
	lea	ecx, DWORD PTR _acc_path$140804[ebp]
	jmp	DWORD PTR __imp_??1?$basic_string@DU?$char_traits@D@std@@V?$allocator@D@2@@std@@QAE@XZ
__unwindfunclet$?LoadCache@StartupCache@@YAXXZ$3:
	lea	ecx, DWORD PTR _name$140805[ebp]
	jmp	DWORD PTR __imp_??1?$basic_string@GU?$char_traits@G@std@@V?$allocator@G@2@@std@@QAE@XZ
__unwindfunclet$?LoadCache@StartupCache@@YAXXZ$4:
	mov	ecx, DWORD PTR $T145936[ebp]
	jmp	DWORD PTR __imp_??1?$basic_string@GU?$char_traits@G@std@@V?$allocator@G@2@@std@@QAE@XZ
__ehhandler$?LoadCache@StartupCache@@YAXXZ:
	mov	edx, DWORD PTR [esp+8]
	lea	eax, DWORD PTR [edx+12]
	mov	ecx, DWORD PTR [edx-204]
	xor	ecx, eax
	call	@__security_check_cookie@4
	mov	ecx, DWORD PTR [edx-8]
	xor	ecx, eax
	call	@__security_check_cookie@4
	mov	eax, OFFSET __ehfuncinfo$?LoadCache@StartupCache@@YAXXZ
	jmp	___CxxFrameHandler3
text$x	ENDS
?LoadCache@StartupCache@@YAXXZ ENDP			; StartupCache::LoadCache
PUBLIC	__$ArrayPad$
PUBLIC	?Done@StartupCache@@YAXXZ			; StartupCache::Done
; Function compile flags: /Odtp
_TEXT	SEGMENT
_patch$140861 = -28					; size = 5
_patch$140859 = -20					; size = 13
__$ArrayPad$ = -4					; size = 4
?Done@StartupCache@@YAXXZ PROC				; StartupCache::Done
; Line 149
	push	ebp
	mov	ebp, esp
	sub	esp, 28					; 0000001cH
	mov	eax, DWORD PTR ___security_cookie
	xor	eax, ebp
	mov	DWORD PTR __$ArrayPad$[ebp], eax
; Line 150
	call	?SaveCache@StartupCache@@YAXXZ		; StartupCache::SaveCache
; Line 154
	mov	BYTE PTR _patch$140859[ebp], 139	; 0000008bH
	mov	BYTE PTR _patch$140859[ebp+1], 53	; 00000035H
	mov	BYTE PTR _patch$140859[ebp+2], 192	; 000000c0H
	mov	BYTE PTR _patch$140859[ebp+3], 75	; 0000004bH
	mov	BYTE PTR _patch$140859[ebp+4], 214	; 000000d6H
	mov	BYTE PTR _patch$140859[ebp+5], 6
	mov	BYTE PTR _patch$140859[ebp+6], 106	; 0000006aH
	mov	BYTE PTR _patch$140859[ebp+7], 0
	mov	BYTE PTR _patch$140859[ebp+8], 104	; 00000068H
	mov	BYTE PTR _patch$140859[ebp+9], 176	; 000000b0H
	mov	BYTE PTR _patch$140859[ebp+10], 184	; 000000b8H
	mov	BYTE PTR _patch$140859[ebp+11], 214	; 000000d6H
	mov	BYTE PTR _patch$140859[ebp+12], 6
; Line 155
	push	13					; 0000000dH
	lea	eax, DWORD PTR _patch$140859[ebp]
	push	eax
	mov	ecx, DWORD PTR __imp_?hModServer@@3PAUHINSTANCE__@@A
	mov	edx, DWORD PTR [ecx]
	add	edx, 486206				; 00076b3eH
	push	edx
	call	DWORD PTR __imp_?WriteProcMem@@YAXPAX0H@Z
	add	esp, 12					; 0000000cH
; Line 160
	mov	BYTE PTR _patch$140861[ebp], 232	; 000000e8H
	mov	BYTE PTR _patch$140861[ebp+1], 29	; 0000001dH
	mov	BYTE PTR _patch$140861[ebp+2], 24	; 00000018H
	mov	BYTE PTR _patch$140861[ebp+3], 0
	mov	BYTE PTR _patch$140861[ebp+4], 0
; Line 161
	push	5
	lea	eax, DWORD PTR _patch$140861[ebp]
	push	eax
	mov	ecx, DWORD PTR __imp_?hModServer@@3PAUHINSTANCE__@@A
	mov	edx, DWORD PTR [ecx]
	add	edx, 464830				; 000717beH
	push	edx
	call	DWORD PTR __imp_?WriteProcMem@@YAXPAX0H@Z
	add	esp, 12					; 0000000cH
; Line 163
	mov	ecx, DWORD PTR __$ArrayPad$[ebp]
	xor	ecx, ebp
	call	@__security_check_cookie@4
	mov	esp, ebp
	pop	ebp
	ret	0
?Done@StartupCache@@YAXXZ ENDP				; StartupCache::Done
_TEXT	ENDS
PUBLIC	?clear@?$_Tree@V?$_Tmap_traits@V?$basic_string@DU?$char_traits@D@std@@V?$allocator@D@2@@std@@V?$basic_string@GU?$char_traits@G@std@@V?$allocator@G@2@@2@U?$less@V?$basic_string@DU?$char_traits@D@std@@V?$allocator@D@2@@std@@@2@V?$allocator@U?$pair@$$CBV?$basic_string@DU?$char_traits@D@std@@V?$allocator@D@2@@std@@V?$basic_string@GU?$char_traits@G@std@@V?$allocator@G@2@@2@@std@@@2@$0A@@std@@@std@@QAEXXZ ; std::_Tree<std::_Tmap_traits<std::basic_string<char,std::char_traits<char>,std::allocator<char> >,std::basic_string<unsigned short,std::char_traits<unsigned short>,std::allocator<unsigned short> >,std::less<std::basic_string<char,std::char_traits<char>,std::allocator<char> > >,std::allocator<std::pair<std::basic_string<char,std::char_traits<char>,std::allocator<char> > const ,std::basic_string<unsigned short,std::char_traits<unsigned short>,std::allocator<unsigned short> > > >,0> >::clear
PUBLIC	??Eiterator@?$_Tree@V?$_Tmap_traits@V?$basic_string@DU?$char_traits@D@std@@V?$allocator@D@2@@std@@V?$basic_string@GU?$char_traits@G@std@@V?$allocator@G@2@@2@U?$less@V?$basic_string@DU?$char_traits@D@std@@V?$allocator@D@2@@std@@@2@V?$allocator@U?$pair@$$CBV?$basic_string@DU?$char_traits@D@std@@V?$allocator@D@2@@std@@V?$basic_string@GU?$char_traits@G@std@@V?$allocator@G@2@@2@@std@@@2@$0A@@std@@@std@@QAE?AV012@H@Z ; std::_Tree<std::_Tmap_traits<std::basic_string<char,std::char_traits<char>,std::allocator<char> >,std::basic_string<unsigned short,std::char_traits<unsigned short>,std::allocator<unsigned short> >,std::less<std::basic_string<char,std::char_traits<char>,std::allocator<char> > >,std::allocator<std::pair<std::basic_string<char,std::char_traits<char>,std::allocator<char> > const ,std::basic_string<unsigned short,std::char_traits<unsigned short>,std::allocator<unsigned short> > > >,0> >::iterator::operator++
PUBLIC	?begin@?$_Tree@V?$_Tmap_traits@V?$basic_string@DU?$char_traits@D@std@@V?$allocator@D@2@@std@@V?$basic_string@GU?$char_traits@G@std@@V?$allocator@G@2@@2@U?$less@V?$basic_string@DU?$char_traits@D@std@@V?$allocator@D@2@@std@@@2@V?$allocator@U?$pair@$$CBV?$basic_string@DU?$char_traits@D@std@@V?$allocator@D@2@@std@@V?$basic_string@GU?$char_traits@G@std@@V?$allocator@G@2@@2@@std@@@2@$0A@@std@@@std@@QAE?AViterator@12@XZ ; std::_Tree<std::_Tmap_traits<std::basic_string<char,std::char_traits<char>,std::allocator<char> >,std::basic_string<unsigned short,std::char_traits<unsigned short>,std::allocator<unsigned short> >,std::less<std::basic_string<char,std::char_traits<char>,std::allocator<char> > >,std::allocator<std::pair<std::basic_string<char,std::char_traits<char>,std::allocator<char> > const ,std::basic_string<unsigned short,std::char_traits<unsigned short>,std::allocator<unsigned short> > > >,0> >::begin
PUBLIC	__$ArrayPad$
EXTRN	__imp__fwrite:PROC
EXTRN	__imp__wcsncpy_s:PROC
EXTRN	__imp_?size@?$basic_string@GU?$char_traits@G@std@@V?$allocator@G@2@@std@@QBEIXZ:PROC
EXTRN	__imp__strncpy_s:PROC
EXTRN	__imp_?size@?$basic_string@DU?$char_traits@D@std@@V?$allocator@D@2@@std@@QBEIXZ:PROC
EXTRN	_memset:PROC
xdata$x	SEGMENT
__unwindtable$?SaveCache@StartupCache@@YAXXZ DD 0ffffffffH
	DD	FLAT:__unwindfunclet$?SaveCache@StartupCache@@YAXXZ$0
	DD	00H
	DD	FLAT:__unwindfunclet$?SaveCache@StartupCache@@YAXXZ$1
	DD	00H
	DD	FLAT:__unwindfunclet$?SaveCache@StartupCache@@YAXXZ$2
	DD	00H
	DD	FLAT:__unwindfunclet$?SaveCache@StartupCache@@YAXXZ$3
__ehfuncinfo$?SaveCache@StartupCache@@YAXXZ DD 019930522H
	DD	04H
	DD	FLAT:__unwindtable$?SaveCache@StartupCache@@YAXXZ
	DD	2 DUP(00H)
	DD	2 DUP(00H)
	DD	00H
	DD	00H
; Function compile flags: /Odtp
xdata$x	ENDS
_TEXT	SEGMENT
tv233 = -192						; size = 4
tv237 = -188						; size = 4
tv230 = -184						; size = 4
tv235 = -180						; size = 4
tv228 = -176						; size = 4
tv64 = -172						; size = 4
$T145954 = -168						; size = 4
$T145953 = -164						; size = 4
$T145952 = -160						; size = 8
$T145951 = -152						; size = 8
$T145950 = -144						; size = 4
_ni$140838 = -140					; size = 78
_i$140831 = -56						; size = 8
_scPath$ = -48						; size = 28
__$ArrayPad$ = -20					; size = 4
_file$ = -16						; size = 4
__$EHRec$ = -12						; size = 12
?SaveCache@StartupCache@@YAXXZ PROC			; StartupCache::SaveCache
; Line 95
	push	ebp
	mov	ebp, esp
	push	-1
	push	__ehhandler$?SaveCache@StartupCache@@YAXXZ
	mov	eax, DWORD PTR fs:0
	push	eax
	sub	esp, 180				; 000000b4H
	mov	eax, DWORD PTR ___security_cookie
	xor	eax, ebp
	mov	DWORD PTR __$ArrayPad$[ebp], eax
	push	eax
	lea	eax, DWORD PTR __$EHRec$[ebp]
	mov	DWORD PTR fs:0, eax
; Line 97
	push	OFFSET $SG140812
	push	OFFSET _scBaseAcctPath
	lea	eax, DWORD PTR _scPath$[ebp]
	push	eax
	call	DWORD PTR __imp_??$?HDU?$char_traits@D@std@@V?$allocator@D@1@@std@@YA?AV?$basic_string@DU?$char_traits@D@std@@V?$allocator@D@2@@0@ABV10@PBD@Z
	add	esp, 12					; 0000000cH
	mov	DWORD PTR __$EHRec$[ebp+8], 0
; Line 99
	push	OFFSET $SG140814
	lea	ecx, DWORD PTR _scPath$[ebp]
	call	DWORD PTR __imp_?c_str@?$basic_string@DU?$char_traits@D@std@@V?$allocator@D@2@@std@@QBEPBDXZ
	push	eax
	call	DWORD PTR __imp__fopen
	add	esp, 8
	mov	DWORD PTR _file$[ebp], eax
; Line 100
	cmp	DWORD PTR _file$[ebp], 0
	je	$LN5@SaveCache
; Line 102
	sub	esp, 28					; 0000001cH
	mov	ecx, esp
	mov	DWORD PTR $T145950[ebp], esp
	push	OFFSET $SG140817
	call	DWORD PTR __imp_??0?$basic_string@GU?$char_traits@G@std@@V?$allocator@G@2@@std@@QAE@PBG@Z
	mov	DWORD PTR tv64[ebp], eax
	mov	ecx, DWORD PTR tv64[ebp]
	mov	DWORD PTR tv228[ebp], ecx
	mov	BYTE PTR __$EHRec$[ebp+8], 1
	mov	BYTE PTR __$EHRec$[ebp+8], 0
	call	DWORD PTR __imp_?ConPrint@@YAXV?$basic_string@GU?$char_traits@G@std@@V?$allocator@G@2@@std@@ZZ
	add	esp, 28					; 0000001cH
; Line 103
	lea	edx, DWORD PTR _i$140831[ebp]
	push	edx
	mov	ecx, OFFSET _cache
	call	?begin@?$_Tree@V?$_Tmap_traits@V?$basic_string@DU?$char_traits@D@std@@V?$allocator@D@2@@std@@V?$basic_string@GU?$char_traits@G@std@@V?$allocator@G@2@@2@U?$less@V?$basic_string@DU?$char_traits@D@std@@V?$allocator@D@2@@std@@@2@V?$allocator@U?$pair@$$CBV?$basic_string@DU?$char_traits@D@std@@V?$allocator@D@2@@std@@V?$basic_string@GU?$char_traits@G@std@@V?$allocator@G@2@@2@@std@@@2@$0A@@std@@@std@@QAE?AViterator@12@XZ ; std::_Tree<std::_Tmap_traits<std::basic_string<char,std::char_traits<char>,std::allocator<char> >,std::basic_string<unsigned short,std::char_traits<unsigned short>,std::allocator<unsigned short> >,std::less<std::basic_string<char,std::char_traits<char>,std::allocator<char> > >,std::allocator<std::pair<std::basic_string<char,std::char_traits<char>,std::allocator<char> > const ,std::basic_string<unsigned short,std::char_traits<unsigned short>,std::allocator<unsigned short> > > >,0> >::begin
	jmp	SHORT $LN4@SaveCache
$LN3@SaveCache:
	push	0
	lea	eax, DWORD PTR $T145951[ebp]
	push	eax
	lea	ecx, DWORD PTR _i$140831[ebp]
	call	??Eiterator@?$_Tree@V?$_Tmap_traits@V?$basic_string@DU?$char_traits@D@std@@V?$allocator@D@2@@std@@V?$basic_string@GU?$char_traits@G@std@@V?$allocator@G@2@@2@U?$less@V?$basic_string@DU?$char_traits@D@std@@V?$allocator@D@2@@std@@@2@V?$allocator@U?$pair@$$CBV?$basic_string@DU?$char_traits@D@std@@V?$allocator@D@2@@std@@V?$basic_string@GU?$char_traits@G@std@@V?$allocator@G@2@@2@@std@@@2@$0A@@std@@@std@@QAE?AV012@H@Z ; std::_Tree<std::_Tmap_traits<std::basic_string<char,std::char_traits<char>,std::allocator<char> >,std::basic_string<unsigned short,std::char_traits<unsigned short>,std::allocator<unsigned short> >,std::less<std::basic_string<char,std::char_traits<char>,std::allocator<char> > >,std::allocator<std::pair<std::basic_string<char,std::char_traits<char>,std::allocator<char> > const ,std::basic_string<unsigned short,std::char_traits<unsigned short>,std::allocator<unsigned short> > > >,0> >::iterator::operator++
$LN4@SaveCache:
	lea	ecx, DWORD PTR $T145952[ebp]
	push	ecx
	mov	ecx, OFFSET _cache
	call	?end@?$_Tree@V?$_Tmap_traits@V?$basic_string@DU?$char_traits@D@std@@V?$allocator@D@2@@std@@V?$basic_string@GU?$char_traits@G@std@@V?$allocator@G@2@@2@U?$less@V?$basic_string@DU?$char_traits@D@std@@V?$allocator@D@2@@std@@@2@V?$allocator@U?$pair@$$CBV?$basic_string@DU?$char_traits@D@std@@V?$allocator@D@2@@std@@V?$basic_string@GU?$char_traits@G@std@@V?$allocator@G@2@@2@@std@@@2@$0A@@std@@@std@@QAE?AViterator@12@XZ ; std::_Tree<std::_Tmap_traits<std::basic_string<char,std::char_traits<char>,std::allocator<char> >,std::basic_string<unsigned short,std::char_traits<unsigned short>,std::allocator<unsigned short> >,std::less<std::basic_string<char,std::char_traits<char>,std::allocator<char> > >,std::allocator<std::pair<std::basic_string<char,std::char_traits<char>,std::allocator<char> > const ,std::basic_string<unsigned short,std::char_traits<unsigned short>,std::allocator<unsigned short> > > >,0> >::end
	push	eax
	lea	ecx, DWORD PTR _i$140831[ebp]
	call	??9const_iterator@?$_Tree@V?$_Tmap_traits@V?$basic_string@DU?$char_traits@D@std@@V?$allocator@D@2@@std@@V?$basic_string@GU?$char_traits@G@std@@V?$allocator@G@2@@2@U?$less@V?$basic_string@DU?$char_traits@D@std@@V?$allocator@D@2@@std@@@2@V?$allocator@U?$pair@$$CBV?$basic_string@DU?$char_traits@D@std@@V?$allocator@D@2@@std@@V?$basic_string@GU?$char_traits@G@std@@V?$allocator@G@2@@2@@std@@@2@$0A@@std@@@std@@QBE_NABV012@@Z ; std::_Tree<std::_Tmap_traits<std::basic_string<char,std::char_traits<char>,std::allocator<char> >,std::basic_string<unsigned short,std::char_traits<unsigned short>,std::allocator<unsigned short> >,std::less<std::basic_string<char,std::char_traits<char>,std::allocator<char> > >,std::allocator<std::pair<std::basic_string<char,std::char_traits<char>,std::allocator<char> > const ,std::basic_string<unsigned short,std::char_traits<unsigned short>,std::allocator<unsigned short> > > >,0> >::const_iterator::operator!=
	movzx	edx, al
	test	edx, edx
	je	$LN2@SaveCache
; Line 106
	push	78					; 0000004eH
	push	0
	lea	eax, DWORD PTR _ni$140838[ebp]
	push	eax
	call	_memset
	add	esp, 12					; 0000000cH
; Line 107
	lea	ecx, DWORD PTR _i$140831[ebp]
	call	??Citerator@?$_Tree@V?$_Tmap_traits@V?$basic_string@DU?$char_traits@D@std@@V?$allocator@D@2@@std@@V?$basic_string@GU?$char_traits@G@std@@V?$allocator@G@2@@2@U?$less@V?$basic_string@DU?$char_traits@D@std@@V?$allocator@D@2@@std@@@2@V?$allocator@U?$pair@$$CBV?$basic_string@DU?$char_traits@D@std@@V?$allocator@D@2@@std@@V?$basic_string@GU?$char_traits@G@std@@V?$allocator@G@2@@2@@std@@@2@$0A@@std@@@std@@QBEPAU?$pair@$$CBV?$basic_string@DU?$char_traits@D@std@@V?$allocator@D@2@@std@@V?$basic_string@GU?$char_traits@G@std@@V?$allocator@G@2@@2@@2@XZ ; std::_Tree<std::_Tmap_traits<std::basic_string<char,std::char_traits<char>,std::allocator<char> >,std::basic_string<unsigned short,std::char_traits<unsigned short>,std::allocator<unsigned short> >,std::less<std::basic_string<char,std::char_traits<char>,std::allocator<char> > >,std::allocator<std::pair<std::basic_string<char,std::char_traits<char>,std::allocator<char> > const ,std::basic_string<unsigned short,std::char_traits<unsigned short>,std::allocator<unsigned short> > > >,0> >::iterator::operator->
	mov	ecx, eax
	call	DWORD PTR __imp_?size@?$basic_string@DU?$char_traits@D@std@@V?$allocator@D@2@@std@@QBEIXZ
	push	eax
	lea	ecx, DWORD PTR _i$140831[ebp]
	call	??Citerator@?$_Tree@V?$_Tmap_traits@V?$basic_string@DU?$char_traits@D@std@@V?$allocator@D@2@@std@@V?$basic_string@GU?$char_traits@G@std@@V?$allocator@G@2@@2@U?$less@V?$basic_string@DU?$char_traits@D@std@@V?$allocator@D@2@@std@@@2@V?$allocator@U?$pair@$$CBV?$basic_string@DU?$char_traits@D@std@@V?$allocator@D@2@@std@@V?$basic_string@GU?$char_traits@G@std@@V?$allocator@G@2@@2@@std@@@2@$0A@@std@@@std@@QBEPAU?$pair@$$CBV?$basic_string@DU?$char_traits@D@std@@V?$allocator@D@2@@std@@V?$basic_string@GU?$char_traits@G@std@@V?$allocator@G@2@@2@@2@XZ ; std::_Tree<std::_Tmap_traits<std::basic_string<char,std::char_traits<char>,std::allocator<char> >,std::basic_string<unsigned short,std::char_traits<unsigned short>,std::allocator<unsigned short> >,std::less<std::basic_string<char,std::char_traits<char>,std::allocator<char> > >,std::allocator<std::pair<std::basic_string<char,std::char_traits<char>,std::allocator<char> > const ,std::basic_string<unsigned short,std::char_traits<unsigned short>,std::allocator<unsigned short> > > >,0> >::iterator::operator->
	mov	ecx, eax
	call	DWORD PTR __imp_?c_str@?$basic_string@DU?$char_traits@D@std@@V?$allocator@D@2@@std@@QBEPBDXZ
	push	eax
	push	27					; 0000001bH
	lea	ecx, DWORD PTR _ni$140838[ebp]
	push	ecx
	call	DWORD PTR __imp__strncpy_s
	add	esp, 16					; 00000010H
; Line 108
	lea	ecx, DWORD PTR _i$140831[ebp]
	call	??Citerator@?$_Tree@V?$_Tmap_traits@V?$basic_string@DU?$char_traits@D@std@@V?$allocator@D@2@@std@@V?$basic_string@GU?$char_traits@G@std@@V?$allocator@G@2@@2@U?$less@V?$basic_string@DU?$char_traits@D@std@@V?$allocator@D@2@@std@@@2@V?$allocator@U?$pair@$$CBV?$basic_string@DU?$char_traits@D@std@@V?$allocator@D@2@@std@@V?$basic_string@GU?$char_traits@G@std@@V?$allocator@G@2@@2@@std@@@2@$0A@@std@@@std@@QBEPAU?$pair@$$CBV?$basic_string@DU?$char_traits@D@std@@V?$allocator@D@2@@std@@V?$basic_string@GU?$char_traits@G@std@@V?$allocator@G@2@@2@@2@XZ ; std::_Tree<std::_Tmap_traits<std::basic_string<char,std::char_traits<char>,std::allocator<char> >,std::basic_string<unsigned short,std::char_traits<unsigned short>,std::allocator<unsigned short> >,std::less<std::basic_string<char,std::char_traits<char>,std::allocator<char> > >,std::allocator<std::pair<std::basic_string<char,std::char_traits<char>,std::allocator<char> > const ,std::basic_string<unsigned short,std::char_traits<unsigned short>,std::allocator<unsigned short> > > >,0> >::iterator::operator->
	add	eax, 28					; 0000001cH
	mov	ecx, eax
	call	DWORD PTR __imp_?size@?$basic_string@GU?$char_traits@G@std@@V?$allocator@G@2@@std@@QBEIXZ
	push	eax
	lea	ecx, DWORD PTR _i$140831[ebp]
	call	??Citerator@?$_Tree@V?$_Tmap_traits@V?$basic_string@DU?$char_traits@D@std@@V?$allocator@D@2@@std@@V?$basic_string@GU?$char_traits@G@std@@V?$allocator@G@2@@2@U?$less@V?$basic_string@DU?$char_traits@D@std@@V?$allocator@D@2@@std@@@2@V?$allocator@U?$pair@$$CBV?$basic_string@DU?$char_traits@D@std@@V?$allocator@D@2@@std@@V?$basic_string@GU?$char_traits@G@std@@V?$allocator@G@2@@2@@std@@@2@$0A@@std@@@std@@QBEPAU?$pair@$$CBV?$basic_string@DU?$char_traits@D@std@@V?$allocator@D@2@@std@@V?$basic_string@GU?$char_traits@G@std@@V?$allocator@G@2@@2@@2@XZ ; std::_Tree<std::_Tmap_traits<std::basic_string<char,std::char_traits<char>,std::allocator<char> >,std::basic_string<unsigned short,std::char_traits<unsigned short>,std::allocator<unsigned short> >,std::less<std::basic_string<char,std::char_traits<char>,std::allocator<char> > >,std::allocator<std::pair<std::basic_string<char,std::char_traits<char>,std::allocator<char> > const ,std::basic_string<unsigned short,std::char_traits<unsigned short>,std::allocator<unsigned short> > > >,0> >::iterator::operator->
	add	eax, 28					; 0000001cH
	mov	ecx, eax
	call	DWORD PTR __imp_?c_str@?$basic_string@GU?$char_traits@G@std@@V?$allocator@G@2@@std@@QBEPBGXZ
	push	eax
	push	25					; 00000019H
	lea	edx, DWORD PTR _ni$140838[ebp+28]
	push	edx
	call	DWORD PTR __imp__wcsncpy_s
	add	esp, 16					; 00000010H
; Line 109
	mov	eax, DWORD PTR _file$[ebp]
	push	eax
	push	1
	push	78					; 0000004eH
	lea	ecx, DWORD PTR _ni$140838[ebp]
	push	ecx
	call	DWORD PTR __imp__fwrite
	add	esp, 16					; 00000010H
	test	eax, eax
	jne	SHORT $LN1@SaveCache
; Line 111
	sub	esp, 28					; 0000001cH
	mov	ecx, esp
	mov	DWORD PTR $T145953[ebp], esp
	push	OFFSET $SG140842
	call	DWORD PTR __imp_??0?$basic_string@GU?$char_traits@G@std@@V?$allocator@G@2@@std@@QAE@PBG@Z
	mov	DWORD PTR tv235[ebp], eax
	mov	edx, DWORD PTR tv235[ebp]
	mov	DWORD PTR tv230[ebp], edx
	mov	BYTE PTR __$EHRec$[ebp+8], 2
	mov	BYTE PTR __$EHRec$[ebp+8], 0
	call	DWORD PTR __imp_?ConPrint@@YAXV?$basic_string@GU?$char_traits@G@std@@V?$allocator@G@2@@std@@ZZ
	add	esp, 28					; 0000001cH
; Line 112
	jmp	SHORT $LN2@SaveCache
$LN1@SaveCache:
; Line 114
	jmp	$LN3@SaveCache
$LN2@SaveCache:
; Line 115
	mov	eax, DWORD PTR _file$[ebp]
	push	eax
	call	DWORD PTR __imp__fclose
	add	esp, 4
; Line 116
	mov	ecx, OFFSET _cache
	call	?size@?$_Tree@V?$_Tmap_traits@V?$basic_string@DU?$char_traits@D@std@@V?$allocator@D@2@@std@@V?$basic_string@GU?$char_traits@G@std@@V?$allocator@G@2@@2@U?$less@V?$basic_string@DU?$char_traits@D@std@@V?$allocator@D@2@@std@@@2@V?$allocator@U?$pair@$$CBV?$basic_string@DU?$char_traits@D@std@@V?$allocator@D@2@@std@@V?$basic_string@GU?$char_traits@G@std@@V?$allocator@G@2@@2@@std@@@2@$0A@@std@@@std@@QBEIXZ ; std::_Tree<std::_Tmap_traits<std::basic_string<char,std::char_traits<char>,std::allocator<char> >,std::basic_string<unsigned short,std::char_traits<unsigned short>,std::allocator<unsigned short> >,std::less<std::basic_string<char,std::char_traits<char>,std::allocator<char> > >,std::allocator<std::pair<std::basic_string<char,std::char_traits<char>,std::allocator<char> > const ,std::basic_string<unsigned short,std::char_traits<unsigned short>,std::allocator<unsigned short> > > >,0> >::size
	push	eax
	sub	esp, 28					; 0000001cH
	mov	ecx, esp
	mov	DWORD PTR $T145954[ebp], esp
	push	OFFSET $SG140844
	call	DWORD PTR __imp_??0?$basic_string@GU?$char_traits@G@std@@V?$allocator@G@2@@std@@QAE@PBG@Z
	mov	DWORD PTR tv237[ebp], eax
	mov	ecx, DWORD PTR tv237[ebp]
	mov	DWORD PTR tv233[ebp], ecx
	mov	BYTE PTR __$EHRec$[ebp+8], 3
	mov	BYTE PTR __$EHRec$[ebp+8], 0
	call	DWORD PTR __imp_?ConPrint@@YAXV?$basic_string@GU?$char_traits@G@std@@V?$allocator@G@2@@std@@ZZ
	add	esp, 32					; 00000020H
$LN5@SaveCache:
; Line 119
	mov	ecx, OFFSET _cache
	call	?clear@?$_Tree@V?$_Tmap_traits@V?$basic_string@DU?$char_traits@D@std@@V?$allocator@D@2@@std@@V?$basic_string@GU?$char_traits@G@std@@V?$allocator@G@2@@2@U?$less@V?$basic_string@DU?$char_traits@D@std@@V?$allocator@D@2@@std@@@2@V?$allocator@U?$pair@$$CBV?$basic_string@DU?$char_traits@D@std@@V?$allocator@D@2@@std@@V?$basic_string@GU?$char_traits@G@std@@V?$allocator@G@2@@2@@std@@@2@$0A@@std@@@std@@QAEXXZ ; std::_Tree<std::_Tmap_traits<std::basic_string<char,std::char_traits<char>,std::allocator<char> >,std::basic_string<unsigned short,std::char_traits<unsigned short>,std::allocator<unsigned short> >,std::less<std::basic_string<char,std::char_traits<char>,std::allocator<char> > >,std::allocator<std::pair<std::basic_string<char,std::char_traits<char>,std::allocator<char> > const ,std::basic_string<unsigned short,std::char_traits<unsigned short>,std::allocator<unsigned short> > > >,0> >::clear
; Line 120
	mov	DWORD PTR __$EHRec$[ebp+8], -1
	lea	ecx, DWORD PTR _scPath$[ebp]
	call	DWORD PTR __imp_??1?$basic_string@DU?$char_traits@D@std@@V?$allocator@D@2@@std@@QAE@XZ
	mov	ecx, DWORD PTR __$EHRec$[ebp]
	mov	DWORD PTR fs:0, ecx
	pop	ecx
	mov	ecx, DWORD PTR __$ArrayPad$[ebp]
	xor	ecx, ebp
	call	@__security_check_cookie@4
	mov	esp, ebp
	pop	ebp
	ret	0
_TEXT	ENDS
text$x	SEGMENT
__unwindfunclet$?SaveCache@StartupCache@@YAXXZ$0:
	lea	ecx, DWORD PTR _scPath$[ebp]
	jmp	DWORD PTR __imp_??1?$basic_string@DU?$char_traits@D@std@@V?$allocator@D@2@@std@@QAE@XZ
__unwindfunclet$?SaveCache@StartupCache@@YAXXZ$1:
	mov	ecx, DWORD PTR $T145950[ebp]
	jmp	DWORD PTR __imp_??1?$basic_string@GU?$char_traits@G@std@@V?$allocator@G@2@@std@@QAE@XZ
__unwindfunclet$?SaveCache@StartupCache@@YAXXZ$2:
	mov	ecx, DWORD PTR $T145953[ebp]
	jmp	DWORD PTR __imp_??1?$basic_string@GU?$char_traits@G@std@@V?$allocator@G@2@@std@@QAE@XZ
__unwindfunclet$?SaveCache@StartupCache@@YAXXZ$3:
	mov	ecx, DWORD PTR $T145954[ebp]
	jmp	DWORD PTR __imp_??1?$basic_string@GU?$char_traits@G@std@@V?$allocator@G@2@@std@@QAE@XZ
__ehhandler$?SaveCache@StartupCache@@YAXXZ:
	mov	edx, DWORD PTR [esp+8]
	lea	eax, DWORD PTR [edx+12]
	mov	ecx, DWORD PTR [edx-184]
	xor	ecx, eax
	call	@__security_check_cookie@4
	mov	ecx, DWORD PTR [edx-8]
	xor	ecx, eax
	call	@__security_check_cookie@4
	mov	eax, OFFSET __ehfuncinfo$?SaveCache@StartupCache@@YAXXZ
	jmp	___CxxFrameHandler3
text$x	ENDS
?SaveCache@StartupCache@@YAXXZ ENDP			; StartupCache::SaveCache
PUBLIC	??Diterator@?$_Tree@V?$_Tmap_traits@V?$basic_string@DU?$char_traits@D@std@@V?$allocator@D@2@@std@@V?$basic_string@GU?$char_traits@G@std@@V?$allocator@G@2@@2@U?$less@V?$basic_string@DU?$char_traits@D@std@@V?$allocator@D@2@@std@@@2@V?$allocator@U?$pair@$$CBV?$basic_string@DU?$char_traits@D@std@@V?$allocator@D@2@@std@@V?$basic_string@GU?$char_traits@G@std@@V?$allocator@G@2@@2@@std@@@2@$0A@@std@@@std@@QBEAAU?$pair@$$CBV?$basic_string@DU?$char_traits@D@std@@V?$allocator@D@2@@std@@V?$basic_string@GU?$char_traits@G@std@@V?$allocator@G@2@@2@@2@XZ ; std::_Tree<std::_Tmap_traits<std::basic_string<char,std::char_traits<char>,std::allocator<char> >,std::basic_string<unsigned short,std::char_traits<unsigned short>,std::allocator<unsigned short> >,std::less<std::basic_string<char,std::char_traits<char>,std::allocator<char> > >,std::allocator<std::pair<std::basic_string<char,std::char_traits<char>,std::allocator<char> > const ,std::basic_string<unsigned short,std::char_traits<unsigned short>,std::allocator<unsigned short> > > >,0> >::iterator::operator*
PUBLIC	??1?$pair@$$CBV?$basic_string@DU?$char_traits@D@std@@V?$allocator@D@2@@std@@V?$basic_string@GU?$char_traits@G@std@@V?$allocator@G@2@@2@@std@@QAE@XZ ; std::pair<std::basic_string<char,std::char_traits<char>,std::allocator<char> > const ,std::basic_string<unsigned short,std::char_traits<unsigned short>,std::allocator<unsigned short> > >::~pair<std::basic_string<char,std::char_traits<char>,std::allocator<char> > const ,std::basic_string<unsigned short,std::char_traits<unsigned short>,std::allocator<unsigned short> > >
PUBLIC	?insert@?$_Tree@V?$_Tmap_traits@V?$basic_string@DU?$char_traits@D@std@@V?$allocator@D@2@@std@@V?$basic_string@GU?$char_traits@G@std@@V?$allocator@G@2@@2@U?$less@V?$basic_string@DU?$char_traits@D@std@@V?$allocator@D@2@@std@@@2@V?$allocator@U?$pair@$$CBV?$basic_string@DU?$char_traits@D@std@@V?$allocator@D@2@@std@@V?$basic_string@GU?$char_traits@G@std@@V?$allocator@G@2@@2@@std@@@2@$0A@@std@@@std@@QAE?AViterator@12@Vconst_iterator@12@ABU?$pair@$$CBV?$basic_string@DU?$char_traits@D@std@@V?$allocator@D@2@@std@@V?$basic_string@GU?$char_traits@G@std@@V?$allocator@G@2@@2@@2@@Z ; std::_Tree<std::_Tmap_traits<std::basic_string<char,std::char_traits<char>,std::allocator<char> >,std::basic_string<unsigned short,std::char_traits<unsigned short>,std::allocator<unsigned short> >,std::less<std::basic_string<char,std::char_traits<char>,std::allocator<char> > >,std::allocator<std::pair<std::basic_string<char,std::char_traits<char>,std::allocator<char> > const ,std::basic_string<unsigned short,std::char_traits<unsigned short>,std::allocator<unsigned short> > > >,0> >::insert
PUBLIC	??0?$pair@$$CBV?$basic_string@DU?$char_traits@D@std@@V?$allocator@D@2@@std@@V?$basic_string@GU?$char_traits@G@std@@V?$allocator@G@2@@2@@std@@QAE@ABV?$basic_string@DU?$char_traits@D@std@@V?$allocator@D@2@@1@ABV?$basic_string@GU?$char_traits@G@std@@V?$allocator@G@2@@1@@Z ; std::pair<std::basic_string<char,std::char_traits<char>,std::allocator<char> > const ,std::basic_string<unsigned short,std::char_traits<unsigned short>,std::allocator<unsigned short> > >::pair<std::basic_string<char,std::char_traits<char>,std::allocator<char> > const ,std::basic_string<unsigned short,std::char_traits<unsigned short>,std::allocator<unsigned short> > >
PUBLIC	??R?$less@V?$basic_string@DU?$char_traits@D@std@@V?$allocator@D@2@@std@@@std@@QBE_NABV?$basic_string@DU?$char_traits@D@std@@V?$allocator@D@2@@1@0@Z ; std::less<std::basic_string<char,std::char_traits<char>,std::allocator<char> > >::operator()
PUBLIC	?_Key@?$_Tree@V?$_Tmap_traits@V?$basic_string@DU?$char_traits@D@std@@V?$allocator@D@2@@std@@V?$basic_string@GU?$char_traits@G@std@@V?$allocator@G@2@@2@U?$less@V?$basic_string@DU?$char_traits@D@std@@V?$allocator@D@2@@std@@@2@V?$allocator@U?$pair@$$CBV?$basic_string@DU?$char_traits@D@std@@V?$allocator@D@2@@std@@V?$basic_string@GU?$char_traits@G@std@@V?$allocator@G@2@@2@@std@@@2@$0A@@std@@@std@@KAABV?$basic_string@DU?$char_traits@D@std@@V?$allocator@D@2@@2@PAU_Node@?$_Tree_nod@V?$_Tmap_traits@V?$basic_string@DU?$char_traits@D@std@@V?$allocator@D@2@@std@@V?$basic_string@GU?$char_traits@G@std@@V?$allocator@G@2@@2@U?$less@V?$basic_string@DU?$char_traits@D@std@@V?$allocator@D@2@@std@@@2@V?$allocator@U?$pair@$$CBV?$basic_string@DU?$char_traits@D@std@@V?$allocator@D@2@@std@@V?$basic_string@GU?$char_traits@G@std@@V?$allocator@G@2@@2@@std@@@2@$0A@@std@@@2@@Z ; std::_Tree<std::_Tmap_traits<std::basic_string<char,std::char_traits<char>,std::allocator<char> >,std::basic_string<unsigned short,std::char_traits<unsigned short>,std::allocator<unsigned short> >,std::less<std::basic_string<char,std::char_traits<char>,std::allocator<char> > >,std::allocator<std::pair<std::basic_string<char,std::char_traits<char>,std::allocator<char> > const ,std::basic_string<unsigned short,std::char_traits<unsigned short>,std::allocator<unsigned short> > > >,0> >::_Key
PUBLIC	?_Mynode@const_iterator@?$_Tree@V?$_Tmap_traits@V?$basic_string@DU?$char_traits@D@std@@V?$allocator@D@2@@std@@V?$basic_string@GU?$char_traits@G@std@@V?$allocator@G@2@@2@U?$less@V?$basic_string@DU?$char_traits@D@std@@V?$allocator@D@2@@std@@@2@V?$allocator@U?$pair@$$CBV?$basic_string@DU?$char_traits@D@std@@V?$allocator@D@2@@std@@V?$basic_string@GU?$char_traits@G@std@@V?$allocator@G@2@@2@@std@@@2@$0A@@std@@@std@@QBEPAU_Node@?$_Tree_nod@V?$_Tmap_traits@V?$basic_string@DU?$char_traits@D@std@@V?$allocator@D@2@@std@@V?$basic_string@GU?$char_traits@G@std@@V?$allocator@G@2@@2@U?$less@V?$basic_string@DU?$char_traits@D@std@@V?$allocator@D@2@@std@@@2@V?$allocator@U?$pair@$$CBV?$basic_string@DU?$char_traits@D@std@@V?$allocator@D@2@@std@@V?$basic_string@GU?$char_traits@G@std@@V?$allocator@G@2@@2@@std@@@2@$0A@@std@@@3@XZ ; std::_Tree<std::_Tmap_traits<std::basic_string<char,std::char_traits<char>,std::allocator<char> >,std::basic_string<unsigned short,std::char_traits<unsigned short>,std::allocator<unsigned short> >,std::less<std::basic_string<char,std::char_traits<char>,std::allocator<char> > >,std::allocator<std::pair<std::basic_string<char,std::char_traits<char>,std::allocator<char> > const ,std::basic_string<unsigned short,std::char_traits<unsigned short>,std::allocator<unsigned short> > > >,0> >::const_iterator::_Mynode
PUBLIC	??8const_iterator@?$_Tree@V?$_Tmap_traits@V?$basic_string@DU?$char_traits@D@std@@V?$allocator@D@2@@std@@V?$basic_string@GU?$char_traits@G@std@@V?$allocator@G@2@@2@U?$less@V?$basic_string@DU?$char_traits@D@std@@V?$allocator@D@2@@std@@@2@V?$allocator@U?$pair@$$CBV?$basic_string@DU?$char_traits@D@std@@V?$allocator@D@2@@std@@V?$basic_string@GU?$char_traits@G@std@@V?$allocator@G@2@@2@@std@@@2@$0A@@std@@@std@@QBE_NABV012@@Z ; std::_Tree<std::_Tmap_traits<std::basic_string<char,std::char_traits<char>,std::allocator<char> >,std::basic_string<unsigned short,std::char_traits<unsigned short>,std::allocator<unsigned short> >,std::less<std::basic_string<char,std::char_traits<char>,std::allocator<char> > >,std::allocator<std::pair<std::basic_string<char,std::char_traits<char>,std::allocator<char> > const ,std::basic_string<unsigned short,std::char_traits<unsigned short>,std::allocator<unsigned short> > > >,0> >::const_iterator::operator==
PUBLIC	?lower_bound@?$_Tree@V?$_Tmap_traits@V?$basic_string@DU?$char_traits@D@std@@V?$allocator@D@2@@std@@V?$basic_string@GU?$char_traits@G@std@@V?$allocator@G@2@@2@U?$less@V?$basic_string@DU?$char_traits@D@std@@V?$allocator@D@2@@std@@@2@V?$allocator@U?$pair@$$CBV?$basic_string@DU?$char_traits@D@std@@V?$allocator@D@2@@std@@V?$basic_string@GU?$char_traits@G@std@@V?$allocator@G@2@@2@@std@@@2@$0A@@std@@@std@@QAE?AViterator@12@ABV?$basic_string@DU?$char_traits@D@std@@V?$allocator@D@2@@2@@Z ; std::_Tree<std::_Tmap_traits<std::basic_string<char,std::char_traits<char>,std::allocator<char> >,std::basic_string<unsigned short,std::char_traits<unsigned short>,std::allocator<unsigned short> >,std::less<std::basic_string<char,std::char_traits<char>,std::allocator<char> > >,std::allocator<std::pair<std::basic_string<char,std::char_traits<char>,std::allocator<char> > const ,std::basic_string<unsigned short,std::char_traits<unsigned short>,std::allocator<unsigned short> > > >,0> >::lower_bound
EXTRN	__imp_??0?$basic_string@GU?$char_traits@G@std@@V?$allocator@G@2@@std@@QAE@XZ:PROC
;	COMDAT xdata$x
; File c:\program files (x86)\microsoft visual studio 9.0\vc\include\map
xdata$x	SEGMENT
__unwindtable$??A?$map@V?$basic_string@DU?$char_traits@D@std@@V?$allocator@D@2@@std@@V?$basic_string@GU?$char_traits@G@std@@V?$allocator@G@2@@2@U?$less@V?$basic_string@DU?$char_traits@D@std@@V?$allocator@D@2@@std@@@2@V?$allocator@U?$pair@$$CBV?$basic_string@DU?$char_traits@D@std@@V?$allocator@D@2@@std@@V?$basic_string@GU?$char_traits@G@std@@V?$allocator@G@2@@2@@std@@@2@@std@@QAEAAV?$basic_string@GU?$char_traits@G@std@@V?$allocator@G@2@@1@ABV?$basic_string@DU?$char_traits@D@std@@V?$allocator@D@2@@1@@Z DD 0ffffffffH
	DD	FLAT:__unwindfunclet$??A?$map@V?$basic_string@DU?$char_traits@D@std@@V?$allocator@D@2@@std@@V?$basic_string@GU?$char_traits@G@std@@V?$allocator@G@2@@2@U?$less@V?$basic_string@DU?$char_traits@D@std@@V?$allocator@D@2@@std@@@2@V?$allocator@U?$pair@$$CBV?$basic_string@DU?$char_traits@D@std@@V?$allocator@D@2@@std@@V?$basic_string@GU?$char_traits@G@std@@V?$allocator@G@2@@2@@std@@@2@@std@@QAEAAV?$basic_string@GU?$char_traits@G@std@@V?$allocator@G@2@@1@ABV?$basic_string@DU?$char_traits@D@std@@V?$allocator@D@2@@1@@Z$0
	DD	00H
	DD	FLAT:__unwindfunclet$??A?$map@V?$basic_string@DU?$char_traits@D@std@@V?$allocator@D@2@@std@@V?$basic_string@GU?$char_traits@G@std@@V?$allocator@G@2@@2@U?$less@V?$basic_string@DU?$char_traits@D@std@@V?$allocator@D@2@@std@@@2@V?$allocator@U?$pair@$$CBV?$basic_string@DU?$char_traits@D@std@@V?$allocator@D@2@@std@@V?$basic_string@GU?$char_traits@G@std@@V?$allocator@G@2@@2@@std@@@2@@std@@QAEAAV?$basic_string@GU?$char_traits@G@std@@V?$allocator@G@2@@1@ABV?$basic_string@DU?$char_traits@D@std@@V?$allocator@D@2@@1@@Z$1
__ehfuncinfo$??A?$map@V?$basic_string@DU?$char_traits@D@std@@V?$allocator@D@2@@std@@V?$basic_string@GU?$char_traits@G@std@@V?$allocator@G@2@@2@U?$less@V?$basic_string@DU?$char_traits@D@std@@V?$allocator@D@2@@std@@@2@V?$allocator@U?$pair@$$CBV?$basic_string@DU?$char_traits@D@std@@V?$allocator@D@2@@std@@V?$basic_string@GU?$char_traits@G@std@@V?$allocator@G@2@@2@@std@@@2@@std@@QAEAAV?$basic_string@GU?$char_traits@G@std@@V?$allocator@G@2@@1@ABV?$basic_string@DU?$char_traits@D@std@@V?$allocator@D@2@@1@@Z DD 019930522H
	DD	02H
	DD	FLAT:__unwindtable$??A?$map@V?$basic_string@DU?$char_traits@D@std@@V?$allocator@D@2@@std@@V?$basic_string@GU?$char_traits@G@std@@V?$allocator@G@2@@2@U?$less@V?$basic_string@DU?$char_traits@D@std@@V?$allocator@D@2@@std@@@2@V?$allocator@U?$pair@$$CBV?$basic_string@DU?$char_traits@D@std@@V?$allocator@D@2@@std@@V?$basic_string@GU?$char_traits@G@std@@V?$allocator@G@2@@2@@std@@@2@@std@@QAEAAV?$basic_string@GU?$char_traits@G@std@@V?$allocator@G@2@@1@ABV?$basic_string@DU?$char_traits@D@std@@V?$allocator@D@2@@1@@Z
	DD	2 DUP(00H)
	DD	2 DUP(00H)
	DD	00H
	DD	00H
; Function compile flags: /Odtp
xdata$x	ENDS
;	COMDAT ??A?$map@V?$basic_string@DU?$char_traits@D@std@@V?$allocator@D@2@@std@@V?$basic_string@GU?$char_traits@G@std@@V?$allocator@G@2@@2@U?$less@V?$basic_string@DU?$char_traits@D@std@@V?$allocator@D@2@@std@@@2@V?$allocator@U?$pair@$$CBV?$basic_string@DU?$char_traits@D@std@@V?$allocator@D@2@@std@@V?$basic_string@GU?$char_traits@G@std@@V?$allocator@G@2@@2@@std@@@2@@std@@QAEAAV?$basic_string@GU?$char_traits@G@std@@V?$allocator@G@2@@1@ABV?$basic_string@DU?$char_traits@D@std@@V?$allocator@D@2@@1@@Z
_TEXT	SEGMENT
tv172 = -148						; size = 4
tv174 = -144						; size = 4
tv170 = -140						; size = 4
tv173 = -136						; size = 4
_this$ = -132						; size = 4
$T145968 = -128						; size = 8
$T145967 = -120						; size = 8
$T145966 = -112						; size = 28
$T145965 = -84						; size = 56
$T145964 = -28						; size = 8
__Where$ = -20						; size = 8
__$EHRec$ = -12						; size = 12
__Keyval$ = 8						; size = 4
??A?$map@V?$basic_string@DU?$char_traits@D@std@@V?$allocator@D@2@@std@@V?$basic_string@GU?$char_traits@G@std@@V?$allocator@G@2@@2@U?$less@V?$basic_string@DU?$char_traits@D@std@@V?$allocator@D@2@@std@@@2@V?$allocator@U?$pair@$$CBV?$basic_string@DU?$char_traits@D@std@@V?$allocator@D@2@@std@@V?$basic_string@GU?$char_traits@G@std@@V?$allocator@G@2@@2@@std@@@2@@std@@QAEAAV?$basic_string@GU?$char_traits@G@std@@V?$allocator@G@2@@1@ABV?$basic_string@DU?$char_traits@D@std@@V?$allocator@D@2@@1@@Z PROC ; std::map<std::basic_string<char,std::char_traits<char>,std::allocator<char> >,std::basic_string<unsigned short,std::char_traits<unsigned short>,std::allocator<unsigned short> >,std::less<std::basic_string<char,std::char_traits<char>,std::allocator<char> > >,std::allocator<std::pair<std::basic_string<char,std::char_traits<char>,std::allocator<char> > const ,std::basic_string<unsigned short,std::char_traits<unsigned short>,std::allocator<unsigned short> > > > >::operator[], COMDAT
; _this$ = ecx
; Line 168
	push	ebp
	mov	ebp, esp
	push	-1
	push	__ehhandler$??A?$map@V?$basic_string@DU?$char_traits@D@std@@V?$allocator@D@2@@std@@V?$basic_string@GU?$char_traits@G@std@@V?$allocator@G@2@@2@U?$less@V?$basic_string@DU?$char_traits@D@std@@V?$allocator@D@2@@std@@@2@V?$allocator@U?$pair@$$CBV?$basic_string@DU?$char_traits@D@std@@V?$allocator@D@2@@std@@V?$basic_string@GU?$char_traits@G@std@@V?$allocator@G@2@@2@@std@@@2@@std@@QAEAAV?$basic_string@GU?$char_traits@G@std@@V?$allocator@G@2@@1@ABV?$basic_string@DU?$char_traits@D@std@@V?$allocator@D@2@@1@@Z
	mov	eax, DWORD PTR fs:0
	push	eax
	sub	esp, 136				; 00000088H
	mov	eax, DWORD PTR ___security_cookie
	xor	eax, ebp
	push	eax
	lea	eax, DWORD PTR __$EHRec$[ebp]
	mov	DWORD PTR fs:0, eax
	mov	DWORD PTR _this$[ebp], ecx
; Line 169
	mov	eax, DWORD PTR __Keyval$[ebp]
	push	eax
	lea	ecx, DWORD PTR __Where$[ebp]
	push	ecx
	mov	ecx, DWORD PTR _this$[ebp]
	call	?lower_bound@?$_Tree@V?$_Tmap_traits@V?$basic_string@DU?$char_traits@D@std@@V?$allocator@D@2@@std@@V?$basic_string@GU?$char_traits@G@std@@V?$allocator@G@2@@2@U?$less@V?$basic_string@DU?$char_traits@D@std@@V?$allocator@D@2@@std@@@2@V?$allocator@U?$pair@$$CBV?$basic_string@DU?$char_traits@D@std@@V?$allocator@D@2@@std@@V?$basic_string@GU?$char_traits@G@std@@V?$allocator@G@2@@2@@std@@@2@$0A@@std@@@std@@QAE?AViterator@12@ABV?$basic_string@DU?$char_traits@D@std@@V?$allocator@D@2@@2@@Z ; std::_Tree<std::_Tmap_traits<std::basic_string<char,std::char_traits<char>,std::allocator<char> >,std::basic_string<unsigned short,std::char_traits<unsigned short>,std::allocator<unsigned short> >,std::less<std::basic_string<char,std::char_traits<char>,std::allocator<char> > >,std::allocator<std::pair<std::basic_string<char,std::char_traits<char>,std::allocator<char> > const ,std::basic_string<unsigned short,std::char_traits<unsigned short>,std::allocator<unsigned short> > > >,0> >::lower_bound
; Line 171
	lea	edx, DWORD PTR $T145964[ebp]
	push	edx
	mov	ecx, DWORD PTR _this$[ebp]
	call	?end@?$_Tree@V?$_Tmap_traits@V?$basic_string@DU?$char_traits@D@std@@V?$allocator@D@2@@std@@V?$basic_string@GU?$char_traits@G@std@@V?$allocator@G@2@@2@U?$less@V?$basic_string@DU?$char_traits@D@std@@V?$allocator@D@2@@std@@@2@V?$allocator@U?$pair@$$CBV?$basic_string@DU?$char_traits@D@std@@V?$allocator@D@2@@std@@V?$basic_string@GU?$char_traits@G@std@@V?$allocator@G@2@@2@@std@@@2@$0A@@std@@@std@@QAE?AViterator@12@XZ ; std::_Tree<std::_Tmap_traits<std::basic_string<char,std::char_traits<char>,std::allocator<char> >,std::basic_string<unsigned short,std::char_traits<unsigned short>,std::allocator<unsigned short> >,std::less<std::basic_string<char,std::char_traits<char>,std::allocator<char> > >,std::allocator<std::pair<std::basic_string<char,std::char_traits<char>,std::allocator<char> > const ,std::basic_string<unsigned short,std::char_traits<unsigned short>,std::allocator<unsigned short> > > >,0> >::end
	push	eax
	lea	ecx, DWORD PTR __Where$[ebp]
	call	??8const_iterator@?$_Tree@V?$_Tmap_traits@V?$basic_string@DU?$char_traits@D@std@@V?$allocator@D@2@@std@@V?$basic_string@GU?$char_traits@G@std@@V?$allocator@G@2@@2@U?$less@V?$basic_string@DU?$char_traits@D@std@@V?$allocator@D@2@@std@@@2@V?$allocator@U?$pair@$$CBV?$basic_string@DU?$char_traits@D@std@@V?$allocator@D@2@@std@@V?$basic_string@GU?$char_traits@G@std@@V?$allocator@G@2@@2@@std@@@2@$0A@@std@@@std@@QBE_NABV012@@Z ; std::_Tree<std::_Tmap_traits<std::basic_string<char,std::char_traits<char>,std::allocator<char> >,std::basic_string<unsigned short,std::char_traits<unsigned short>,std::allocator<unsigned short> >,std::less<std::basic_string<char,std::char_traits<char>,std::allocator<char> > >,std::allocator<std::pair<std::basic_string<char,std::char_traits<char>,std::allocator<char> > const ,std::basic_string<unsigned short,std::char_traits<unsigned short>,std::allocator<unsigned short> > > >,0> >::const_iterator::operator==
	movzx	eax, al
	test	eax, eax
	jne	SHORT $LN1@operator
	lea	ecx, DWORD PTR __Where$[ebp]
	call	?_Mynode@const_iterator@?$_Tree@V?$_Tmap_traits@V?$basic_string@DU?$char_traits@D@std@@V?$allocator@D@2@@std@@V?$basic_string@GU?$char_traits@G@std@@V?$allocator@G@2@@2@U?$less@V?$basic_string@DU?$char_traits@D@std@@V?$allocator@D@2@@std@@@2@V?$allocator@U?$pair@$$CBV?$basic_string@DU?$char_traits@D@std@@V?$allocator@D@2@@std@@V?$basic_string@GU?$char_traits@G@std@@V?$allocator@G@2@@2@@std@@@2@$0A@@std@@@std@@QBEPAU_Node@?$_Tree_nod@V?$_Tmap_traits@V?$basic_string@DU?$char_traits@D@std@@V?$allocator@D@2@@std@@V?$basic_string@GU?$char_traits@G@std@@V?$allocator@G@2@@2@U?$less@V?$basic_string@DU?$char_traits@D@std@@V?$allocator@D@2@@std@@@2@V?$allocator@U?$pair@$$CBV?$basic_string@DU?$char_traits@D@std@@V?$allocator@D@2@@std@@V?$basic_string@GU?$char_traits@G@std@@V?$allocator@G@2@@2@@std@@@2@$0A@@std@@@3@XZ ; std::_Tree<std::_Tmap_traits<std::basic_string<char,std::char_traits<char>,std::allocator<char> >,std::basic_string<unsigned short,std::char_traits<unsigned short>,std::allocator<unsigned short> >,std::less<std::basic_string<char,std::char_traits<char>,std::allocator<char> > >,std::allocator<std::pair<std::basic_string<char,std::char_traits<char>,std::allocator<char> > const ,std::basic_string<unsigned short,std::char_traits<unsigned short>,std::allocator<unsigned short> > > >,0> >::const_iterator::_Mynode
	push	eax
	call	?_Key@?$_Tree@V?$_Tmap_traits@V?$basic_string@DU?$char_traits@D@std@@V?$allocator@D@2@@std@@V?$basic_string@GU?$char_traits@G@std@@V?$allocator@G@2@@2@U?$less@V?$basic_string@DU?$char_traits@D@std@@V?$allocator@D@2@@std@@@2@V?$allocator@U?$pair@$$CBV?$basic_string@DU?$char_traits@D@std@@V?$allocator@D@2@@std@@V?$basic_string@GU?$char_traits@G@std@@V?$allocator@G@2@@2@@std@@@2@$0A@@std@@@std@@KAABV?$basic_string@DU?$char_traits@D@std@@V?$allocator@D@2@@2@PAU_Node@?$_Tree_nod@V?$_Tmap_traits@V?$basic_string@DU?$char_traits@D@std@@V?$allocator@D@2@@std@@V?$basic_string@GU?$char_traits@G@std@@V?$allocator@G@2@@2@U?$less@V?$basic_string@DU?$char_traits@D@std@@V?$allocator@D@2@@std@@@2@V?$allocator@U?$pair@$$CBV?$basic_string@DU?$char_traits@D@std@@V?$allocator@D@2@@std@@V?$basic_string@GU?$char_traits@G@std@@V?$allocator@G@2@@2@@std@@@2@$0A@@std@@@2@@Z ; std::_Tree<std::_Tmap_traits<std::basic_string<char,std::char_traits<char>,std::allocator<char> >,std::basic_string<unsigned short,std::char_traits<unsigned short>,std::allocator<unsigned short> >,std::less<std::basic_string<char,std::char_traits<char>,std::allocator<char> > >,std::allocator<std::pair<std::basic_string<char,std::char_traits<char>,std::allocator<char> > const ,std::basic_string<unsigned short,std::char_traits<unsigned short>,std::allocator<unsigned short> > > >,0> >::_Key
	add	esp, 4
	push	eax
	mov	ecx, DWORD PTR __Keyval$[ebp]
	push	ecx
	mov	ecx, DWORD PTR _this$[ebp]
	add	ecx, 8
	call	??R?$less@V?$basic_string@DU?$char_traits@D@std@@V?$allocator@D@2@@std@@@std@@QBE_NABV?$basic_string@DU?$char_traits@D@std@@V?$allocator@D@2@@1@0@Z ; std::less<std::basic_string<char,std::char_traits<char>,std::allocator<char> > >::operator()
	movzx	edx, al
	test	edx, edx
	je	$LN2@operator
$LN1@operator:
; Line 173
	mov	eax, DWORD PTR __Where$[ebp]
	mov	DWORD PTR $T145967[ebp], eax
	mov	ecx, DWORD PTR __Where$[ebp+4]
	mov	DWORD PTR $T145967[ebp+4], ecx
	lea	ecx, DWORD PTR $T145966[ebp]
	call	DWORD PTR __imp_??0?$basic_string@GU?$char_traits@G@std@@V?$allocator@G@2@@std@@QAE@XZ
	mov	DWORD PTR tv173[ebp], eax
	mov	edx, DWORD PTR tv173[ebp]
	mov	DWORD PTR tv170[ebp], edx
	mov	DWORD PTR __$EHRec$[ebp+8], 0
	mov	eax, DWORD PTR tv170[ebp]
	push	eax
	mov	ecx, DWORD PTR __Keyval$[ebp]
	push	ecx
	lea	ecx, DWORD PTR $T145965[ebp]
	call	??0?$pair@$$CBV?$basic_string@DU?$char_traits@D@std@@V?$allocator@D@2@@std@@V?$basic_string@GU?$char_traits@G@std@@V?$allocator@G@2@@2@@std@@QAE@ABV?$basic_string@DU?$char_traits@D@std@@V?$allocator@D@2@@1@ABV?$basic_string@GU?$char_traits@G@std@@V?$allocator@G@2@@1@@Z ; std::pair<std::basic_string<char,std::char_traits<char>,std::allocator<char> > const ,std::basic_string<unsigned short,std::char_traits<unsigned short>,std::allocator<unsigned short> > >::pair<std::basic_string<char,std::char_traits<char>,std::allocator<char> > const ,std::basic_string<unsigned short,std::char_traits<unsigned short>,std::allocator<unsigned short> > >
	mov	DWORD PTR tv174[ebp], eax
	mov	edx, DWORD PTR tv174[ebp]
	mov	DWORD PTR tv172[ebp], edx
	mov	BYTE PTR __$EHRec$[ebp+8], 1
	mov	eax, DWORD PTR tv172[ebp]
	push	eax
	mov	ecx, DWORD PTR $T145967[ebp+4]
	push	ecx
	mov	edx, DWORD PTR $T145967[ebp]
	push	edx
	lea	eax, DWORD PTR $T145968[ebp]
	push	eax
	mov	ecx, DWORD PTR _this$[ebp]
	call	?insert@?$_Tree@V?$_Tmap_traits@V?$basic_string@DU?$char_traits@D@std@@V?$allocator@D@2@@std@@V?$basic_string@GU?$char_traits@G@std@@V?$allocator@G@2@@2@U?$less@V?$basic_string@DU?$char_traits@D@std@@V?$allocator@D@2@@std@@@2@V?$allocator@U?$pair@$$CBV?$basic_string@DU?$char_traits@D@std@@V?$allocator@D@2@@std@@V?$basic_string@GU?$char_traits@G@std@@V?$allocator@G@2@@2@@std@@@2@$0A@@std@@@std@@QAE?AViterator@12@Vconst_iterator@12@ABU?$pair@$$CBV?$basic_string@DU?$char_traits@D@std@@V?$allocator@D@2@@std@@V?$basic_string@GU?$char_traits@G@std@@V?$allocator@G@2@@2@@2@@Z ; std::_Tree<std::_Tmap_traits<std::basic_string<char,std::char_traits<char>,std::allocator<char> >,std::basic_string<unsigned short,std::char_traits<unsigned short>,std::allocator<unsigned short> >,std::less<std::basic_string<char,std::char_traits<char>,std::allocator<char> > >,std::allocator<std::pair<std::basic_string<char,std::char_traits<char>,std::allocator<char> > const ,std::basic_string<unsigned short,std::char_traits<unsigned short>,std::allocator<unsigned short> > > >,0> >::insert
	mov	ecx, DWORD PTR [eax]
	mov	edx, DWORD PTR [eax+4]
	mov	DWORD PTR __Where$[ebp], ecx
	mov	DWORD PTR __Where$[ebp+4], edx
	mov	BYTE PTR __$EHRec$[ebp+8], 0
	lea	ecx, DWORD PTR $T145965[ebp]
	call	??1?$pair@$$CBV?$basic_string@DU?$char_traits@D@std@@V?$allocator@D@2@@std@@V?$basic_string@GU?$char_traits@G@std@@V?$allocator@G@2@@2@@std@@QAE@XZ
	mov	DWORD PTR __$EHRec$[ebp+8], -1
	lea	ecx, DWORD PTR $T145966[ebp]
	call	DWORD PTR __imp_??1?$basic_string@GU?$char_traits@G@std@@V?$allocator@G@2@@std@@QAE@XZ
$LN2@operator:
; Line 174
	lea	ecx, DWORD PTR __Where$[ebp]
	call	??Diterator@?$_Tree@V?$_Tmap_traits@V?$basic_string@DU?$char_traits@D@std@@V?$allocator@D@2@@std@@V?$basic_string@GU?$char_traits@G@std@@V?$allocator@G@2@@2@U?$less@V?$basic_string@DU?$char_traits@D@std@@V?$allocator@D@2@@std@@@2@V?$allocator@U?$pair@$$CBV?$basic_string@DU?$char_traits@D@std@@V?$allocator@D@2@@std@@V?$basic_string@GU?$char_traits@G@std@@V?$allocator@G@2@@2@@std@@@2@$0A@@std@@@std@@QBEAAU?$pair@$$CBV?$basic_string@DU?$char_traits@D@std@@V?$allocator@D@2@@std@@V?$basic_string@GU?$char_traits@G@std@@V?$allocator@G@2@@2@@2@XZ ; std::_Tree<std::_Tmap_traits<std::basic_string<char,std::char_traits<char>,std::allocator<char> >,std::basic_string<unsigned short,std::char_traits<unsigned short>,std::allocator<unsigned short> >,std::less<std::basic_string<char,std::char_traits<char>,std::allocator<char> > >,std::allocator<std::pair<std::basic_string<char,std::char_traits<char>,std::allocator<char> > const ,std::basic_string<unsigned short,std::char_traits<unsigned short>,std::allocator<unsigned short> > > >,0> >::iterator::operator*
	add	eax, 28					; 0000001cH
; Line 175
	mov	ecx, DWORD PTR __$EHRec$[ebp]
	mov	DWORD PTR fs:0, ecx
	pop	ecx
	mov	esp, ebp
	pop	ebp
	ret	4
_TEXT	ENDS
;	COMDAT text$x
text$x	SEGMENT
__unwindfunclet$??A?$map@V?$basic_string@DU?$char_traits@D@std@@V?$allocator@D@2@@std@@V?$basic_string@GU?$char_traits@G@std@@V?$allocator@G@2@@2@U?$less@V?$basic_string@DU?$char_traits@D@std@@V?$allocator@D@2@@std@@@2@V?$allocator@U?$pair@$$CBV?$basic_string@DU?$char_traits@D@std@@V?$allocator@D@2@@std@@V?$basic_string@GU?$char_traits@G@std@@V?$allocator@G@2@@2@@std@@@2@@std@@QAEAAV?$basic_string@GU?$char_traits@G@std@@V?$allocator@G@2@@1@ABV?$basic_string@DU?$char_traits@D@std@@V?$allocator@D@2@@1@@Z$0:
	lea	ecx, DWORD PTR $T145966[ebp]
	jmp	DWORD PTR __imp_??1?$basic_string@GU?$char_traits@G@std@@V?$allocator@G@2@@std@@QAE@XZ
__unwindfunclet$??A?$map@V?$basic_string@DU?$char_traits@D@std@@V?$allocator@D@2@@std@@V?$basic_string@GU?$char_traits@G@std@@V?$allocator@G@2@@2@U?$less@V?$basic_string@DU?$char_traits@D@std@@V?$allocator@D@2@@std@@@2@V?$allocator@U?$pair@$$CBV?$basic_string@DU?$char_traits@D@std@@V?$allocator@D@2@@std@@V?$basic_string@GU?$char_traits@G@std@@V?$allocator@G@2@@2@@std@@@2@@std@@QAEAAV?$basic_string@GU?$char_traits@G@std@@V?$allocator@G@2@@1@ABV?$basic_string@DU?$char_traits@D@std@@V?$allocator@D@2@@1@@Z$1:
	lea	ecx, DWORD PTR $T145965[ebp]
	jmp	??1?$pair@$$CBV?$basic_string@DU?$char_traits@D@std@@V?$allocator@D@2@@std@@V?$basic_string@GU?$char_traits@G@std@@V?$allocator@G@2@@2@@std@@QAE@XZ
__ehhandler$??A?$map@V?$basic_string@DU?$char_traits@D@std@@V?$allocator@D@2@@std@@V?$basic_string@GU?$char_traits@G@std@@V?$allocator@G@2@@2@U?$less@V?$basic_string@DU?$char_traits@D@std@@V?$allocator@D@2@@std@@@2@V?$allocator@U?$pair@$$CBV?$basic_string@DU?$char_traits@D@std@@V?$allocator@D@2@@std@@V?$basic_string@GU?$char_traits@G@std@@V?$allocator@G@2@@2@@std@@@2@@std@@QAEAAV?$basic_string@GU?$char_traits@G@std@@V?$allocator@G@2@@1@ABV?$basic_string@DU?$char_traits@D@std@@V?$allocator@D@2@@1@@Z:
	mov	edx, DWORD PTR [esp+8]
	lea	eax, DWORD PTR [edx+12]
	mov	ecx, DWORD PTR [edx-140]
	xor	ecx, eax
	call	@__security_check_cookie@4
	mov	eax, OFFSET __ehfuncinfo$??A?$map@V?$basic_string@DU?$char_traits@D@std@@V?$allocator@D@2@@std@@V?$basic_string@GU?$char_traits@G@std@@V?$allocator@G@2@@2@U?$less@V?$basic_string@DU?$char_traits@D@std@@V?$allocator@D@2@@std@@@2@V?$allocator@U?$pair@$$CBV?$basic_string@DU?$char_traits@D@std@@V?$allocator@D@2@@std@@V?$basic_string@GU?$char_traits@G@std@@V?$allocator@G@2@@2@@std@@@2@@std@@QAEAAV?$basic_string@GU?$char_traits@G@std@@V?$allocator@G@2@@1@ABV?$basic_string@DU?$char_traits@D@std@@V?$allocator@D@2@@1@@Z
	jmp	___CxxFrameHandler3
text$x	ENDS
??A?$map@V?$basic_string@DU?$char_traits@D@std@@V?$allocator@D@2@@std@@V?$basic_string@GU?$char_traits@G@std@@V?$allocator@G@2@@2@U?$less@V?$basic_string@DU?$char_traits@D@std@@V?$allocator@D@2@@std@@@2@V?$allocator@U?$pair@$$CBV?$basic_string@DU?$char_traits@D@std@@V?$allocator@D@2@@std@@V?$basic_string@GU?$char_traits@G@std@@V?$allocator@G@2@@2@@std@@@2@@std@@QAEAAV?$basic_string@GU?$char_traits@G@std@@V?$allocator@G@2@@1@ABV?$basic_string@DU?$char_traits@D@std@@V?$allocator@D@2@@1@@Z ENDP ; std::map<std::basic_string<char,std::char_traits<char>,std::allocator<char> >,std::basic_string<unsigned short,std::char_traits<unsigned short>,std::allocator<unsigned short> >,std::less<std::basic_string<char,std::char_traits<char>,std::allocator<char> > >,std::allocator<std::pair<std::basic_string<char,std::char_traits<char>,std::allocator<char> > const ,std::basic_string<unsigned short,std::char_traits<unsigned short>,std::allocator<unsigned short> > > > >::operator[]
PUBLIC	??0iterator@?$_Tree@V?$_Tmap_traits@V?$basic_string@DU?$char_traits@D@std@@V?$allocator@D@2@@std@@V?$basic_string@GU?$char_traits@G@std@@V?$allocator@G@2@@2@U?$less@V?$basic_string@DU?$char_traits@D@std@@V?$allocator@D@2@@std@@@2@V?$allocator@U?$pair@$$CBV?$basic_string@DU?$char_traits@D@std@@V?$allocator@D@2@@std@@V?$basic_string@GU?$char_traits@G@std@@V?$allocator@G@2@@2@@std@@@2@$0A@@std@@@std@@QAE@PAU_Node@?$_Tree_nod@V?$_Tmap_traits@V?$basic_string@DU?$char_traits@D@std@@V?$allocator@D@2@@std@@V?$basic_string@GU?$char_traits@G@std@@V?$allocator@G@2@@2@U?$less@V?$basic_string@DU?$char_traits@D@std@@V?$allocator@D@2@@std@@@2@V?$allocator@U?$pair@$$CBV?$basic_string@DU?$char_traits@D@std@@V?$allocator@D@2@@std@@V?$basic_string@GU?$char_traits@G@std@@V?$allocator@G@2@@2@@std@@@2@$0A@@std@@@2@PBV12@@Z ; std::_Tree<std::_Tmap_traits<std::basic_string<char,std::char_traits<char>,std::allocator<char> >,std::basic_string<unsigned short,std::char_traits<unsigned short>,std::allocator<unsigned short> >,std::less<std::basic_string<char,std::char_traits<char>,std::allocator<char> > >,std::allocator<std::pair<std::basic_string<char,std::char_traits<char>,std::allocator<char> > const ,std::basic_string<unsigned short,std::char_traits<unsigned short>,std::allocator<unsigned short> > > >,0> >::iterator::iterator
PUBLIC	?_Lmost@?$_Tree@V?$_Tmap_traits@V?$basic_string@DU?$char_traits@D@std@@V?$allocator@D@2@@std@@V?$basic_string@GU?$char_traits@G@std@@V?$allocator@G@2@@2@U?$less@V?$basic_string@DU?$char_traits@D@std@@V?$allocator@D@2@@std@@@2@V?$allocator@U?$pair@$$CBV?$basic_string@DU?$char_traits@D@std@@V?$allocator@D@2@@std@@V?$basic_string@GU?$char_traits@G@std@@V?$allocator@G@2@@2@@std@@@2@$0A@@std@@@std@@IBEAAPAU_Node@?$_Tree_nod@V?$_Tmap_traits@V?$basic_string@DU?$char_traits@D@std@@V?$allocator@D@2@@std@@V?$basic_string@GU?$char_traits@G@std@@V?$allocator@G@2@@2@U?$less@V?$basic_string@DU?$char_traits@D@std@@V?$allocator@D@2@@std@@@2@V?$allocator@U?$pair@$$CBV?$basic_string@DU?$char_traits@D@std@@V?$allocator@D@2@@std@@V?$basic_string@GU?$char_traits@G@std@@V?$allocator@G@2@@2@@std@@@2@$0A@@std@@@2@XZ ; std::_Tree<std::_Tmap_traits<std::basic_string<char,std::char_traits<char>,std::allocator<char> >,std::basic_string<unsigned short,std::char_traits<unsigned short>,std::allocator<unsigned short> >,std::less<std::basic_string<char,std::char_traits<char>,std::allocator<char> > >,std::allocator<std::pair<std::basic_string<char,std::char_traits<char>,std::allocator<char> > const ,std::basic_string<unsigned short,std::char_traits<unsigned short>,std::allocator<unsigned short> > > >,0> >::_Lmost
; Function compile flags: /Odtp
;	COMDAT ?begin@?$_Tree@V?$_Tmap_traits@V?$basic_string@DU?$char_traits@D@std@@V?$allocator@D@2@@std@@V?$basic_string@GU?$char_traits@G@std@@V?$allocator@G@2@@2@U?$less@V?$basic_string@DU?$char_traits@D@std@@V?$allocator@D@2@@std@@@2@V?$allocator@U?$pair@$$CBV?$basic_string@DU?$char_traits@D@std@@V?$allocator@D@2@@std@@V?$basic_string@GU?$char_traits@G@std@@V?$allocator@G@2@@2@@std@@@2@$0A@@std@@@std@@QAE?AViterator@12@XZ
_TEXT	SEGMENT
_this$ = -4						; size = 4
___$ReturnUdt$ = 8					; size = 4
?begin@?$_Tree@V?$_Tmap_traits@V?$basic_string@DU?$char_traits@D@std@@V?$allocator@D@2@@std@@V?$basic_string@GU?$char_traits@G@std@@V?$allocator@G@2@@2@U?$less@V?$basic_string@DU?$char_traits@D@std@@V?$allocator@D@2@@std@@@2@V?$allocator@U?$pair@$$CBV?$basic_string@DU?$char_traits@D@std@@V?$allocator@D@2@@std@@V?$basic_string@GU?$char_traits@G@std@@V?$allocator@G@2@@2@@std@@@2@$0A@@std@@@std@@QAE?AViterator@12@XZ PROC ; std::_Tree<std::_Tmap_traits<std::basic_string<char,std::char_traits<char>,std::allocator<char> >,std::basic_string<unsigned short,std::char_traits<unsigned short>,std::allocator<unsigned short> >,std::less<std::basic_string<char,std::char_traits<char>,std::allocator<char> > >,std::allocator<std::pair<std::basic_string<char,std::char_traits<char>,std::allocator<char> > const ,std::basic_string<unsigned short,std::char_traits<unsigned short>,std::allocator<unsigned short> > > >,0> >::begin, COMDAT
; _this$ = ecx
; File c:\program files (x86)\microsoft visual studio 9.0\vc\include\xtree
; Line 555
	push	ebp
	mov	ebp, esp
	push	ecx
	mov	DWORD PTR _this$[ebp], ecx
; Line 556
	mov	eax, DWORD PTR _this$[ebp]
	push	eax
	mov	ecx, DWORD PTR _this$[ebp]
	call	?_Lmost@?$_Tree@V?$_Tmap_traits@V?$basic_string@DU?$char_traits@D@std@@V?$allocator@D@2@@std@@V?$basic_string@GU?$char_traits@G@std@@V?$allocator@G@2@@2@U?$less@V?$basic_string@DU?$char_traits@D@std@@V?$allocator@D@2@@std@@@2@V?$allocator@U?$pair@$$CBV?$basic_string@DU?$char_traits@D@std@@V?$allocator@D@2@@std@@V?$basic_string@GU?$char_traits@G@std@@V?$allocator@G@2@@2@@std@@@2@$0A@@std@@@std@@IBEAAPAU_Node@?$_Tree_nod@V?$_Tmap_traits@V?$basic_string@DU?$char_traits@D@std@@V?$allocator@D@2@@std@@V?$basic_string@GU?$char_traits@G@std@@V?$allocator@G@2@@2@U?$less@V?$basic_string@DU?$char_traits@D@std@@V?$allocator@D@2@@std@@@2@V?$allocator@U?$pair@$$CBV?$basic_string@DU?$char_traits@D@std@@V?$allocator@D@2@@std@@V?$basic_string@GU?$char_traits@G@std@@V?$allocator@G@2@@2@@std@@@2@$0A@@std@@@2@XZ ; std::_Tree<std::_Tmap_traits<std::basic_string<char,std::char_traits<char>,std::allocator<char> >,std::basic_string<unsigned short,std::char_traits<unsigned short>,std::allocator<unsigned short> >,std::less<std::basic_string<char,std::char_traits<char>,std::allocator<char> > >,std::allocator<std::pair<std::basic_string<char,std::char_traits<char>,std::allocator<char> > const ,std::basic_string<unsigned short,std::char_traits<unsigned short>,std::allocator<unsigned short> > > >,0> >::_Lmost
	mov	ecx, DWORD PTR [eax]
	push	ecx
	mov	ecx, DWORD PTR ___$ReturnUdt$[ebp]
	call	??0iterator@?$_Tree@V?$_Tmap_traits@V?$basic_string@DU?$char_traits@D@std@@V?$allocator@D@2@@std@@V?$basic_string@GU?$char_traits@G@std@@V?$allocator@G@2@@2@U?$less@V?$basic_string@DU?$char_traits@D@std@@V?$allocator@D@2@@std@@@2@V?$allocator@U?$pair@$$CBV?$basic_string@DU?$char_traits@D@std@@V?$allocator@D@2@@std@@V?$basic_string@GU?$char_traits@G@std@@V?$allocator@G@2@@2@@std@@@2@$0A@@std@@@std@@QAE@PAU_Node@?$_Tree_nod@V?$_Tmap_traits@V?$basic_string@DU?$char_traits@D@std@@V?$allocator@D@2@@std@@V?$basic_string@GU?$char_traits@G@std@@V?$allocator@G@2@@2@U?$less@V?$basic_string@DU?$char_traits@D@std@@V?$allocator@D@2@@std@@@2@V?$allocator@U?$pair@$$CBV?$basic_string@DU?$char_traits@D@std@@V?$allocator@D@2@@std@@V?$basic_string@GU?$char_traits@G@std@@V?$allocator@G@2@@2@@std@@@2@$0A@@std@@@2@PBV12@@Z ; std::_Tree<std::_Tmap_traits<std::basic_string<char,std::char_traits<char>,std::allocator<char> >,std::basic_string<unsigned short,std::char_traits<unsigned short>,std::allocator<unsigned short> >,std::less<std::basic_string<char,std::char_traits<char>,std::allocator<char> > >,std::allocator<std::pair<std::basic_string<char,std::char_traits<char>,std::allocator<char> > const ,std::basic_string<unsigned short,std::char_traits<unsigned short>,std::allocator<unsigned short> > > >,0> >::iterator::iterator
	mov	eax, DWORD PTR ___$ReturnUdt$[ebp]
; Line 557
	mov	esp, ebp
	pop	ebp
	ret	4
?begin@?$_Tree@V?$_Tmap_traits@V?$basic_string@DU?$char_traits@D@std@@V?$allocator@D@2@@std@@V?$basic_string@GU?$char_traits@G@std@@V?$allocator@G@2@@2@U?$less@V?$basic_string@DU?$char_traits@D@std@@V?$allocator@D@2@@std@@@2@V?$allocator@U?$pair@$$CBV?$basic_string@DU?$char_traits@D@std@@V?$allocator@D@2@@std@@V?$basic_string@GU?$char_traits@G@std@@V?$allocator@G@2@@2@@std@@@2@$0A@@std@@@std@@QAE?AViterator@12@XZ ENDP ; std::_Tree<std::_Tmap_traits<std::basic_string<char,std::char_traits<char>,std::allocator<char> >,std::basic_string<unsigned short,std::char_traits<unsigned short>,std::allocator<unsigned short> >,std::less<std::basic_string<char,std::char_traits<char>,std::allocator<char> > >,std::allocator<std::pair<std::basic_string<char,std::char_traits<char>,std::allocator<char> > const ,std::basic_string<unsigned short,std::char_traits<unsigned short>,std::allocator<unsigned short> > > >,0> >::begin
; Function compile flags: /Odtp
_TEXT	ENDS
;	COMDAT ?end@?$_Tree@V?$_Tmap_traits@V?$basic_string@DU?$char_traits@D@std@@V?$allocator@D@2@@std@@V?$basic_string@GU?$char_traits@G@std@@V?$allocator@G@2@@2@U?$less@V?$basic_string@DU?$char_traits@D@std@@V?$allocator@D@2@@std@@@2@V?$allocator@U?$pair@$$CBV?$basic_string@DU?$char_traits@D@std@@V?$allocator@D@2@@std@@V?$basic_string@GU?$char_traits@G@std@@V?$allocator@G@2@@2@@std@@@2@$0A@@std@@@std@@QAE?AViterator@12@XZ
_TEXT	SEGMENT
_this$ = -4						; size = 4
___$ReturnUdt$ = 8					; size = 4
?end@?$_Tree@V?$_Tmap_traits@V?$basic_string@DU?$char_traits@D@std@@V?$allocator@D@2@@std@@V?$basic_string@GU?$char_traits@G@std@@V?$allocator@G@2@@2@U?$less@V?$basic_string@DU?$char_traits@D@std@@V?$allocator@D@2@@std@@@2@V?$allocator@U?$pair@$$CBV?$basic_string@DU?$char_traits@D@std@@V?$allocator@D@2@@std@@V?$basic_string@GU?$char_traits@G@std@@V?$allocator@G@2@@2@@std@@@2@$0A@@std@@@std@@QAE?AViterator@12@XZ PROC ; std::_Tree<std::_Tmap_traits<std::basic_string<char,std::char_traits<char>,std::allocator<char> >,std::basic_string<unsigned short,std::char_traits<unsigned short>,std::allocator<unsigned short> >,std::less<std::basic_string<char,std::char_traits<char>,std::allocator<char> > >,std::allocator<std::pair<std::basic_string<char,std::char_traits<char>,std::allocator<char> > const ,std::basic_string<unsigned short,std::char_traits<unsigned short>,std::allocator<unsigned short> > > >,0> >::end, COMDAT
; _this$ = ecx
; Line 565
	push	ebp
	mov	ebp, esp
	push	ecx
	mov	DWORD PTR _this$[ebp], ecx
; Line 566
	mov	eax, DWORD PTR _this$[ebp]
	push	eax
	mov	ecx, DWORD PTR _this$[ebp]
	mov	edx, DWORD PTR [ecx+24]
	push	edx
	mov	ecx, DWORD PTR ___$ReturnUdt$[ebp]
	call	??0iterator@?$_Tree@V?$_Tmap_traits@V?$basic_string@DU?$char_traits@D@std@@V?$allocator@D@2@@std@@V?$basic_string@GU?$char_traits@G@std@@V?$allocator@G@2@@2@U?$less@V?$basic_string@DU?$char_traits@D@std@@V?$allocator@D@2@@std@@@2@V?$allocator@U?$pair@$$CBV?$basic_string@DU?$char_traits@D@std@@V?$allocator@D@2@@std@@V?$basic_string@GU?$char_traits@G@std@@V?$allocator@G@2@@2@@std@@@2@$0A@@std@@@std@@QAE@PAU_Node@?$_Tree_nod@V?$_Tmap_traits@V?$basic_string@DU?$char_traits@D@std@@V?$allocator@D@2@@std@@V?$basic_string@GU?$char_traits@G@std@@V?$allocator@G@2@@2@U?$less@V?$basic_string@DU?$char_traits@D@std@@V?$allocator@D@2@@std@@@2@V?$allocator@U?$pair@$$CBV?$basic_string@DU?$char_traits@D@std@@V?$allocator@D@2@@std@@V?$basic_string@GU?$char_traits@G@std@@V?$allocator@G@2@@2@@std@@@2@$0A@@std@@@2@PBV12@@Z ; std::_Tree<std::_Tmap_traits<std::basic_string<char,std::char_traits<char>,std::allocator<char> >,std::basic_string<unsigned short,std::char_traits<unsigned short>,std::allocator<unsigned short> >,std::less<std::basic_string<char,std::char_traits<char>,std::allocator<char> > >,std::allocator<std::pair<std::basic_string<char,std::char_traits<char>,std::allocator<char> > const ,std::basic_string<unsigned short,std::char_traits<unsigned short>,std::allocator<unsigned short> > > >,0> >::iterator::iterator
	mov	eax, DWORD PTR ___$ReturnUdt$[ebp]
; Line 567
	mov	esp, ebp
	pop	ebp
	ret	4
?end@?$_Tree@V?$_Tmap_traits@V?$basic_string@DU?$char_traits@D@std@@V?$allocator@D@2@@std@@V?$basic_string@GU?$char_traits@G@std@@V?$allocator@G@2@@2@U?$less@V?$basic_string@DU?$char_traits@D@std@@V?$allocator@D@2@@std@@@2@V?$allocator@U?$pair@$$CBV?$basic_string@DU?$char_traits@D@std@@V?$allocator@D@2@@std@@V?$basic_string@GU?$char_traits@G@std@@V?$allocator@G@2@@2@@std@@@2@$0A@@std@@@std@@QAE?AViterator@12@XZ ENDP ; std::_Tree<std::_Tmap_traits<std::basic_string<char,std::char_traits<char>,std::allocator<char> >,std::basic_string<unsigned short,std::char_traits<unsigned short>,std::allocator<unsigned short> >,std::less<std::basic_string<char,std::char_traits<char>,std::allocator<char> > >,std::allocator<std::pair<std::basic_string<char,std::char_traits<char>,std::allocator<char> > const ,std::basic_string<unsigned short,std::char_traits<unsigned short>,std::allocator<unsigned short> > > >,0> >::end
; Function compile flags: /Odtp
_TEXT	ENDS
;	COMDAT ?size@?$_Tree@V?$_Tmap_traits@V?$basic_string@DU?$char_traits@D@std@@V?$allocator@D@2@@std@@V?$basic_string@GU?$char_traits@G@std@@V?$allocator@G@2@@2@U?$less@V?$basic_string@DU?$char_traits@D@std@@V?$allocator@D@2@@std@@@2@V?$allocator@U?$pair@$$CBV?$basic_string@DU?$char_traits@D@std@@V?$allocator@D@2@@std@@V?$basic_string@GU?$char_traits@G@std@@V?$allocator@G@2@@2@@std@@@2@$0A@@std@@@std@@QBEIXZ
_TEXT	SEGMENT
_this$ = -4						; size = 4
?size@?$_Tree@V?$_Tmap_traits@V?$basic_string@DU?$char_traits@D@std@@V?$allocator@D@2@@std@@V?$basic_string@GU?$char_traits@G@std@@V?$allocator@G@2@@2@U?$less@V?$basic_string@DU?$char_traits@D@std@@V?$allocator@D@2@@std@@@2@V?$allocator@U?$pair@$$CBV?$basic_string@DU?$char_traits@D@std@@V?$allocator@D@2@@std@@V?$basic_string@GU?$char_traits@G@std@@V?$allocator@G@2@@2@@std@@@2@$0A@@std@@@std@@QBEIXZ PROC ; std::_Tree<std::_Tmap_traits<std::basic_string<char,std::char_traits<char>,std::allocator<char> >,std::basic_string<unsigned short,std::char_traits<unsigned short>,std::allocator<unsigned short> >,std::less<std::basic_string<char,std::char_traits<char>,std::allocator<char> > >,std::allocator<std::pair<std::basic_string<char,std::char_traits<char>,std::allocator<char> > const ,std::basic_string<unsigned short,std::char_traits<unsigned short>,std::allocator<unsigned short> > > >,0> >::size, COMDAT
; _this$ = ecx
; Line 600
	push	ebp
	mov	ebp, esp
	push	ecx
	mov	DWORD PTR _this$[ebp], ecx
; Line 601
	mov	eax, DWORD PTR _this$[ebp]
	mov	eax, DWORD PTR [eax+28]
; Line 602
	mov	esp, ebp
	pop	ebp
	ret	0
?size@?$_Tree@V?$_Tmap_traits@V?$basic_string@DU?$char_traits@D@std@@V?$allocator@D@2@@std@@V?$basic_string@GU?$char_traits@G@std@@V?$allocator@G@2@@2@U?$less@V?$basic_string@DU?$char_traits@D@std@@V?$allocator@D@2@@std@@@2@V?$allocator@U?$pair@$$CBV?$basic_string@DU?$char_traits@D@std@@V?$allocator@D@2@@std@@V?$basic_string@GU?$char_traits@G@std@@V?$allocator@G@2@@2@@std@@@2@$0A@@std@@@std@@QBEIXZ ENDP ; std::_Tree<std::_Tmap_traits<std::basic_string<char,std::char_traits<char>,std::allocator<char> >,std::basic_string<unsigned short,std::char_traits<unsigned short>,std::allocator<unsigned short> >,std::less<std::basic_string<char,std::char_traits<char>,std::allocator<char> > >,std::allocator<std::pair<std::basic_string<char,std::char_traits<char>,std::allocator<char> > const ,std::basic_string<unsigned short,std::char_traits<unsigned short>,std::allocator<unsigned short> > > >,0> >::size
_TEXT	ENDS
PUBLIC	?_Rmost@?$_Tree@V?$_Tmap_traits@V?$basic_string@DU?$char_traits@D@std@@V?$allocator@D@2@@std@@V?$basic_string@GU?$char_traits@G@std@@V?$allocator@G@2@@2@U?$less@V?$basic_string@DU?$char_traits@D@std@@V?$allocator@D@2@@std@@@2@V?$allocator@U?$pair@$$CBV?$basic_string@DU?$char_traits@D@std@@V?$allocator@D@2@@std@@V?$basic_string@GU?$char_traits@G@std@@V?$allocator@G@2@@2@@std@@@2@$0A@@std@@@std@@IBEAAPAU_Node@?$_Tree_nod@V?$_Tmap_traits@V?$basic_string@DU?$char_traits@D@std@@V?$allocator@D@2@@std@@V?$basic_string@GU?$char_traits@G@std@@V?$allocator@G@2@@2@U?$less@V?$basic_string@DU?$char_traits@D@std@@V?$allocator@D@2@@std@@@2@V?$allocator@U?$pair@$$CBV?$basic_string@DU?$char_traits@D@std@@V?$allocator@D@2@@std@@V?$basic_string@GU?$char_traits@G@std@@V?$allocator@G@2@@2@@std@@@2@$0A@@std@@@2@XZ ; std::_Tree<std::_Tmap_traits<std::basic_string<char,std::char_traits<char>,std::allocator<char> >,std::basic_string<unsigned short,std::char_traits<unsigned short>,std::allocator<unsigned short> >,std::less<std::basic_string<char,std::char_traits<char>,std::allocator<char> > >,std::allocator<std::pair<std::basic_string<char,std::char_traits<char>,std::allocator<char> > const ,std::basic_string<unsigned short,std::char_traits<unsigned short>,std::allocator<unsigned short> > > >,0> >::_Rmost
PUBLIC	?_Erase@?$_Tree@V?$_Tmap_traits@V?$basic_string@DU?$char_traits@D@std@@V?$allocator@D@2@@std@@V?$basic_string@GU?$char_traits@G@std@@V?$allocator@G@2@@2@U?$less@V?$basic_string@DU?$char_traits@D@std@@V?$allocator@D@2@@std@@@2@V?$allocator@U?$pair@$$CBV?$basic_string@DU?$char_traits@D@std@@V?$allocator@D@2@@std@@V?$basic_string@GU?$char_traits@G@std@@V?$allocator@G@2@@2@@std@@@2@$0A@@std@@@std@@IAEXPAU_Node@?$_Tree_nod@V?$_Tmap_traits@V?$basic_string@DU?$char_traits@D@std@@V?$allocator@D@2@@std@@V?$basic_string@GU?$char_traits@G@std@@V?$allocator@G@2@@2@U?$less@V?$basic_string@DU?$char_traits@D@std@@V?$allocator@D@2@@std@@@2@V?$allocator@U?$pair@$$CBV?$basic_string@DU?$char_traits@D@std@@V?$allocator@D@2@@std@@V?$basic_string@GU?$char_traits@G@std@@V?$allocator@G@2@@2@@std@@@2@$0A@@std@@@2@@Z ; std::_Tree<std::_Tmap_traits<std::basic_string<char,std::char_traits<char>,std::allocator<char> >,std::basic_string<unsigned short,std::char_traits<unsigned short>,std::allocator<unsigned short> >,std::less<std::basic_string<char,std::char_traits<char>,std::allocator<char> > >,std::allocator<std::pair<std::basic_string<char,std::char_traits<char>,std::allocator<char> > const ,std::basic_string<unsigned short,std::char_traits<unsigned short>,std::allocator<unsigned short> > > >,0> >::_Erase
PUBLIC	?_Root@?$_Tree@V?$_Tmap_traits@V?$basic_string@DU?$char_traits@D@std@@V?$allocator@D@2@@std@@V?$basic_string@GU?$char_traits@G@std@@V?$allocator@G@2@@2@U?$less@V?$basic_string@DU?$char_traits@D@std@@V?$allocator@D@2@@std@@@2@V?$allocator@U?$pair@$$CBV?$basic_string@DU?$char_traits@D@std@@V?$allocator@D@2@@std@@V?$basic_string@GU?$char_traits@G@std@@V?$allocator@G@2@@2@@std@@@2@$0A@@std@@@std@@IBEAAPAU_Node@?$_Tree_nod@V?$_Tmap_traits@V?$basic_string@DU?$char_traits@D@std@@V?$allocator@D@2@@std@@V?$basic_string@GU?$char_traits@G@std@@V?$allocator@G@2@@2@U?$less@V?$basic_string@DU?$char_traits@D@std@@V?$allocator@D@2@@std@@@2@V?$allocator@U?$pair@$$CBV?$basic_string@DU?$char_traits@D@std@@V?$allocator@D@2@@std@@V?$basic_string@GU?$char_traits@G@std@@V?$allocator@G@2@@2@@std@@@2@$0A@@std@@@2@XZ ; std::_Tree<std::_Tmap_traits<std::basic_string<char,std::char_traits<char>,std::allocator<char> >,std::basic_string<unsigned short,std::char_traits<unsigned short>,std::allocator<unsigned short> >,std::less<std::basic_string<char,std::char_traits<char>,std::allocator<char> > >,std::allocator<std::pair<std::basic_string<char,std::char_traits<char>,std::allocator<char> > const ,std::basic_string<unsigned short,std::char_traits<unsigned short>,std::allocator<unsigned short> > > >,0> >::_Root
; Function compile flags: /Odtp
;	COMDAT ?clear@?$_Tree@V?$_Tmap_traits@V?$basic_string@DU?$char_traits@D@std@@V?$allocator@D@2@@std@@V?$basic_string@GU?$char_traits@G@std@@V?$allocator@G@2@@2@U?$less@V?$basic_string@DU?$char_traits@D@std@@V?$allocator@D@2@@std@@@2@V?$allocator@U?$pair@$$CBV?$basic_string@DU?$char_traits@D@std@@V?$allocator@D@2@@std@@V?$basic_string@GU?$char_traits@G@std@@V?$allocator@G@2@@2@@std@@@2@$0A@@std@@@std@@QAEXXZ
_TEXT	SEGMENT
_this$ = -4						; size = 4
?clear@?$_Tree@V?$_Tmap_traits@V?$basic_string@DU?$char_traits@D@std@@V?$allocator@D@2@@std@@V?$basic_string@GU?$char_traits@G@std@@V?$allocator@G@2@@2@U?$less@V?$basic_string@DU?$char_traits@D@std@@V?$allocator@D@2@@std@@@2@V?$allocator@U?$pair@$$CBV?$basic_string@DU?$char_traits@D@std@@V?$allocator@D@2@@std@@V?$basic_string@GU?$char_traits@G@std@@V?$allocator@G@2@@2@@std@@@2@$0A@@std@@@std@@QAEXXZ PROC ; std::_Tree<std::_Tmap_traits<std::basic_string<char,std::char_traits<char>,std::allocator<char> >,std::basic_string<unsigned short,std::char_traits<unsigned short>,std::allocator<unsigned short> >,std::less<std::basic_string<char,std::char_traits<char>,std::allocator<char> > >,std::allocator<std::pair<std::basic_string<char,std::char_traits<char>,std::allocator<char> > const ,std::basic_string<unsigned short,std::char_traits<unsigned short>,std::allocator<unsigned short> > > >,0> >::clear, COMDAT
; _this$ = ecx
; Line 965
	push	ebp
	mov	ebp, esp
	push	ecx
	mov	DWORD PTR _this$[ebp], ecx
; Line 971
	mov	ecx, DWORD PTR _this$[ebp]
	call	?_Root@?$_Tree@V?$_Tmap_traits@V?$basic_string@DU?$char_traits@D@std@@V?$allocator@D@2@@std@@V?$basic_string@GU?$char_traits@G@std@@V?$allocator@G@2@@2@U?$less@V?$basic_string@DU?$char_traits@D@std@@V?$allocator@D@2@@std@@@2@V?$allocator@U?$pair@$$CBV?$basic_string@DU?$char_traits@D@std@@V?$allocator@D@2@@std@@V?$basic_string@GU?$char_traits@G@std@@V?$allocator@G@2@@2@@std@@@2@$0A@@std@@@std@@IBEAAPAU_Node@?$_Tree_nod@V?$_Tmap_traits@V?$basic_string@DU?$char_traits@D@std@@V?$allocator@D@2@@std@@V?$basic_string@GU?$char_traits@G@std@@V?$allocator@G@2@@2@U?$less@V?$basic_string@DU?$char_traits@D@std@@V?$allocator@D@2@@std@@@2@V?$allocator@U?$pair@$$CBV?$basic_string@DU?$char_traits@D@std@@V?$allocator@D@2@@std@@V?$basic_string@GU?$char_traits@G@std@@V?$allocator@G@2@@2@@std@@@2@$0A@@std@@@2@XZ ; std::_Tree<std::_Tmap_traits<std::basic_string<char,std::char_traits<char>,std::allocator<char> >,std::basic_string<unsigned short,std::char_traits<unsigned short>,std::allocator<unsigned short> >,std::less<std::basic_string<char,std::char_traits<char>,std::allocator<char> > >,std::allocator<std::pair<std::basic_string<char,std::char_traits<char>,std::allocator<char> > const ,std::basic_string<unsigned short,std::char_traits<unsigned short>,std::allocator<unsigned short> > > >,0> >::_Root
	mov	eax, DWORD PTR [eax]
	push	eax
	mov	ecx, DWORD PTR _this$[ebp]
	call	?_Erase@?$_Tree@V?$_Tmap_traits@V?$basic_string@DU?$char_traits@D@std@@V?$allocator@D@2@@std@@V?$basic_string@GU?$char_traits@G@std@@V?$allocator@G@2@@2@U?$less@V?$basic_string@DU?$char_traits@D@std@@V?$allocator@D@2@@std@@@2@V?$allocator@U?$pair@$$CBV?$basic_string@DU?$char_traits@D@std@@V?$allocator@D@2@@std@@V?$basic_string@GU?$char_traits@G@std@@V?$allocator@G@2@@2@@std@@@2@$0A@@std@@@std@@IAEXPAU_Node@?$_Tree_nod@V?$_Tmap_traits@V?$basic_string@DU?$char_traits@D@std@@V?$allocator@D@2@@std@@V?$basic_string@GU?$char_traits@G@std@@V?$allocator@G@2@@2@U?$less@V?$basic_string@DU?$char_traits@D@std@@V?$allocator@D@2@@std@@@2@V?$allocator@U?$pair@$$CBV?$basic_string@DU?$char_traits@D@std@@V?$allocator@D@2@@std@@V?$basic_string@GU?$char_traits@G@std@@V?$allocator@G@2@@2@@std@@@2@$0A@@std@@@2@@Z ; std::_Tree<std::_Tmap_traits<std::basic_string<char,std::char_traits<char>,std::allocator<char> >,std::basic_string<unsigned short,std::char_traits<unsigned short>,std::allocator<unsigned short> >,std::less<std::basic_string<char,std::char_traits<char>,std::allocator<char> > >,std::allocator<std::pair<std::basic_string<char,std::char_traits<char>,std::allocator<char> > const ,std::basic_string<unsigned short,std::char_traits<unsigned short>,std::allocator<unsigned short> > > >,0> >::_Erase
; Line 972
	mov	ecx, DWORD PTR _this$[ebp]
	call	?_Root@?$_Tree@V?$_Tmap_traits@V?$basic_string@DU?$char_traits@D@std@@V?$allocator@D@2@@std@@V?$basic_string@GU?$char_traits@G@std@@V?$allocator@G@2@@2@U?$less@V?$basic_string@DU?$char_traits@D@std@@V?$allocator@D@2@@std@@@2@V?$allocator@U?$pair@$$CBV?$basic_string@DU?$char_traits@D@std@@V?$allocator@D@2@@std@@V?$basic_string@GU?$char_traits@G@std@@V?$allocator@G@2@@2@@std@@@2@$0A@@std@@@std@@IBEAAPAU_Node@?$_Tree_nod@V?$_Tmap_traits@V?$basic_string@DU?$char_traits@D@std@@V?$allocator@D@2@@std@@V?$basic_string@GU?$char_traits@G@std@@V?$allocator@G@2@@2@U?$less@V?$basic_string@DU?$char_traits@D@std@@V?$allocator@D@2@@std@@@2@V?$allocator@U?$pair@$$CBV?$basic_string@DU?$char_traits@D@std@@V?$allocator@D@2@@std@@V?$basic_string@GU?$char_traits@G@std@@V?$allocator@G@2@@2@@std@@@2@$0A@@std@@@2@XZ ; std::_Tree<std::_Tmap_traits<std::basic_string<char,std::char_traits<char>,std::allocator<char> >,std::basic_string<unsigned short,std::char_traits<unsigned short>,std::allocator<unsigned short> >,std::less<std::basic_string<char,std::char_traits<char>,std::allocator<char> > >,std::allocator<std::pair<std::basic_string<char,std::char_traits<char>,std::allocator<char> > const ,std::basic_string<unsigned short,std::char_traits<unsigned short>,std::allocator<unsigned short> > > >,0> >::_Root
	mov	ecx, DWORD PTR _this$[ebp]
	mov	edx, DWORD PTR [ecx+24]
	mov	DWORD PTR [eax], edx
	mov	eax, DWORD PTR _this$[ebp]
	mov	DWORD PTR [eax+28], 0
; Line 973
	mov	ecx, DWORD PTR _this$[ebp]
	call	?_Lmost@?$_Tree@V?$_Tmap_traits@V?$basic_string@DU?$char_traits@D@std@@V?$allocator@D@2@@std@@V?$basic_string@GU?$char_traits@G@std@@V?$allocator@G@2@@2@U?$less@V?$basic_string@DU?$char_traits@D@std@@V?$allocator@D@2@@std@@@2@V?$allocator@U?$pair@$$CBV?$basic_string@DU?$char_traits@D@std@@V?$allocator@D@2@@std@@V?$basic_string@GU?$char_traits@G@std@@V?$allocator@G@2@@2@@std@@@2@$0A@@std@@@std@@IBEAAPAU_Node@?$_Tree_nod@V?$_Tmap_traits@V?$basic_string@DU?$char_traits@D@std@@V?$allocator@D@2@@std@@V?$basic_string@GU?$char_traits@G@std@@V?$allocator@G@2@@2@U?$less@V?$basic_string@DU?$char_traits@D@std@@V?$allocator@D@2@@std@@@2@V?$allocator@U?$pair@$$CBV?$basic_string@DU?$char_traits@D@std@@V?$allocator@D@2@@std@@V?$basic_string@GU?$char_traits@G@std@@V?$allocator@G@2@@2@@std@@@2@$0A@@std@@@2@XZ ; std::_Tree<std::_Tmap_traits<std::basic_string<char,std::char_traits<char>,std::allocator<char> >,std::basic_string<unsigned short,std::char_traits<unsigned short>,std::allocator<unsigned short> >,std::less<std::basic_string<char,std::char_traits<char>,std::allocator<char> > >,std::allocator<std::pair<std::basic_string<char,std::char_traits<char>,std::allocator<char> > const ,std::basic_string<unsigned short,std::char_traits<unsigned short>,std::allocator<unsigned short> > > >,0> >::_Lmost
	mov	ecx, DWORD PTR _this$[ebp]
	mov	edx, DWORD PTR [ecx+24]
	mov	DWORD PTR [eax], edx
	mov	ecx, DWORD PTR _this$[ebp]
	call	?_Rmost@?$_Tree@V?$_Tmap_traits@V?$basic_string@DU?$char_traits@D@std@@V?$allocator@D@2@@std@@V?$basic_string@GU?$char_traits@G@std@@V?$allocator@G@2@@2@U?$less@V?$basic_string@DU?$char_traits@D@std@@V?$allocator@D@2@@std@@@2@V?$allocator@U?$pair@$$CBV?$basic_string@DU?$char_traits@D@std@@V?$allocator@D@2@@std@@V?$basic_string@GU?$char_traits@G@std@@V?$allocator@G@2@@2@@std@@@2@$0A@@std@@@std@@IBEAAPAU_Node@?$_Tree_nod@V?$_Tmap_traits@V?$basic_string@DU?$char_traits@D@std@@V?$allocator@D@2@@std@@V?$basic_string@GU?$char_traits@G@std@@V?$allocator@G@2@@2@U?$less@V?$basic_string@DU?$char_traits@D@std@@V?$allocator@D@2@@std@@@2@V?$allocator@U?$pair@$$CBV?$basic_string@DU?$char_traits@D@std@@V?$allocator@D@2@@std@@V?$basic_string@GU?$char_traits@G@std@@V?$allocator@G@2@@2@@std@@@2@$0A@@std@@@2@XZ ; std::_Tree<std::_Tmap_traits<std::basic_string<char,std::char_traits<char>,std::allocator<char> >,std::basic_string<unsigned short,std::char_traits<unsigned short>,std::allocator<unsigned short> >,std::less<std::basic_string<char,std::char_traits<char>,std::allocator<char> > >,std::allocator<std::pair<std::basic_string<char,std::char_traits<char>,std::allocator<char> > const ,std::basic_string<unsigned short,std::char_traits<unsigned short>,std::allocator<unsigned short> > > >,0> >::_Rmost
	mov	ecx, DWORD PTR _this$[ebp]
	mov	edx, DWORD PTR [ecx+24]
	mov	DWORD PTR [eax], edx
; Line 974
	mov	esp, ebp
	pop	ebp
	ret	0
?clear@?$_Tree@V?$_Tmap_traits@V?$basic_string@DU?$char_traits@D@std@@V?$allocator@D@2@@std@@V?$basic_string@GU?$char_traits@G@std@@V?$allocator@G@2@@2@U?$less@V?$basic_string@DU?$char_traits@D@std@@V?$allocator@D@2@@std@@@2@V?$allocator@U?$pair@$$CBV?$basic_string@DU?$char_traits@D@std@@V?$allocator@D@2@@std@@V?$basic_string@GU?$char_traits@G@std@@V?$allocator@G@2@@2@@std@@@2@$0A@@std@@@std@@QAEXXZ ENDP ; std::_Tree<std::_Tmap_traits<std::basic_string<char,std::char_traits<char>,std::allocator<char> >,std::basic_string<unsigned short,std::char_traits<unsigned short>,std::allocator<unsigned short> >,std::less<std::basic_string<char,std::char_traits<char>,std::allocator<char> > >,std::allocator<std::pair<std::basic_string<char,std::char_traits<char>,std::allocator<char> > const ,std::basic_string<unsigned short,std::char_traits<unsigned short>,std::allocator<unsigned short> > > >,0> >::clear
; Function compile flags: /Odtp
_TEXT	ENDS
;	COMDAT ?find@?$_Tree@V?$_Tmap_traits@V?$basic_string@DU?$char_traits@D@std@@V?$allocator@D@2@@std@@V?$basic_string@GU?$char_traits@G@std@@V?$allocator@G@2@@2@U?$less@V?$basic_string@DU?$char_traits@D@std@@V?$allocator@D@2@@std@@@2@V?$allocator@U?$pair@$$CBV?$basic_string@DU?$char_traits@D@std@@V?$allocator@D@2@@std@@V?$basic_string@GU?$char_traits@G@std@@V?$allocator@G@2@@2@@std@@@2@$0A@@std@@@std@@QAE?AViterator@12@ABV?$basic_string@DU?$char_traits@D@std@@V?$allocator@D@2@@2@@Z
_TEXT	SEGMENT
tv137 = -36						; size = 4
_this$ = -32						; size = 4
$T145990 = -28						; size = 8
$T145988 = -20						; size = 8
$T145987 = -12						; size = 4
__Where$ = -8						; size = 8
___$ReturnUdt$ = 8					; size = 4
__Keyval$ = 12						; size = 4
?find@?$_Tree@V?$_Tmap_traits@V?$basic_string@DU?$char_traits@D@std@@V?$allocator@D@2@@std@@V?$basic_string@GU?$char_traits@G@std@@V?$allocator@G@2@@2@U?$less@V?$basic_string@DU?$char_traits@D@std@@V?$allocator@D@2@@std@@@2@V?$allocator@U?$pair@$$CBV?$basic_string@DU?$char_traits@D@std@@V?$allocator@D@2@@std@@V?$basic_string@GU?$char_traits@G@std@@V?$allocator@G@2@@2@@std@@@2@$0A@@std@@@std@@QAE?AViterator@12@ABV?$basic_string@DU?$char_traits@D@std@@V?$allocator@D@2@@2@@Z PROC ; std::_Tree<std::_Tmap_traits<std::basic_string<char,std::char_traits<char>,std::allocator<char> >,std::basic_string<unsigned short,std::char_traits<unsigned short>,std::allocator<unsigned short> >,std::less<std::basic_string<char,std::char_traits<char>,std::allocator<char> > >,std::allocator<std::pair<std::basic_string<char,std::char_traits<char>,std::allocator<char> > const ,std::basic_string<unsigned short,std::char_traits<unsigned short>,std::allocator<unsigned short> > > >,0> >::find, COMDAT
; _this$ = ecx
; Line 977
	push	ebp
	mov	ebp, esp
	sub	esp, 36					; 00000024H
	mov	DWORD PTR _this$[ebp], ecx
; Line 978
	mov	eax, DWORD PTR __Keyval$[ebp]
	push	eax
	lea	ecx, DWORD PTR __Where$[ebp]
	push	ecx
	mov	ecx, DWORD PTR _this$[ebp]
	call	?lower_bound@?$_Tree@V?$_Tmap_traits@V?$basic_string@DU?$char_traits@D@std@@V?$allocator@D@2@@std@@V?$basic_string@GU?$char_traits@G@std@@V?$allocator@G@2@@2@U?$less@V?$basic_string@DU?$char_traits@D@std@@V?$allocator@D@2@@std@@@2@V?$allocator@U?$pair@$$CBV?$basic_string@DU?$char_traits@D@std@@V?$allocator@D@2@@std@@V?$basic_string@GU?$char_traits@G@std@@V?$allocator@G@2@@2@@std@@@2@$0A@@std@@@std@@QAE?AViterator@12@ABV?$basic_string@DU?$char_traits@D@std@@V?$allocator@D@2@@2@@Z ; std::_Tree<std::_Tmap_traits<std::basic_string<char,std::char_traits<char>,std::allocator<char> >,std::basic_string<unsigned short,std::char_traits<unsigned short>,std::allocator<unsigned short> >,std::less<std::basic_string<char,std::char_traits<char>,std::allocator<char> > >,std::allocator<std::pair<std::basic_string<char,std::char_traits<char>,std::allocator<char> > const ,std::basic_string<unsigned short,std::char_traits<unsigned short>,std::allocator<unsigned short> > > >,0> >::lower_bound
; Line 982
	lea	edx, DWORD PTR $T145988[ebp]
	push	edx
	mov	ecx, DWORD PTR _this$[ebp]
	call	?end@?$_Tree@V?$_Tmap_traits@V?$basic_string@DU?$char_traits@D@std@@V?$allocator@D@2@@std@@V?$basic_string@GU?$char_traits@G@std@@V?$allocator@G@2@@2@U?$less@V?$basic_string@DU?$char_traits@D@std@@V?$allocator@D@2@@std@@@2@V?$allocator@U?$pair@$$CBV?$basic_string@DU?$char_traits@D@std@@V?$allocator@D@2@@std@@V?$basic_string@GU?$char_traits@G@std@@V?$allocator@G@2@@2@@std@@@2@$0A@@std@@@std@@QAE?AViterator@12@XZ ; std::_Tree<std::_Tmap_traits<std::basic_string<char,std::char_traits<char>,std::allocator<char> >,std::basic_string<unsigned short,std::char_traits<unsigned short>,std::allocator<unsigned short> >,std::less<std::basic_string<char,std::char_traits<char>,std::allocator<char> > >,std::allocator<std::pair<std::basic_string<char,std::char_traits<char>,std::allocator<char> > const ,std::basic_string<unsigned short,std::char_traits<unsigned short>,std::allocator<unsigned short> > > >,0> >::end
	push	eax
	lea	ecx, DWORD PTR __Where$[ebp]
	call	??8const_iterator@?$_Tree@V?$_Tmap_traits@V?$basic_string@DU?$char_traits@D@std@@V?$allocator@D@2@@std@@V?$basic_string@GU?$char_traits@G@std@@V?$allocator@G@2@@2@U?$less@V?$basic_string@DU?$char_traits@D@std@@V?$allocator@D@2@@std@@@2@V?$allocator@U?$pair@$$CBV?$basic_string@DU?$char_traits@D@std@@V?$allocator@D@2@@std@@V?$basic_string@GU?$char_traits@G@std@@V?$allocator@G@2@@2@@std@@@2@$0A@@std@@@std@@QBE_NABV012@@Z ; std::_Tree<std::_Tmap_traits<std::basic_string<char,std::char_traits<char>,std::allocator<char> >,std::basic_string<unsigned short,std::char_traits<unsigned short>,std::allocator<unsigned short> >,std::less<std::basic_string<char,std::char_traits<char>,std::allocator<char> > >,std::allocator<std::pair<std::basic_string<char,std::char_traits<char>,std::allocator<char> > const ,std::basic_string<unsigned short,std::char_traits<unsigned short>,std::allocator<unsigned short> > > >,0> >::const_iterator::operator==
	movzx	eax, al
	test	eax, eax
	jne	SHORT $LN3@find
	lea	ecx, DWORD PTR __Where$[ebp]
	call	?_Mynode@const_iterator@?$_Tree@V?$_Tmap_traits@V?$basic_string@DU?$char_traits@D@std@@V?$allocator@D@2@@std@@V?$basic_string@GU?$char_traits@G@std@@V?$allocator@G@2@@2@U?$less@V?$basic_string@DU?$char_traits@D@std@@V?$allocator@D@2@@std@@@2@V?$allocator@U?$pair@$$CBV?$basic_string@DU?$char_traits@D@std@@V?$allocator@D@2@@std@@V?$basic_string@GU?$char_traits@G@std@@V?$allocator@G@2@@2@@std@@@2@$0A@@std@@@std@@QBEPAU_Node@?$_Tree_nod@V?$_Tmap_traits@V?$basic_string@DU?$char_traits@D@std@@V?$allocator@D@2@@std@@V?$basic_string@GU?$char_traits@G@std@@V?$allocator@G@2@@2@U?$less@V?$basic_string@DU?$char_traits@D@std@@V?$allocator@D@2@@std@@@2@V?$allocator@U?$pair@$$CBV?$basic_string@DU?$char_traits@D@std@@V?$allocator@D@2@@std@@V?$basic_string@GU?$char_traits@G@std@@V?$allocator@G@2@@2@@std@@@2@$0A@@std@@@3@XZ ; std::_Tree<std::_Tmap_traits<std::basic_string<char,std::char_traits<char>,std::allocator<char> >,std::basic_string<unsigned short,std::char_traits<unsigned short>,std::allocator<unsigned short> >,std::less<std::basic_string<char,std::char_traits<char>,std::allocator<char> > >,std::allocator<std::pair<std::basic_string<char,std::char_traits<char>,std::allocator<char> > const ,std::basic_string<unsigned short,std::char_traits<unsigned short>,std::allocator<unsigned short> > > >,0> >::const_iterator::_Mynode
	push	eax
	call	?_Key@?$_Tree@V?$_Tmap_traits@V?$basic_string@DU?$char_traits@D@std@@V?$allocator@D@2@@std@@V?$basic_string@GU?$char_traits@G@std@@V?$allocator@G@2@@2@U?$less@V?$basic_string@DU?$char_traits@D@std@@V?$allocator@D@2@@std@@@2@V?$allocator@U?$pair@$$CBV?$basic_string@DU?$char_traits@D@std@@V?$allocator@D@2@@std@@V?$basic_string@GU?$char_traits@G@std@@V?$allocator@G@2@@2@@std@@@2@$0A@@std@@@std@@KAABV?$basic_string@DU?$char_traits@D@std@@V?$allocator@D@2@@2@PAU_Node@?$_Tree_nod@V?$_Tmap_traits@V?$basic_string@DU?$char_traits@D@std@@V?$allocator@D@2@@std@@V?$basic_string@GU?$char_traits@G@std@@V?$allocator@G@2@@2@U?$less@V?$basic_string@DU?$char_traits@D@std@@V?$allocator@D@2@@std@@@2@V?$allocator@U?$pair@$$CBV?$basic_string@DU?$char_traits@D@std@@V?$allocator@D@2@@std@@V?$basic_string@GU?$char_traits@G@std@@V?$allocator@G@2@@2@@std@@@2@$0A@@std@@@2@@Z ; std::_Tree<std::_Tmap_traits<std::basic_string<char,std::char_traits<char>,std::allocator<char> >,std::basic_string<unsigned short,std::char_traits<unsigned short>,std::allocator<unsigned short> >,std::less<std::basic_string<char,std::char_traits<char>,std::allocator<char> > >,std::allocator<std::pair<std::basic_string<char,std::char_traits<char>,std::allocator<char> > const ,std::basic_string<unsigned short,std::char_traits<unsigned short>,std::allocator<unsigned short> > > >,0> >::_Key
	add	esp, 4
	push	eax
	mov	ecx, DWORD PTR __Keyval$[ebp]
	push	ecx
	mov	ecx, DWORD PTR _this$[ebp]
	add	ecx, 8
	call	??R?$less@V?$basic_string@DU?$char_traits@D@std@@V?$allocator@D@2@@std@@@std@@QBE_NABV?$basic_string@DU?$char_traits@D@std@@V?$allocator@D@2@@1@0@Z ; std::less<std::basic_string<char,std::char_traits<char>,std::allocator<char> > >::operator()
	movzx	edx, al
	test	edx, edx
	jne	SHORT $LN3@find
	lea	eax, DWORD PTR __Where$[ebp]
	mov	DWORD PTR tv137[ebp], eax
	jmp	SHORT $LN4@find
$LN3@find:
	lea	ecx, DWORD PTR $T145990[ebp]
	push	ecx
	mov	ecx, DWORD PTR _this$[ebp]
	call	?end@?$_Tree@V?$_Tmap_traits@V?$basic_string@DU?$char_traits@D@std@@V?$allocator@D@2@@std@@V?$basic_string@GU?$char_traits@G@std@@V?$allocator@G@2@@2@U?$less@V?$basic_string@DU?$char_traits@D@std@@V?$allocator@D@2@@std@@@2@V?$allocator@U?$pair@$$CBV?$basic_string@DU?$char_traits@D@std@@V?$allocator@D@2@@std@@V?$basic_string@GU?$char_traits@G@std@@V?$allocator@G@2@@2@@std@@@2@$0A@@std@@@std@@QAE?AViterator@12@XZ ; std::_Tree<std::_Tmap_traits<std::basic_string<char,std::char_traits<char>,std::allocator<char> >,std::basic_string<unsigned short,std::char_traits<unsigned short>,std::allocator<unsigned short> >,std::less<std::basic_string<char,std::char_traits<char>,std::allocator<char> > >,std::allocator<std::pair<std::basic_string<char,std::char_traits<char>,std::allocator<char> > const ,std::basic_string<unsigned short,std::char_traits<unsigned short>,std::allocator<unsigned short> > > >,0> >::end
	mov	DWORD PTR tv137[ebp], eax
$LN4@find:
	mov	edx, DWORD PTR tv137[ebp]
	mov	DWORD PTR $T145987[ebp], edx
	mov	eax, DWORD PTR $T145987[ebp]
	mov	ecx, DWORD PTR [eax]
	mov	edx, DWORD PTR [eax+4]
	mov	eax, DWORD PTR ___$ReturnUdt$[ebp]
	mov	DWORD PTR [eax], ecx
	mov	DWORD PTR [eax+4], edx
	mov	eax, DWORD PTR ___$ReturnUdt$[ebp]
; Line 983
	mov	esp, ebp
	pop	ebp
	ret	8
?find@?$_Tree@V?$_Tmap_traits@V?$basic_string@DU?$char_traits@D@std@@V?$allocator@D@2@@std@@V?$basic_string@GU?$char_traits@G@std@@V?$allocator@G@2@@2@U?$less@V?$basic_string@DU?$char_traits@D@std@@V?$allocator@D@2@@std@@@2@V?$allocator@U?$pair@$$CBV?$basic_string@DU?$char_traits@D@std@@V?$allocator@D@2@@std@@V?$basic_string@GU?$char_traits@G@std@@V?$allocator@G@2@@2@@std@@@2@$0A@@std@@@std@@QAE?AViterator@12@ABV?$basic_string@DU?$char_traits@D@std@@V?$allocator@D@2@@2@@Z ENDP ; std::_Tree<std::_Tmap_traits<std::basic_string<char,std::char_traits<char>,std::allocator<char> >,std::basic_string<unsigned short,std::char_traits<unsigned short>,std::allocator<unsigned short> >,std::less<std::basic_string<char,std::char_traits<char>,std::allocator<char> > >,std::allocator<std::pair<std::basic_string<char,std::char_traits<char>,std::allocator<char> > const ,std::basic_string<unsigned short,std::char_traits<unsigned short>,std::allocator<unsigned short> > > >,0> >::find
; Function compile flags: /Odtp
_TEXT	ENDS
;	COMDAT ??Citerator@?$_Tree@V?$_Tmap_traits@V?$basic_string@DU?$char_traits@D@std@@V?$allocator@D@2@@std@@V?$basic_string@GU?$char_traits@G@std@@V?$allocator@G@2@@2@U?$less@V?$basic_string@DU?$char_traits@D@std@@V?$allocator@D@2@@std@@@2@V?$allocator@U?$pair@$$CBV?$basic_string@DU?$char_traits@D@std@@V?$allocator@D@2@@std@@V?$basic_string@GU?$char_traits@G@std@@V?$allocator@G@2@@2@@std@@@2@$0A@@std@@@std@@QBEPAU?$pair@$$CBV?$basic_string@DU?$char_traits@D@std@@V?$allocator@D@2@@std@@V?$basic_string@GU?$char_traits@G@std@@V?$allocator@G@2@@2@@2@XZ
_TEXT	SEGMENT
_this$ = -4						; size = 4
??Citerator@?$_Tree@V?$_Tmap_traits@V?$basic_string@DU?$char_traits@D@std@@V?$allocator@D@2@@std@@V?$basic_string@GU?$char_traits@G@std@@V?$allocator@G@2@@2@U?$less@V?$basic_string@DU?$char_traits@D@std@@V?$allocator@D@2@@std@@@2@V?$allocator@U?$pair@$$CBV?$basic_string@DU?$char_traits@D@std@@V?$allocator@D@2@@std@@V?$basic_string@GU?$char_traits@G@std@@V?$allocator@G@2@@2@@std@@@2@$0A@@std@@@std@@QBEPAU?$pair@$$CBV?$basic_string@DU?$char_traits@D@std@@V?$allocator@D@2@@std@@V?$basic_string@GU?$char_traits@G@std@@V?$allocator@G@2@@2@@2@XZ PROC ; std::_Tree<std::_Tmap_traits<std::basic_string<char,std::char_traits<char>,std::allocator<char> >,std::basic_string<unsigned short,std::char_traits<unsigned short>,std::allocator<unsigned short> >,std::less<std::basic_string<char,std::char_traits<char>,std::allocator<char> > >,std::allocator<std::pair<std::basic_string<char,std::char_traits<char>,std::allocator<char> > const ,std::basic_string<unsigned short,std::char_traits<unsigned short>,std::allocator<unsigned short> > > >,0> >::iterator::operator->, COMDAT
; _this$ = ecx
; Line 469
	push	ebp
	mov	ebp, esp
	push	ecx
	mov	DWORD PTR _this$[ebp], ecx
; Line 470
	mov	ecx, DWORD PTR _this$[ebp]
	call	??Diterator@?$_Tree@V?$_Tmap_traits@V?$basic_string@DU?$char_traits@D@std@@V?$allocator@D@2@@std@@V?$basic_string@GU?$char_traits@G@std@@V?$allocator@G@2@@2@U?$less@V?$basic_string@DU?$char_traits@D@std@@V?$allocator@D@2@@std@@@2@V?$allocator@U?$pair@$$CBV?$basic_string@DU?$char_traits@D@std@@V?$allocator@D@2@@std@@V?$basic_string@GU?$char_traits@G@std@@V?$allocator@G@2@@2@@std@@@2@$0A@@std@@@std@@QBEAAU?$pair@$$CBV?$basic_string@DU?$char_traits@D@std@@V?$allocator@D@2@@std@@V?$basic_string@GU?$char_traits@G@std@@V?$allocator@G@2@@2@@2@XZ ; std::_Tree<std::_Tmap_traits<std::basic_string<char,std::char_traits<char>,std::allocator<char> >,std::basic_string<unsigned short,std::char_traits<unsigned short>,std::allocator<unsigned short> >,std::less<std::basic_string<char,std::char_traits<char>,std::allocator<char> > >,std::allocator<std::pair<std::basic_string<char,std::char_traits<char>,std::allocator<char> > const ,std::basic_string<unsigned short,std::char_traits<unsigned short>,std::allocator<unsigned short> > > >,0> >::iterator::operator*
; Line 471
	mov	esp, ebp
	pop	ebp
	ret	0
??Citerator@?$_Tree@V?$_Tmap_traits@V?$basic_string@DU?$char_traits@D@std@@V?$allocator@D@2@@std@@V?$basic_string@GU?$char_traits@G@std@@V?$allocator@G@2@@2@U?$less@V?$basic_string@DU?$char_traits@D@std@@V?$allocator@D@2@@std@@@2@V?$allocator@U?$pair@$$CBV?$basic_string@DU?$char_traits@D@std@@V?$allocator@D@2@@std@@V?$basic_string@GU?$char_traits@G@std@@V?$allocator@G@2@@2@@std@@@2@$0A@@std@@@std@@QBEPAU?$pair@$$CBV?$basic_string@DU?$char_traits@D@std@@V?$allocator@D@2@@std@@V?$basic_string@GU?$char_traits@G@std@@V?$allocator@G@2@@2@@2@XZ ENDP ; std::_Tree<std::_Tmap_traits<std::basic_string<char,std::char_traits<char>,std::allocator<char> >,std::basic_string<unsigned short,std::char_traits<unsigned short>,std::allocator<unsigned short> >,std::less<std::basic_string<char,std::char_traits<char>,std::allocator<char> > >,std::allocator<std::pair<std::basic_string<char,std::char_traits<char>,std::allocator<char> > const ,std::basic_string<unsigned short,std::char_traits<unsigned short>,std::allocator<unsigned short> > > >,0> >::iterator::operator->
_TEXT	ENDS
PUBLIC	??Eiterator@?$_Tree@V?$_Tmap_traits@V?$basic_string@DU?$char_traits@D@std@@V?$allocator@D@2@@std@@V?$basic_string@GU?$char_traits@G@std@@V?$allocator@G@2@@2@U?$less@V?$basic_string@DU?$char_traits@D@std@@V?$allocator@D@2@@std@@@2@V?$allocator@U?$pair@$$CBV?$basic_string@DU?$char_traits@D@std@@V?$allocator@D@2@@std@@V?$basic_string@GU?$char_traits@G@std@@V?$allocator@G@2@@2@@std@@@2@$0A@@std@@@std@@QAEAAV012@XZ ; std::_Tree<std::_Tmap_traits<std::basic_string<char,std::char_traits<char>,std::allocator<char> >,std::basic_string<unsigned short,std::char_traits<unsigned short>,std::allocator<unsigned short> >,std::less<std::basic_string<char,std::char_traits<char>,std::allocator<char> > >,std::allocator<std::pair<std::basic_string<char,std::char_traits<char>,std::allocator<char> > const ,std::basic_string<unsigned short,std::char_traits<unsigned short>,std::allocator<unsigned short> > > >,0> >::iterator::operator++
; Function compile flags: /Odtp
;	COMDAT ??Eiterator@?$_Tree@V?$_Tmap_traits@V?$basic_string@DU?$char_traits@D@std@@V?$allocator@D@2@@std@@V?$basic_string@GU?$char_traits@G@std@@V?$allocator@G@2@@2@U?$less@V?$basic_string@DU?$char_traits@D@std@@V?$allocator@D@2@@std@@@2@V?$allocator@U?$pair@$$CBV?$basic_string@DU?$char_traits@D@std@@V?$allocator@D@2@@std@@V?$basic_string@GU?$char_traits@G@std@@V?$allocator@G@2@@2@@std@@@2@$0A@@std@@@std@@QAE?AV012@H@Z
_TEXT	SEGMENT
_this$ = -12						; size = 4
__Tmp$ = -8						; size = 8
___$ReturnUdt$ = 8					; size = 4
___formal$ = 12						; size = 4
??Eiterator@?$_Tree@V?$_Tmap_traits@V?$basic_string@DU?$char_traits@D@std@@V?$allocator@D@2@@std@@V?$basic_string@GU?$char_traits@G@std@@V?$allocator@G@2@@2@U?$less@V?$basic_string@DU?$char_traits@D@std@@V?$allocator@D@2@@std@@@2@V?$allocator@U?$pair@$$CBV?$basic_string@DU?$char_traits@D@std@@V?$allocator@D@2@@std@@V?$basic_string@GU?$char_traits@G@std@@V?$allocator@G@2@@2@@std@@@2@$0A@@std@@@std@@QAE?AV012@H@Z PROC ; std::_Tree<std::_Tmap_traits<std::basic_string<char,std::char_traits<char>,std::allocator<char> >,std::basic_string<unsigned short,std::char_traits<unsigned short>,std::allocator<unsigned short> >,std::less<std::basic_string<char,std::char_traits<char>,std::allocator<char> > >,std::allocator<std::pair<std::basic_string<char,std::char_traits<char>,std::allocator<char> > const ,std::basic_string<unsigned short,std::char_traits<unsigned short>,std::allocator<unsigned short> > > >,0> >::iterator::operator++, COMDAT
; _this$ = ecx
; Line 480
	push	ebp
	mov	ebp, esp
	sub	esp, 12					; 0000000cH
	mov	DWORD PTR _this$[ebp], ecx
; Line 481
	mov	eax, DWORD PTR _this$[ebp]
	mov	ecx, DWORD PTR [eax]
	mov	edx, DWORD PTR [eax+4]
	mov	DWORD PTR __Tmp$[ebp], ecx
	mov	DWORD PTR __Tmp$[ebp+4], edx
; Line 482
	mov	ecx, DWORD PTR _this$[ebp]
	call	??Eiterator@?$_Tree@V?$_Tmap_traits@V?$basic_string@DU?$char_traits@D@std@@V?$allocator@D@2@@std@@V?$basic_string@GU?$char_traits@G@std@@V?$allocator@G@2@@2@U?$less@V?$basic_string@DU?$char_traits@D@std@@V?$allocator@D@2@@std@@@2@V?$allocator@U?$pair@$$CBV?$basic_string@DU?$char_traits@D@std@@V?$allocator@D@2@@std@@V?$basic_string@GU?$char_traits@G@std@@V?$allocator@G@2@@2@@std@@@2@$0A@@std@@@std@@QAEAAV012@XZ ; std::_Tree<std::_Tmap_traits<std::basic_string<char,std::char_traits<char>,std::allocator<char> >,std::basic_string<unsigned short,std::char_traits<unsigned short>,std::allocator<unsigned short> >,std::less<std::basic_string<char,std::char_traits<char>,std::allocator<char> > >,std::allocator<std::pair<std::basic_string<char,std::char_traits<char>,std::allocator<char> > const ,std::basic_string<unsigned short,std::char_traits<unsigned short>,std::allocator<unsigned short> > > >,0> >::iterator::operator++
; Line 483
	mov	eax, DWORD PTR ___$ReturnUdt$[ebp]
	mov	ecx, DWORD PTR __Tmp$[ebp]
	mov	DWORD PTR [eax], ecx
	mov	edx, DWORD PTR __Tmp$[ebp+4]
	mov	DWORD PTR [eax+4], edx
	mov	eax, DWORD PTR ___$ReturnUdt$[ebp]
; Line 484
	mov	esp, ebp
	pop	ebp
	ret	8
??Eiterator@?$_Tree@V?$_Tmap_traits@V?$basic_string@DU?$char_traits@D@std@@V?$allocator@D@2@@std@@V?$basic_string@GU?$char_traits@G@std@@V?$allocator@G@2@@2@U?$less@V?$basic_string@DU?$char_traits@D@std@@V?$allocator@D@2@@std@@@2@V?$allocator@U?$pair@$$CBV?$basic_string@DU?$char_traits@D@std@@V?$allocator@D@2@@std@@V?$basic_string@GU?$char_traits@G@std@@V?$allocator@G@2@@2@@std@@@2@$0A@@std@@@std@@QAE?AV012@H@Z ENDP ; std::_Tree<std::_Tmap_traits<std::basic_string<char,std::char_traits<char>,std::allocator<char> >,std::basic_string<unsigned short,std::char_traits<unsigned short>,std::allocator<unsigned short> >,std::less<std::basic_string<char,std::char_traits<char>,std::allocator<char> > >,std::allocator<std::pair<std::basic_string<char,std::char_traits<char>,std::allocator<char> > const ,std::basic_string<unsigned short,std::char_traits<unsigned short>,std::allocator<unsigned short> > > >,0> >::iterator::operator++
; Function compile flags: /Odtp
_TEXT	ENDS
;	COMDAT ??9const_iterator@?$_Tree@V?$_Tmap_traits@V?$basic_string@DU?$char_traits@D@std@@V?$allocator@D@2@@std@@V?$basic_string@GU?$char_traits@G@std@@V?$allocator@G@2@@2@U?$less@V?$basic_string@DU?$char_traits@D@std@@V?$allocator@D@2@@std@@@2@V?$allocator@U?$pair@$$CBV?$basic_string@DU?$char_traits@D@std@@V?$allocator@D@2@@std@@V?$basic_string@GU?$char_traits@G@std@@V?$allocator@G@2@@2@@std@@@2@$0A@@std@@@std@@QBE_NABV012@@Z
_TEXT	SEGMENT
_this$ = -4						; size = 4
__Right$ = 8						; size = 4
??9const_iterator@?$_Tree@V?$_Tmap_traits@V?$basic_string@DU?$char_traits@D@std@@V?$allocator@D@2@@std@@V?$basic_string@GU?$char_traits@G@std@@V?$allocator@G@2@@2@U?$less@V?$basic_string@DU?$char_traits@D@std@@V?$allocator@D@2@@std@@@2@V?$allocator@U?$pair@$$CBV?$basic_string@DU?$char_traits@D@std@@V?$allocator@D@2@@std@@V?$basic_string@GU?$char_traits@G@std@@V?$allocator@G@2@@2@@std@@@2@$0A@@std@@@std@@QBE_NABV012@@Z PROC ; std::_Tree<std::_Tmap_traits<std::basic_string<char,std::char_traits<char>,std::allocator<char> >,std::basic_string<unsigned short,std::char_traits<unsigned short>,std::allocator<unsigned short> >,std::less<std::basic_string<char,std::char_traits<char>,std::allocator<char> > >,std::allocator<std::pair<std::basic_string<char,std::char_traits<char>,std::allocator<char> > const ,std::basic_string<unsigned short,std::char_traits<unsigned short>,std::allocator<unsigned short> > > >,0> >::const_iterator::operator!=, COMDAT
; _this$ = ecx
; Line 315
	push	ebp
	mov	ebp, esp
	push	ecx
	mov	DWORD PTR _this$[ebp], ecx
; Line 316
	mov	eax, DWORD PTR __Right$[ebp]
	push	eax
	mov	ecx, DWORD PTR _this$[ebp]
	call	??8const_iterator@?$_Tree@V?$_Tmap_traits@V?$basic_string@DU?$char_traits@D@std@@V?$allocator@D@2@@std@@V?$basic_string@GU?$char_traits@G@std@@V?$allocator@G@2@@2@U?$less@V?$basic_string@DU?$char_traits@D@std@@V?$allocator@D@2@@std@@@2@V?$allocator@U?$pair@$$CBV?$basic_string@DU?$char_traits@D@std@@V?$allocator@D@2@@std@@V?$basic_string@GU?$char_traits@G@std@@V?$allocator@G@2@@2@@std@@@2@$0A@@std@@@std@@QBE_NABV012@@Z ; std::_Tree<std::_Tmap_traits<std::basic_string<char,std::char_traits<char>,std::allocator<char> >,std::basic_string<unsigned short,std::char_traits<unsigned short>,std::allocator<unsigned short> >,std::less<std::basic_string<char,std::char_traits<char>,std::allocator<char> > >,std::allocator<std::pair<std::basic_string<char,std::char_traits<char>,std::allocator<char> > const ,std::basic_string<unsigned short,std::char_traits<unsigned short>,std::allocator<unsigned short> > > >,0> >::const_iterator::operator==
	movzx	eax, al
	neg	eax
	sbb	eax, eax
	add	eax, 1
; Line 317
	mov	esp, ebp
	pop	ebp
	ret	4
??9const_iterator@?$_Tree@V?$_Tmap_traits@V?$basic_string@DU?$char_traits@D@std@@V?$allocator@D@2@@std@@V?$basic_string@GU?$char_traits@G@std@@V?$allocator@G@2@@2@U?$less@V?$basic_string@DU?$char_traits@D@std@@V?$allocator@D@2@@std@@@2@V?$allocator@U?$pair@$$CBV?$basic_string@DU?$char_traits@D@std@@V?$allocator@D@2@@std@@V?$basic_string@GU?$char_traits@G@std@@V?$allocator@G@2@@2@@std@@@2@$0A@@std@@@std@@QBE_NABV012@@Z ENDP ; std::_Tree<std::_Tmap_traits<std::basic_string<char,std::char_traits<char>,std::allocator<char> >,std::basic_string<unsigned short,std::char_traits<unsigned short>,std::allocator<unsigned short> >,std::less<std::basic_string<char,std::char_traits<char>,std::allocator<char> > >,std::allocator<std::pair<std::basic_string<char,std::char_traits<char>,std::allocator<char> > const ,std::basic_string<unsigned short,std::char_traits<unsigned short>,std::allocator<unsigned short> > > >,0> >::const_iterator::operator!=
_TEXT	ENDS
;	COMDAT xdata$x
xdata$x	SEGMENT
__unwindtable$??1?$pair@$$CBV?$basic_string@DU?$char_traits@D@std@@V?$allocator@D@2@@std@@V?$basic_string@GU?$char_traits@G@std@@V?$allocator@G@2@@2@@std@@QAE@XZ DD 0ffffffffH
	DD	FLAT:__unwindfunclet$??1?$pair@$$CBV?$basic_string@DU?$char_traits@D@std@@V?$allocator@D@2@@std@@V?$basic_string@GU?$char_traits@G@std@@V?$allocator@G@2@@2@@std@@QAE@XZ$0
	DD	00H
	DD	FLAT:__unwindfunclet$??1?$pair@$$CBV?$basic_string@DU?$char_traits@D@std@@V?$allocator@D@2@@std@@V?$basic_string@GU?$char_traits@G@std@@V?$allocator@G@2@@2@@std@@QAE@XZ$1
__ehfuncinfo$??1?$pair@$$CBV?$basic_string@DU?$char_traits@D@std@@V?$allocator@D@2@@std@@V?$basic_string@GU?$char_traits@G@std@@V?$allocator@G@2@@2@@std@@QAE@XZ DD 019930522H
	DD	02H
	DD	FLAT:__unwindtable$??1?$pair@$$CBV?$basic_string@DU?$char_traits@D@std@@V?$allocator@D@2@@std@@V?$basic_string@GU?$char_traits@G@std@@V?$allocator@G@2@@2@@std@@QAE@XZ
	DD	2 DUP(00H)
	DD	2 DUP(00H)
	DD	00H
	DD	00H
; Function compile flags: /Odtp
xdata$x	ENDS
;	COMDAT ??1?$pair@$$CBV?$basic_string@DU?$char_traits@D@std@@V?$allocator@D@2@@std@@V?$basic_string@GU?$char_traits@G@std@@V?$allocator@G@2@@2@@std@@QAE@XZ
_TEXT	SEGMENT
_this$ = -16						; size = 4
__$EHRec$ = -12						; size = 12
??1?$pair@$$CBV?$basic_string@DU?$char_traits@D@std@@V?$allocator@D@2@@std@@V?$basic_string@GU?$char_traits@G@std@@V?$allocator@G@2@@2@@std@@QAE@XZ PROC ; std::pair<std::basic_string<char,std::char_traits<char>,std::allocator<char> > const ,std::basic_string<unsigned short,std::char_traits<unsigned short>,std::allocator<unsigned short> > >::~pair<std::basic_string<char,std::char_traits<char>,std::allocator<char> > const ,std::basic_string<unsigned short,std::char_traits<unsigned short>,std::allocator<unsigned short> > >, COMDAT
; _this$ = ecx
	push	ebp
	mov	ebp, esp
	push	-1
	push	__ehhandler$??1?$pair@$$CBV?$basic_string@DU?$char_traits@D@std@@V?$allocator@D@2@@std@@V?$basic_string@GU?$char_traits@G@std@@V?$allocator@G@2@@2@@std@@QAE@XZ
	mov	eax, DWORD PTR fs:0
	push	eax
	push	ecx
	mov	eax, DWORD PTR ___security_cookie
	xor	eax, ebp
	push	eax
	lea	eax, DWORD PTR __$EHRec$[ebp]
	mov	DWORD PTR fs:0, eax
	mov	DWORD PTR _this$[ebp], ecx
	mov	DWORD PTR __$EHRec$[ebp+8], 1
	mov	BYTE PTR __$EHRec$[ebp+8], 0
	mov	ecx, DWORD PTR _this$[ebp]
	add	ecx, 28					; 0000001cH
	call	DWORD PTR __imp_??1?$basic_string@GU?$char_traits@G@std@@V?$allocator@G@2@@std@@QAE@XZ
	mov	DWORD PTR __$EHRec$[ebp+8], -1
	mov	ecx, DWORD PTR _this$[ebp]
	call	DWORD PTR __imp_??1?$basic_string@DU?$char_traits@D@std@@V?$allocator@D@2@@std@@QAE@XZ
	mov	ecx, DWORD PTR __$EHRec$[ebp]
	mov	DWORD PTR fs:0, ecx
	pop	ecx
	mov	esp, ebp
	pop	ebp
	ret	0
_TEXT	ENDS
;	COMDAT text$x
text$x	SEGMENT
__unwindfunclet$??1?$pair@$$CBV?$basic_string@DU?$char_traits@D@std@@V?$allocator@D@2@@std@@V?$basic_string@GU?$char_traits@G@std@@V?$allocator@G@2@@2@@std@@QAE@XZ$0:
	mov	ecx, DWORD PTR _this$[ebp]
	jmp	DWORD PTR __imp_??1?$basic_string@DU?$char_traits@D@std@@V?$allocator@D@2@@std@@QAE@XZ
__unwindfunclet$??1?$pair@$$CBV?$basic_string@DU?$char_traits@D@std@@V?$allocator@D@2@@std@@V?$basic_string@GU?$char_traits@G@std@@V?$allocator@G@2@@2@@std@@QAE@XZ$1:
	mov	ecx, DWORD PTR _this$[ebp]
	add	ecx, 28					; 0000001cH
	jmp	DWORD PTR __imp_??1?$basic_string@GU?$char_traits@G@std@@V?$allocator@G@2@@std@@QAE@XZ
__ehhandler$??1?$pair@$$CBV?$basic_string@DU?$char_traits@D@std@@V?$allocator@D@2@@std@@V?$basic_string@GU?$char_traits@G@std@@V?$allocator@G@2@@2@@std@@QAE@XZ:
	mov	edx, DWORD PTR [esp+8]
	lea	eax, DWORD PTR [edx+12]
	mov	ecx, DWORD PTR [edx-8]
	xor	ecx, eax
	call	@__security_check_cookie@4
	mov	eax, OFFSET __ehfuncinfo$??1?$pair@$$CBV?$basic_string@DU?$char_traits@D@std@@V?$allocator@D@2@@std@@V?$basic_string@GU?$char_traits@G@std@@V?$allocator@G@2@@2@@std@@QAE@XZ
	jmp	___CxxFrameHandler3
text$x	ENDS
??1?$pair@$$CBV?$basic_string@DU?$char_traits@D@std@@V?$allocator@D@2@@std@@V?$basic_string@GU?$char_traits@G@std@@V?$allocator@G@2@@2@@std@@QAE@XZ ENDP ; std::pair<std::basic_string<char,std::char_traits<char>,std::allocator<char> > const ,std::basic_string<unsigned short,std::char_traits<unsigned short>,std::allocator<unsigned short> > >::~pair<std::basic_string<char,std::char_traits<char>,std::allocator<char> > const ,std::basic_string<unsigned short,std::char_traits<unsigned short>,std::allocator<unsigned short> > >
EXTRN	__imp_??$?MDU?$char_traits@D@std@@V?$allocator@D@1@@std@@YA_NABV?$basic_string@DU?$char_traits@D@std@@V?$allocator@D@2@@0@0@Z:PROC
; Function compile flags: /Odtp
;	COMDAT ??R?$less@V?$basic_string@DU?$char_traits@D@std@@V?$allocator@D@2@@std@@@std@@QBE_NABV?$basic_string@DU?$char_traits@D@std@@V?$allocator@D@2@@1@0@Z
_TEXT	SEGMENT
_this$ = -4						; size = 4
__Left$ = 8						; size = 4
__Right$ = 12						; size = 4
??R?$less@V?$basic_string@DU?$char_traits@D@std@@V?$allocator@D@2@@std@@@std@@QBE_NABV?$basic_string@DU?$char_traits@D@std@@V?$allocator@D@2@@1@0@Z PROC ; std::less<std::basic_string<char,std::char_traits<char>,std::allocator<char> > >::operator(), COMDAT
; _this$ = ecx
; File c:\program files (x86)\microsoft visual studio 9.0\vc\include\functional
; Line 142
	push	ebp
	mov	ebp, esp
	push	ecx
	mov	DWORD PTR _this$[ebp], ecx
; Line 143
	mov	eax, DWORD PTR __Right$[ebp]
	push	eax
	mov	ecx, DWORD PTR __Left$[ebp]
	push	ecx
	call	DWORD PTR __imp_??$?MDU?$char_traits@D@std@@V?$allocator@D@1@@std@@YA_NABV?$basic_string@DU?$char_traits@D@std@@V?$allocator@D@2@@0@0@Z
	add	esp, 8
; Line 144
	mov	esp, ebp
	pop	ebp
	ret	8
??R?$less@V?$basic_string@DU?$char_traits@D@std@@V?$allocator@D@2@@std@@@std@@QBE_NABV?$basic_string@DU?$char_traits@D@std@@V?$allocator@D@2@@1@0@Z ENDP ; std::less<std::basic_string<char,std::char_traits<char>,std::allocator<char> > >::operator()
_TEXT	ENDS
PUBLIC	?_Kfn@?$_Tmap_traits@V?$basic_string@DU?$char_traits@D@std@@V?$allocator@D@2@@std@@V?$basic_string@GU?$char_traits@G@std@@V?$allocator@G@2@@2@U?$less@V?$basic_string@DU?$char_traits@D@std@@V?$allocator@D@2@@std@@@2@V?$allocator@U?$pair@$$CBV?$basic_string@DU?$char_traits@D@std@@V?$allocator@D@2@@std@@V?$basic_string@GU?$char_traits@G@std@@V?$allocator@G@2@@2@@std@@@2@$0A@@std@@SAABV?$basic_string@DU?$char_traits@D@std@@V?$allocator@D@2@@2@ABU?$pair@$$CBV?$basic_string@DU?$char_traits@D@std@@V?$allocator@D@2@@std@@V?$basic_string@GU?$char_traits@G@std@@V?$allocator@G@2@@2@@2@@Z ; std::_Tmap_traits<std::basic_string<char,std::char_traits<char>,std::allocator<char> >,std::basic_string<unsigned short,std::char_traits<unsigned short>,std::allocator<unsigned short> >,std::less<std::basic_string<char,std::char_traits<char>,std::allocator<char> > >,std::allocator<std::pair<std::basic_string<char,std::char_traits<char>,std::allocator<char> > const ,std::basic_string<unsigned short,std::char_traits<unsigned short>,std::allocator<unsigned short> > > >,0>::_Kfn
PUBLIC	?_Myval@?$_Tree@V?$_Tmap_traits@V?$basic_string@DU?$char_traits@D@std@@V?$allocator@D@2@@std@@V?$basic_string@GU?$char_traits@G@std@@V?$allocator@G@2@@2@U?$less@V?$basic_string@DU?$char_traits@D@std@@V?$allocator@D@2@@std@@@2@V?$allocator@U?$pair@$$CBV?$basic_string@DU?$char_traits@D@std@@V?$allocator@D@2@@std@@V?$basic_string@GU?$char_traits@G@std@@V?$allocator@G@2@@2@@std@@@2@$0A@@std@@@std@@KAAAU?$pair@$$CBV?$basic_string@DU?$char_traits@D@std@@V?$allocator@D@2@@std@@V?$basic_string@GU?$char_traits@G@std@@V?$allocator@G@2@@2@@2@PAU_Node@?$_Tree_nod@V?$_Tmap_traits@V?$basic_string@DU?$char_traits@D@std@@V?$allocator@D@2@@std@@V?$basic_string@GU?$char_traits@G@std@@V?$allocator@G@2@@2@U?$less@V?$basic_string@DU?$char_traits@D@std@@V?$allocator@D@2@@std@@@2@V?$allocator@U?$pair@$$CBV?$basic_string@DU?$char_traits@D@std@@V?$allocator@D@2@@std@@V?$basic_string@GU?$char_traits@G@std@@V?$allocator@G@2@@2@@std@@@2@$0A@@std@@@2@@Z ; std::_Tree<std::_Tmap_traits<std::basic_string<char,std::char_traits<char>,std::allocator<char> >,std::basic_string<unsigned short,std::char_traits<unsigned short>,std::allocator<unsigned short> >,std::less<std::basic_string<char,std::char_traits<char>,std::allocator<char> > >,std::allocator<std::pair<std::basic_string<char,std::char_traits<char>,std::allocator<char> > const ,std::basic_string<unsigned short,std::char_traits<unsigned short>,std::allocator<unsigned short> > > >,0> >::_Myval
; Function compile flags: /Odtp
;	COMDAT ?_Key@?$_Tree@V?$_Tmap_traits@V?$basic_string@DU?$char_traits@D@std@@V?$allocator@D@2@@std@@V?$basic_string@GU?$char_traits@G@std@@V?$allocator@G@2@@2@U?$less@V?$basic_string@DU?$char_traits@D@std@@V?$allocator@D@2@@std@@@2@V?$allocator@U?$pair@$$CBV?$basic_string@DU?$char_traits@D@std@@V?$allocator@D@2@@std@@V?$basic_string@GU?$char_traits@G@std@@V?$allocator@G@2@@2@@std@@@2@$0A@@std@@@std@@KAABV?$basic_string@DU?$char_traits@D@std@@V?$allocator@D@2@@2@PAU_Node@?$_Tree_nod@V?$_Tmap_traits@V?$basic_string@DU?$char_traits@D@std@@V?$allocator@D@2@@std@@V?$basic_string@GU?$char_traits@G@std@@V?$allocator@G@2@@2@U?$less@V?$basic_string@DU?$char_traits@D@std@@V?$allocator@D@2@@std@@@2@V?$allocator@U?$pair@$$CBV?$basic_string@DU?$char_traits@D@std@@V?$allocator@D@2@@std@@V?$basic_string@GU?$char_traits@G@std@@V?$allocator@G@2@@2@@std@@@2@$0A@@std@@@2@@Z
_TEXT	SEGMENT
__Pnode$ = 8						; size = 4
?_Key@?$_Tree@V?$_Tmap_traits@V?$basic_string@DU?$char_traits@D@std@@V?$allocator@D@2@@std@@V?$basic_string@GU?$char_traits@G@std@@V?$allocator@G@2@@2@U?$less@V?$basic_string@DU?$char_traits@D@std@@V?$allocator@D@2@@std@@@2@V?$allocator@U?$pair@$$CBV?$basic_string@DU?$char_traits@D@std@@V?$allocator@D@2@@std@@V?$basic_string@GU?$char_traits@G@std@@V?$allocator@G@2@@2@@std@@@2@$0A@@std@@@std@@KAABV?$basic_string@DU?$char_traits@D@std@@V?$allocator@D@2@@2@PAU_Node@?$_Tree_nod@V?$_Tmap_traits@V?$basic_string@DU?$char_traits@D@std@@V?$allocator@D@2@@std@@V?$basic_string@GU?$char_traits@G@std@@V?$allocator@G@2@@2@U?$less@V?$basic_string@DU?$char_traits@D@std@@V?$allocator@D@2@@std@@@2@V?$allocator@U?$pair@$$CBV?$basic_string@DU?$char_traits@D@std@@V?$allocator@D@2@@std@@V?$basic_string@GU?$char_traits@G@std@@V?$allocator@G@2@@2@@std@@@2@$0A@@std@@@2@@Z PROC ; std::_Tree<std::_Tmap_traits<std::basic_string<char,std::char_traits<char>,std::allocator<char> >,std::basic_string<unsigned short,std::char_traits<unsigned short>,std::allocator<unsigned short> >,std::less<std::basic_string<char,std::char_traits<char>,std::allocator<char> > >,std::allocator<std::pair<std::basic_string<char,std::char_traits<char>,std::allocator<char> > const ,std::basic_string<unsigned short,std::char_traits<unsigned short>,std::allocator<unsigned short> > > >,0> >::_Key, COMDAT
; File c:\program files (x86)\microsoft visual studio 9.0\vc\include\xtree
; Line 161
	push	ebp
	mov	ebp, esp
; Line 162
	mov	eax, DWORD PTR __Pnode$[ebp]
	push	eax
	call	?_Myval@?$_Tree@V?$_Tmap_traits@V?$basic_string@DU?$char_traits@D@std@@V?$allocator@D@2@@std@@V?$basic_string@GU?$char_traits@G@std@@V?$allocator@G@2@@2@U?$less@V?$basic_string@DU?$char_traits@D@std@@V?$allocator@D@2@@std@@@2@V?$allocator@U?$pair@$$CBV?$basic_string@DU?$char_traits@D@std@@V?$allocator@D@2@@std@@V?$basic_string@GU?$char_traits@G@std@@V?$allocator@G@2@@2@@std@@@2@$0A@@std@@@std@@KAAAU?$pair@$$CBV?$basic_string@DU?$char_traits@D@std@@V?$allocator@D@2@@std@@V?$basic_string@GU?$char_traits@G@std@@V?$allocator@G@2@@2@@2@PAU_Node@?$_Tree_nod@V?$_Tmap_traits@V?$basic_string@DU?$char_traits@D@std@@V?$allocator@D@2@@std@@V?$basic_string@GU?$char_traits@G@std@@V?$allocator@G@2@@2@U?$less@V?$basic_string@DU?$char_traits@D@std@@V?$allocator@D@2@@std@@@2@V?$allocator@U?$pair@$$CBV?$basic_string@DU?$char_traits@D@std@@V?$allocator@D@2@@std@@V?$basic_string@GU?$char_traits@G@std@@V?$allocator@G@2@@2@@std@@@2@$0A@@std@@@2@@Z ; std::_Tree<std::_Tmap_traits<std::basic_string<char,std::char_traits<char>,std::allocator<char> >,std::basic_string<unsigned short,std::char_traits<unsigned short>,std::allocator<unsigned short> >,std::less<std::basic_string<char,std::char_traits<char>,std::allocator<char> > >,std::allocator<std::pair<std::basic_string<char,std::char_traits<char>,std::allocator<char> > const ,std::basic_string<unsigned short,std::char_traits<unsigned short>,std::allocator<unsigned short> > > >,0> >::_Myval
	add	esp, 4
	push	eax
	call	?_Kfn@?$_Tmap_traits@V?$basic_string@DU?$char_traits@D@std@@V?$allocator@D@2@@std@@V?$basic_string@GU?$char_traits@G@std@@V?$allocator@G@2@@2@U?$less@V?$basic_string@DU?$char_traits@D@std@@V?$allocator@D@2@@std@@@2@V?$allocator@U?$pair@$$CBV?$basic_string@DU?$char_traits@D@std@@V?$allocator@D@2@@std@@V?$basic_string@GU?$char_traits@G@std@@V?$allocator@G@2@@2@@std@@@2@$0A@@std@@SAABV?$basic_string@DU?$char_traits@D@std@@V?$allocator@D@2@@2@ABU?$pair@$$CBV?$basic_string@DU?$char_traits@D@std@@V?$allocator@D@2@@std@@V?$basic_string@GU?$char_traits@G@std@@V?$allocator@G@2@@2@@2@@Z ; std::_Tmap_traits<std::basic_string<char,std::char_traits<char>,std::allocator<char> >,std::basic_string<unsigned short,std::char_traits<unsigned short>,std::allocator<unsigned short> >,std::less<std::basic_string<char,std::char_traits<char>,std::allocator<char> > >,std::allocator<std::pair<std::basic_string<char,std::char_traits<char>,std::allocator<char> > const ,std::basic_string<unsigned short,std::char_traits<unsigned short>,std::allocator<unsigned short> > > >,0>::_Kfn
	add	esp, 4
; Line 163
	pop	ebp
	ret	0
?_Key@?$_Tree@V?$_Tmap_traits@V?$basic_string@DU?$char_traits@D@std@@V?$allocator@D@2@@std@@V?$basic_string@GU?$char_traits@G@std@@V?$allocator@G@2@@2@U?$less@V?$basic_string@DU?$char_traits@D@std@@V?$allocator@D@2@@std@@@2@V?$allocator@U?$pair@$$CBV?$basic_string@DU?$char_traits@D@std@@V?$allocator@D@2@@std@@V?$basic_string@GU?$char_traits@G@std@@V?$allocator@G@2@@2@@std@@@2@$0A@@std@@@std@@KAABV?$basic_string@DU?$char_traits@D@std@@V?$allocator@D@2@@2@PAU_Node@?$_Tree_nod@V?$_Tmap_traits@V?$basic_string@DU?$char_traits@D@std@@V?$allocator@D@2@@std@@V?$basic_string@GU?$char_traits@G@std@@V?$allocator@G@2@@2@U?$less@V?$basic_string@DU?$char_traits@D@std@@V?$allocator@D@2@@std@@@2@V?$allocator@U?$pair@$$CBV?$basic_string@DU?$char_traits@D@std@@V?$allocator@D@2@@std@@V?$basic_string@GU?$char_traits@G@std@@V?$allocator@G@2@@2@@std@@@2@$0A@@std@@@2@@Z ENDP ; std::_Tree<std::_Tmap_traits<std::basic_string<char,std::char_traits<char>,std::allocator<char> >,std::basic_string<unsigned short,std::char_traits<unsigned short>,std::allocator<unsigned short> >,std::less<std::basic_string<char,std::char_traits<char>,std::allocator<char> > >,std::allocator<std::pair<std::basic_string<char,std::char_traits<char>,std::allocator<char> > const ,std::basic_string<unsigned short,std::char_traits<unsigned short>,std::allocator<unsigned short> > > >,0> >::_Key
_TEXT	ENDS
PUBLIC	?insert@?$_Tree@V?$_Tmap_traits@V?$basic_string@DU?$char_traits@D@std@@V?$allocator@D@2@@std@@V?$basic_string@GU?$char_traits@G@std@@V?$allocator@G@2@@2@U?$less@V?$basic_string@DU?$char_traits@D@std@@V?$allocator@D@2@@std@@@2@V?$allocator@U?$pair@$$CBV?$basic_string@DU?$char_traits@D@std@@V?$allocator@D@2@@std@@V?$basic_string@GU?$char_traits@G@std@@V?$allocator@G@2@@2@@std@@@2@$0A@@std@@@std@@QAE?AU?$pair@Viterator@?$_Tree@V?$_Tmap_traits@V?$basic_string@DU?$char_traits@D@std@@V?$allocator@D@2@@std@@V?$basic_string@GU?$char_traits@G@std@@V?$allocator@G@2@@2@U?$less@V?$basic_string@DU?$char_traits@D@std@@V?$allocator@D@2@@std@@@2@V?$allocator@U?$pair@$$CBV?$basic_string@DU?$char_traits@D@std@@V?$allocator@D@2@@std@@V?$basic_string@GU?$char_traits@G@std@@V?$allocator@G@2@@2@@std@@@2@$0A@@std@@@std@@_N@2@ABU?$pair@$$CBV?$basic_string@DU?$char_traits@D@std@@V?$allocator@D@2@@std@@V?$basic_string@GU?$char_traits@G@std@@V?$allocator@G@2@@2@@2@@Z ; std::_Tree<std::_Tmap_traits<std::basic_string<char,std::char_traits<char>,std::allocator<char> >,std::basic_string<unsigned short,std::char_traits<unsigned short>,std::allocator<unsigned short> >,std::less<std::basic_string<char,std::char_traits<char>,std::allocator<char> > >,std::allocator<std::pair<std::basic_string<char,std::char_traits<char>,std::allocator<char> > const ,std::basic_string<unsigned short,std::char_traits<unsigned short>,std::allocator<unsigned short> > > >,0> >::insert
PUBLIC	??Econst_iterator@?$_Tree@V?$_Tmap_traits@V?$basic_string@DU?$char_traits@D@std@@V?$allocator@D@2@@std@@V?$basic_string@GU?$char_traits@G@std@@V?$allocator@G@2@@2@U?$less@V?$basic_string@DU?$char_traits@D@std@@V?$allocator@D@2@@std@@@2@V?$allocator@U?$pair@$$CBV?$basic_string@DU?$char_traits@D@std@@V?$allocator@D@2@@std@@V?$basic_string@GU?$char_traits@G@std@@V?$allocator@G@2@@2@@std@@@2@$0A@@std@@@std@@QAEAAV012@XZ ; std::_Tree<std::_Tmap_traits<std::basic_string<char,std::char_traits<char>,std::allocator<char> >,std::basic_string<unsigned short,std::char_traits<unsigned short>,std::allocator<unsigned short> >,std::less<std::basic_string<char,std::char_traits<char>,std::allocator<char> > >,std::allocator<std::pair<std::basic_string<char,std::char_traits<char>,std::allocator<char> > const ,std::basic_string<unsigned short,std::char_traits<unsigned short>,std::allocator<unsigned short> > > >,0> >::const_iterator::operator++
PUBLIC	?_Isnil@?$_Tree@V?$_Tmap_traits@V?$basic_string@DU?$char_traits@D@std@@V?$allocator@D@2@@std@@V?$basic_string@GU?$char_traits@G@std@@V?$allocator@G@2@@2@U?$less@V?$basic_string@DU?$char_traits@D@std@@V?$allocator@D@2@@std@@@2@V?$allocator@U?$pair@$$CBV?$basic_string@DU?$char_traits@D@std@@V?$allocator@D@2@@std@@V?$basic_string@GU?$char_traits@G@std@@V?$allocator@G@2@@2@@std@@@2@$0A@@std@@@std@@KAAADPAU_Node@?$_Tree_nod@V?$_Tmap_traits@V?$basic_string@DU?$char_traits@D@std@@V?$allocator@D@2@@std@@V?$basic_string@GU?$char_traits@G@std@@V?$allocator@G@2@@2@U?$less@V?$basic_string@DU?$char_traits@D@std@@V?$allocator@D@2@@std@@@2@V?$allocator@U?$pair@$$CBV?$basic_string@DU?$char_traits@D@std@@V?$allocator@D@2@@std@@V?$basic_string@GU?$char_traits@G@std@@V?$allocator@G@2@@2@@std@@@2@$0A@@std@@@2@@Z ; std::_Tree<std::_Tmap_traits<std::basic_string<char,std::char_traits<char>,std::allocator<char> >,std::basic_string<unsigned short,std::char_traits<unsigned short>,std::allocator<unsigned short> >,std::less<std::basic_string<char,std::char_traits<char>,std::allocator<char> > >,std::allocator<std::pair<std::basic_string<char,std::char_traits<char>,std::allocator<char> > const ,std::basic_string<unsigned short,std::char_traits<unsigned short>,std::allocator<unsigned short> > > >,0> >::_Isnil
PUBLIC	?_Right@?$_Tree@V?$_Tmap_traits@V?$basic_string@DU?$char_traits@D@std@@V?$allocator@D@2@@std@@V?$basic_string@GU?$char_traits@G@std@@V?$allocator@G@2@@2@U?$less@V?$basic_string@DU?$char_traits@D@std@@V?$allocator@D@2@@std@@@2@V?$allocator@U?$pair@$$CBV?$basic_string@DU?$char_traits@D@std@@V?$allocator@D@2@@std@@V?$basic_string@GU?$char_traits@G@std@@V?$allocator@G@2@@2@@std@@@2@$0A@@std@@@std@@KAAAPAU_Node@?$_Tree_nod@V?$_Tmap_traits@V?$basic_string@DU?$char_traits@D@std@@V?$allocator@D@2@@std@@V?$basic_string@GU?$char_traits@G@std@@V?$allocator@G@2@@2@U?$less@V?$basic_string@DU?$char_traits@D@std@@V?$allocator@D@2@@std@@@2@V?$allocator@U?$pair@$$CBV?$basic_string@DU?$char_traits@D@std@@V?$allocator@D@2@@std@@V?$basic_string@GU?$char_traits@G@std@@V?$allocator@G@2@@2@@std@@@2@$0A@@std@@@2@PAU342@@Z ; std::_Tree<std::_Tmap_traits<std::basic_string<char,std::char_traits<char>,std::allocator<char> >,std::basic_string<unsigned short,std::char_traits<unsigned short>,std::allocator<unsigned short> >,std::less<std::basic_string<char,std::char_traits<char>,std::allocator<char> > >,std::allocator<std::pair<std::basic_string<char,std::char_traits<char>,std::allocator<char> > const ,std::basic_string<unsigned short,std::char_traits<unsigned short>,std::allocator<unsigned short> > > >,0> >::_Right
PUBLIC	??Fconst_iterator@?$_Tree@V?$_Tmap_traits@V?$basic_string@DU?$char_traits@D@std@@V?$allocator@D@2@@std@@V?$basic_string@GU?$char_traits@G@std@@V?$allocator@G@2@@2@U?$less@V?$basic_string@DU?$char_traits@D@std@@V?$allocator@D@2@@std@@@2@V?$allocator@U?$pair@$$CBV?$basic_string@DU?$char_traits@D@std@@V?$allocator@D@2@@std@@V?$basic_string@GU?$char_traits@G@std@@V?$allocator@G@2@@2@@std@@@2@$0A@@std@@@std@@QAEAAV012@XZ ; std::_Tree<std::_Tmap_traits<std::basic_string<char,std::char_traits<char>,std::allocator<char> >,std::basic_string<unsigned short,std::char_traits<unsigned short>,std::allocator<unsigned short> >,std::less<std::basic_string<char,std::char_traits<char>,std::allocator<char> > >,std::allocator<std::pair<std::basic_string<char,std::char_traits<char>,std::allocator<char> > const ,std::basic_string<unsigned short,std::char_traits<unsigned short>,std::allocator<unsigned short> > > >,0> >::const_iterator::operator--
PUBLIC	?_Insert@?$_Tree@V?$_Tmap_traits@V?$basic_string@DU?$char_traits@D@std@@V?$allocator@D@2@@std@@V?$basic_string@GU?$char_traits@G@std@@V?$allocator@G@2@@2@U?$less@V?$basic_string@DU?$char_traits@D@std@@V?$allocator@D@2@@std@@@2@V?$allocator@U?$pair@$$CBV?$basic_string@DU?$char_traits@D@std@@V?$allocator@D@2@@std@@V?$basic_string@GU?$char_traits@G@std@@V?$allocator@G@2@@2@@std@@@2@$0A@@std@@@std@@IAE?AViterator@12@_NPAU_Node@?$_Tree_nod@V?$_Tmap_traits@V?$basic_string@DU?$char_traits@D@std@@V?$allocator@D@2@@std@@V?$basic_string@GU?$char_traits@G@std@@V?$allocator@G@2@@2@U?$less@V?$basic_string@DU?$char_traits@D@std@@V?$allocator@D@2@@std@@@2@V?$allocator@U?$pair@$$CBV?$basic_string@DU?$char_traits@D@std@@V?$allocator@D@2@@std@@V?$basic_string@GU?$char_traits@G@std@@V?$allocator@G@2@@2@@std@@@2@$0A@@std@@@2@ABU?$pair@$$CBV?$basic_string@DU?$char_traits@D@std@@V?$allocator@D@2@@std@@V?$basic_string@GU?$char_traits@G@std@@V?$allocator@G@2@@2@@2@@Z ; std::_Tree<std::_Tmap_traits<std::basic_string<char,std::char_traits<char>,std::allocator<char> >,std::basic_string<unsigned short,std::char_traits<unsigned short>,std::allocator<unsigned short> >,std::less<std::basic_string<char,std::char_traits<char>,std::allocator<char> > >,std::allocator<std::pair<std::basic_string<char,std::char_traits<char>,std::allocator<char> > const ,std::basic_string<unsigned short,std::char_traits<unsigned short>,std::allocator<unsigned short> > > >,0> >::_Insert
PUBLIC	??0const_iterator@?$_Tree@V?$_Tmap_traits@V?$basic_string@DU?$char_traits@D@std@@V?$allocator@D@2@@std@@V?$basic_string@GU?$char_traits@G@std@@V?$allocator@G@2@@2@U?$less@V?$basic_string@DU?$char_traits@D@std@@V?$allocator@D@2@@std@@@2@V?$allocator@U?$pair@$$CBV?$basic_string@DU?$char_traits@D@std@@V?$allocator@D@2@@std@@V?$basic_string@GU?$char_traits@G@std@@V?$allocator@G@2@@2@@std@@@2@$0A@@std@@@std@@QAE@XZ ; std::_Tree<std::_Tmap_traits<std::basic_string<char,std::char_traits<char>,std::allocator<char> >,std::basic_string<unsigned short,std::char_traits<unsigned short>,std::allocator<unsigned short> >,std::less<std::basic_string<char,std::char_traits<char>,std::allocator<char> > >,std::allocator<std::pair<std::basic_string<char,std::char_traits<char>,std::allocator<char> > const ,std::basic_string<unsigned short,std::char_traits<unsigned short>,std::allocator<unsigned short> > > >,0> >::const_iterator::const_iterator
; Function compile flags: /Odtp
;	COMDAT ?insert@?$_Tree@V?$_Tmap_traits@V?$basic_string@DU?$char_traits@D@std@@V?$allocator@D@2@@std@@V?$basic_string@GU?$char_traits@G@std@@V?$allocator@G@2@@2@U?$less@V?$basic_string@DU?$char_traits@D@std@@V?$allocator@D@2@@std@@@2@V?$allocator@U?$pair@$$CBV?$basic_string@DU?$char_traits@D@std@@V?$allocator@D@2@@std@@V?$basic_string@GU?$char_traits@G@std@@V?$allocator@G@2@@2@@std@@@2@$0A@@std@@@std@@QAE?AViterator@12@Vconst_iterator@12@ABU?$pair@$$CBV?$basic_string@DU?$char_traits@D@std@@V?$allocator@D@2@@std@@V?$basic_string@GU?$char_traits@G@std@@V?$allocator@G@2@@2@@2@@Z
_TEXT	SEGMENT
_this$ = -72						; size = 4
$T146020 = -68						; size = 12
$T146019 = -56						; size = 8
$T146018 = -48						; size = 8
$T146017 = -40						; size = 8
$T146016 = -32						; size = 8
$T146015 = -24						; size = 8
$T146014 = -16						; size = 8
__Next$ = -8						; size = 8
___$ReturnUdt$ = 8					; size = 4
__Where$ = 12						; size = 8
__Val$ = 20						; size = 4
?insert@?$_Tree@V?$_Tmap_traits@V?$basic_string@DU?$char_traits@D@std@@V?$allocator@D@2@@std@@V?$basic_string@GU?$char_traits@G@std@@V?$allocator@G@2@@2@U?$less@V?$basic_string@DU?$char_traits@D@std@@V?$allocator@D@2@@std@@@2@V?$allocator@U?$pair@$$CBV?$basic_string@DU?$char_traits@D@std@@V?$allocator@D@2@@std@@V?$basic_string@GU?$char_traits@G@std@@V?$allocator@G@2@@2@@std@@@2@$0A@@std@@@std@@QAE?AViterator@12@Vconst_iterator@12@ABU?$pair@$$CBV?$basic_string@DU?$char_traits@D@std@@V?$allocator@D@2@@std@@V?$basic_string@GU?$char_traits@G@std@@V?$allocator@G@2@@2@@2@@Z PROC ; std::_Tree<std::_Tmap_traits<std::basic_string<char,std::char_traits<char>,std::allocator<char> >,std::basic_string<unsigned short,std::char_traits<unsigned short>,std::allocator<unsigned short> >,std::less<std::basic_string<char,std::char_traits<char>,std::allocator<char> > >,std::allocator<std::pair<std::basic_string<char,std::char_traits<char>,std::allocator<char> > const ,std::basic_string<unsigned short,std::char_traits<unsigned short>,std::allocator<unsigned short> > > >,0> >::insert, COMDAT
; _this$ = ecx
; Line 664
	push	ebp
	mov	ebp, esp
	sub	esp, 72					; 00000048H
	mov	DWORD PTR _this$[ebp], ecx
; Line 671
	lea	ecx, DWORD PTR __Next$[ebp]
	call	??0const_iterator@?$_Tree@V?$_Tmap_traits@V?$basic_string@DU?$char_traits@D@std@@V?$allocator@D@2@@std@@V?$basic_string@GU?$char_traits@G@std@@V?$allocator@G@2@@2@U?$less@V?$basic_string@DU?$char_traits@D@std@@V?$allocator@D@2@@std@@@2@V?$allocator@U?$pair@$$CBV?$basic_string@DU?$char_traits@D@std@@V?$allocator@D@2@@std@@V?$basic_string@GU?$char_traits@G@std@@V?$allocator@G@2@@2@@std@@@2@$0A@@std@@@std@@QAE@XZ ; std::_Tree<std::_Tmap_traits<std::basic_string<char,std::char_traits<char>,std::allocator<char> >,std::basic_string<unsigned short,std::char_traits<unsigned short>,std::allocator<unsigned short> >,std::less<std::basic_string<char,std::char_traits<char>,std::allocator<char> > >,std::allocator<std::pair<std::basic_string<char,std::char_traits<char>,std::allocator<char> > const ,std::basic_string<unsigned short,std::char_traits<unsigned short>,std::allocator<unsigned short> > > >,0> >::const_iterator::const_iterator
; Line 673
	mov	ecx, DWORD PTR _this$[ebp]
	call	?size@?$_Tree@V?$_Tmap_traits@V?$basic_string@DU?$char_traits@D@std@@V?$allocator@D@2@@std@@V?$basic_string@GU?$char_traits@G@std@@V?$allocator@G@2@@2@U?$less@V?$basic_string@DU?$char_traits@D@std@@V?$allocator@D@2@@std@@@2@V?$allocator@U?$pair@$$CBV?$basic_string@DU?$char_traits@D@std@@V?$allocator@D@2@@std@@V?$basic_string@GU?$char_traits@G@std@@V?$allocator@G@2@@2@@std@@@2@$0A@@std@@@std@@QBEIXZ ; std::_Tree<std::_Tmap_traits<std::basic_string<char,std::char_traits<char>,std::allocator<char> >,std::basic_string<unsigned short,std::char_traits<unsigned short>,std::allocator<unsigned short> >,std::less<std::basic_string<char,std::char_traits<char>,std::allocator<char> > >,std::allocator<std::pair<std::basic_string<char,std::char_traits<char>,std::allocator<char> > const ,std::basic_string<unsigned short,std::char_traits<unsigned short>,std::allocator<unsigned short> > > >,0> >::size
	test	eax, eax
	jne	SHORT $LN32@insert
; Line 674
	mov	eax, DWORD PTR __Val$[ebp]
	push	eax
	mov	ecx, DWORD PTR _this$[ebp]
	mov	edx, DWORD PTR [ecx+24]
	push	edx
	push	1
	mov	eax, DWORD PTR ___$ReturnUdt$[ebp]
	push	eax
	mov	ecx, DWORD PTR _this$[ebp]
	call	?_Insert@?$_Tree@V?$_Tmap_traits@V?$basic_string@DU?$char_traits@D@std@@V?$allocator@D@2@@std@@V?$basic_string@GU?$char_traits@G@std@@V?$allocator@G@2@@2@U?$less@V?$basic_string@DU?$char_traits@D@std@@V?$allocator@D@2@@std@@@2@V?$allocator@U?$pair@$$CBV?$basic_string@DU?$char_traits@D@std@@V?$allocator@D@2@@std@@V?$basic_string@GU?$char_traits@G@std@@V?$allocator@G@2@@2@@std@@@2@$0A@@std@@@std@@IAE?AViterator@12@_NPAU_Node@?$_Tree_nod@V?$_Tmap_traits@V?$basic_string@DU?$char_traits@D@std@@V?$allocator@D@2@@std@@V?$basic_string@GU?$char_traits@G@std@@V?$allocator@G@2@@2@U?$less@V?$basic_string@DU?$char_traits@D@std@@V?$allocator@D@2@@std@@@2@V?$allocator@U?$pair@$$CBV?$basic_string@DU?$char_traits@D@std@@V?$allocator@D@2@@std@@V?$basic_string@GU?$char_traits@G@std@@V?$allocator@G@2@@2@@std@@@2@$0A@@std@@@2@ABU?$pair@$$CBV?$basic_string@DU?$char_traits@D@std@@V?$allocator@D@2@@std@@V?$basic_string@GU?$char_traits@G@std@@V?$allocator@G@2@@2@@2@@Z ; std::_Tree<std::_Tmap_traits<std::basic_string<char,std::char_traits<char>,std::allocator<char> >,std::basic_string<unsigned short,std::char_traits<unsigned short>,std::allocator<unsigned short> >,std::less<std::basic_string<char,std::char_traits<char>,std::allocator<char> > >,std::allocator<std::pair<std::basic_string<char,std::char_traits<char>,std::allocator<char> > const ,std::basic_string<unsigned short,std::char_traits<unsigned short>,std::allocator<unsigned short> > > >,0> >::_Insert
	mov	eax, DWORD PTR ___$ReturnUdt$[ebp]
	jmp	$LN33@insert
	jmp	$LN31@insert
$LN32@insert:
; Line 675
	xor	ecx, ecx
	je	$LN30@insert
; Line 677
	lea	edx, DWORD PTR $T146014[ebp]
	push	edx
	mov	ecx, DWORD PTR _this$[ebp]
	call	?begin@?$_Tree@V?$_Tmap_traits@V?$basic_string@DU?$char_traits@D@std@@V?$allocator@D@2@@std@@V?$basic_string@GU?$char_traits@G@std@@V?$allocator@G@2@@2@U?$less@V?$basic_string@DU?$char_traits@D@std@@V?$allocator@D@2@@std@@@2@V?$allocator@U?$pair@$$CBV?$basic_string@DU?$char_traits@D@std@@V?$allocator@D@2@@std@@V?$basic_string@GU?$char_traits@G@std@@V?$allocator@G@2@@2@@std@@@2@$0A@@std@@@std@@QAE?AViterator@12@XZ ; std::_Tree<std::_Tmap_traits<std::basic_string<char,std::char_traits<char>,std::allocator<char> >,std::basic_string<unsigned short,std::char_traits<unsigned short>,std::allocator<unsigned short> >,std::less<std::basic_string<char,std::char_traits<char>,std::allocator<char> > >,std::allocator<std::pair<std::basic_string<char,std::char_traits<char>,std::allocator<char> > const ,std::basic_string<unsigned short,std::char_traits<unsigned short>,std::allocator<unsigned short> > > >,0> >::begin
	push	eax
	lea	ecx, DWORD PTR __Where$[ebp]
	call	??8const_iterator@?$_Tree@V?$_Tmap_traits@V?$basic_string@DU?$char_traits@D@std@@V?$allocator@D@2@@std@@V?$basic_string@GU?$char_traits@G@std@@V?$allocator@G@2@@2@U?$less@V?$basic_string@DU?$char_traits@D@std@@V?$allocator@D@2@@std@@@2@V?$allocator@U?$pair@$$CBV?$basic_string@DU?$char_traits@D@std@@V?$allocator@D@2@@std@@V?$basic_string@GU?$char_traits@G@std@@V?$allocator@G@2@@2@@std@@@2@$0A@@std@@@std@@QBE_NABV012@@Z ; std::_Tree<std::_Tmap_traits<std::basic_string<char,std::char_traits<char>,std::allocator<char> >,std::basic_string<unsigned short,std::char_traits<unsigned short>,std::allocator<unsigned short> >,std::less<std::basic_string<char,std::char_traits<char>,std::allocator<char> > >,std::allocator<std::pair<std::basic_string<char,std::char_traits<char>,std::allocator<char> > const ,std::basic_string<unsigned short,std::char_traits<unsigned short>,std::allocator<unsigned short> > > >,0> >::const_iterator::operator==
	movzx	eax, al
	test	eax, eax
	je	SHORT $LN29@insert
; Line 679
	mov	ecx, DWORD PTR __Val$[ebp]
	push	ecx
	call	?_Kfn@?$_Tmap_traits@V?$basic_string@DU?$char_traits@D@std@@V?$allocator@D@2@@std@@V?$basic_string@GU?$char_traits@G@std@@V?$allocator@G@2@@2@U?$less@V?$basic_string@DU?$char_traits@D@std@@V?$allocator@D@2@@std@@@2@V?$allocator@U?$pair@$$CBV?$basic_string@DU?$char_traits@D@std@@V?$allocator@D@2@@std@@V?$basic_string@GU?$char_traits@G@std@@V?$allocator@G@2@@2@@std@@@2@$0A@@std@@SAABV?$basic_string@DU?$char_traits@D@std@@V?$allocator@D@2@@2@ABU?$pair@$$CBV?$basic_string@DU?$char_traits@D@std@@V?$allocator@D@2@@std@@V?$basic_string@GU?$char_traits@G@std@@V?$allocator@G@2@@2@@2@@Z ; std::_Tmap_traits<std::basic_string<char,std::char_traits<char>,std::allocator<char> >,std::basic_string<unsigned short,std::char_traits<unsigned short>,std::allocator<unsigned short> >,std::less<std::basic_string<char,std::char_traits<char>,std::allocator<char> > >,std::allocator<std::pair<std::basic_string<char,std::char_traits<char>,std::allocator<char> > const ,std::basic_string<unsigned short,std::char_traits<unsigned short>,std::allocator<unsigned short> > > >,0>::_Kfn
	add	esp, 4
	push	eax
	lea	ecx, DWORD PTR __Where$[ebp]
	call	?_Mynode@const_iterator@?$_Tree@V?$_Tmap_traits@V?$basic_string@DU?$char_traits@D@std@@V?$allocator@D@2@@std@@V?$basic_string@GU?$char_traits@G@std@@V?$allocator@G@2@@2@U?$less@V?$basic_string@DU?$char_traits@D@std@@V?$allocator@D@2@@std@@@2@V?$allocator@U?$pair@$$CBV?$basic_string@DU?$char_traits@D@std@@V?$allocator@D@2@@std@@V?$basic_string@GU?$char_traits@G@std@@V?$allocator@G@2@@2@@std@@@2@$0A@@std@@@std@@QBEPAU_Node@?$_Tree_nod@V?$_Tmap_traits@V?$basic_string@DU?$char_traits@D@std@@V?$allocator@D@2@@std@@V?$basic_string@GU?$char_traits@G@std@@V?$allocator@G@2@@2@U?$less@V?$basic_string@DU?$char_traits@D@std@@V?$allocator@D@2@@std@@@2@V?$allocator@U?$pair@$$CBV?$basic_string@DU?$char_traits@D@std@@V?$allocator@D@2@@std@@V?$basic_string@GU?$char_traits@G@std@@V?$allocator@G@2@@2@@std@@@2@$0A@@std@@@3@XZ ; std::_Tree<std::_Tmap_traits<std::basic_string<char,std::char_traits<char>,std::allocator<char> >,std::basic_string<unsigned short,std::char_traits<unsigned short>,std::allocator<unsigned short> >,std::less<std::basic_string<char,std::char_traits<char>,std::allocator<char> > >,std::allocator<std::pair<std::basic_string<char,std::char_traits<char>,std::allocator<char> > const ,std::basic_string<unsigned short,std::char_traits<unsigned short>,std::allocator<unsigned short> > > >,0> >::const_iterator::_Mynode
	push	eax
	call	?_Key@?$_Tree@V?$_Tmap_traits@V?$basic_string@DU?$char_traits@D@std@@V?$allocator@D@2@@std@@V?$basic_string@GU?$char_traits@G@std@@V?$allocator@G@2@@2@U?$less@V?$basic_string@DU?$char_traits@D@std@@V?$allocator@D@2@@std@@@2@V?$allocator@U?$pair@$$CBV?$basic_string@DU?$char_traits@D@std@@V?$allocator@D@2@@std@@V?$basic_string@GU?$char_traits@G@std@@V?$allocator@G@2@@2@@std@@@2@$0A@@std@@@std@@KAABV?$basic_string@DU?$char_traits@D@std@@V?$allocator@D@2@@2@PAU_Node@?$_Tree_nod@V?$_Tmap_traits@V?$basic_string@DU?$char_traits@D@std@@V?$allocator@D@2@@std@@V?$basic_string@GU?$char_traits@G@std@@V?$allocator@G@2@@2@U?$less@V?$basic_string@DU?$char_traits@D@std@@V?$allocator@D@2@@std@@@2@V?$allocator@U?$pair@$$CBV?$basic_string@DU?$char_traits@D@std@@V?$allocator@D@2@@std@@V?$basic_string@GU?$char_traits@G@std@@V?$allocator@G@2@@2@@std@@@2@$0A@@std@@@2@@Z ; std::_Tree<std::_Tmap_traits<std::basic_string<char,std::char_traits<char>,std::allocator<char> >,std::basic_string<unsigned short,std::char_traits<unsigned short>,std::allocator<unsigned short> >,std::less<std::basic_string<char,std::char_traits<char>,std::allocator<char> > >,std::allocator<std::pair<std::basic_string<char,std::char_traits<char>,std::allocator<char> > const ,std::basic_string<unsigned short,std::char_traits<unsigned short>,std::allocator<unsigned short> > > >,0> >::_Key
	add	esp, 4
	push	eax
	mov	ecx, DWORD PTR _this$[ebp]
	add	ecx, 8
	call	??R?$less@V?$basic_string@DU?$char_traits@D@std@@V?$allocator@D@2@@std@@@std@@QBE_NABV?$basic_string@DU?$char_traits@D@std@@V?$allocator@D@2@@1@0@Z ; std::less<std::basic_string<char,std::char_traits<char>,std::allocator<char> > >::operator()
	movzx	edx, al
	test	edx, edx
	jne	SHORT $LN28@insert
; Line 681
	mov	eax, DWORD PTR __Val$[ebp]
	push	eax
	lea	ecx, DWORD PTR __Where$[ebp]
	call	?_Mynode@const_iterator@?$_Tree@V?$_Tmap_traits@V?$basic_string@DU?$char_traits@D@std@@V?$allocator@D@2@@std@@V?$basic_string@GU?$char_traits@G@std@@V?$allocator@G@2@@2@U?$less@V?$basic_string@DU?$char_traits@D@std@@V?$allocator@D@2@@std@@@2@V?$allocator@U?$pair@$$CBV?$basic_string@DU?$char_traits@D@std@@V?$allocator@D@2@@std@@V?$basic_string@GU?$char_traits@G@std@@V?$allocator@G@2@@2@@std@@@2@$0A@@std@@@std@@QBEPAU_Node@?$_Tree_nod@V?$_Tmap_traits@V?$basic_string@DU?$char_traits@D@std@@V?$allocator@D@2@@std@@V?$basic_string@GU?$char_traits@G@std@@V?$allocator@G@2@@2@U?$less@V?$basic_string@DU?$char_traits@D@std@@V?$allocator@D@2@@std@@@2@V?$allocator@U?$pair@$$CBV?$basic_string@DU?$char_traits@D@std@@V?$allocator@D@2@@std@@V?$basic_string@GU?$char_traits@G@std@@V?$allocator@G@2@@2@@std@@@2@$0A@@std@@@3@XZ ; std::_Tree<std::_Tmap_traits<std::basic_string<char,std::char_traits<char>,std::allocator<char> >,std::basic_string<unsigned short,std::char_traits<unsigned short>,std::allocator<unsigned short> >,std::less<std::basic_string<char,std::char_traits<char>,std::allocator<char> > >,std::allocator<std::pair<std::basic_string<char,std::char_traits<char>,std::allocator<char> > const ,std::basic_string<unsigned short,std::char_traits<unsigned short>,std::allocator<unsigned short> > > >,0> >::const_iterator::_Mynode
	push	eax
	push	1
	mov	ecx, DWORD PTR ___$ReturnUdt$[ebp]
	push	ecx
	mov	ecx, DWORD PTR _this$[ebp]
	call	?_Insert@?$_Tree@V?$_Tmap_traits@V?$basic_string@DU?$char_traits@D@std@@V?$allocator@D@2@@std@@V?$basic_string@GU?$char_traits@G@std@@V?$allocator@G@2@@2@U?$less@V?$basic_string@DU?$char_traits@D@std@@V?$allocator@D@2@@std@@@2@V?$allocator@U?$pair@$$CBV?$basic_string@DU?$char_traits@D@std@@V?$allocator@D@2@@std@@V?$basic_string@GU?$char_traits@G@std@@V?$allocator@G@2@@2@@std@@@2@$0A@@std@@@std@@IAE?AViterator@12@_NPAU_Node@?$_Tree_nod@V?$_Tmap_traits@V?$basic_string@DU?$char_traits@D@std@@V?$allocator@D@2@@std@@V?$basic_string@GU?$char_traits@G@std@@V?$allocator@G@2@@2@U?$less@V?$basic_string@DU?$char_traits@D@std@@V?$allocator@D@2@@std@@@2@V?$allocator@U?$pair@$$CBV?$basic_string@DU?$char_traits@D@std@@V?$allocator@D@2@@std@@V?$basic_string@GU?$char_traits@G@std@@V?$allocator@G@2@@2@@std@@@2@$0A@@std@@@2@ABU?$pair@$$CBV?$basic_string@DU?$char_traits@D@std@@V?$allocator@D@2@@std@@V?$basic_string@GU?$char_traits@G@std@@V?$allocator@G@2@@2@@2@@Z ; std::_Tree<std::_Tmap_traits<std::basic_string<char,std::char_traits<char>,std::allocator<char> >,std::basic_string<unsigned short,std::char_traits<unsigned short>,std::allocator<unsigned short> >,std::less<std::basic_string<char,std::char_traits<char>,std::allocator<char> > >,std::allocator<std::pair<std::basic_string<char,std::char_traits<char>,std::allocator<char> > const ,std::basic_string<unsigned short,std::char_traits<unsigned short>,std::allocator<unsigned short> > > >,0> >::_Insert
	mov	eax, DWORD PTR ___$ReturnUdt$[ebp]
	jmp	$LN33@insert
$LN28@insert:
; Line 682
	jmp	$LN27@insert
$LN29@insert:
; Line 683
	lea	edx, DWORD PTR $T146015[ebp]
	push	edx
	mov	ecx, DWORD PTR _this$[ebp]
	call	?end@?$_Tree@V?$_Tmap_traits@V?$basic_string@DU?$char_traits@D@std@@V?$allocator@D@2@@std@@V?$basic_string@GU?$char_traits@G@std@@V?$allocator@G@2@@2@U?$less@V?$basic_string@DU?$char_traits@D@std@@V?$allocator@D@2@@std@@@2@V?$allocator@U?$pair@$$CBV?$basic_string@DU?$char_traits@D@std@@V?$allocator@D@2@@std@@V?$basic_string@GU?$char_traits@G@std@@V?$allocator@G@2@@2@@std@@@2@$0A@@std@@@std@@QAE?AViterator@12@XZ ; std::_Tree<std::_Tmap_traits<std::basic_string<char,std::char_traits<char>,std::allocator<char> >,std::basic_string<unsigned short,std::char_traits<unsigned short>,std::allocator<unsigned short> >,std::less<std::basic_string<char,std::char_traits<char>,std::allocator<char> > >,std::allocator<std::pair<std::basic_string<char,std::char_traits<char>,std::allocator<char> > const ,std::basic_string<unsigned short,std::char_traits<unsigned short>,std::allocator<unsigned short> > > >,0> >::end
	push	eax
	lea	ecx, DWORD PTR __Where$[ebp]
	call	??8const_iterator@?$_Tree@V?$_Tmap_traits@V?$basic_string@DU?$char_traits@D@std@@V?$allocator@D@2@@std@@V?$basic_string@GU?$char_traits@G@std@@V?$allocator@G@2@@2@U?$less@V?$basic_string@DU?$char_traits@D@std@@V?$allocator@D@2@@std@@@2@V?$allocator@U?$pair@$$CBV?$basic_string@DU?$char_traits@D@std@@V?$allocator@D@2@@std@@V?$basic_string@GU?$char_traits@G@std@@V?$allocator@G@2@@2@@std@@@2@$0A@@std@@@std@@QBE_NABV012@@Z ; std::_Tree<std::_Tmap_traits<std::basic_string<char,std::char_traits<char>,std::allocator<char> >,std::basic_string<unsigned short,std::char_traits<unsigned short>,std::allocator<unsigned short> >,std::less<std::basic_string<char,std::char_traits<char>,std::allocator<char> > >,std::allocator<std::pair<std::basic_string<char,std::char_traits<char>,std::allocator<char> > const ,std::basic_string<unsigned short,std::char_traits<unsigned short>,std::allocator<unsigned short> > > >,0> >::const_iterator::operator==
	movzx	eax, al
	test	eax, eax
	je	SHORT $LN26@insert
; Line 685
	mov	ecx, DWORD PTR _this$[ebp]
	call	?_Rmost@?$_Tree@V?$_Tmap_traits@V?$basic_string@DU?$char_traits@D@std@@V?$allocator@D@2@@std@@V?$basic_string@GU?$char_traits@G@std@@V?$allocator@G@2@@2@U?$less@V?$basic_string@DU?$char_traits@D@std@@V?$allocator@D@2@@std@@@2@V?$allocator@U?$pair@$$CBV?$basic_string@DU?$char_traits@D@std@@V?$allocator@D@2@@std@@V?$basic_string@GU?$char_traits@G@std@@V?$allocator@G@2@@2@@std@@@2@$0A@@std@@@std@@IBEAAPAU_Node@?$_Tree_nod@V?$_Tmap_traits@V?$basic_string@DU?$char_traits@D@std@@V?$allocator@D@2@@std@@V?$basic_string@GU?$char_traits@G@std@@V?$allocator@G@2@@2@U?$less@V?$basic_string@DU?$char_traits@D@std@@V?$allocator@D@2@@std@@@2@V?$allocator@U?$pair@$$CBV?$basic_string@DU?$char_traits@D@std@@V?$allocator@D@2@@std@@V?$basic_string@GU?$char_traits@G@std@@V?$allocator@G@2@@2@@std@@@2@$0A@@std@@@2@XZ ; std::_Tree<std::_Tmap_traits<std::basic_string<char,std::char_traits<char>,std::allocator<char> >,std::basic_string<unsigned short,std::char_traits<unsigned short>,std::allocator<unsigned short> >,std::less<std::basic_string<char,std::char_traits<char>,std::allocator<char> > >,std::allocator<std::pair<std::basic_string<char,std::char_traits<char>,std::allocator<char> > const ,std::basic_string<unsigned short,std::char_traits<unsigned short>,std::allocator<unsigned short> > > >,0> >::_Rmost
	mov	ecx, DWORD PTR [eax]
	push	ecx
	call	?_Key@?$_Tree@V?$_Tmap_traits@V?$basic_string@DU?$char_traits@D@std@@V?$allocator@D@2@@std@@V?$basic_string@GU?$char_traits@G@std@@V?$allocator@G@2@@2@U?$less@V?$basic_string@DU?$char_traits@D@std@@V?$allocator@D@2@@std@@@2@V?$allocator@U?$pair@$$CBV?$basic_string@DU?$char_traits@D@std@@V?$allocator@D@2@@std@@V?$basic_string@GU?$char_traits@G@std@@V?$allocator@G@2@@2@@std@@@2@$0A@@std@@@std@@KAABV?$basic_string@DU?$char_traits@D@std@@V?$allocator@D@2@@2@PAU_Node@?$_Tree_nod@V?$_Tmap_traits@V?$basic_string@DU?$char_traits@D@std@@V?$allocator@D@2@@std@@V?$basic_string@GU?$char_traits@G@std@@V?$allocator@G@2@@2@U?$less@V?$basic_string@DU?$char_traits@D@std@@V?$allocator@D@2@@std@@@2@V?$allocator@U?$pair@$$CBV?$basic_string@DU?$char_traits@D@std@@V?$allocator@D@2@@std@@V?$basic_string@GU?$char_traits@G@std@@V?$allocator@G@2@@2@@std@@@2@$0A@@std@@@2@@Z ; std::_Tree<std::_Tmap_traits<std::basic_string<char,std::char_traits<char>,std::allocator<char> >,std::basic_string<unsigned short,std::char_traits<unsigned short>,std::allocator<unsigned short> >,std::less<std::basic_string<char,std::char_traits<char>,std::allocator<char> > >,std::allocator<std::pair<std::basic_string<char,std::char_traits<char>,std::allocator<char> > const ,std::basic_string<unsigned short,std::char_traits<unsigned short>,std::allocator<unsigned short> > > >,0> >::_Key
	add	esp, 4
	push	eax
	mov	edx, DWORD PTR __Val$[ebp]
	push	edx
	call	?_Kfn@?$_Tmap_traits@V?$basic_string@DU?$char_traits@D@std@@V?$allocator@D@2@@std@@V?$basic_string@GU?$char_traits@G@std@@V?$allocator@G@2@@2@U?$less@V?$basic_string@DU?$char_traits@D@std@@V?$allocator@D@2@@std@@@2@V?$allocator@U?$pair@$$CBV?$basic_string@DU?$char_traits@D@std@@V?$allocator@D@2@@std@@V?$basic_string@GU?$char_traits@G@std@@V?$allocator@G@2@@2@@std@@@2@$0A@@std@@SAABV?$basic_string@DU?$char_traits@D@std@@V?$allocator@D@2@@2@ABU?$pair@$$CBV?$basic_string@DU?$char_traits@D@std@@V?$allocator@D@2@@std@@V?$basic_string@GU?$char_traits@G@std@@V?$allocator@G@2@@2@@2@@Z ; std::_Tmap_traits<std::basic_string<char,std::char_traits<char>,std::allocator<char> >,std::basic_string<unsigned short,std::char_traits<unsigned short>,std::allocator<unsigned short> >,std::less<std::basic_string<char,std::char_traits<char>,std::allocator<char> > >,std::allocator<std::pair<std::basic_string<char,std::char_traits<char>,std::allocator<char> > const ,std::basic_string<unsigned short,std::char_traits<unsigned short>,std::allocator<unsigned short> > > >,0>::_Kfn
	add	esp, 4
	push	eax
	mov	ecx, DWORD PTR _this$[ebp]
	add	ecx, 8
	call	??R?$less@V?$basic_string@DU?$char_traits@D@std@@V?$allocator@D@2@@std@@@std@@QBE_NABV?$basic_string@DU?$char_traits@D@std@@V?$allocator@D@2@@1@0@Z ; std::less<std::basic_string<char,std::char_traits<char>,std::allocator<char> > >::operator()
	movzx	eax, al
	test	eax, eax
	jne	SHORT $LN25@insert
; Line 687
	mov	ecx, DWORD PTR __Val$[ebp]
	push	ecx
	mov	ecx, DWORD PTR _this$[ebp]
	call	?_Rmost@?$_Tree@V?$_Tmap_traits@V?$basic_string@DU?$char_traits@D@std@@V?$allocator@D@2@@std@@V?$basic_string@GU?$char_traits@G@std@@V?$allocator@G@2@@2@U?$less@V?$basic_string@DU?$char_traits@D@std@@V?$allocator@D@2@@std@@@2@V?$allocator@U?$pair@$$CBV?$basic_string@DU?$char_traits@D@std@@V?$allocator@D@2@@std@@V?$basic_string@GU?$char_traits@G@std@@V?$allocator@G@2@@2@@std@@@2@$0A@@std@@@std@@IBEAAPAU_Node@?$_Tree_nod@V?$_Tmap_traits@V?$basic_string@DU?$char_traits@D@std@@V?$allocator@D@2@@std@@V?$basic_string@GU?$char_traits@G@std@@V?$allocator@G@2@@2@U?$less@V?$basic_string@DU?$char_traits@D@std@@V?$allocator@D@2@@std@@@2@V?$allocator@U?$pair@$$CBV?$basic_string@DU?$char_traits@D@std@@V?$allocator@D@2@@std@@V?$basic_string@GU?$char_traits@G@std@@V?$allocator@G@2@@2@@std@@@2@$0A@@std@@@2@XZ ; std::_Tree<std::_Tmap_traits<std::basic_string<char,std::char_traits<char>,std::allocator<char> >,std::basic_string<unsigned short,std::char_traits<unsigned short>,std::allocator<unsigned short> >,std::less<std::basic_string<char,std::char_traits<char>,std::allocator<char> > >,std::allocator<std::pair<std::basic_string<char,std::char_traits<char>,std::allocator<char> > const ,std::basic_string<unsigned short,std::char_traits<unsigned short>,std::allocator<unsigned short> > > >,0> >::_Rmost
	mov	edx, DWORD PTR [eax]
	push	edx
	push	0
	mov	eax, DWORD PTR ___$ReturnUdt$[ebp]
	push	eax
	mov	ecx, DWORD PTR _this$[ebp]
	call	?_Insert@?$_Tree@V?$_Tmap_traits@V?$basic_string@DU?$char_traits@D@std@@V?$allocator@D@2@@std@@V?$basic_string@GU?$char_traits@G@std@@V?$allocator@G@2@@2@U?$less@V?$basic_string@DU?$char_traits@D@std@@V?$allocator@D@2@@std@@@2@V?$allocator@U?$pair@$$CBV?$basic_string@DU?$char_traits@D@std@@V?$allocator@D@2@@std@@V?$basic_string@GU?$char_traits@G@std@@V?$allocator@G@2@@2@@std@@@2@$0A@@std@@@std@@IAE?AViterator@12@_NPAU_Node@?$_Tree_nod@V?$_Tmap_traits@V?$basic_string@DU?$char_traits@D@std@@V?$allocator@D@2@@std@@V?$basic_string@GU?$char_traits@G@std@@V?$allocator@G@2@@2@U?$less@V?$basic_string@DU?$char_traits@D@std@@V?$allocator@D@2@@std@@@2@V?$allocator@U?$pair@$$CBV?$basic_string@DU?$char_traits@D@std@@V?$allocator@D@2@@std@@V?$basic_string@GU?$char_traits@G@std@@V?$allocator@G@2@@2@@std@@@2@$0A@@std@@@2@ABU?$pair@$$CBV?$basic_string@DU?$char_traits@D@std@@V?$allocator@D@2@@std@@V?$basic_string@GU?$char_traits@G@std@@V?$allocator@G@2@@2@@2@@Z ; std::_Tree<std::_Tmap_traits<std::basic_string<char,std::char_traits<char>,std::allocator<char> >,std::basic_string<unsigned short,std::char_traits<unsigned short>,std::allocator<unsigned short> >,std::less<std::basic_string<char,std::char_traits<char>,std::allocator<char> > >,std::allocator<std::pair<std::basic_string<char,std::char_traits<char>,std::allocator<char> > const ,std::basic_string<unsigned short,std::char_traits<unsigned short>,std::allocator<unsigned short> > > >,0> >::_Insert
	mov	eax, DWORD PTR ___$ReturnUdt$[ebp]
	jmp	$LN33@insert
$LN25@insert:
; Line 689
	jmp	$LN27@insert
$LN26@insert:
; Line 691
	mov	ecx, DWORD PTR __Val$[ebp]
	push	ecx
	call	?_Kfn@?$_Tmap_traits@V?$basic_string@DU?$char_traits@D@std@@V?$allocator@D@2@@std@@V?$basic_string@GU?$char_traits@G@std@@V?$allocator@G@2@@2@U?$less@V?$basic_string@DU?$char_traits@D@std@@V?$allocator@D@2@@std@@@2@V?$allocator@U?$pair@$$CBV?$basic_string@DU?$char_traits@D@std@@V?$allocator@D@2@@std@@V?$basic_string@GU?$char_traits@G@std@@V?$allocator@G@2@@2@@std@@@2@$0A@@std@@SAABV?$basic_string@DU?$char_traits@D@std@@V?$allocator@D@2@@2@ABU?$pair@$$CBV?$basic_string@DU?$char_traits@D@std@@V?$allocator@D@2@@std@@V?$basic_string@GU?$char_traits@G@std@@V?$allocator@G@2@@2@@2@@Z ; std::_Tmap_traits<std::basic_string<char,std::char_traits<char>,std::allocator<char> >,std::basic_string<unsigned short,std::char_traits<unsigned short>,std::allocator<unsigned short> >,std::less<std::basic_string<char,std::char_traits<char>,std::allocator<char> > >,std::allocator<std::pair<std::basic_string<char,std::char_traits<char>,std::allocator<char> > const ,std::basic_string<unsigned short,std::char_traits<unsigned short>,std::allocator<unsigned short> > > >,0>::_Kfn
	add	esp, 4
	push	eax
	lea	ecx, DWORD PTR __Where$[ebp]
	call	?_Mynode@const_iterator@?$_Tree@V?$_Tmap_traits@V?$basic_string@DU?$char_traits@D@std@@V?$allocator@D@2@@std@@V?$basic_string@GU?$char_traits@G@std@@V?$allocator@G@2@@2@U?$less@V?$basic_string@DU?$char_traits@D@std@@V?$allocator@D@2@@std@@@2@V?$allocator@U?$pair@$$CBV?$basic_string@DU?$char_traits@D@std@@V?$allocator@D@2@@std@@V?$basic_string@GU?$char_traits@G@std@@V?$allocator@G@2@@2@@std@@@2@$0A@@std@@@std@@QBEPAU_Node@?$_Tree_nod@V?$_Tmap_traits@V?$basic_string@DU?$char_traits@D@std@@V?$allocator@D@2@@std@@V?$basic_string@GU?$char_traits@G@std@@V?$allocator@G@2@@2@U?$less@V?$basic_string@DU?$char_traits@D@std@@V?$allocator@D@2@@std@@@2@V?$allocator@U?$pair@$$CBV?$basic_string@DU?$char_traits@D@std@@V?$allocator@D@2@@std@@V?$basic_string@GU?$char_traits@G@std@@V?$allocator@G@2@@2@@std@@@2@$0A@@std@@@3@XZ ; std::_Tree<std::_Tmap_traits<std::basic_string<char,std::char_traits<char>,std::allocator<char> >,std::basic_string<unsigned short,std::char_traits<unsigned short>,std::allocator<unsigned short> >,std::less<std::basic_string<char,std::char_traits<char>,std::allocator<char> > >,std::allocator<std::pair<std::basic_string<char,std::char_traits<char>,std::allocator<char> > const ,std::basic_string<unsigned short,std::char_traits<unsigned short>,std::allocator<unsigned short> > > >,0> >::const_iterator::_Mynode
	push	eax
	call	?_Key@?$_Tree@V?$_Tmap_traits@V?$basic_string@DU?$char_traits@D@std@@V?$allocator@D@2@@std@@V?$basic_string@GU?$char_traits@G@std@@V?$allocator@G@2@@2@U?$less@V?$basic_string@DU?$char_traits@D@std@@V?$allocator@D@2@@std@@@2@V?$allocator@U?$pair@$$CBV?$basic_string@DU?$char_traits@D@std@@V?$allocator@D@2@@std@@V?$basic_string@GU?$char_traits@G@std@@V?$allocator@G@2@@2@@std@@@2@$0A@@std@@@std@@KAABV?$basic_string@DU?$char_traits@D@std@@V?$allocator@D@2@@2@PAU_Node@?$_Tree_nod@V?$_Tmap_traits@V?$basic_string@DU?$char_traits@D@std@@V?$allocator@D@2@@std@@V?$basic_string@GU?$char_traits@G@std@@V?$allocator@G@2@@2@U?$less@V?$basic_string@DU?$char_traits@D@std@@V?$allocator@D@2@@std@@@2@V?$allocator@U?$pair@$$CBV?$basic_string@DU?$char_traits@D@std@@V?$allocator@D@2@@std@@V?$basic_string@GU?$char_traits@G@std@@V?$allocator@G@2@@2@@std@@@2@$0A@@std@@@2@@Z ; std::_Tree<std::_Tmap_traits<std::basic_string<char,std::char_traits<char>,std::allocator<char> >,std::basic_string<unsigned short,std::char_traits<unsigned short>,std::allocator<unsigned short> >,std::less<std::basic_string<char,std::char_traits<char>,std::allocator<char> > >,std::allocator<std::pair<std::basic_string<char,std::char_traits<char>,std::allocator<char> > const ,std::basic_string<unsigned short,std::char_traits<unsigned short>,std::allocator<unsigned short> > > >,0> >::_Key
	add	esp, 4
	push	eax
	mov	ecx, DWORD PTR _this$[ebp]
	add	ecx, 8
	call	??R?$less@V?$basic_string@DU?$char_traits@D@std@@V?$allocator@D@2@@std@@@std@@QBE_NABV?$basic_string@DU?$char_traits@D@std@@V?$allocator@D@2@@1@0@Z ; std::less<std::basic_string<char,std::char_traits<char>,std::allocator<char> > >::operator()
	movzx	edx, al
	test	edx, edx
	jne	$LN23@insert
	mov	eax, DWORD PTR __Where$[ebp]
	mov	DWORD PTR __Next$[ebp], eax
	mov	ecx, DWORD PTR __Where$[ebp+4]
	mov	DWORD PTR __Next$[ebp+4], ecx
	lea	ecx, DWORD PTR __Next$[ebp]
	call	??Fconst_iterator@?$_Tree@V?$_Tmap_traits@V?$basic_string@DU?$char_traits@D@std@@V?$allocator@D@2@@std@@V?$basic_string@GU?$char_traits@G@std@@V?$allocator@G@2@@2@U?$less@V?$basic_string@DU?$char_traits@D@std@@V?$allocator@D@2@@std@@@2@V?$allocator@U?$pair@$$CBV?$basic_string@DU?$char_traits@D@std@@V?$allocator@D@2@@std@@V?$basic_string@GU?$char_traits@G@std@@V?$allocator@G@2@@2@@std@@@2@$0A@@std@@@std@@QAEAAV012@XZ ; std::_Tree<std::_Tmap_traits<std::basic_string<char,std::char_traits<char>,std::allocator<char> >,std::basic_string<unsigned short,std::char_traits<unsigned short>,std::allocator<unsigned short> >,std::less<std::basic_string<char,std::char_traits<char>,std::allocator<char> > >,std::allocator<std::pair<std::basic_string<char,std::char_traits<char>,std::allocator<char> > const ,std::basic_string<unsigned short,std::char_traits<unsigned short>,std::allocator<unsigned short> > > >,0> >::const_iterator::operator--
	mov	ecx, eax
	call	?_Mynode@const_iterator@?$_Tree@V?$_Tmap_traits@V?$basic_string@DU?$char_traits@D@std@@V?$allocator@D@2@@std@@V?$basic_string@GU?$char_traits@G@std@@V?$allocator@G@2@@2@U?$less@V?$basic_string@DU?$char_traits@D@std@@V?$allocator@D@2@@std@@@2@V?$allocator@U?$pair@$$CBV?$basic_string@DU?$char_traits@D@std@@V?$allocator@D@2@@std@@V?$basic_string@GU?$char_traits@G@std@@V?$allocator@G@2@@2@@std@@@2@$0A@@std@@@std@@QBEPAU_Node@?$_Tree_nod@V?$_Tmap_traits@V?$basic_string@DU?$char_traits@D@std@@V?$allocator@D@2@@std@@V?$basic_string@GU?$char_traits@G@std@@V?$allocator@G@2@@2@U?$less@V?$basic_string@DU?$char_traits@D@std@@V?$allocator@D@2@@std@@@2@V?$allocator@U?$pair@$$CBV?$basic_string@DU?$char_traits@D@std@@V?$allocator@D@2@@std@@V?$basic_string@GU?$char_traits@G@std@@V?$allocator@G@2@@2@@std@@@2@$0A@@std@@@3@XZ ; std::_Tree<std::_Tmap_traits<std::basic_string<char,std::char_traits<char>,std::allocator<char> >,std::basic_string<unsigned short,std::char_traits<unsigned short>,std::allocator<unsigned short> >,std::less<std::basic_string<char,std::char_traits<char>,std::allocator<char> > >,std::allocator<std::pair<std::basic_string<char,std::char_traits<char>,std::allocator<char> > const ,std::basic_string<unsigned short,std::char_traits<unsigned short>,std::allocator<unsigned short> > > >,0> >::const_iterator::_Mynode
	push	eax
	call	?_Key@?$_Tree@V?$_Tmap_traits@V?$basic_string@DU?$char_traits@D@std@@V?$allocator@D@2@@std@@V?$basic_string@GU?$char_traits@G@std@@V?$allocator@G@2@@2@U?$less@V?$basic_string@DU?$char_traits@D@std@@V?$allocator@D@2@@std@@@2@V?$allocator@U?$pair@$$CBV?$basic_string@DU?$char_traits@D@std@@V?$allocator@D@2@@std@@V?$basic_string@GU?$char_traits@G@std@@V?$allocator@G@2@@2@@std@@@2@$0A@@std@@@std@@KAABV?$basic_string@DU?$char_traits@D@std@@V?$allocator@D@2@@2@PAU_Node@?$_Tree_nod@V?$_Tmap_traits@V?$basic_string@DU?$char_traits@D@std@@V?$allocator@D@2@@std@@V?$basic_string@GU?$char_traits@G@std@@V?$allocator@G@2@@2@U?$less@V?$basic_string@DU?$char_traits@D@std@@V?$allocator@D@2@@std@@@2@V?$allocator@U?$pair@$$CBV?$basic_string@DU?$char_traits@D@std@@V?$allocator@D@2@@std@@V?$basic_string@GU?$char_traits@G@std@@V?$allocator@G@2@@2@@std@@@2@$0A@@std@@@2@@Z ; std::_Tree<std::_Tmap_traits<std::basic_string<char,std::char_traits<char>,std::allocator<char> >,std::basic_string<unsigned short,std::char_traits<unsigned short>,std::allocator<unsigned short> >,std::less<std::basic_string<char,std::char_traits<char>,std::allocator<char> > >,std::allocator<std::pair<std::basic_string<char,std::char_traits<char>,std::allocator<char> > const ,std::basic_string<unsigned short,std::char_traits<unsigned short>,std::allocator<unsigned short> > > >,0> >::_Key
	add	esp, 4
	push	eax
	mov	edx, DWORD PTR __Val$[ebp]
	push	edx
	call	?_Kfn@?$_Tmap_traits@V?$basic_string@DU?$char_traits@D@std@@V?$allocator@D@2@@std@@V?$basic_string@GU?$char_traits@G@std@@V?$allocator@G@2@@2@U?$less@V?$basic_string@DU?$char_traits@D@std@@V?$allocator@D@2@@std@@@2@V?$allocator@U?$pair@$$CBV?$basic_string@DU?$char_traits@D@std@@V?$allocator@D@2@@std@@V?$basic_string@GU?$char_traits@G@std@@V?$allocator@G@2@@2@@std@@@2@$0A@@std@@SAABV?$basic_string@DU?$char_traits@D@std@@V?$allocator@D@2@@2@ABU?$pair@$$CBV?$basic_string@DU?$char_traits@D@std@@V?$allocator@D@2@@std@@V?$basic_string@GU?$char_traits@G@std@@V?$allocator@G@2@@2@@2@@Z ; std::_Tmap_traits<std::basic_string<char,std::char_traits<char>,std::allocator<char> >,std::basic_string<unsigned short,std::char_traits<unsigned short>,std::allocator<unsigned short> >,std::less<std::basic_string<char,std::char_traits<char>,std::allocator<char> > >,std::allocator<std::pair<std::basic_string<char,std::char_traits<char>,std::allocator<char> > const ,std::basic_string<unsigned short,std::char_traits<unsigned short>,std::allocator<unsigned short> > > >,0>::_Kfn
	add	esp, 4
	push	eax
	mov	ecx, DWORD PTR _this$[ebp]
	add	ecx, 8
	call	??R?$less@V?$basic_string@DU?$char_traits@D@std@@V?$allocator@D@2@@std@@@std@@QBE_NABV?$basic_string@DU?$char_traits@D@std@@V?$allocator@D@2@@1@0@Z ; std::less<std::basic_string<char,std::char_traits<char>,std::allocator<char> > >::operator()
	movzx	eax, al
	test	eax, eax
	jne	SHORT $LN23@insert
; Line 694
	lea	ecx, DWORD PTR __Next$[ebp]
	call	?_Mynode@const_iterator@?$_Tree@V?$_Tmap_traits@V?$basic_string@DU?$char_traits@D@std@@V?$allocator@D@2@@std@@V?$basic_string@GU?$char_traits@G@std@@V?$allocator@G@2@@2@U?$less@V?$basic_string@DU?$char_traits@D@std@@V?$allocator@D@2@@std@@@2@V?$allocator@U?$pair@$$CBV?$basic_string@DU?$char_traits@D@std@@V?$allocator@D@2@@std@@V?$basic_string@GU?$char_traits@G@std@@V?$allocator@G@2@@2@@std@@@2@$0A@@std@@@std@@QBEPAU_Node@?$_Tree_nod@V?$_Tmap_traits@V?$basic_string@DU?$char_traits@D@std@@V?$allocator@D@2@@std@@V?$basic_string@GU?$char_traits@G@std@@V?$allocator@G@2@@2@U?$less@V?$basic_string@DU?$char_traits@D@std@@V?$allocator@D@2@@std@@@2@V?$allocator@U?$pair@$$CBV?$basic_string@DU?$char_traits@D@std@@V?$allocator@D@2@@std@@V?$basic_string@GU?$char_traits@G@std@@V?$allocator@G@2@@2@@std@@@2@$0A@@std@@@3@XZ ; std::_Tree<std::_Tmap_traits<std::basic_string<char,std::char_traits<char>,std::allocator<char> >,std::basic_string<unsigned short,std::char_traits<unsigned short>,std::allocator<unsigned short> >,std::less<std::basic_string<char,std::char_traits<char>,std::allocator<char> > >,std::allocator<std::pair<std::basic_string<char,std::char_traits<char>,std::allocator<char> > const ,std::basic_string<unsigned short,std::char_traits<unsigned short>,std::allocator<unsigned short> > > >,0> >::const_iterator::_Mynode
	push	eax
	call	?_Right@?$_Tree@V?$_Tmap_traits@V?$basic_string@DU?$char_traits@D@std@@V?$allocator@D@2@@std@@V?$basic_string@GU?$char_traits@G@std@@V?$allocator@G@2@@2@U?$less@V?$basic_string@DU?$char_traits@D@std@@V?$allocator@D@2@@std@@@2@V?$allocator@U?$pair@$$CBV?$basic_string@DU?$char_traits@D@std@@V?$allocator@D@2@@std@@V?$basic_string@GU?$char_traits@G@std@@V?$allocator@G@2@@2@@std@@@2@$0A@@std@@@std@@KAAAPAU_Node@?$_Tree_nod@V?$_Tmap_traits@V?$basic_string@DU?$char_traits@D@std@@V?$allocator@D@2@@std@@V?$basic_string@GU?$char_traits@G@std@@V?$allocator@G@2@@2@U?$less@V?$basic_string@DU?$char_traits@D@std@@V?$allocator@D@2@@std@@@2@V?$allocator@U?$pair@$$CBV?$basic_string@DU?$char_traits@D@std@@V?$allocator@D@2@@std@@V?$basic_string@GU?$char_traits@G@std@@V?$allocator@G@2@@2@@std@@@2@$0A@@std@@@2@PAU342@@Z ; std::_Tree<std::_Tmap_traits<std::basic_string<char,std::char_traits<char>,std::allocator<char> >,std::basic_string<unsigned short,std::char_traits<unsigned short>,std::allocator<unsigned short> >,std::less<std::basic_string<char,std::char_traits<char>,std::allocator<char> > >,std::allocator<std::pair<std::basic_string<char,std::char_traits<char>,std::allocator<char> > const ,std::basic_string<unsigned short,std::char_traits<unsigned short>,std::allocator<unsigned short> > > >,0> >::_Right
	add	esp, 4
	mov	ecx, DWORD PTR [eax]
	push	ecx
	call	?_Isnil@?$_Tree@V?$_Tmap_traits@V?$basic_string@DU?$char_traits@D@std@@V?$allocator@D@2@@std@@V?$basic_string@GU?$char_traits@G@std@@V?$allocator@G@2@@2@U?$less@V?$basic_string@DU?$char_traits@D@std@@V?$allocator@D@2@@std@@@2@V?$allocator@U?$pair@$$CBV?$basic_string@DU?$char_traits@D@std@@V?$allocator@D@2@@std@@V?$basic_string@GU?$char_traits@G@std@@V?$allocator@G@2@@2@@std@@@2@$0A@@std@@@std@@KAAADPAU_Node@?$_Tree_nod@V?$_Tmap_traits@V?$basic_string@DU?$char_traits@D@std@@V?$allocator@D@2@@std@@V?$basic_string@GU?$char_traits@G@std@@V?$allocator@G@2@@2@U?$less@V?$basic_string@DU?$char_traits@D@std@@V?$allocator@D@2@@std@@@2@V?$allocator@U?$pair@$$CBV?$basic_string@DU?$char_traits@D@std@@V?$allocator@D@2@@std@@V?$basic_string@GU?$char_traits@G@std@@V?$allocator@G@2@@2@@std@@@2@$0A@@std@@@2@@Z ; std::_Tree<std::_Tmap_traits<std::basic_string<char,std::char_traits<char>,std::allocator<char> >,std::basic_string<unsigned short,std::char_traits<unsigned short>,std::allocator<unsigned short> >,std::less<std::basic_string<char,std::char_traits<char>,std::allocator<char> > >,std::allocator<std::pair<std::basic_string<char,std::char_traits<char>,std::allocator<char> > const ,std::basic_string<unsigned short,std::char_traits<unsigned short>,std::allocator<unsigned short> > > >,0> >::_Isnil
	add	esp, 4
	movsx	edx, BYTE PTR [eax]
	test	edx, edx
	je	SHORT $LN22@insert
; Line 695
	mov	eax, DWORD PTR __Val$[ebp]
	push	eax
	lea	ecx, DWORD PTR __Next$[ebp]
	call	?_Mynode@const_iterator@?$_Tree@V?$_Tmap_traits@V?$basic_string@DU?$char_traits@D@std@@V?$allocator@D@2@@std@@V?$basic_string@GU?$char_traits@G@std@@V?$allocator@G@2@@2@U?$less@V?$basic_string@DU?$char_traits@D@std@@V?$allocator@D@2@@std@@@2@V?$allocator@U?$pair@$$CBV?$basic_string@DU?$char_traits@D@std@@V?$allocator@D@2@@std@@V?$basic_string@GU?$char_traits@G@std@@V?$allocator@G@2@@2@@std@@@2@$0A@@std@@@std@@QBEPAU_Node@?$_Tree_nod@V?$_Tmap_traits@V?$basic_string@DU?$char_traits@D@std@@V?$allocator@D@2@@std@@V?$basic_string@GU?$char_traits@G@std@@V?$allocator@G@2@@2@U?$less@V?$basic_string@DU?$char_traits@D@std@@V?$allocator@D@2@@std@@@2@V?$allocator@U?$pair@$$CBV?$basic_string@DU?$char_traits@D@std@@V?$allocator@D@2@@std@@V?$basic_string@GU?$char_traits@G@std@@V?$allocator@G@2@@2@@std@@@2@$0A@@std@@@3@XZ ; std::_Tree<std::_Tmap_traits<std::basic_string<char,std::char_traits<char>,std::allocator<char> >,std::basic_string<unsigned short,std::char_traits<unsigned short>,std::allocator<unsigned short> >,std::less<std::basic_string<char,std::char_traits<char>,std::allocator<char> > >,std::allocator<std::pair<std::basic_string<char,std::char_traits<char>,std::allocator<char> > const ,std::basic_string<unsigned short,std::char_traits<unsigned short>,std::allocator<unsigned short> > > >,0> >::const_iterator::_Mynode
	push	eax
	push	0
	mov	ecx, DWORD PTR ___$ReturnUdt$[ebp]
	push	ecx
	mov	ecx, DWORD PTR _this$[ebp]
	call	?_Insert@?$_Tree@V?$_Tmap_traits@V?$basic_string@DU?$char_traits@D@std@@V?$allocator@D@2@@std@@V?$basic_string@GU?$char_traits@G@std@@V?$allocator@G@2@@2@U?$less@V?$basic_string@DU?$char_traits@D@std@@V?$allocator@D@2@@std@@@2@V?$allocator@U?$pair@$$CBV?$basic_string@DU?$char_traits@D@std@@V?$allocator@D@2@@std@@V?$basic_string@GU?$char_traits@G@std@@V?$allocator@G@2@@2@@std@@@2@$0A@@std@@@std@@IAE?AViterator@12@_NPAU_Node@?$_Tree_nod@V?$_Tmap_traits@V?$basic_string@DU?$char_traits@D@std@@V?$allocator@D@2@@std@@V?$basic_string@GU?$char_traits@G@std@@V?$allocator@G@2@@2@U?$less@V?$basic_string@DU?$char_traits@D@std@@V?$allocator@D@2@@std@@@2@V?$allocator@U?$pair@$$CBV?$basic_string@DU?$char_traits@D@std@@V?$allocator@D@2@@std@@V?$basic_string@GU?$char_traits@G@std@@V?$allocator@G@2@@2@@std@@@2@$0A@@std@@@2@ABU?$pair@$$CBV?$basic_string@DU?$char_traits@D@std@@V?$allocator@D@2@@std@@V?$basic_string@GU?$char_traits@G@std@@V?$allocator@G@2@@2@@2@@Z ; std::_Tree<std::_Tmap_traits<std::basic_string<char,std::char_traits<char>,std::allocator<char> >,std::basic_string<unsigned short,std::char_traits<unsigned short>,std::allocator<unsigned short> >,std::less<std::basic_string<char,std::char_traits<char>,std::allocator<char> > >,std::allocator<std::pair<std::basic_string<char,std::char_traits<char>,std::allocator<char> > const ,std::basic_string<unsigned short,std::char_traits<unsigned short>,std::allocator<unsigned short> > > >,0> >::_Insert
	mov	eax, DWORD PTR ___$ReturnUdt$[ebp]
	jmp	$LN33@insert
; Line 696
	jmp	SHORT $LN21@insert
$LN22@insert:
; Line 697
	mov	edx, DWORD PTR __Val$[ebp]
	push	edx
	lea	ecx, DWORD PTR __Where$[ebp]
	call	?_Mynode@const_iterator@?$_Tree@V?$_Tmap_traits@V?$basic_string@DU?$char_traits@D@std@@V?$allocator@D@2@@std@@V?$basic_string@GU?$char_traits@G@std@@V?$allocator@G@2@@2@U?$less@V?$basic_string@DU?$char_traits@D@std@@V?$allocator@D@2@@std@@@2@V?$allocator@U?$pair@$$CBV?$basic_string@DU?$char_traits@D@std@@V?$allocator@D@2@@std@@V?$basic_string@GU?$char_traits@G@std@@V?$allocator@G@2@@2@@std@@@2@$0A@@std@@@std@@QBEPAU_Node@?$_Tree_nod@V?$_Tmap_traits@V?$basic_string@DU?$char_traits@D@std@@V?$allocator@D@2@@std@@V?$basic_string@GU?$char_traits@G@std@@V?$allocator@G@2@@2@U?$less@V?$basic_string@DU?$char_traits@D@std@@V?$allocator@D@2@@std@@@2@V?$allocator@U?$pair@$$CBV?$basic_string@DU?$char_traits@D@std@@V?$allocator@D@2@@std@@V?$basic_string@GU?$char_traits@G@std@@V?$allocator@G@2@@2@@std@@@2@$0A@@std@@@3@XZ ; std::_Tree<std::_Tmap_traits<std::basic_string<char,std::char_traits<char>,std::allocator<char> >,std::basic_string<unsigned short,std::char_traits<unsigned short>,std::allocator<unsigned short> >,std::less<std::basic_string<char,std::char_traits<char>,std::allocator<char> > >,std::allocator<std::pair<std::basic_string<char,std::char_traits<char>,std::allocator<char> > const ,std::basic_string<unsigned short,std::char_traits<unsigned short>,std::allocator<unsigned short> > > >,0> >::const_iterator::_Mynode
	push	eax
	push	1
	mov	eax, DWORD PTR ___$ReturnUdt$[ebp]
	push	eax
	mov	ecx, DWORD PTR _this$[ebp]
	call	?_Insert@?$_Tree@V?$_Tmap_traits@V?$basic_string@DU?$char_traits@D@std@@V?$allocator@D@2@@std@@V?$basic_string@GU?$char_traits@G@std@@V?$allocator@G@2@@2@U?$less@V?$basic_string@DU?$char_traits@D@std@@V?$allocator@D@2@@std@@@2@V?$allocator@U?$pair@$$CBV?$basic_string@DU?$char_traits@D@std@@V?$allocator@D@2@@std@@V?$basic_string@GU?$char_traits@G@std@@V?$allocator@G@2@@2@@std@@@2@$0A@@std@@@std@@IAE?AViterator@12@_NPAU_Node@?$_Tree_nod@V?$_Tmap_traits@V?$basic_string@DU?$char_traits@D@std@@V?$allocator@D@2@@std@@V?$basic_string@GU?$char_traits@G@std@@V?$allocator@G@2@@2@U?$less@V?$basic_string@DU?$char_traits@D@std@@V?$allocator@D@2@@std@@@2@V?$allocator@U?$pair@$$CBV?$basic_string@DU?$char_traits@D@std@@V?$allocator@D@2@@std@@V?$basic_string@GU?$char_traits@G@std@@V?$allocator@G@2@@2@@std@@@2@$0A@@std@@@2@ABU?$pair@$$CBV?$basic_string@DU?$char_traits@D@std@@V?$allocator@D@2@@std@@V?$basic_string@GU?$char_traits@G@std@@V?$allocator@G@2@@2@@2@@Z ; std::_Tree<std::_Tmap_traits<std::basic_string<char,std::char_traits<char>,std::allocator<char> >,std::basic_string<unsigned short,std::char_traits<unsigned short>,std::allocator<unsigned short> >,std::less<std::basic_string<char,std::char_traits<char>,std::allocator<char> > >,std::allocator<std::pair<std::basic_string<char,std::char_traits<char>,std::allocator<char> > const ,std::basic_string<unsigned short,std::char_traits<unsigned short>,std::allocator<unsigned short> > > >,0> >::_Insert
	mov	eax, DWORD PTR ___$ReturnUdt$[ebp]
	jmp	$LN33@insert
$LN21@insert:
; Line 699
	jmp	$LN27@insert
$LN23@insert:
; Line 702
	lea	ecx, DWORD PTR __Where$[ebp]
	call	?_Mynode@const_iterator@?$_Tree@V?$_Tmap_traits@V?$basic_string@DU?$char_traits@D@std@@V?$allocator@D@2@@std@@V?$basic_string@GU?$char_traits@G@std@@V?$allocator@G@2@@2@U?$less@V?$basic_string@DU?$char_traits@D@std@@V?$allocator@D@2@@std@@@2@V?$allocator@U?$pair@$$CBV?$basic_string@DU?$char_traits@D@std@@V?$allocator@D@2@@std@@V?$basic_string@GU?$char_traits@G@std@@V?$allocator@G@2@@2@@std@@@2@$0A@@std@@@std@@QBEPAU_Node@?$_Tree_nod@V?$_Tmap_traits@V?$basic_string@DU?$char_traits@D@std@@V?$allocator@D@2@@std@@V?$basic_string@GU?$char_traits@G@std@@V?$allocator@G@2@@2@U?$less@V?$basic_string@DU?$char_traits@D@std@@V?$allocator@D@2@@std@@@2@V?$allocator@U?$pair@$$CBV?$basic_string@DU?$char_traits@D@std@@V?$allocator@D@2@@std@@V?$basic_string@GU?$char_traits@G@std@@V?$allocator@G@2@@2@@std@@@2@$0A@@std@@@3@XZ ; std::_Tree<std::_Tmap_traits<std::basic_string<char,std::char_traits<char>,std::allocator<char> >,std::basic_string<unsigned short,std::char_traits<unsigned short>,std::allocator<unsigned short> >,std::less<std::basic_string<char,std::char_traits<char>,std::allocator<char> > >,std::allocator<std::pair<std::basic_string<char,std::char_traits<char>,std::allocator<char> > const ,std::basic_string<unsigned short,std::char_traits<unsigned short>,std::allocator<unsigned short> > > >,0> >::const_iterator::_Mynode
	push	eax
	call	?_Key@?$_Tree@V?$_Tmap_traits@V?$basic_string@DU?$char_traits@D@std@@V?$allocator@D@2@@std@@V?$basic_string@GU?$char_traits@G@std@@V?$allocator@G@2@@2@U?$less@V?$basic_string@DU?$char_traits@D@std@@V?$allocator@D@2@@std@@@2@V?$allocator@U?$pair@$$CBV?$basic_string@DU?$char_traits@D@std@@V?$allocator@D@2@@std@@V?$basic_string@GU?$char_traits@G@std@@V?$allocator@G@2@@2@@std@@@2@$0A@@std@@@std@@KAABV?$basic_string@DU?$char_traits@D@std@@V?$allocator@D@2@@2@PAU_Node@?$_Tree_nod@V?$_Tmap_traits@V?$basic_string@DU?$char_traits@D@std@@V?$allocator@D@2@@std@@V?$basic_string@GU?$char_traits@G@std@@V?$allocator@G@2@@2@U?$less@V?$basic_string@DU?$char_traits@D@std@@V?$allocator@D@2@@std@@@2@V?$allocator@U?$pair@$$CBV?$basic_string@DU?$char_traits@D@std@@V?$allocator@D@2@@std@@V?$basic_string@GU?$char_traits@G@std@@V?$allocator@G@2@@2@@std@@@2@$0A@@std@@@2@@Z ; std::_Tree<std::_Tmap_traits<std::basic_string<char,std::char_traits<char>,std::allocator<char> >,std::basic_string<unsigned short,std::char_traits<unsigned short>,std::allocator<unsigned short> >,std::less<std::basic_string<char,std::char_traits<char>,std::allocator<char> > >,std::allocator<std::pair<std::basic_string<char,std::char_traits<char>,std::allocator<char> > const ,std::basic_string<unsigned short,std::char_traits<unsigned short>,std::allocator<unsigned short> > > >,0> >::_Key
	add	esp, 4
	push	eax
	mov	ecx, DWORD PTR __Val$[ebp]
	push	ecx
	call	?_Kfn@?$_Tmap_traits@V?$basic_string@DU?$char_traits@D@std@@V?$allocator@D@2@@std@@V?$basic_string@GU?$char_traits@G@std@@V?$allocator@G@2@@2@U?$less@V?$basic_string@DU?$char_traits@D@std@@V?$allocator@D@2@@std@@@2@V?$allocator@U?$pair@$$CBV?$basic_string@DU?$char_traits@D@std@@V?$allocator@D@2@@std@@V?$basic_string@GU?$char_traits@G@std@@V?$allocator@G@2@@2@@std@@@2@$0A@@std@@SAABV?$basic_string@DU?$char_traits@D@std@@V?$allocator@D@2@@2@ABU?$pair@$$CBV?$basic_string@DU?$char_traits@D@std@@V?$allocator@D@2@@std@@V?$basic_string@GU?$char_traits@G@std@@V?$allocator@G@2@@2@@2@@Z ; std::_Tmap_traits<std::basic_string<char,std::char_traits<char>,std::allocator<char> >,std::basic_string<unsigned short,std::char_traits<unsigned short>,std::allocator<unsigned short> >,std::less<std::basic_string<char,std::char_traits<char>,std::allocator<char> > >,std::allocator<std::pair<std::basic_string<char,std::char_traits<char>,std::allocator<char> > const ,std::basic_string<unsigned short,std::char_traits<unsigned short>,std::allocator<unsigned short> > > >,0>::_Kfn
	add	esp, 4
	push	eax
	mov	ecx, DWORD PTR _this$[ebp]
	add	ecx, 8
	call	??R?$less@V?$basic_string@DU?$char_traits@D@std@@V?$allocator@D@2@@std@@@std@@QBE_NABV?$basic_string@DU?$char_traits@D@std@@V?$allocator@D@2@@1@0@Z ; std::less<std::basic_string<char,std::char_traits<char>,std::allocator<char> > >::operator()
	movzx	edx, al
	test	edx, edx
	jne	$LN27@insert
	mov	eax, DWORD PTR __Where$[ebp]
	mov	DWORD PTR __Next$[ebp], eax
	mov	ecx, DWORD PTR __Where$[ebp+4]
	mov	DWORD PTR __Next$[ebp+4], ecx
	lea	edx, DWORD PTR $T146016[ebp]
	push	edx
	mov	ecx, DWORD PTR _this$[ebp]
	call	?end@?$_Tree@V?$_Tmap_traits@V?$basic_string@DU?$char_traits@D@std@@V?$allocator@D@2@@std@@V?$basic_string@GU?$char_traits@G@std@@V?$allocator@G@2@@2@U?$less@V?$basic_string@DU?$char_traits@D@std@@V?$allocator@D@2@@std@@@2@V?$allocator@U?$pair@$$CBV?$basic_string@DU?$char_traits@D@std@@V?$allocator@D@2@@std@@V?$basic_string@GU?$char_traits@G@std@@V?$allocator@G@2@@2@@std@@@2@$0A@@std@@@std@@QAE?AViterator@12@XZ ; std::_Tree<std::_Tmap_traits<std::basic_string<char,std::char_traits<char>,std::allocator<char> >,std::basic_string<unsigned short,std::char_traits<unsigned short>,std::allocator<unsigned short> >,std::less<std::basic_string<char,std::char_traits<char>,std::allocator<char> > >,std::allocator<std::pair<std::basic_string<char,std::char_traits<char>,std::allocator<char> > const ,std::basic_string<unsigned short,std::char_traits<unsigned short>,std::allocator<unsigned short> > > >,0> >::end
	push	eax
	lea	ecx, DWORD PTR __Next$[ebp]
	call	??Econst_iterator@?$_Tree@V?$_Tmap_traits@V?$basic_string@DU?$char_traits@D@std@@V?$allocator@D@2@@std@@V?$basic_string@GU?$char_traits@G@std@@V?$allocator@G@2@@2@U?$less@V?$basic_string@DU?$char_traits@D@std@@V?$allocator@D@2@@std@@@2@V?$allocator@U?$pair@$$CBV?$basic_string@DU?$char_traits@D@std@@V?$allocator@D@2@@std@@V?$basic_string@GU?$char_traits@G@std@@V?$allocator@G@2@@2@@std@@@2@$0A@@std@@@std@@QAEAAV012@XZ ; std::_Tree<std::_Tmap_traits<std::basic_string<char,std::char_traits<char>,std::allocator<char> >,std::basic_string<unsigned short,std::char_traits<unsigned short>,std::allocator<unsigned short> >,std::less<std::basic_string<char,std::char_traits<char>,std::allocator<char> > >,std::allocator<std::pair<std::basic_string<char,std::char_traits<char>,std::allocator<char> > const ,std::basic_string<unsigned short,std::char_traits<unsigned short>,std::allocator<unsigned short> > > >,0> >::const_iterator::operator++
	mov	ecx, eax
	call	??8const_iterator@?$_Tree@V?$_Tmap_traits@V?$basic_string@DU?$char_traits@D@std@@V?$allocator@D@2@@std@@V?$basic_string@GU?$char_traits@G@std@@V?$allocator@G@2@@2@U?$less@V?$basic_string@DU?$char_traits@D@std@@V?$allocator@D@2@@std@@@2@V?$allocator@U?$pair@$$CBV?$basic_string@DU?$char_traits@D@std@@V?$allocator@D@2@@std@@V?$basic_string@GU?$char_traits@G@std@@V?$allocator@G@2@@2@@std@@@2@$0A@@std@@@std@@QBE_NABV012@@Z ; std::_Tree<std::_Tmap_traits<std::basic_string<char,std::char_traits<char>,std::allocator<char> >,std::basic_string<unsigned short,std::char_traits<unsigned short>,std::allocator<unsigned short> >,std::less<std::basic_string<char,std::char_traits<char>,std::allocator<char> > >,std::allocator<std::pair<std::basic_string<char,std::char_traits<char>,std::allocator<char> > const ,std::basic_string<unsigned short,std::char_traits<unsigned short>,std::allocator<unsigned short> > > >,0> >::const_iterator::operator==
	movzx	eax, al
	test	eax, eax
	jne	SHORT $LN18@insert
	mov	ecx, DWORD PTR __Val$[ebp]
	push	ecx
	call	?_Kfn@?$_Tmap_traits@V?$basic_string@DU?$char_traits@D@std@@V?$allocator@D@2@@std@@V?$basic_string@GU?$char_traits@G@std@@V?$allocator@G@2@@2@U?$less@V?$basic_string@DU?$char_traits@D@std@@V?$allocator@D@2@@std@@@2@V?$allocator@U?$pair@$$CBV?$basic_string@DU?$char_traits@D@std@@V?$allocator@D@2@@std@@V?$basic_string@GU?$char_traits@G@std@@V?$allocator@G@2@@2@@std@@@2@$0A@@std@@SAABV?$basic_string@DU?$char_traits@D@std@@V?$allocator@D@2@@2@ABU?$pair@$$CBV?$basic_string@DU?$char_traits@D@std@@V?$allocator@D@2@@std@@V?$basic_string@GU?$char_traits@G@std@@V?$allocator@G@2@@2@@2@@Z ; std::_Tmap_traits<std::basic_string<char,std::char_traits<char>,std::allocator<char> >,std::basic_string<unsigned short,std::char_traits<unsigned short>,std::allocator<unsigned short> >,std::less<std::basic_string<char,std::char_traits<char>,std::allocator<char> > >,std::allocator<std::pair<std::basic_string<char,std::char_traits<char>,std::allocator<char> > const ,std::basic_string<unsigned short,std::char_traits<unsigned short>,std::allocator<unsigned short> > > >,0>::_Kfn
	add	esp, 4
	push	eax
	lea	ecx, DWORD PTR __Next$[ebp]
	call	?_Mynode@const_iterator@?$_Tree@V?$_Tmap_traits@V?$basic_string@DU?$char_traits@D@std@@V?$allocator@D@2@@std@@V?$basic_string@GU?$char_traits@G@std@@V?$allocator@G@2@@2@U?$less@V?$basic_string@DU?$char_traits@D@std@@V?$allocator@D@2@@std@@@2@V?$allocator@U?$pair@$$CBV?$basic_string@DU?$char_traits@D@std@@V?$allocator@D@2@@std@@V?$basic_string@GU?$char_traits@G@std@@V?$allocator@G@2@@2@@std@@@2@$0A@@std@@@std@@QBEPAU_Node@?$_Tree_nod@V?$_Tmap_traits@V?$basic_string@DU?$char_traits@D@std@@V?$allocator@D@2@@std@@V?$basic_string@GU?$char_traits@G@std@@V?$allocator@G@2@@2@U?$less@V?$basic_string@DU?$char_traits@D@std@@V?$allocator@D@2@@std@@@2@V?$allocator@U?$pair@$$CBV?$basic_string@DU?$char_traits@D@std@@V?$allocator@D@2@@std@@V?$basic_string@GU?$char_traits@G@std@@V?$allocator@G@2@@2@@std@@@2@$0A@@std@@@3@XZ ; std::_Tree<std::_Tmap_traits<std::basic_string<char,std::char_traits<char>,std::allocator<char> >,std::basic_string<unsigned short,std::char_traits<unsigned short>,std::allocator<unsigned short> >,std::less<std::basic_string<char,std::char_traits<char>,std::allocator<char> > >,std::allocator<std::pair<std::basic_string<char,std::char_traits<char>,std::allocator<char> > const ,std::basic_string<unsigned short,std::char_traits<unsigned short>,std::allocator<unsigned short> > > >,0> >::const_iterator::_Mynode
	push	eax
	call	?_Key@?$_Tree@V?$_Tmap_traits@V?$basic_string@DU?$char_traits@D@std@@V?$allocator@D@2@@std@@V?$basic_string@GU?$char_traits@G@std@@V?$allocator@G@2@@2@U?$less@V?$basic_string@DU?$char_traits@D@std@@V?$allocator@D@2@@std@@@2@V?$allocator@U?$pair@$$CBV?$basic_string@DU?$char_traits@D@std@@V?$allocator@D@2@@std@@V?$basic_string@GU?$char_traits@G@std@@V?$allocator@G@2@@2@@std@@@2@$0A@@std@@@std@@KAABV?$basic_string@DU?$char_traits@D@std@@V?$allocator@D@2@@2@PAU_Node@?$_Tree_nod@V?$_Tmap_traits@V?$basic_string@DU?$char_traits@D@std@@V?$allocator@D@2@@std@@V?$basic_string@GU?$char_traits@G@std@@V?$allocator@G@2@@2@U?$less@V?$basic_string@DU?$char_traits@D@std@@V?$allocator@D@2@@std@@@2@V?$allocator@U?$pair@$$CBV?$basic_string@DU?$char_traits@D@std@@V?$allocator@D@2@@std@@V?$basic_string@GU?$char_traits@G@std@@V?$allocator@G@2@@2@@std@@@2@$0A@@std@@@2@@Z ; std::_Tree<std::_Tmap_traits<std::basic_string<char,std::char_traits<char>,std::allocator<char> >,std::basic_string<unsigned short,std::char_traits<unsigned short>,std::allocator<unsigned short> >,std::less<std::basic_string<char,std::char_traits<char>,std::allocator<char> > >,std::allocator<std::pair<std::basic_string<char,std::char_traits<char>,std::allocator<char> > const ,std::basic_string<unsigned short,std::char_traits<unsigned short>,std::allocator<unsigned short> > > >,0> >::_Key
	add	esp, 4
	push	eax
	mov	ecx, DWORD PTR _this$[ebp]
	add	ecx, 8
	call	??R?$less@V?$basic_string@DU?$char_traits@D@std@@V?$allocator@D@2@@std@@@std@@QBE_NABV?$basic_string@DU?$char_traits@D@std@@V?$allocator@D@2@@1@0@Z ; std::less<std::basic_string<char,std::char_traits<char>,std::allocator<char> > >::operator()
	movzx	edx, al
	test	edx, edx
	jne	SHORT $LN27@insert
$LN18@insert:
; Line 705
	lea	ecx, DWORD PTR __Where$[ebp]
	call	?_Mynode@const_iterator@?$_Tree@V?$_Tmap_traits@V?$basic_string@DU?$char_traits@D@std@@V?$allocator@D@2@@std@@V?$basic_string@GU?$char_traits@G@std@@V?$allocator@G@2@@2@U?$less@V?$basic_string@DU?$char_traits@D@std@@V?$allocator@D@2@@std@@@2@V?$allocator@U?$pair@$$CBV?$basic_string@DU?$char_traits@D@std@@V?$allocator@D@2@@std@@V?$basic_string@GU?$char_traits@G@std@@V?$allocator@G@2@@2@@std@@@2@$0A@@std@@@std@@QBEPAU_Node@?$_Tree_nod@V?$_Tmap_traits@V?$basic_string@DU?$char_traits@D@std@@V?$allocator@D@2@@std@@V?$basic_string@GU?$char_traits@G@std@@V?$allocator@G@2@@2@U?$less@V?$basic_string@DU?$char_traits@D@std@@V?$allocator@D@2@@std@@@2@V?$allocator@U?$pair@$$CBV?$basic_string@DU?$char_traits@D@std@@V?$allocator@D@2@@std@@V?$basic_string@GU?$char_traits@G@std@@V?$allocator@G@2@@2@@std@@@2@$0A@@std@@@3@XZ ; std::_Tree<std::_Tmap_traits<std::basic_string<char,std::char_traits<char>,std::allocator<char> >,std::basic_string<unsigned short,std::char_traits<unsigned short>,std::allocator<unsigned short> >,std::less<std::basic_string<char,std::char_traits<char>,std::allocator<char> > >,std::allocator<std::pair<std::basic_string<char,std::char_traits<char>,std::allocator<char> > const ,std::basic_string<unsigned short,std::char_traits<unsigned short>,std::allocator<unsigned short> > > >,0> >::const_iterator::_Mynode
	push	eax
	call	?_Right@?$_Tree@V?$_Tmap_traits@V?$basic_string@DU?$char_traits@D@std@@V?$allocator@D@2@@std@@V?$basic_string@GU?$char_traits@G@std@@V?$allocator@G@2@@2@U?$less@V?$basic_string@DU?$char_traits@D@std@@V?$allocator@D@2@@std@@@2@V?$allocator@U?$pair@$$CBV?$basic_string@DU?$char_traits@D@std@@V?$allocator@D@2@@std@@V?$basic_string@GU?$char_traits@G@std@@V?$allocator@G@2@@2@@std@@@2@$0A@@std@@@std@@KAAAPAU_Node@?$_Tree_nod@V?$_Tmap_traits@V?$basic_string@DU?$char_traits@D@std@@V?$allocator@D@2@@std@@V?$basic_string@GU?$char_traits@G@std@@V?$allocator@G@2@@2@U?$less@V?$basic_string@DU?$char_traits@D@std@@V?$allocator@D@2@@std@@@2@V?$allocator@U?$pair@$$CBV?$basic_string@DU?$char_traits@D@std@@V?$allocator@D@2@@std@@V?$basic_string@GU?$char_traits@G@std@@V?$allocator@G@2@@2@@std@@@2@$0A@@std@@@2@PAU342@@Z ; std::_Tree<std::_Tmap_traits<std::basic_string<char,std::char_traits<char>,std::allocator<char> >,std::basic_string<unsigned short,std::char_traits<unsigned short>,std::allocator<unsigned short> >,std::less<std::basic_string<char,std::char_traits<char>,std::allocator<char> > >,std::allocator<std::pair<std::basic_string<char,std::char_traits<char>,std::allocator<char> > const ,std::basic_string<unsigned short,std::char_traits<unsigned short>,std::allocator<unsigned short> > > >,0> >::_Right
	add	esp, 4
	mov	eax, DWORD PTR [eax]
	push	eax
	call	?_Isnil@?$_Tree@V?$_Tmap_traits@V?$basic_string@DU?$char_traits@D@std@@V?$allocator@D@2@@std@@V?$basic_string@GU?$char_traits@G@std@@V?$allocator@G@2@@2@U?$less@V?$basic_string@DU?$char_traits@D@std@@V?$allocator@D@2@@std@@@2@V?$allocator@U?$pair@$$CBV?$basic_string@DU?$char_traits@D@std@@V?$allocator@D@2@@std@@V?$basic_string@GU?$char_traits@G@std@@V?$allocator@G@2@@2@@std@@@2@$0A@@std@@@std@@KAAADPAU_Node@?$_Tree_nod@V?$_Tmap_traits@V?$basic_string@DU?$char_traits@D@std@@V?$allocator@D@2@@std@@V?$basic_string@GU?$char_traits@G@std@@V?$allocator@G@2@@2@U?$less@V?$basic_string@DU?$char_traits@D@std@@V?$allocator@D@2@@std@@@2@V?$allocator@U?$pair@$$CBV?$basic_string@DU?$char_traits@D@std@@V?$allocator@D@2@@std@@V?$basic_string@GU?$char_traits@G@std@@V?$allocator@G@2@@2@@std@@@2@$0A@@std@@@2@@Z ; std::_Tree<std::_Tmap_traits<std::basic_string<char,std::char_traits<char>,std::allocator<char> >,std::basic_string<unsigned short,std::char_traits<unsigned short>,std::allocator<unsigned short> >,std::less<std::basic_string<char,std::char_traits<char>,std::allocator<char> > >,std::allocator<std::pair<std::basic_string<char,std::char_traits<char>,std::allocator<char> > const ,std::basic_string<unsigned short,std::char_traits<unsigned short>,std::allocator<unsigned short> > > >,0> >::_Isnil
	add	esp, 4
	movsx	ecx, BYTE PTR [eax]
	test	ecx, ecx
	je	SHORT $LN17@insert
; Line 706
	mov	edx, DWORD PTR __Val$[ebp]
	push	edx
	lea	ecx, DWORD PTR __Where$[ebp]
	call	?_Mynode@const_iterator@?$_Tree@V?$_Tmap_traits@V?$basic_string@DU?$char_traits@D@std@@V?$allocator@D@2@@std@@V?$basic_string@GU?$char_traits@G@std@@V?$allocator@G@2@@2@U?$less@V?$basic_string@DU?$char_traits@D@std@@V?$allocator@D@2@@std@@@2@V?$allocator@U?$pair@$$CBV?$basic_string@DU?$char_traits@D@std@@V?$allocator@D@2@@std@@V?$basic_string@GU?$char_traits@G@std@@V?$allocator@G@2@@2@@std@@@2@$0A@@std@@@std@@QBEPAU_Node@?$_Tree_nod@V?$_Tmap_traits@V?$basic_string@DU?$char_traits@D@std@@V?$allocator@D@2@@std@@V?$basic_string@GU?$char_traits@G@std@@V?$allocator@G@2@@2@U?$less@V?$basic_string@DU?$char_traits@D@std@@V?$allocator@D@2@@std@@@2@V?$allocator@U?$pair@$$CBV?$basic_string@DU?$char_traits@D@std@@V?$allocator@D@2@@std@@V?$basic_string@GU?$char_traits@G@std@@V?$allocator@G@2@@2@@std@@@2@$0A@@std@@@3@XZ ; std::_Tree<std::_Tmap_traits<std::basic_string<char,std::char_traits<char>,std::allocator<char> >,std::basic_string<unsigned short,std::char_traits<unsigned short>,std::allocator<unsigned short> >,std::less<std::basic_string<char,std::char_traits<char>,std::allocator<char> > >,std::allocator<std::pair<std::basic_string<char,std::char_traits<char>,std::allocator<char> > const ,std::basic_string<unsigned short,std::char_traits<unsigned short>,std::allocator<unsigned short> > > >,0> >::const_iterator::_Mynode
	push	eax
	push	0
	mov	eax, DWORD PTR ___$ReturnUdt$[ebp]
	push	eax
	mov	ecx, DWORD PTR _this$[ebp]
	call	?_Insert@?$_Tree@V?$_Tmap_traits@V?$basic_string@DU?$char_traits@D@std@@V?$allocator@D@2@@std@@V?$basic_string@GU?$char_traits@G@std@@V?$allocator@G@2@@2@U?$less@V?$basic_string@DU?$char_traits@D@std@@V?$allocator@D@2@@std@@@2@V?$allocator@U?$pair@$$CBV?$basic_string@DU?$char_traits@D@std@@V?$allocator@D@2@@std@@V?$basic_string@GU?$char_traits@G@std@@V?$allocator@G@2@@2@@std@@@2@$0A@@std@@@std@@IAE?AViterator@12@_NPAU_Node@?$_Tree_nod@V?$_Tmap_traits@V?$basic_string@DU?$char_traits@D@std@@V?$allocator@D@2@@std@@V?$basic_string@GU?$char_traits@G@std@@V?$allocator@G@2@@2@U?$less@V?$basic_string@DU?$char_traits@D@std@@V?$allocator@D@2@@std@@@2@V?$allocator@U?$pair@$$CBV?$basic_string@DU?$char_traits@D@std@@V?$allocator@D@2@@std@@V?$basic_string@GU?$char_traits@G@std@@V?$allocator@G@2@@2@@std@@@2@$0A@@std@@@2@ABU?$pair@$$CBV?$basic_string@DU?$char_traits@D@std@@V?$allocator@D@2@@std@@V?$basic_string@GU?$char_traits@G@std@@V?$allocator@G@2@@2@@2@@Z ; std::_Tree<std::_Tmap_traits<std::basic_string<char,std::char_traits<char>,std::allocator<char> >,std::basic_string<unsigned short,std::char_traits<unsigned short>,std::allocator<unsigned short> >,std::less<std::basic_string<char,std::char_traits<char>,std::allocator<char> > >,std::allocator<std::pair<std::basic_string<char,std::char_traits<char>,std::allocator<char> > const ,std::basic_string<unsigned short,std::char_traits<unsigned short>,std::allocator<unsigned short> > > >,0> >::_Insert
	mov	eax, DWORD PTR ___$ReturnUdt$[ebp]
	jmp	$LN33@insert
; Line 707
	jmp	SHORT $LN27@insert
$LN17@insert:
; Line 708
	mov	ecx, DWORD PTR __Val$[ebp]
	push	ecx
	lea	ecx, DWORD PTR __Next$[ebp]
	call	?_Mynode@const_iterator@?$_Tree@V?$_Tmap_traits@V?$basic_string@DU?$char_traits@D@std@@V?$allocator@D@2@@std@@V?$basic_string@GU?$char_traits@G@std@@V?$allocator@G@2@@2@U?$less@V?$basic_string@DU?$char_traits@D@std@@V?$allocator@D@2@@std@@@2@V?$allocator@U?$pair@$$CBV?$basic_string@DU?$char_traits@D@std@@V?$allocator@D@2@@std@@V?$basic_string@GU?$char_traits@G@std@@V?$allocator@G@2@@2@@std@@@2@$0A@@std@@@std@@QBEPAU_Node@?$_Tree_nod@V?$_Tmap_traits@V?$basic_string@DU?$char_traits@D@std@@V?$allocator@D@2@@std@@V?$basic_string@GU?$char_traits@G@std@@V?$allocator@G@2@@2@U?$less@V?$basic_string@DU?$char_traits@D@std@@V?$allocator@D@2@@std@@@2@V?$allocator@U?$pair@$$CBV?$basic_string@DU?$char_traits@D@std@@V?$allocator@D@2@@std@@V?$basic_string@GU?$char_traits@G@std@@V?$allocator@G@2@@2@@std@@@2@$0A@@std@@@3@XZ ; std::_Tree<std::_Tmap_traits<std::basic_string<char,std::char_traits<char>,std::allocator<char> >,std::basic_string<unsigned short,std::char_traits<unsigned short>,std::allocator<unsigned short> >,std::less<std::basic_string<char,std::char_traits<char>,std::allocator<char> > >,std::allocator<std::pair<std::basic_string<char,std::char_traits<char>,std::allocator<char> > const ,std::basic_string<unsigned short,std::char_traits<unsigned short>,std::allocator<unsigned short> > > >,0> >::const_iterator::_Mynode
	push	eax
	push	1
	mov	edx, DWORD PTR ___$ReturnUdt$[ebp]
	push	edx
	mov	ecx, DWORD PTR _this$[ebp]
	call	?_Insert@?$_Tree@V?$_Tmap_traits@V?$basic_string@DU?$char_traits@D@std@@V?$allocator@D@2@@std@@V?$basic_string@GU?$char_traits@G@std@@V?$allocator@G@2@@2@U?$less@V?$basic_string@DU?$char_traits@D@std@@V?$allocator@D@2@@std@@@2@V?$allocator@U?$pair@$$CBV?$basic_string@DU?$char_traits@D@std@@V?$allocator@D@2@@std@@V?$basic_string@GU?$char_traits@G@std@@V?$allocator@G@2@@2@@std@@@2@$0A@@std@@@std@@IAE?AViterator@12@_NPAU_Node@?$_Tree_nod@V?$_Tmap_traits@V?$basic_string@DU?$char_traits@D@std@@V?$allocator@D@2@@std@@V?$basic_string@GU?$char_traits@G@std@@V?$allocator@G@2@@2@U?$less@V?$basic_string@DU?$char_traits@D@std@@V?$allocator@D@2@@std@@@2@V?$allocator@U?$pair@$$CBV?$basic_string@DU?$char_traits@D@std@@V?$allocator@D@2@@std@@V?$basic_string@GU?$char_traits@G@std@@V?$allocator@G@2@@2@@std@@@2@$0A@@std@@@2@ABU?$pair@$$CBV?$basic_string@DU?$char_traits@D@std@@V?$allocator@D@2@@std@@V?$basic_string@GU?$char_traits@G@std@@V?$allocator@G@2@@2@@2@@Z ; std::_Tree<std::_Tmap_traits<std::basic_string<char,std::char_traits<char>,std::allocator<char> >,std::basic_string<unsigned short,std::char_traits<unsigned short>,std::allocator<unsigned short> >,std::less<std::basic_string<char,std::char_traits<char>,std::allocator<char> > >,std::allocator<std::pair<std::basic_string<char,std::char_traits<char>,std::allocator<char> > const ,std::basic_string<unsigned short,std::char_traits<unsigned short>,std::allocator<unsigned short> > > >,0> >::_Insert
	mov	eax, DWORD PTR ___$ReturnUdt$[ebp]
	jmp	$LN33@insert
$LN27@insert:
; Line 711
	jmp	$LN31@insert
$LN30@insert:
; Line 713
	lea	eax, DWORD PTR $T146017[ebp]
	push	eax
	mov	ecx, DWORD PTR _this$[ebp]
	call	?begin@?$_Tree@V?$_Tmap_traits@V?$basic_string@DU?$char_traits@D@std@@V?$allocator@D@2@@std@@V?$basic_string@GU?$char_traits@G@std@@V?$allocator@G@2@@2@U?$less@V?$basic_string@DU?$char_traits@D@std@@V?$allocator@D@2@@std@@@2@V?$allocator@U?$pair@$$CBV?$basic_string@DU?$char_traits@D@std@@V?$allocator@D@2@@std@@V?$basic_string@GU?$char_traits@G@std@@V?$allocator@G@2@@2@@std@@@2@$0A@@std@@@std@@QAE?AViterator@12@XZ ; std::_Tree<std::_Tmap_traits<std::basic_string<char,std::char_traits<char>,std::allocator<char> >,std::basic_string<unsigned short,std::char_traits<unsigned short>,std::allocator<unsigned short> >,std::less<std::basic_string<char,std::char_traits<char>,std::allocator<char> > >,std::allocator<std::pair<std::basic_string<char,std::char_traits<char>,std::allocator<char> > const ,std::basic_string<unsigned short,std::char_traits<unsigned short>,std::allocator<unsigned short> > > >,0> >::begin
	push	eax
	lea	ecx, DWORD PTR __Where$[ebp]
	call	??8const_iterator@?$_Tree@V?$_Tmap_traits@V?$basic_string@DU?$char_traits@D@std@@V?$allocator@D@2@@std@@V?$basic_string@GU?$char_traits@G@std@@V?$allocator@G@2@@2@U?$less@V?$basic_string@DU?$char_traits@D@std@@V?$allocator@D@2@@std@@@2@V?$allocator@U?$pair@$$CBV?$basic_string@DU?$char_traits@D@std@@V?$allocator@D@2@@std@@V?$basic_string@GU?$char_traits@G@std@@V?$allocator@G@2@@2@@std@@@2@$0A@@std@@@std@@QBE_NABV012@@Z ; std::_Tree<std::_Tmap_traits<std::basic_string<char,std::char_traits<char>,std::allocator<char> >,std::basic_string<unsigned short,std::char_traits<unsigned short>,std::allocator<unsigned short> >,std::less<std::basic_string<char,std::char_traits<char>,std::allocator<char> > >,std::allocator<std::pair<std::basic_string<char,std::char_traits<char>,std::allocator<char> > const ,std::basic_string<unsigned short,std::char_traits<unsigned short>,std::allocator<unsigned short> > > >,0> >::const_iterator::operator==
	movzx	ecx, al
	test	ecx, ecx
	je	SHORT $LN14@insert
; Line 715
	lea	ecx, DWORD PTR __Where$[ebp]
	call	?_Mynode@const_iterator@?$_Tree@V?$_Tmap_traits@V?$basic_string@DU?$char_traits@D@std@@V?$allocator@D@2@@std@@V?$basic_string@GU?$char_traits@G@std@@V?$allocator@G@2@@2@U?$less@V?$basic_string@DU?$char_traits@D@std@@V?$allocator@D@2@@std@@@2@V?$allocator@U?$pair@$$CBV?$basic_string@DU?$char_traits@D@std@@V?$allocator@D@2@@std@@V?$basic_string@GU?$char_traits@G@std@@V?$allocator@G@2@@2@@std@@@2@$0A@@std@@@std@@QBEPAU_Node@?$_Tree_nod@V?$_Tmap_traits@V?$basic_string@DU?$char_traits@D@std@@V?$allocator@D@2@@std@@V?$basic_string@GU?$char_traits@G@std@@V?$allocator@G@2@@2@U?$less@V?$basic_string@DU?$char_traits@D@std@@V?$allocator@D@2@@std@@@2@V?$allocator@U?$pair@$$CBV?$basic_string@DU?$char_traits@D@std@@V?$allocator@D@2@@std@@V?$basic_string@GU?$char_traits@G@std@@V?$allocator@G@2@@2@@std@@@2@$0A@@std@@@3@XZ ; std::_Tree<std::_Tmap_traits<std::basic_string<char,std::char_traits<char>,std::allocator<char> >,std::basic_string<unsigned short,std::char_traits<unsigned short>,std::allocator<unsigned short> >,std::less<std::basic_string<char,std::char_traits<char>,std::allocator<char> > >,std::allocator<std::pair<std::basic_string<char,std::char_traits<char>,std::allocator<char> > const ,std::basic_string<unsigned short,std::char_traits<unsigned short>,std::allocator<unsigned short> > > >,0> >::const_iterator::_Mynode
	push	eax
	call	?_Key@?$_Tree@V?$_Tmap_traits@V?$basic_string@DU?$char_traits@D@std@@V?$allocator@D@2@@std@@V?$basic_string@GU?$char_traits@G@std@@V?$allocator@G@2@@2@U?$less@V?$basic_string@DU?$char_traits@D@std@@V?$allocator@D@2@@std@@@2@V?$allocator@U?$pair@$$CBV?$basic_string@DU?$char_traits@D@std@@V?$allocator@D@2@@std@@V?$basic_string@GU?$char_traits@G@std@@V?$allocator@G@2@@2@@std@@@2@$0A@@std@@@std@@KAABV?$basic_string@DU?$char_traits@D@std@@V?$allocator@D@2@@2@PAU_Node@?$_Tree_nod@V?$_Tmap_traits@V?$basic_string@DU?$char_traits@D@std@@V?$allocator@D@2@@std@@V?$basic_string@GU?$char_traits@G@std@@V?$allocator@G@2@@2@U?$less@V?$basic_string@DU?$char_traits@D@std@@V?$allocator@D@2@@std@@@2@V?$allocator@U?$pair@$$CBV?$basic_string@DU?$char_traits@D@std@@V?$allocator@D@2@@std@@V?$basic_string@GU?$char_traits@G@std@@V?$allocator@G@2@@2@@std@@@2@$0A@@std@@@2@@Z ; std::_Tree<std::_Tmap_traits<std::basic_string<char,std::char_traits<char>,std::allocator<char> >,std::basic_string<unsigned short,std::char_traits<unsigned short>,std::allocator<unsigned short> >,std::less<std::basic_string<char,std::char_traits<char>,std::allocator<char> > >,std::allocator<std::pair<std::basic_string<char,std::char_traits<char>,std::allocator<char> > const ,std::basic_string<unsigned short,std::char_traits<unsigned short>,std::allocator<unsigned short> > > >,0> >::_Key
	add	esp, 4
	push	eax
	mov	edx, DWORD PTR __Val$[ebp]
	push	edx
	call	?_Kfn@?$_Tmap_traits@V?$basic_string@DU?$char_traits@D@std@@V?$allocator@D@2@@std@@V?$basic_string@GU?$char_traits@G@std@@V?$allocator@G@2@@2@U?$less@V?$basic_string@DU?$char_traits@D@std@@V?$allocator@D@2@@std@@@2@V?$allocator@U?$pair@$$CBV?$basic_string@DU?$char_traits@D@std@@V?$allocator@D@2@@std@@V?$basic_string@GU?$char_traits@G@std@@V?$allocator@G@2@@2@@std@@@2@$0A@@std@@SAABV?$basic_string@DU?$char_traits@D@std@@V?$allocator@D@2@@2@ABU?$pair@$$CBV?$basic_string@DU?$char_traits@D@std@@V?$allocator@D@2@@std@@V?$basic_string@GU?$char_traits@G@std@@V?$allocator@G@2@@2@@2@@Z ; std::_Tmap_traits<std::basic_string<char,std::char_traits<char>,std::allocator<char> >,std::basic_string<unsigned short,std::char_traits<unsigned short>,std::allocator<unsigned short> >,std::less<std::basic_string<char,std::char_traits<char>,std::allocator<char> > >,std::allocator<std::pair<std::basic_string<char,std::char_traits<char>,std::allocator<char> > const ,std::basic_string<unsigned short,std::char_traits<unsigned short>,std::allocator<unsigned short> > > >,0>::_Kfn
	add	esp, 4
	push	eax
	mov	ecx, DWORD PTR _this$[ebp]
	add	ecx, 8
	call	??R?$less@V?$basic_string@DU?$char_traits@D@std@@V?$allocator@D@2@@std@@@std@@QBE_NABV?$basic_string@DU?$char_traits@D@std@@V?$allocator@D@2@@1@0@Z ; std::less<std::basic_string<char,std::char_traits<char>,std::allocator<char> > >::operator()
	movzx	eax, al
	test	eax, eax
	je	SHORT $LN13@insert
; Line 717
	mov	ecx, DWORD PTR __Val$[ebp]
	push	ecx
	lea	ecx, DWORD PTR __Where$[ebp]
	call	?_Mynode@const_iterator@?$_Tree@V?$_Tmap_traits@V?$basic_string@DU?$char_traits@D@std@@V?$allocator@D@2@@std@@V?$basic_string@GU?$char_traits@G@std@@V?$allocator@G@2@@2@U?$less@V?$basic_string@DU?$char_traits@D@std@@V?$allocator@D@2@@std@@@2@V?$allocator@U?$pair@$$CBV?$basic_string@DU?$char_traits@D@std@@V?$allocator@D@2@@std@@V?$basic_string@GU?$char_traits@G@std@@V?$allocator@G@2@@2@@std@@@2@$0A@@std@@@std@@QBEPAU_Node@?$_Tree_nod@V?$_Tmap_traits@V?$basic_string@DU?$char_traits@D@std@@V?$allocator@D@2@@std@@V?$basic_string@GU?$char_traits@G@std@@V?$allocator@G@2@@2@U?$less@V?$basic_string@DU?$char_traits@D@std@@V?$allocator@D@2@@std@@@2@V?$allocator@U?$pair@$$CBV?$basic_string@DU?$char_traits@D@std@@V?$allocator@D@2@@std@@V?$basic_string@GU?$char_traits@G@std@@V?$allocator@G@2@@2@@std@@@2@$0A@@std@@@3@XZ ; std::_Tree<std::_Tmap_traits<std::basic_string<char,std::char_traits<char>,std::allocator<char> >,std::basic_string<unsigned short,std::char_traits<unsigned short>,std::allocator<unsigned short> >,std::less<std::basic_string<char,std::char_traits<char>,std::allocator<char> > >,std::allocator<std::pair<std::basic_string<char,std::char_traits<char>,std::allocator<char> > const ,std::basic_string<unsigned short,std::char_traits<unsigned short>,std::allocator<unsigned short> > > >,0> >::const_iterator::_Mynode
	push	eax
	push	1
	mov	edx, DWORD PTR ___$ReturnUdt$[ebp]
	push	edx
	mov	ecx, DWORD PTR _this$[ebp]
	call	?_Insert@?$_Tree@V?$_Tmap_traits@V?$basic_string@DU?$char_traits@D@std@@V?$allocator@D@2@@std@@V?$basic_string@GU?$char_traits@G@std@@V?$allocator@G@2@@2@U?$less@V?$basic_string@DU?$char_traits@D@std@@V?$allocator@D@2@@std@@@2@V?$allocator@U?$pair@$$CBV?$basic_string@DU?$char_traits@D@std@@V?$allocator@D@2@@std@@V?$basic_string@GU?$char_traits@G@std@@V?$allocator@G@2@@2@@std@@@2@$0A@@std@@@std@@IAE?AViterator@12@_NPAU_Node@?$_Tree_nod@V?$_Tmap_traits@V?$basic_string@DU?$char_traits@D@std@@V?$allocator@D@2@@std@@V?$basic_string@GU?$char_traits@G@std@@V?$allocator@G@2@@2@U?$less@V?$basic_string@DU?$char_traits@D@std@@V?$allocator@D@2@@std@@@2@V?$allocator@U?$pair@$$CBV?$basic_string@DU?$char_traits@D@std@@V?$allocator@D@2@@std@@V?$basic_string@GU?$char_traits@G@std@@V?$allocator@G@2@@2@@std@@@2@$0A@@std@@@2@ABU?$pair@$$CBV?$basic_string@DU?$char_traits@D@std@@V?$allocator@D@2@@std@@V?$basic_string@GU?$char_traits@G@std@@V?$allocator@G@2@@2@@2@@Z ; std::_Tree<std::_Tmap_traits<std::basic_string<char,std::char_traits<char>,std::allocator<char> >,std::basic_string<unsigned short,std::char_traits<unsigned short>,std::allocator<unsigned short> >,std::less<std::basic_string<char,std::char_traits<char>,std::allocator<char> > >,std::allocator<std::pair<std::basic_string<char,std::char_traits<char>,std::allocator<char> > const ,std::basic_string<unsigned short,std::char_traits<unsigned short>,std::allocator<unsigned short> > > >,0> >::_Insert
	mov	eax, DWORD PTR ___$ReturnUdt$[ebp]
	jmp	$LN33@insert
$LN13@insert:
; Line 718
	jmp	$LN31@insert
$LN14@insert:
; Line 719
	lea	eax, DWORD PTR $T146018[ebp]
	push	eax
	mov	ecx, DWORD PTR _this$[ebp]
	call	?end@?$_Tree@V?$_Tmap_traits@V?$basic_string@DU?$char_traits@D@std@@V?$allocator@D@2@@std@@V?$basic_string@GU?$char_traits@G@std@@V?$allocator@G@2@@2@U?$less@V?$basic_string@DU?$char_traits@D@std@@V?$allocator@D@2@@std@@@2@V?$allocator@U?$pair@$$CBV?$basic_string@DU?$char_traits@D@std@@V?$allocator@D@2@@std@@V?$basic_string@GU?$char_traits@G@std@@V?$allocator@G@2@@2@@std@@@2@$0A@@std@@@std@@QAE?AViterator@12@XZ ; std::_Tree<std::_Tmap_traits<std::basic_string<char,std::char_traits<char>,std::allocator<char> >,std::basic_string<unsigned short,std::char_traits<unsigned short>,std::allocator<unsigned short> >,std::less<std::basic_string<char,std::char_traits<char>,std::allocator<char> > >,std::allocator<std::pair<std::basic_string<char,std::char_traits<char>,std::allocator<char> > const ,std::basic_string<unsigned short,std::char_traits<unsigned short>,std::allocator<unsigned short> > > >,0> >::end
	push	eax
	lea	ecx, DWORD PTR __Where$[ebp]
	call	??8const_iterator@?$_Tree@V?$_Tmap_traits@V?$basic_string@DU?$char_traits@D@std@@V?$allocator@D@2@@std@@V?$basic_string@GU?$char_traits@G@std@@V?$allocator@G@2@@2@U?$less@V?$basic_string@DU?$char_traits@D@std@@V?$allocator@D@2@@std@@@2@V?$allocator@U?$pair@$$CBV?$basic_string@DU?$char_traits@D@std@@V?$allocator@D@2@@std@@V?$basic_string@GU?$char_traits@G@std@@V?$allocator@G@2@@2@@std@@@2@$0A@@std@@@std@@QBE_NABV012@@Z ; std::_Tree<std::_Tmap_traits<std::basic_string<char,std::char_traits<char>,std::allocator<char> >,std::basic_string<unsigned short,std::char_traits<unsigned short>,std::allocator<unsigned short> >,std::less<std::basic_string<char,std::char_traits<char>,std::allocator<char> > >,std::allocator<std::pair<std::basic_string<char,std::char_traits<char>,std::allocator<char> > const ,std::basic_string<unsigned short,std::char_traits<unsigned short>,std::allocator<unsigned short> > > >,0> >::const_iterator::operator==
	movzx	ecx, al
	test	ecx, ecx
	je	SHORT $LN11@insert
; Line 721
	mov	edx, DWORD PTR __Val$[ebp]
	push	edx
	call	?_Kfn@?$_Tmap_traits@V?$basic_string@DU?$char_traits@D@std@@V?$allocator@D@2@@std@@V?$basic_string@GU?$char_traits@G@std@@V?$allocator@G@2@@2@U?$less@V?$basic_string@DU?$char_traits@D@std@@V?$allocator@D@2@@std@@@2@V?$allocator@U?$pair@$$CBV?$basic_string@DU?$char_traits@D@std@@V?$allocator@D@2@@std@@V?$basic_string@GU?$char_traits@G@std@@V?$allocator@G@2@@2@@std@@@2@$0A@@std@@SAABV?$basic_string@DU?$char_traits@D@std@@V?$allocator@D@2@@2@ABU?$pair@$$CBV?$basic_string@DU?$char_traits@D@std@@V?$allocator@D@2@@std@@V?$basic_string@GU?$char_traits@G@std@@V?$allocator@G@2@@2@@2@@Z ; std::_Tmap_traits<std::basic_string<char,std::char_traits<char>,std::allocator<char> >,std::basic_string<unsigned short,std::char_traits<unsigned short>,std::allocator<unsigned short> >,std::less<std::basic_string<char,std::char_traits<char>,std::allocator<char> > >,std::allocator<std::pair<std::basic_string<char,std::char_traits<char>,std::allocator<char> > const ,std::basic_string<unsigned short,std::char_traits<unsigned short>,std::allocator<unsigned short> > > >,0>::_Kfn
	add	esp, 4
	push	eax
	mov	ecx, DWORD PTR _this$[ebp]
